
Fatbin elf code:
================
arch = sm_75
code version = [1,7]
host = linux
compile_size = 64bit

64bit elf: type=2, abi=7, sm=75, toolkit=125, flags = 0x4b054b
Sections:
Index Offset   Size ES Align        Type        Flags Link     Info Name
    1     40     5d  0  1            STRTAB       0    0        0 .shstrtab
    2     9d     5d  0  1            STRTAB       0    0        0 .strtab
    3    100     48 18  8            SYMTAB       0    2        3 .symtab
    4    148     20  8  4    CUDA_CALLGRAPH       0    3        0 .nv.callgraph
    5    168     10  8  8    CUDA_RELOCINFO       0    0        0 .nv.rel.action

.section .strtab

.section .shstrtab

.section .symtab
 index           value           size      info    other  shndx    name  
   0               0               0        0        0      0     (null)
 0x1               0               0      0x3        0    0x4     .nv.callgraph
 0x2               0               0      0x3        0    0x5     .nv.rel.action


.nv.callgraph
 <0,-1>
 <0,-2>
 <0,-3>
 <0,-4>


.nv.rel.action
Header : Base Relocation : R_CUDA_CONST_FIELD22_37
Reloc type : Symbol Kind,Addend Shift,Source Position1,length1,Destination Position1,Source Position2,length2,Destination Position2
R_CUDA_CONST_FIELD22_37 : EIVALUE_SYM_KIND_ADDR,0,0,17,37,0,5,54

Fatbin elf code:
================
arch = sm_75
code version = [1,7]
host = linux
compile_size = 64bit

64bit elf: type=2, abi=7, sm=75, toolkit=125, flags = 0x4b054b
Sections:
Index Offset   Size ES Align        Type        Flags Link     Info Name
    1     40   2ad0  0  1            STRTAB       0    0        0 .shstrtab
    2   2b10   3885  0  1            STRTAB       0    0        0 .strtab
    3   6398    4b0 18  8            SYMTAB       0    2       2b .symtab
    4   6848    310  0  1          PROGBITS       0    0        0 .debug_frame
    5   6b58    150  0  4         CUDA_INFO       0    3        0 .nv.info
    6   6ca8    1a8  0  4         CUDA_INFO      40    3       19 .nv.info._ZN3cub17CUB_200400_750_NS28DeviceReduceSingleTileKernelINS0_18DeviceReducePolicyIfyN6thrust20THRUST_200400_750_NS10multipliesIfEEE9Policy600EPfS9_iS6_ffN4cuda3std3__410__identityEEEvT0_T1_T2_T3_T4_T6_
    7   6e50    128  0  4         CUDA_INFO      40    3       1a .nv.info._ZN3cub17CUB_200400_750_NS18DeviceReduceKernelINS0_18DeviceReducePolicyIfyN6thrust20THRUST_200400_750_NS10multipliesIfEEE9Policy600ENS4_20permutation_iteratorINS4_6detail15normal_iteratorINS4_10device_ptrIfEEEENS4_18transform_iteratorIN13strided_rangeISE_E14stride_functorENS4_17counting_iteratorIlNS4_11use_defaultESK_SK_EESK_SK_EEEEyS6_fN4cuda3std3__410__identityEEEvT0_PT3_T1_NS0_13GridEvenShareISV_EET2_T4_
    8   6f78    130  0  4         CUDA_INFO      40    3       1b .nv.info._ZN3cub17CUB_200400_750_NS28DeviceReduceSingleTileKernelINS0_18DeviceReducePolicyIfyN6thrust20THRUST_200400_750_NS10multipliesIfEEE9Policy600ENS4_20permutation_iteratorINS4_6detail15normal_iteratorINS4_10device_ptrIfEEEENS4_18transform_iteratorIN13strided_rangeISE_E14stride_functorENS4_17counting_iteratorIlNS4_11use_defaultESK_SK_EESK_SK_EEEEPfyS6_ffN4cuda3std3__410__identityEEEvT0_T1_T2_T3_T4_T6_
    9   70a8    1a8  0  4         CUDA_INFO      40    3       1c .nv.info._ZN3cub17CUB_200400_750_NS28DeviceReduceSingleTileKernelINS0_18DeviceReducePolicyIfjN6thrust20THRUST_200400_750_NS10multipliesIfEEE9Policy600EPfS9_iS6_ffN4cuda3std3__410__identityEEEvT0_T1_T2_T3_T4_T6_
    a   7250    128  0  4         CUDA_INFO      40    3       1d .nv.info._ZN3cub17CUB_200400_750_NS18DeviceReduceKernelINS0_18DeviceReducePolicyIfjN6thrust20THRUST_200400_750_NS10multipliesIfEEE9Policy600ENS4_20permutation_iteratorINS4_6detail15normal_iteratorINS4_10device_ptrIfEEEENS4_18transform_iteratorIN13strided_rangeISE_E14stride_functorENS4_17counting_iteratorIlNS4_11use_defaultESK_SK_EESK_SK_EEEEjS6_fN4cuda3std3__410__identityEEEvT0_PT3_T1_NS0_13GridEvenShareISV_EET2_T4_
    b   7378    130  0  4         CUDA_INFO      40    3       1e .nv.info._ZN3cub17CUB_200400_750_NS28DeviceReduceSingleTileKernelINS0_18DeviceReducePolicyIfjN6thrust20THRUST_200400_750_NS10multipliesIfEEE9Policy600ENS4_20permutation_iteratorINS4_6detail15normal_iteratorINS4_10device_ptrIfEEEENS4_18transform_iteratorIN13strided_rangeISE_E14stride_functorENS4_17counting_iteratorIlNS4_11use_defaultESK_SK_EESK_SK_EEEEPfjS6_ffN4cuda3std3__410__identityEEEvT0_T1_T2_T3_T4_T6_
    c   74a8     1c  0  4         CUDA_INFO      40    3       1f .nv.info._ZN3cub17CUB_200400_750_NS11EmptyKernelIvEEvv
    d   74c4     20  8  4    CUDA_CALLGRAPH       0    3        0 .nv.callgraph
    e   74e8     10  8  8    CUDA_RELOCINFO       0    0        0 .nv.rel.action
    f   74f8    110 10  8               REL      40    3       11 .rel.nv.constant4
   10   7608     70 10  8               REL      40    3        4 .rel.debug_frame
   11   7678     88  0  8          PROGBITS       2    0        0 .nv.constant4
   12   7700    17d  0  4          PROGBITS      42    0       19 .nv.constant0._ZN3cub17CUB_200400_750_NS28DeviceReduceSingleTileKernelINS0_18DeviceReducePolicyIfyN6thrust20THRUST_200400_750_NS10multipliesIfEEE9Policy600EPfS9_iS6_ffN4cuda3std3__410__identityEEEvT0_T1_T2_T3_T4_T6_
   13   7880    1d2  0  4          PROGBITS      42    0       1a .nv.constant0._ZN3cub17CUB_200400_750_NS18DeviceReduceKernelINS0_18DeviceReducePolicyIfyN6thrust20THRUST_200400_750_NS10multipliesIfEEE9Policy600ENS4_20permutation_iteratorINS4_6detail15normal_iteratorINS4_10device_ptrIfEEEENS4_18transform_iteratorIN13strided_rangeISE_E14stride_functorENS4_17counting_iteratorIlNS4_11use_defaultESK_SK_EESK_SK_EEEEyS6_fN4cuda3std3__410__identityEEEvT0_PT3_T1_NS0_13GridEvenShareISV_EET2_T4_
   14   7a54    191  0  4          PROGBITS      42    0       1b .nv.constant0._ZN3cub17CUB_200400_750_NS28DeviceReduceSingleTileKernelINS0_18DeviceReducePolicyIfyN6thrust20THRUST_200400_750_NS10multipliesIfEEE9Policy600ENS4_20permutation_iteratorINS4_6detail15normal_iteratorINS4_10device_ptrIfEEEENS4_18transform_iteratorIN13strided_rangeISE_E14stride_functorENS4_17counting_iteratorIlNS4_11use_defaultESK_SK_EESK_SK_EEEEPfyS6_ffN4cuda3std3__410__identityEEEvT0_T1_T2_T3_T4_T6_
   15   7be8    17d  0  4          PROGBITS      42    0       1c .nv.constant0._ZN3cub17CUB_200400_750_NS28DeviceReduceSingleTileKernelINS0_18DeviceReducePolicyIfjN6thrust20THRUST_200400_750_NS10multipliesIfEEE9Policy600EPfS9_iS6_ffN4cuda3std3__410__identityEEEvT0_T1_T2_T3_T4_T6_
   16   7d68    1ae  0  4          PROGBITS      42    0       1d .nv.constant0._ZN3cub17CUB_200400_750_NS18DeviceReduceKernelINS0_18DeviceReducePolicyIfjN6thrust20THRUST_200400_750_NS10multipliesIfEEE9Policy600ENS4_20permutation_iteratorINS4_6detail15normal_iteratorINS4_10device_ptrIfEEEENS4_18transform_iteratorIN13strided_rangeISE_E14stride_functorENS4_17counting_iteratorIlNS4_11use_defaultESK_SK_EESK_SK_EEEEjS6_fN4cuda3std3__410__identityEEEvT0_PT3_T1_NS0_13GridEvenShareISV_EET2_T4_
   17   7f18    18d  0  4          PROGBITS      42    0       1e .nv.constant0._ZN3cub17CUB_200400_750_NS28DeviceReduceSingleTileKernelINS0_18DeviceReducePolicyIfjN6thrust20THRUST_200400_750_NS10multipliesIfEEE9Policy600ENS4_20permutation_iteratorINS4_6detail15normal_iteratorINS4_10device_ptrIfEEEENS4_18transform_iteratorIN13strided_rangeISE_E14stride_functorENS4_17counting_iteratorIlNS4_11use_defaultESK_SK_EESK_SK_EEEEPfjS6_ffN4cuda3std3__410__identityEEEvT0_T1_T2_T3_T4_T6_
   18   80a8    160  0  4          PROGBITS      42    0       1f .nv.constant0._ZN3cub17CUB_200400_750_NS11EmptyKernelIvEEvv
   19   8280   3f80  0 80          PROGBITS  100006    3 2d00002b .text._ZN3cub17CUB_200400_750_NS28DeviceReduceSingleTileKernelINS0_18DeviceReducePolicyIfyN6thrust20THRUST_200400_750_NS10multipliesIfEEE9Policy600EPfS9_iS6_ffN4cuda3std3__410__identityEEEvT0_T1_T2_T3_T4_T6_
   1a   c200   2d80  0 80          PROGBITS  100006    3 2c00002c .text._ZN3cub17CUB_200400_750_NS18DeviceReduceKernelINS0_18DeviceReducePolicyIfyN6thrust20THRUST_200400_750_NS10multipliesIfEEE9Policy600ENS4_20permutation_iteratorINS4_6detail15normal_iteratorINS4_10device_ptrIfEEEENS4_18transform_iteratorIN13strided_rangeISE_E14stride_functorENS4_17counting_iteratorIlNS4_11use_defaultESK_SK_EESK_SK_EEEEyS6_fN4cuda3std3__410__identityEEEvT0_PT3_T1_NS0_13GridEvenShareISV_EET2_T4_
   1b   ef80   2d00  0 80          PROGBITS  100006    3 2e00002d .text._ZN3cub17CUB_200400_750_NS28DeviceReduceSingleTileKernelINS0_18DeviceReducePolicyIfyN6thrust20THRUST_200400_750_NS10multipliesIfEEE9Policy600ENS4_20permutation_iteratorINS4_6detail15normal_iteratorINS4_10device_ptrIfEEEENS4_18transform_iteratorIN13strided_rangeISE_E14stride_functorENS4_17counting_iteratorIlNS4_11use_defaultESK_SK_EESK_SK_EEEEPfyS6_ffN4cuda3std3__410__identityEEEvT0_T1_T2_T3_T4_T6_
   1c  11c80   3f80  0 80          PROGBITS  100006    3 2d00002e .text._ZN3cub17CUB_200400_750_NS28DeviceReduceSingleTileKernelINS0_18DeviceReducePolicyIfjN6thrust20THRUST_200400_750_NS10multipliesIfEEE9Policy600EPfS9_iS6_ffN4cuda3std3__410__identityEEEvT0_T1_T2_T3_T4_T6_
   1d  15c00   4300  0 80          PROGBITS  100006    3 3200002f .text._ZN3cub17CUB_200400_750_NS18DeviceReduceKernelINS0_18DeviceReducePolicyIfjN6thrust20THRUST_200400_750_NS10multipliesIfEEE9Policy600ENS4_20permutation_iteratorINS4_6detail15normal_iteratorINS4_10device_ptrIfEEEENS4_18transform_iteratorIN13strided_rangeISE_E14stride_functorENS4_17counting_iteratorIlNS4_11use_defaultESK_SK_EESK_SK_EEEEjS6_fN4cuda3std3__410__identityEEEvT0_PT3_T1_NS0_13GridEvenShareISV_EET2_T4_
   1e  19f00   4200  0 80          PROGBITS  100006    3 2e000030 .text._ZN3cub17CUB_200400_750_NS28DeviceReduceSingleTileKernelINS0_18DeviceReducePolicyIfjN6thrust20THRUST_200400_750_NS10multipliesIfEEE9Policy600ENS4_20permutation_iteratorINS4_6detail15normal_iteratorINS4_10device_ptrIfEEEENS4_18transform_iteratorIN13strided_rangeISE_E14stride_functorENS4_17counting_iteratorIlNS4_11use_defaultESK_SK_EESK_SK_EEEEPfjS6_ffN4cuda3std3__410__identityEEEvT0_T1_T2_T3_T4_T6_
   1f  1e100     80  0 80          PROGBITS       6    3  4000031 .text._ZN3cub17CUB_200400_750_NS11EmptyKernelIvEEvv
   20  1e180     2c  0  4            NOBITS      43    0       19 .nv.shared._ZN3cub17CUB_200400_750_NS28DeviceReduceSingleTileKernelINS0_18DeviceReducePolicyIfyN6thrust20THRUST_200400_750_NS10multipliesIfEEE9Policy600EPfS9_iS6_ffN4cuda3std3__410__identityEEEvT0_T1_T2_T3_T4_T6_
   21  1e180     11  0  1            NOBITS       3    0        0 .nv.global
   22  1e180     2c  0  4            NOBITS      43    0       1a .nv.shared._ZN3cub17CUB_200400_750_NS18DeviceReduceKernelINS0_18DeviceReducePolicyIfyN6thrust20THRUST_200400_750_NS10multipliesIfEEE9Policy600ENS4_20permutation_iteratorINS4_6detail15normal_iteratorINS4_10device_ptrIfEEEENS4_18transform_iteratorIN13strided_rangeISE_E14stride_functorENS4_17counting_iteratorIlNS4_11use_defaultESK_SK_EESK_SK_EEEEyS6_fN4cuda3std3__410__identityEEEvT0_PT3_T1_NS0_13GridEvenShareISV_EET2_T4_
   23  1e180     2c  0  4            NOBITS      43    0       1b .nv.shared._ZN3cub17CUB_200400_750_NS28DeviceReduceSingleTileKernelINS0_18DeviceReducePolicyIfyN6thrust20THRUST_200400_750_NS10multipliesIfEEE9Policy600ENS4_20permutation_iteratorINS4_6detail15normal_iteratorINS4_10device_ptrIfEEEENS4_18transform_iteratorIN13strided_rangeISE_E14stride_functorENS4_17counting_iteratorIlNS4_11use_defaultESK_SK_EESK_SK_EEEEPfyS6_ffN4cuda3std3__410__identityEEEvT0_T1_T2_T3_T4_T6_
   24  1e180     2c  0  4            NOBITS      43    0       1c .nv.shared._ZN3cub17CUB_200400_750_NS28DeviceReduceSingleTileKernelINS0_18DeviceReducePolicyIfjN6thrust20THRUST_200400_750_NS10multipliesIfEEE9Policy600EPfS9_iS6_ffN4cuda3std3__410__identityEEEvT0_T1_T2_T3_T4_T6_
   25  1e180     2c  0  4            NOBITS      43    0       1d .nv.shared._ZN3cub17CUB_200400_750_NS18DeviceReduceKernelINS0_18DeviceReducePolicyIfjN6thrust20THRUST_200400_750_NS10multipliesIfEEE9Policy600ENS4_20permutation_iteratorINS4_6detail15normal_iteratorINS4_10device_ptrIfEEEENS4_18transform_iteratorIN13strided_rangeISE_E14stride_functorENS4_17counting_iteratorIlNS4_11use_defaultESK_SK_EESK_SK_EEEEjS6_fN4cuda3std3__410__identityEEEvT0_PT3_T1_NS0_13GridEvenShareISV_EET2_T4_
   26  1e180     2c  0  4            NOBITS      43    0       1e .nv.shared._ZN3cub17CUB_200400_750_NS28DeviceReduceSingleTileKernelINS0_18DeviceReducePolicyIfjN6thrust20THRUST_200400_750_NS10multipliesIfEEE9Policy600ENS4_20permutation_iteratorINS4_6detail15normal_iteratorINS4_10device_ptrIfEEEENS4_18transform_iteratorIN13strided_rangeISE_E14stride_functorENS4_17counting_iteratorIlNS4_11use_defaultESK_SK_EESK_SK_EEEEPfjS6_ffN4cuda3std3__410__identityEEEvT0_T1_T2_T3_T4_T6_

.section .strtab

.section .shstrtab

.section .symtab
 index           value           size      info    other  shndx    name  
   0               0               0        0        0      0     (null)
 0x1               0               0      0x3        0   0x19     .text._ZN3cub17CUB_200400_750_NS28DeviceReduceSingleTileKernelINS0_18DeviceReducePolicyIfyN6thrust20THRUST_200400_750_NS10multipliesIfEEE9Policy600EPfS9_iS6_ffN4cuda3std3__410__identityEEEvT0_T1_T2_T3_T4_T6_
 0x2               0               0      0x3        0   0x20     .nv.shared._ZN3cub17CUB_200400_750_NS28DeviceReduceSingleTileKernelINS0_18DeviceReducePolicyIfyN6thrust20THRUST_200400_750_NS10multipliesIfEEE9Policy600EPfS9_iS6_ffN4cuda3std3__410__identityEEEvT0_T1_T2_T3_T4_T6_
 0x3               0               0      0x3        0   0x21     .nv.global
 0x4               0             0x1      0x1        0   0x21     _ZN33_INTERNAL_8ec89279_7_main_cu_main4cuda3std3__435_GLOBAL__N__8ec89279_7_main_cu_main6ignoreE
 0x5               0               0      0x3        0   0x11     .nv.constant4
 0x6             0xe             0x1      0x1        0   0x21     _ZN33_INTERNAL_8ec89279_7_main_cu_main4cuda3std3__48in_placeE
 0x7             0x6             0x1      0x1        0   0x21     _ZN33_INTERNAL_8ec89279_7_main_cu_main4cuda3std6ranges3__45__cpo4swapE
 0x8             0xa             0x1      0x1        0   0x21     _ZN33_INTERNAL_8ec89279_7_main_cu_main6thrust20THRUST_200400_750_NS6system6detail10sequential3seqE
 0x9             0x4             0x1      0x1        0   0x21     _ZN33_INTERNAL_8ec89279_7_main_cu_main6thrust20THRUST_200400_750_NS8cuda_cub3parE
 0xa            0x10             0x1      0x1        0   0x21     _ZN33_INTERNAL_8ec89279_7_main_cu_main6thrust20THRUST_200400_750_NS8cuda_cub10par_nosyncE
 0xb             0x8             0x1      0x1        0   0x21     _ZN33_INTERNAL_8ec89279_7_main_cu_main6thrust20THRUST_200400_750_NS12placeholders2_1E
 0xc             0xc             0x1      0x1        0   0x21     _ZN33_INTERNAL_8ec89279_7_main_cu_main6thrust20THRUST_200400_750_NS12placeholders2_2E
 0xd             0x2             0x1      0x1        0   0x21     _ZN33_INTERNAL_8ec89279_7_main_cu_main6thrust20THRUST_200400_750_NS12placeholders2_3E
 0xe             0xd             0x1      0x1        0   0x21     _ZN33_INTERNAL_8ec89279_7_main_cu_main6thrust20THRUST_200400_750_NS12placeholders2_4E
 0xf             0x5             0x1      0x1        0   0x21     _ZN33_INTERNAL_8ec89279_7_main_cu_main6thrust20THRUST_200400_750_NS12placeholders2_5E
 0x10             0x9             0x1      0x1        0   0x21     _ZN33_INTERNAL_8ec89279_7_main_cu_main6thrust20THRUST_200400_750_NS12placeholders2_6E
 0x11             0x3             0x1      0x1        0   0x21     _ZN33_INTERNAL_8ec89279_7_main_cu_main6thrust20THRUST_200400_750_NS12placeholders2_7E
 0x12             0xf             0x1      0x1        0   0x21     _ZN33_INTERNAL_8ec89279_7_main_cu_main6thrust20THRUST_200400_750_NS12placeholders2_8E
 0x13             0x7             0x1      0x1        0   0x21     _ZN33_INTERNAL_8ec89279_7_main_cu_main6thrust20THRUST_200400_750_NS12placeholders2_9E
 0x14             0xb             0x1      0x1        0   0x21     _ZN33_INTERNAL_8ec89279_7_main_cu_main6thrust20THRUST_200400_750_NS12placeholders3_10E
 0x15             0x1             0x1      0x1        0   0x21     _ZN33_INTERNAL_8ec89279_7_main_cu_main6thrust20THRUST_200400_750_NS3seqE
 0x16               0               0      0x3        0   0x12     .nv.constant0._ZN3cub17CUB_200400_750_NS28DeviceReduceSingleTileKernelINS0_18DeviceReducePolicyIfyN6thrust20THRUST_200400_750_NS10multipliesIfEEE9Policy600EPfS9_iS6_ffN4cuda3std3__410__identityEEEvT0_T1_T2_T3_T4_T6_
 0x17               0               0      0x3        0   0x1a     .text._ZN3cub17CUB_200400_750_NS18DeviceReduceKernelINS0_18DeviceReducePolicyIfyN6thrust20THRUST_200400_750_NS10multipliesIfEEE9Policy600ENS4_20permutation_iteratorINS4_6detail15normal_iteratorINS4_10device_ptrIfEEEENS4_18transform_iteratorIN13strided_rangeISE_E14stride_functorENS4_17counting_iteratorIlNS4_11use_defaultESK_SK_EESK_SK_EEEEyS6_fN4cuda3std3__410__identityEEEvT0_PT3_T1_NS0_13GridEvenShareISV_EET2_T4_
 0x18               0               0      0x3        0   0x22     .nv.shared._ZN3cub17CUB_200400_750_NS18DeviceReduceKernelINS0_18DeviceReducePolicyIfyN6thrust20THRUST_200400_750_NS10multipliesIfEEE9Policy600ENS4_20permutation_iteratorINS4_6detail15normal_iteratorINS4_10device_ptrIfEEEENS4_18transform_iteratorIN13strided_rangeISE_E14stride_functorENS4_17counting_iteratorIlNS4_11use_defaultESK_SK_EESK_SK_EEEEyS6_fN4cuda3std3__410__identityEEEvT0_PT3_T1_NS0_13GridEvenShareISV_EET2_T4_
 0x19               0               0      0x3        0   0x13     .nv.constant0._ZN3cub17CUB_200400_750_NS18DeviceReduceKernelINS0_18DeviceReducePolicyIfyN6thrust20THRUST_200400_750_NS10multipliesIfEEE9Policy600ENS4_20permutation_iteratorINS4_6detail15normal_iteratorINS4_10device_ptrIfEEEENS4_18transform_iteratorIN13strided_rangeISE_E14stride_functorENS4_17counting_iteratorIlNS4_11use_defaultESK_SK_EESK_SK_EEEEyS6_fN4cuda3std3__410__identityEEEvT0_PT3_T1_NS0_13GridEvenShareISV_EET2_T4_
 0x1a               0               0      0x3        0   0x1b     .text._ZN3cub17CUB_200400_750_NS28DeviceReduceSingleTileKernelINS0_18DeviceReducePolicyIfyN6thrust20THRUST_200400_750_NS10multipliesIfEEE9Policy600ENS4_20permutation_iteratorINS4_6detail15normal_iteratorINS4_10device_ptrIfEEEENS4_18transform_iteratorIN13strided_rangeISE_E14stride_functorENS4_17counting_iteratorIlNS4_11use_defaultESK_SK_EESK_SK_EEEEPfyS6_ffN4cuda3std3__410__identityEEEvT0_T1_T2_T3_T4_T6_
 0x1b               0               0      0x3        0   0x23     .nv.shared._ZN3cub17CUB_200400_750_NS28DeviceReduceSingleTileKernelINS0_18DeviceReducePolicyIfyN6thrust20THRUST_200400_750_NS10multipliesIfEEE9Policy600ENS4_20permutation_iteratorINS4_6detail15normal_iteratorINS4_10device_ptrIfEEEENS4_18transform_iteratorIN13strided_rangeISE_E14stride_functorENS4_17counting_iteratorIlNS4_11use_defaultESK_SK_EESK_SK_EEEEPfyS6_ffN4cuda3std3__410__identityEEEvT0_T1_T2_T3_T4_T6_
 0x1c               0               0      0x3        0   0x14     .nv.constant0._ZN3cub17CUB_200400_750_NS28DeviceReduceSingleTileKernelINS0_18DeviceReducePolicyIfyN6thrust20THRUST_200400_750_NS10multipliesIfEEE9Policy600ENS4_20permutation_iteratorINS4_6detail15normal_iteratorINS4_10device_ptrIfEEEENS4_18transform_iteratorIN13strided_rangeISE_E14stride_functorENS4_17counting_iteratorIlNS4_11use_defaultESK_SK_EESK_SK_EEEEPfyS6_ffN4cuda3std3__410__identityEEEvT0_T1_T2_T3_T4_T6_
 0x1d               0               0      0x3        0   0x1c     .text._ZN3cub17CUB_200400_750_NS28DeviceReduceSingleTileKernelINS0_18DeviceReducePolicyIfjN6thrust20THRUST_200400_750_NS10multipliesIfEEE9Policy600EPfS9_iS6_ffN4cuda3std3__410__identityEEEvT0_T1_T2_T3_T4_T6_
 0x1e               0               0      0x3        0   0x24     .nv.shared._ZN3cub17CUB_200400_750_NS28DeviceReduceSingleTileKernelINS0_18DeviceReducePolicyIfjN6thrust20THRUST_200400_750_NS10multipliesIfEEE9Policy600EPfS9_iS6_ffN4cuda3std3__410__identityEEEvT0_T1_T2_T3_T4_T6_
 0x1f               0               0      0x3        0   0x15     .nv.constant0._ZN3cub17CUB_200400_750_NS28DeviceReduceSingleTileKernelINS0_18DeviceReducePolicyIfjN6thrust20THRUST_200400_750_NS10multipliesIfEEE9Policy600EPfS9_iS6_ffN4cuda3std3__410__identityEEEvT0_T1_T2_T3_T4_T6_
 0x20               0               0      0x3        0   0x1d     .text._ZN3cub17CUB_200400_750_NS18DeviceReduceKernelINS0_18DeviceReducePolicyIfjN6thrust20THRUST_200400_750_NS10multipliesIfEEE9Policy600ENS4_20permutation_iteratorINS4_6detail15normal_iteratorINS4_10device_ptrIfEEEENS4_18transform_iteratorIN13strided_rangeISE_E14stride_functorENS4_17counting_iteratorIlNS4_11use_defaultESK_SK_EESK_SK_EEEEjS6_fN4cuda3std3__410__identityEEEvT0_PT3_T1_NS0_13GridEvenShareISV_EET2_T4_
 0x21               0               0      0x3        0   0x25     .nv.shared._ZN3cub17CUB_200400_750_NS18DeviceReduceKernelINS0_18DeviceReducePolicyIfjN6thrust20THRUST_200400_750_NS10multipliesIfEEE9Policy600ENS4_20permutation_iteratorINS4_6detail15normal_iteratorINS4_10device_ptrIfEEEENS4_18transform_iteratorIN13strided_rangeISE_E14stride_functorENS4_17counting_iteratorIlNS4_11use_defaultESK_SK_EESK_SK_EEEEjS6_fN4cuda3std3__410__identityEEEvT0_PT3_T1_NS0_13GridEvenShareISV_EET2_T4_
 0x22               0               0      0x3        0   0x16     .nv.constant0._ZN3cub17CUB_200400_750_NS18DeviceReduceKernelINS0_18DeviceReducePolicyIfjN6thrust20THRUST_200400_750_NS10multipliesIfEEE9Policy600ENS4_20permutation_iteratorINS4_6detail15normal_iteratorINS4_10device_ptrIfEEEENS4_18transform_iteratorIN13strided_rangeISE_E14stride_functorENS4_17counting_iteratorIlNS4_11use_defaultESK_SK_EESK_SK_EEEEjS6_fN4cuda3std3__410__identityEEEvT0_PT3_T1_NS0_13GridEvenShareISV_EET2_T4_
 0x23               0               0      0x3        0   0x1e     .text._ZN3cub17CUB_200400_750_NS28DeviceReduceSingleTileKernelINS0_18DeviceReducePolicyIfjN6thrust20THRUST_200400_750_NS10multipliesIfEEE9Policy600ENS4_20permutation_iteratorINS4_6detail15normal_iteratorINS4_10device_ptrIfEEEENS4_18transform_iteratorIN13strided_rangeISE_E14stride_functorENS4_17counting_iteratorIlNS4_11use_defaultESK_SK_EESK_SK_EEEEPfjS6_ffN4cuda3std3__410__identityEEEvT0_T1_T2_T3_T4_T6_
 0x24               0               0      0x3        0   0x26     .nv.shared._ZN3cub17CUB_200400_750_NS28DeviceReduceSingleTileKernelINS0_18DeviceReducePolicyIfjN6thrust20THRUST_200400_750_NS10multipliesIfEEE9Policy600ENS4_20permutation_iteratorINS4_6detail15normal_iteratorINS4_10device_ptrIfEEEENS4_18transform_iteratorIN13strided_rangeISE_E14stride_functorENS4_17counting_iteratorIlNS4_11use_defaultESK_SK_EESK_SK_EEEEPfjS6_ffN4cuda3std3__410__identityEEEvT0_T1_T2_T3_T4_T6_
 0x25               0               0      0x3        0   0x17     .nv.constant0._ZN3cub17CUB_200400_750_NS28DeviceReduceSingleTileKernelINS0_18DeviceReducePolicyIfjN6thrust20THRUST_200400_750_NS10multipliesIfEEE9Policy600ENS4_20permutation_iteratorINS4_6detail15normal_iteratorINS4_10device_ptrIfEEEENS4_18transform_iteratorIN13strided_rangeISE_E14stride_functorENS4_17counting_iteratorIlNS4_11use_defaultESK_SK_EESK_SK_EEEEPfjS6_ffN4cuda3std3__410__identityEEEvT0_T1_T2_T3_T4_T6_
 0x26               0               0      0x3        0   0x1f     .text._ZN3cub17CUB_200400_750_NS11EmptyKernelIvEEvv
 0x27               0               0      0x3        0   0x18     .nv.constant0._ZN3cub17CUB_200400_750_NS11EmptyKernelIvEEvv
 0x28               0               0      0x3        0    0x4     .debug_frame
 0x29               0               0      0x3        0    0xd     .nv.callgraph
 0x2a               0               0      0x3        0    0xe     .nv.rel.action
 0x2b               0          0x3f80     0x12     0x10   0x19     _ZN3cub17CUB_200400_750_NS28DeviceReduceSingleTileKernelINS0_18DeviceReducePolicyIfyN6thrust20THRUST_200400_750_NS10multipliesIfEEE9Policy600EPfS9_iS6_ffN4cuda3std3__410__identityEEEvT0_T1_T2_T3_T4_T6_
 0x2c               0          0x2d80     0x12     0x10   0x1a     _ZN3cub17CUB_200400_750_NS18DeviceReduceKernelINS0_18DeviceReducePolicyIfyN6thrust20THRUST_200400_750_NS10multipliesIfEEE9Policy600ENS4_20permutation_iteratorINS4_6detail15normal_iteratorINS4_10device_ptrIfEEEENS4_18transform_iteratorIN13strided_rangeISE_E14stride_functorENS4_17counting_iteratorIlNS4_11use_defaultESK_SK_EESK_SK_EEEEyS6_fN4cuda3std3__410__identityEEEvT0_PT3_T1_NS0_13GridEvenShareISV_EET2_T4_
 0x2d               0          0x2d00     0x12     0x10   0x1b     _ZN3cub17CUB_200400_750_NS28DeviceReduceSingleTileKernelINS0_18DeviceReducePolicyIfyN6thrust20THRUST_200400_750_NS10multipliesIfEEE9Policy600ENS4_20permutation_iteratorINS4_6detail15normal_iteratorINS4_10device_ptrIfEEEENS4_18transform_iteratorIN13strided_rangeISE_E14stride_functorENS4_17counting_iteratorIlNS4_11use_defaultESK_SK_EESK_SK_EEEEPfyS6_ffN4cuda3std3__410__identityEEEvT0_T1_T2_T3_T4_T6_
 0x2e               0          0x3f80     0x12     0x10   0x1c     _ZN3cub17CUB_200400_750_NS28DeviceReduceSingleTileKernelINS0_18DeviceReducePolicyIfjN6thrust20THRUST_200400_750_NS10multipliesIfEEE9Policy600EPfS9_iS6_ffN4cuda3std3__410__identityEEEvT0_T1_T2_T3_T4_T6_
 0x2f               0          0x4300     0x12     0x10   0x1d     _ZN3cub17CUB_200400_750_NS18DeviceReduceKernelINS0_18DeviceReducePolicyIfjN6thrust20THRUST_200400_750_NS10multipliesIfEEE9Policy600ENS4_20permutation_iteratorINS4_6detail15normal_iteratorINS4_10device_ptrIfEEEENS4_18transform_iteratorIN13strided_rangeISE_E14stride_functorENS4_17counting_iteratorIlNS4_11use_defaultESK_SK_EESK_SK_EEEEjS6_fN4cuda3std3__410__identityEEEvT0_PT3_T1_NS0_13GridEvenShareISV_EET2_T4_
 0x30               0          0x4200     0x12     0x10   0x1e     _ZN3cub17CUB_200400_750_NS28DeviceReduceSingleTileKernelINS0_18DeviceReducePolicyIfjN6thrust20THRUST_200400_750_NS10multipliesIfEEE9Policy600ENS4_20permutation_iteratorINS4_6detail15normal_iteratorINS4_10device_ptrIfEEEENS4_18transform_iteratorIN13strided_rangeISE_E14stride_functorENS4_17counting_iteratorIlNS4_11use_defaultESK_SK_EESK_SK_EEEEPfjS6_ffN4cuda3std3__410__identityEEEvT0_T1_T2_T3_T4_T6_
 0x31               0            0x80     0x12     0x10   0x1f     _ZN3cub17CUB_200400_750_NS11EmptyKernelIvEEvv


.nv.constant4
0x00000000 0x00000000 0x00000000 0x00000000
0x00000000 0x00000000 0x00000000 0x00000000
0x00000000 0x00000000 0x00000000 0x00000000
0x00000000 0x00000000 0x00000000 0x00000000
0x00000000 0x00000000 0x00000000 0x00000000
0x00000000 0x00000000 0x00000000 0x00000000
0x00000000 0x00000000 0x00000000 0x00000000
0x00000000 0x00000000 0x00000000 0x00000000
0x00000000 0x00000000 

.section .rel.nv.constant4	REL
0x80    _ZN33_INTERNAL_8ec89279_7_main_cu_main6thrust20THRUST_200400_750_NS3seqE    R_CUDA_64
0x78    _ZN33_INTERNAL_8ec89279_7_main_cu_main6thrust20THRUST_200400_750_NS12placeholders3_10E    R_CUDA_64
0x70    _ZN33_INTERNAL_8ec89279_7_main_cu_main6thrust20THRUST_200400_750_NS12placeholders2_9E    R_CUDA_64
0x68    _ZN33_INTERNAL_8ec89279_7_main_cu_main6thrust20THRUST_200400_750_NS12placeholders2_8E    R_CUDA_64
0x60    _ZN33_INTERNAL_8ec89279_7_main_cu_main6thrust20THRUST_200400_750_NS12placeholders2_7E    R_CUDA_64
0x58    _ZN33_INTERNAL_8ec89279_7_main_cu_main6thrust20THRUST_200400_750_NS12placeholders2_6E    R_CUDA_64
0x50    _ZN33_INTERNAL_8ec89279_7_main_cu_main6thrust20THRUST_200400_750_NS12placeholders2_5E    R_CUDA_64
0x48    _ZN33_INTERNAL_8ec89279_7_main_cu_main6thrust20THRUST_200400_750_NS12placeholders2_4E    R_CUDA_64
0x40    _ZN33_INTERNAL_8ec89279_7_main_cu_main6thrust20THRUST_200400_750_NS12placeholders2_3E    R_CUDA_64
0x38    _ZN33_INTERNAL_8ec89279_7_main_cu_main6thrust20THRUST_200400_750_NS12placeholders2_2E    R_CUDA_64
0x30    _ZN33_INTERNAL_8ec89279_7_main_cu_main6thrust20THRUST_200400_750_NS12placeholders2_1E    R_CUDA_64
0x28    _ZN33_INTERNAL_8ec89279_7_main_cu_main6thrust20THRUST_200400_750_NS8cuda_cub10par_nosyncE    R_CUDA_64
0x20    _ZN33_INTERNAL_8ec89279_7_main_cu_main6thrust20THRUST_200400_750_NS8cuda_cub3parE    R_CUDA_64
0x18    _ZN33_INTERNAL_8ec89279_7_main_cu_main6thrust20THRUST_200400_750_NS6system6detail10sequential3seqE    R_CUDA_64
0x10    _ZN33_INTERNAL_8ec89279_7_main_cu_main4cuda3std6ranges3__45__cpo4swapE    R_CUDA_64
0x8    _ZN33_INTERNAL_8ec89279_7_main_cu_main4cuda3std3__48in_placeE    R_CUDA_64
0x0    _ZN33_INTERNAL_8ec89279_7_main_cu_main4cuda3std3__435_GLOBAL__N__8ec89279_7_main_cu_main6ignoreE    R_CUDA_64


.nv.constant0._ZN3cub17CUB_200400_750_NS28DeviceReduceSingleTileKernelINS0_18DeviceReducePolicyIfyN6thrust20THRUST_200400_750_NS10multipliesIfEEE9Policy600EPfS9_iS6_ffN4cuda3std3__410__identityEEEvT0_T1_T2_T3_T4_T6_
0x00000000 0x00000000 0x00000000 0x00000000
0x00000000 0x00000000 0x00000000 0x00000000
0x00000000 0x00000000 0x00000000 0x00000000
0x00000000 0x00000000 0x00000000 0x00000000
0x00000000 0x00000000 0x00000000 0x00000000
0x00000000 0x00000000 0x00000000 0x00000000
0x00000000 0x00000000 0x00000000 0x00000000
0x00000000 0x00000000 0x00000000 0x00000000
0x00000000 0x00000000 0x00000000 0x00000000
0x00000000 0x00000000 0x00000000 0x00000000
0x00000000 0x00000000 0x00000000 0x00000000
0x00000000 0x00000000 0x00000000 0x00000000
0x00000000 0x00000000 0x00000000 0x00000000
0x00000000 0x00000000 0x00000000 0x00000000
0x00000000 0x00000000 0x00000000 0x00000000
0x00000000 0x00000000 0x00000000 0x00000000
0x00000000 0x00000000 0x00000000 0x00000000
0x00000000 0x00000000 0x00000000 0x00000000
0x00000000 0x00000000 0x00000000 0x00000000
0x00000000 0x00000000 0x00000000 0x00000000
0x00000000 0x00000000 0x00000000 0x00000000
0x00000000 0x00000000 0x00000000 0x00000000
0x00000000 0x00000000 0x00000000 0x00000000
0x00000000 0x00000000 0x00000000 0x00 


.nv.constant0._ZN3cub17CUB_200400_750_NS18DeviceReduceKernelINS0_18DeviceReducePolicyIfyN6thrust20THRUST_200400_750_NS10multipliesIfEEE9Policy600ENS4_20permutation_iteratorINS4_6detail15normal_iteratorINS4_10device_ptrIfEEEENS4_18transform_iteratorIN13strided_rangeISE_E14stride_functorENS4_17counting_iteratorIlNS4_11use_defaultESK_SK_EESK_SK_EEEEyS6_fN4cuda3std3__410__identityEEEvT0_PT3_T1_NS0_13GridEvenShareISV_EET2_T4_
0x00000000 0x00000000 0x00000000 0x00000000
0x00000000 0x00000000 0x00000000 0x00000000
0x00000000 0x00000000 0x00000000 0x00000000
0x00000000 0x00000000 0x00000000 0x00000000
0x00000000 0x00000000 0x00000000 0x00000000
0x00000000 0x00000000 0x00000000 0x00000000
0x00000000 0x00000000 0x00000000 0x00000000
0x00000000 0x00000000 0x00000000 0x00000000
0x00000000 0x00000000 0x00000000 0x00000000
0x00000000 0x00000000 0x00000000 0x00000000
0x00000000 0x00000000 0x00000000 0x00000000
0x00000000 0x00000000 0x00000000 0x00000000
0x00000000 0x00000000 0x00000000 0x00000000
0x00000000 0x00000000 0x00000000 0x00000000
0x00000000 0x00000000 0x00000000 0x00000000
0x00000000 0x00000000 0x00000000 0x00000000
0x00000000 0x00000000 0x00000000 0x00000000
0x00000000 0x00000000 0x00000000 0x00000000
0x00000000 0x00000000 0x00000000 0x00000000
0x00000000 0x00000000 0x00000000 0x00000000
0x00000000 0x00000000 0x00000000 0x00000000
0x00000000 0x00000000 0x00000000 0x00000000
0x00000000 0x00000000 0x00000000 0x00000000
0x00000000 0x00000000 0x00000000 0x00000000
0x00000000 0x00000000 0x00000000 0x00000000
0x00000000 0x00000000 0x00000000 0x00000000
0x00000000 0x00000000 0x00000000 0x00000000
0x00000000 0x00000000 0x00000000 0x00000000
0x00000000 0x00000000 0x00000000 0x00000000
0x00 0x00 


.nv.constant0._ZN3cub17CUB_200400_750_NS28DeviceReduceSingleTileKernelINS0_18DeviceReducePolicyIfyN6thrust20THRUST_200400_750_NS10multipliesIfEEE9Policy600ENS4_20permutation_iteratorINS4_6detail15normal_iteratorINS4_10device_ptrIfEEEENS4_18transform_iteratorIN13strided_rangeISE_E14stride_functorENS4_17counting_iteratorIlNS4_11use_defaultESK_SK_EESK_SK_EEEEPfyS6_ffN4cuda3std3__410__identityEEEvT0_T1_T2_T3_T4_T6_
0x00000000 0x00000000 0x00000000 0x00000000
0x00000000 0x00000000 0x00000000 0x00000000
0x00000000 0x00000000 0x00000000 0x00000000
0x00000000 0x00000000 0x00000000 0x00000000
0x00000000 0x00000000 0x00000000 0x00000000
0x00000000 0x00000000 0x00000000 0x00000000
0x00000000 0x00000000 0x00000000 0x00000000
0x00000000 0x00000000 0x00000000 0x00000000
0x00000000 0x00000000 0x00000000 0x00000000
0x00000000 0x00000000 0x00000000 0x00000000
0x00000000 0x00000000 0x00000000 0x00000000
0x00000000 0x00000000 0x00000000 0x00000000
0x00000000 0x00000000 0x00000000 0x00000000
0x00000000 0x00000000 0x00000000 0x00000000
0x00000000 0x00000000 0x00000000 0x00000000
0x00000000 0x00000000 0x00000000 0x00000000
0x00000000 0x00000000 0x00000000 0x00000000
0x00000000 0x00000000 0x00000000 0x00000000
0x00000000 0x00000000 0x00000000 0x00000000
0x00000000 0x00000000 0x00000000 0x00000000
0x00000000 0x00000000 0x00000000 0x00000000
0x00000000 0x00000000 0x00000000 0x00000000
0x00000000 0x00000000 0x00000000 0x00000000
0x00000000 0x00000000 0x00000000 0x00000000
0x00000000 0x00000000 0x00000000 0x00000000
0x00 


.nv.constant0._ZN3cub17CUB_200400_750_NS28DeviceReduceSingleTileKernelINS0_18DeviceReducePolicyIfjN6thrust20THRUST_200400_750_NS10multipliesIfEEE9Policy600EPfS9_iS6_ffN4cuda3std3__410__identityEEEvT0_T1_T2_T3_T4_T6_
0x00000000 0x00000000 0x00000000 0x00000000
0x00000000 0x00000000 0x00000000 0x00000000
0x00000000 0x00000000 0x00000000 0x00000000
0x00000000 0x00000000 0x00000000 0x00000000
0x00000000 0x00000000 0x00000000 0x00000000
0x00000000 0x00000000 0x00000000 0x00000000
0x00000000 0x00000000 0x00000000 0x00000000
0x00000000 0x00000000 0x00000000 0x00000000
0x00000000 0x00000000 0x00000000 0x00000000
0x00000000 0x00000000 0x00000000 0x00000000
0x00000000 0x00000000 0x00000000 0x00000000
0x00000000 0x00000000 0x00000000 0x00000000
0x00000000 0x00000000 0x00000000 0x00000000
0x00000000 0x00000000 0x00000000 0x00000000
0x00000000 0x00000000 0x00000000 0x00000000
0x00000000 0x00000000 0x00000000 0x00000000
0x00000000 0x00000000 0x00000000 0x00000000
0x00000000 0x00000000 0x00000000 0x00000000
0x00000000 0x00000000 0x00000000 0x00000000
0x00000000 0x00000000 0x00000000 0x00000000
0x00000000 0x00000000 0x00000000 0x00000000
0x00000000 0x00000000 0x00000000 0x00000000
0x00000000 0x00000000 0x00000000 0x00000000
0x00000000 0x00000000 0x00000000 0x00 


.nv.constant0._ZN3cub17CUB_200400_750_NS18DeviceReduceKernelINS0_18DeviceReducePolicyIfjN6thrust20THRUST_200400_750_NS10multipliesIfEEE9Policy600ENS4_20permutation_iteratorINS4_6detail15normal_iteratorINS4_10device_ptrIfEEEENS4_18transform_iteratorIN13strided_rangeISE_E14stride_functorENS4_17counting_iteratorIlNS4_11use_defaultESK_SK_EESK_SK_EEEEjS6_fN4cuda3std3__410__identityEEEvT0_PT3_T1_NS0_13GridEvenShareISV_EET2_T4_
0x00000000 0x00000000 0x00000000 0x00000000
0x00000000 0x00000000 0x00000000 0x00000000
0x00000000 0x00000000 0x00000000 0x00000000
0x00000000 0x00000000 0x00000000 0x00000000
0x00000000 0x00000000 0x00000000 0x00000000
0x00000000 0x00000000 0x00000000 0x00000000
0x00000000 0x00000000 0x00000000 0x00000000
0x00000000 0x00000000 0x00000000 0x00000000
0x00000000 0x00000000 0x00000000 0x00000000
0x00000000 0x00000000 0x00000000 0x00000000
0x00000000 0x00000000 0x00000000 0x00000000
0x00000000 0x00000000 0x00000000 0x00000000
0x00000000 0x00000000 0x00000000 0x00000000
0x00000000 0x00000000 0x00000000 0x00000000
0x00000000 0x00000000 0x00000000 0x00000000
0x00000000 0x00000000 0x00000000 0x00000000
0x00000000 0x00000000 0x00000000 0x00000000
0x00000000 0x00000000 0x00000000 0x00000000
0x00000000 0x00000000 0x00000000 0x00000000
0x00000000 0x00000000 0x00000000 0x00000000
0x00000000 0x00000000 0x00000000 0x00000000
0x00000000 0x00000000 0x00000000 0x00000000
0x00000000 0x00000000 0x00000000 0x00000000
0x00000000 0x00000000 0x00000000 0x00000000
0x00000000 0x00000000 0x00000000 0x00000000
0x00000000 0x00000000 0x00000000 0x00000000
0x00000000 0x00000000 0x00000000 0x00 0x00 


.nv.constant0._ZN3cub17CUB_200400_750_NS28DeviceReduceSingleTileKernelINS0_18DeviceReducePolicyIfjN6thrust20THRUST_200400_750_NS10multipliesIfEEE9Policy600ENS4_20permutation_iteratorINS4_6detail15normal_iteratorINS4_10device_ptrIfEEEENS4_18transform_iteratorIN13strided_rangeISE_E14stride_functorENS4_17counting_iteratorIlNS4_11use_defaultESK_SK_EESK_SK_EEEEPfjS6_ffN4cuda3std3__410__identityEEEvT0_T1_T2_T3_T4_T6_
0x00000000 0x00000000 0x00000000 0x00000000
0x00000000 0x00000000 0x00000000 0x00000000
0x00000000 0x00000000 0x00000000 0x00000000
0x00000000 0x00000000 0x00000000 0x00000000
0x00000000 0x00000000 0x00000000 0x00000000
0x00000000 0x00000000 0x00000000 0x00000000
0x00000000 0x00000000 0x00000000 0x00000000
0x00000000 0x00000000 0x00000000 0x00000000
0x00000000 0x00000000 0x00000000 0x00000000
0x00000000 0x00000000 0x00000000 0x00000000
0x00000000 0x00000000 0x00000000 0x00000000
0x00000000 0x00000000 0x00000000 0x00000000
0x00000000 0x00000000 0x00000000 0x00000000
0x00000000 0x00000000 0x00000000 0x00000000
0x00000000 0x00000000 0x00000000 0x00000000
0x00000000 0x00000000 0x00000000 0x00000000
0x00000000 0x00000000 0x00000000 0x00000000
0x00000000 0x00000000 0x00000000 0x00000000
0x00000000 0x00000000 0x00000000 0x00000000
0x00000000 0x00000000 0x00000000 0x00000000
0x00000000 0x00000000 0x00000000 0x00000000
0x00000000 0x00000000 0x00000000 0x00000000
0x00000000 0x00000000 0x00000000 0x00000000
0x00000000 0x00000000 0x00000000 0x00000000
0x00000000 0x00000000 0x00000000 0x00 


.nv.constant0._ZN3cub17CUB_200400_750_NS11EmptyKernelIvEEvv
0x00000000 0x00000000 0x00000000 0x00000000
0x00000000 0x00000000 0x00000000 0x00000000
0x00000000 0x00000000 0x00000000 0x00000000
0x00000000 0x00000000 0x00000000 0x00000000
0x00000000 0x00000000 0x00000000 0x00000000
0x00000000 0x00000000 0x00000000 0x00000000
0x00000000 0x00000000 0x00000000 0x00000000
0x00000000 0x00000000 0x00000000 0x00000000
0x00000000 0x00000000 0x00000000 0x00000000
0x00000000 0x00000000 0x00000000 0x00000000
0x00000000 0x00000000 0x00000000 0x00000000
0x00000000 0x00000000 0x00000000 0x00000000
0x00000000 0x00000000 0x00000000 0x00000000
0x00000000 0x00000000 0x00000000 0x00000000
0x00000000 0x00000000 0x00000000 0x00000000
0x00000000 0x00000000 0x00000000 0x00000000
0x00000000 0x00000000 0x00000000 0x00000000
0x00000000 0x00000000 0x00000000 0x00000000
0x00000000 0x00000000 0x00000000 0x00000000
0x00000000 0x00000000 0x00000000 0x00000000
0x00000000 0x00000000 0x00000000 0x00000000
0x00000000 0x00000000 0x00000000 0x00000000



.nv.shared._ZN3cub17CUB_200400_750_NS28DeviceReduceSingleTileKernelINS0_18DeviceReducePolicyIfyN6thrust20THRUST_200400_750_NS10multipliesIfEEE9Policy600EPfS9_iS6_ffN4cuda3std3__410__identityEEEvT0_T1_T2_T3_T4_T6_
   No data to be dumped. 


.nv.shared._ZN3cub17CUB_200400_750_NS18DeviceReduceKernelINS0_18DeviceReducePolicyIfyN6thrust20THRUST_200400_750_NS10multipliesIfEEE9Policy600ENS4_20permutation_iteratorINS4_6detail15normal_iteratorINS4_10device_ptrIfEEEENS4_18transform_iteratorIN13strided_rangeISE_E14stride_functorENS4_17counting_iteratorIlNS4_11use_defaultESK_SK_EESK_SK_EEEEyS6_fN4cuda3std3__410__identityEEEvT0_PT3_T1_NS0_13GridEvenShareISV_EET2_T4_
   No data to be dumped. 


.nv.shared._ZN3cub17CUB_200400_750_NS28DeviceReduceSingleTileKernelINS0_18DeviceReducePolicyIfyN6thrust20THRUST_200400_750_NS10multipliesIfEEE9Policy600ENS4_20permutation_iteratorINS4_6detail15normal_iteratorINS4_10device_ptrIfEEEENS4_18transform_iteratorIN13strided_rangeISE_E14stride_functorENS4_17counting_iteratorIlNS4_11use_defaultESK_SK_EESK_SK_EEEEPfyS6_ffN4cuda3std3__410__identityEEEvT0_T1_T2_T3_T4_T6_
   No data to be dumped. 


.nv.shared._ZN3cub17CUB_200400_750_NS28DeviceReduceSingleTileKernelINS0_18DeviceReducePolicyIfjN6thrust20THRUST_200400_750_NS10multipliesIfEEE9Policy600EPfS9_iS6_ffN4cuda3std3__410__identityEEEvT0_T1_T2_T3_T4_T6_
   No data to be dumped. 


.nv.shared._ZN3cub17CUB_200400_750_NS18DeviceReduceKernelINS0_18DeviceReducePolicyIfjN6thrust20THRUST_200400_750_NS10multipliesIfEEE9Policy600ENS4_20permutation_iteratorINS4_6detail15normal_iteratorINS4_10device_ptrIfEEEENS4_18transform_iteratorIN13strided_rangeISE_E14stride_functorENS4_17counting_iteratorIlNS4_11use_defaultESK_SK_EESK_SK_EEEEjS6_fN4cuda3std3__410__identityEEEvT0_PT3_T1_NS0_13GridEvenShareISV_EET2_T4_
   No data to be dumped. 


.nv.shared._ZN3cub17CUB_200400_750_NS28DeviceReduceSingleTileKernelINS0_18DeviceReducePolicyIfjN6thrust20THRUST_200400_750_NS10multipliesIfEEE9Policy600ENS4_20permutation_iteratorINS4_6detail15normal_iteratorINS4_10device_ptrIfEEEENS4_18transform_iteratorIN13strided_rangeISE_E14stride_functorENS4_17counting_iteratorIlNS4_11use_defaultESK_SK_EESK_SK_EEEEPfjS6_ffN4cuda3std3__410__identityEEEvT0_T1_T2_T3_T4_T6_
   No data to be dumped. 


.nv.info
	<0x1>
	Attribute:	EIATTR_REGCOUNT
	Format:	EIFMT_SVAL
	Value:	function: _ZN3cub17CUB_200400_750_NS11EmptyKernelIvEEvv(0x31)	register count: 4
	<0x2>
	Attribute:	EIATTR_MIN_STACK_SIZE
	Format:	EIFMT_SVAL
	Value:	function: _ZN3cub17CUB_200400_750_NS11EmptyKernelIvEEvv(0x31)	min stack size: 0x0
	<0x3>
	Attribute:	EIATTR_FRAME_SIZE
	Format:	EIFMT_SVAL
	Value:	function: _ZN3cub17CUB_200400_750_NS11EmptyKernelIvEEvv(0x31)	frame size: 0x0
	<0x4>
	Attribute:	EIATTR_REGCOUNT
	Format:	EIFMT_SVAL
	Value:	function: _ZN3cub17CUB_200400_750_NS28DeviceReduceSingleTileKernelINS0_18DeviceReducePolicyIfjN6thrust20THRUST_200400_750_NS10multipliesIfEEE9Policy600ENS4_20permutation_iteratorINS4_6detail15normal_iteratorINS4_10device_ptrIfEEEENS4_18transform_iteratorIN13strided_rangeISE_E14stride_functorENS4_17counting_iteratorIlNS4_11use_defaultESK_SK_EESK_SK_EEEEPfjS6_ffN4cuda3std3__410__identityEEEvT0_T1_T2_T3_T4_T6_(0x30)	register count: 46
	<0x5>
	Attribute:	EIATTR_MIN_STACK_SIZE
	Format:	EIFMT_SVAL
	Value:	function: _ZN3cub17CUB_200400_750_NS28DeviceReduceSingleTileKernelINS0_18DeviceReducePolicyIfjN6thrust20THRUST_200400_750_NS10multipliesIfEEE9Policy600ENS4_20permutation_iteratorINS4_6detail15normal_iteratorINS4_10device_ptrIfEEEENS4_18transform_iteratorIN13strided_rangeISE_E14stride_functorENS4_17counting_iteratorIlNS4_11use_defaultESK_SK_EESK_SK_EEEEPfjS6_ffN4cuda3std3__410__identityEEEvT0_T1_T2_T3_T4_T6_(0x30)	min stack size: 0x0
	<0x6>
	Attribute:	EIATTR_FRAME_SIZE
	Format:	EIFMT_SVAL
	Value:	function: _ZN3cub17CUB_200400_750_NS28DeviceReduceSingleTileKernelINS0_18DeviceReducePolicyIfjN6thrust20THRUST_200400_750_NS10multipliesIfEEE9Policy600ENS4_20permutation_iteratorINS4_6detail15normal_iteratorINS4_10device_ptrIfEEEENS4_18transform_iteratorIN13strided_rangeISE_E14stride_functorENS4_17counting_iteratorIlNS4_11use_defaultESK_SK_EESK_SK_EEEEPfjS6_ffN4cuda3std3__410__identityEEEvT0_T1_T2_T3_T4_T6_(0x30)	frame size: 0x0
	<0x7>
	Attribute:	EIATTR_REGCOUNT
	Format:	EIFMT_SVAL
	Value:	function: _ZN3cub17CUB_200400_750_NS18DeviceReduceKernelINS0_18DeviceReducePolicyIfjN6thrust20THRUST_200400_750_NS10multipliesIfEEE9Policy600ENS4_20permutation_iteratorINS4_6detail15normal_iteratorINS4_10device_ptrIfEEEENS4_18transform_iteratorIN13strided_rangeISE_E14stride_functorENS4_17counting_iteratorIlNS4_11use_defaultESK_SK_EESK_SK_EEEEjS6_fN4cuda3std3__410__identityEEEvT0_PT3_T1_NS0_13GridEvenShareISV_EET2_T4_(0x2f)	register count: 50
	<0x8>
	Attribute:	EIATTR_MIN_STACK_SIZE
	Format:	EIFMT_SVAL
	Value:	function: _ZN3cub17CUB_200400_750_NS18DeviceReduceKernelINS0_18DeviceReducePolicyIfjN6thrust20THRUST_200400_750_NS10multipliesIfEEE9Policy600ENS4_20permutation_iteratorINS4_6detail15normal_iteratorINS4_10device_ptrIfEEEENS4_18transform_iteratorIN13strided_rangeISE_E14stride_functorENS4_17counting_iteratorIlNS4_11use_defaultESK_SK_EESK_SK_EEEEjS6_fN4cuda3std3__410__identityEEEvT0_PT3_T1_NS0_13GridEvenShareISV_EET2_T4_(0x2f)	min stack size: 0x0
	<0x9>
	Attribute:	EIATTR_FRAME_SIZE
	Format:	EIFMT_SVAL
	Value:	function: _ZN3cub17CUB_200400_750_NS18DeviceReduceKernelINS0_18DeviceReducePolicyIfjN6thrust20THRUST_200400_750_NS10multipliesIfEEE9Policy600ENS4_20permutation_iteratorINS4_6detail15normal_iteratorINS4_10device_ptrIfEEEENS4_18transform_iteratorIN13strided_rangeISE_E14stride_functorENS4_17counting_iteratorIlNS4_11use_defaultESK_SK_EESK_SK_EEEEjS6_fN4cuda3std3__410__identityEEEvT0_PT3_T1_NS0_13GridEvenShareISV_EET2_T4_(0x2f)	frame size: 0x0
	<0x10>
	Attribute:	EIATTR_REGCOUNT
	Format:	EIFMT_SVAL
	Value:	function: _ZN3cub17CUB_200400_750_NS28DeviceReduceSingleTileKernelINS0_18DeviceReducePolicyIfjN6thrust20THRUST_200400_750_NS10multipliesIfEEE9Policy600EPfS9_iS6_ffN4cuda3std3__410__identityEEEvT0_T1_T2_T3_T4_T6_(0x2e)	register count: 45
	<0x11>
	Attribute:	EIATTR_MIN_STACK_SIZE
	Format:	EIFMT_SVAL
	Value:	function: _ZN3cub17CUB_200400_750_NS28DeviceReduceSingleTileKernelINS0_18DeviceReducePolicyIfjN6thrust20THRUST_200400_750_NS10multipliesIfEEE9Policy600EPfS9_iS6_ffN4cuda3std3__410__identityEEEvT0_T1_T2_T3_T4_T6_(0x2e)	min stack size: 0x0
	<0x12>
	Attribute:	EIATTR_FRAME_SIZE
	Format:	EIFMT_SVAL
	Value:	function: _ZN3cub17CUB_200400_750_NS28DeviceReduceSingleTileKernelINS0_18DeviceReducePolicyIfjN6thrust20THRUST_200400_750_NS10multipliesIfEEE9Policy600EPfS9_iS6_ffN4cuda3std3__410__identityEEEvT0_T1_T2_T3_T4_T6_(0x2e)	frame size: 0x0
	<0x13>
	Attribute:	EIATTR_REGCOUNT
	Format:	EIFMT_SVAL
	Value:	function: _ZN3cub17CUB_200400_750_NS28DeviceReduceSingleTileKernelINS0_18DeviceReducePolicyIfyN6thrust20THRUST_200400_750_NS10multipliesIfEEE9Policy600ENS4_20permutation_iteratorINS4_6detail15normal_iteratorINS4_10device_ptrIfEEEENS4_18transform_iteratorIN13strided_rangeISE_E14stride_functorENS4_17counting_iteratorIlNS4_11use_defaultESK_SK_EESK_SK_EEEEPfyS6_ffN4cuda3std3__410__identityEEEvT0_T1_T2_T3_T4_T6_(0x2d)	register count: 46
	<0x14>
	Attribute:	EIATTR_MIN_STACK_SIZE
	Format:	EIFMT_SVAL
	Value:	function: _ZN3cub17CUB_200400_750_NS28DeviceReduceSingleTileKernelINS0_18DeviceReducePolicyIfyN6thrust20THRUST_200400_750_NS10multipliesIfEEE9Policy600ENS4_20permutation_iteratorINS4_6detail15normal_iteratorINS4_10device_ptrIfEEEENS4_18transform_iteratorIN13strided_rangeISE_E14stride_functorENS4_17counting_iteratorIlNS4_11use_defaultESK_SK_EESK_SK_EEEEPfyS6_ffN4cuda3std3__410__identityEEEvT0_T1_T2_T3_T4_T6_(0x2d)	min stack size: 0x0
	<0x15>
	Attribute:	EIATTR_FRAME_SIZE
	Format:	EIFMT_SVAL
	Value:	function: _ZN3cub17CUB_200400_750_NS28DeviceReduceSingleTileKernelINS0_18DeviceReducePolicyIfyN6thrust20THRUST_200400_750_NS10multipliesIfEEE9Policy600ENS4_20permutation_iteratorINS4_6detail15normal_iteratorINS4_10device_ptrIfEEEENS4_18transform_iteratorIN13strided_rangeISE_E14stride_functorENS4_17counting_iteratorIlNS4_11use_defaultESK_SK_EESK_SK_EEEEPfyS6_ffN4cuda3std3__410__identityEEEvT0_T1_T2_T3_T4_T6_(0x2d)	frame size: 0x0
	<0x16>
	Attribute:	EIATTR_REGCOUNT
	Format:	EIFMT_SVAL
	Value:	function: _ZN3cub17CUB_200400_750_NS18DeviceReduceKernelINS0_18DeviceReducePolicyIfyN6thrust20THRUST_200400_750_NS10multipliesIfEEE9Policy600ENS4_20permutation_iteratorINS4_6detail15normal_iteratorINS4_10device_ptrIfEEEENS4_18transform_iteratorIN13strided_rangeISE_E14stride_functorENS4_17counting_iteratorIlNS4_11use_defaultESK_SK_EESK_SK_EEEEyS6_fN4cuda3std3__410__identityEEEvT0_PT3_T1_NS0_13GridEvenShareISV_EET2_T4_(0x2c)	register count: 44
	<0x17>
	Attribute:	EIATTR_MIN_STACK_SIZE
	Format:	EIFMT_SVAL
	Value:	function: _ZN3cub17CUB_200400_750_NS18DeviceReduceKernelINS0_18DeviceReducePolicyIfyN6thrust20THRUST_200400_750_NS10multipliesIfEEE9Policy600ENS4_20permutation_iteratorINS4_6detail15normal_iteratorINS4_10device_ptrIfEEEENS4_18transform_iteratorIN13strided_rangeISE_E14stride_functorENS4_17counting_iteratorIlNS4_11use_defaultESK_SK_EESK_SK_EEEEyS6_fN4cuda3std3__410__identityEEEvT0_PT3_T1_NS0_13GridEvenShareISV_EET2_T4_(0x2c)	min stack size: 0x0
	<0x18>
	Attribute:	EIATTR_FRAME_SIZE
	Format:	EIFMT_SVAL
	Value:	function: _ZN3cub17CUB_200400_750_NS18DeviceReduceKernelINS0_18DeviceReducePolicyIfyN6thrust20THRUST_200400_750_NS10multipliesIfEEE9Policy600ENS4_20permutation_iteratorINS4_6detail15normal_iteratorINS4_10device_ptrIfEEEENS4_18transform_iteratorIN13strided_rangeISE_E14stride_functorENS4_17counting_iteratorIlNS4_11use_defaultESK_SK_EESK_SK_EEEEyS6_fN4cuda3std3__410__identityEEEvT0_PT3_T1_NS0_13GridEvenShareISV_EET2_T4_(0x2c)	frame size: 0x0
	<0x19>
	Attribute:	EIATTR_REGCOUNT
	Format:	EIFMT_SVAL
	Value:	function: _ZN3cub17CUB_200400_750_NS28DeviceReduceSingleTileKernelINS0_18DeviceReducePolicyIfyN6thrust20THRUST_200400_750_NS10multipliesIfEEE9Policy600EPfS9_iS6_ffN4cuda3std3__410__identityEEEvT0_T1_T2_T3_T4_T6_(0x2b)	register count: 45
	<0x20>
	Attribute:	EIATTR_MIN_STACK_SIZE
	Format:	EIFMT_SVAL
	Value:	function: _ZN3cub17CUB_200400_750_NS28DeviceReduceSingleTileKernelINS0_18DeviceReducePolicyIfyN6thrust20THRUST_200400_750_NS10multipliesIfEEE9Policy600EPfS9_iS6_ffN4cuda3std3__410__identityEEEvT0_T1_T2_T3_T4_T6_(0x2b)	min stack size: 0x0
	<0x21>
	Attribute:	EIATTR_FRAME_SIZE
	Format:	EIFMT_SVAL
	Value:	function: _ZN3cub17CUB_200400_750_NS28DeviceReduceSingleTileKernelINS0_18DeviceReducePolicyIfyN6thrust20THRUST_200400_750_NS10multipliesIfEEE9Policy600EPfS9_iS6_ffN4cuda3std3__410__identityEEEvT0_T1_T2_T3_T4_T6_(0x2b)	frame size: 0x0
	<0x22>
	Attribute:	EIATTR_MIN_STACK_SIZE
	Format:	EIFMT_SVAL
	Value:	function: _ZN3cub17CUB_200400_750_NS28DeviceReduceSingleTileKernelINS0_18DeviceReducePolicyIfyN6thrust20THRUST_200400_750_NS10multipliesIfEEE9Policy600EPfS9_iS6_ffN4cuda3std3__410__identityEEEvT0_T1_T2_T3_T4_T6_(0x2b)	min stack size: 0x0
	<0x23>
	Attribute:	EIATTR_MIN_STACK_SIZE
	Format:	EIFMT_SVAL
	Value:	function: _ZN3cub17CUB_200400_750_NS18DeviceReduceKernelINS0_18DeviceReducePolicyIfyN6thrust20THRUST_200400_750_NS10multipliesIfEEE9Policy600ENS4_20permutation_iteratorINS4_6detail15normal_iteratorINS4_10device_ptrIfEEEENS4_18transform_iteratorIN13strided_rangeISE_E14stride_functorENS4_17counting_iteratorIlNS4_11use_defaultESK_SK_EESK_SK_EEEEyS6_fN4cuda3std3__410__identityEEEvT0_PT3_T1_NS0_13GridEvenShareISV_EET2_T4_(0x2c)	min stack size: 0x0
	<0x24>
	Attribute:	EIATTR_MIN_STACK_SIZE
	Format:	EIFMT_SVAL
	Value:	function: _ZN3cub17CUB_200400_750_NS28DeviceReduceSingleTileKernelINS0_18DeviceReducePolicyIfyN6thrust20THRUST_200400_750_NS10multipliesIfEEE9Policy600ENS4_20permutation_iteratorINS4_6detail15normal_iteratorINS4_10device_ptrIfEEEENS4_18transform_iteratorIN13strided_rangeISE_E14stride_functorENS4_17counting_iteratorIlNS4_11use_defaultESK_SK_EESK_SK_EEEEPfyS6_ffN4cuda3std3__410__identityEEEvT0_T1_T2_T3_T4_T6_(0x2d)	min stack size: 0x0
	<0x25>
	Attribute:	EIATTR_MIN_STACK_SIZE
	Format:	EIFMT_SVAL
	Value:	function: _ZN3cub17CUB_200400_750_NS28DeviceReduceSingleTileKernelINS0_18DeviceReducePolicyIfjN6thrust20THRUST_200400_750_NS10multipliesIfEEE9Policy600EPfS9_iS6_ffN4cuda3std3__410__identityEEEvT0_T1_T2_T3_T4_T6_(0x2e)	min stack size: 0x0
	<0x26>
	Attribute:	EIATTR_MIN_STACK_SIZE
	Format:	EIFMT_SVAL
	Value:	function: _ZN3cub17CUB_200400_750_NS18DeviceReduceKernelINS0_18DeviceReducePolicyIfjN6thrust20THRUST_200400_750_NS10multipliesIfEEE9Policy600ENS4_20permutation_iteratorINS4_6detail15normal_iteratorINS4_10device_ptrIfEEEENS4_18transform_iteratorIN13strided_rangeISE_E14stride_functorENS4_17counting_iteratorIlNS4_11use_defaultESK_SK_EESK_SK_EEEEjS6_fN4cuda3std3__410__identityEEEvT0_PT3_T1_NS0_13GridEvenShareISV_EET2_T4_(0x2f)	min stack size: 0x0
	<0x27>
	Attribute:	EIATTR_MIN_STACK_SIZE
	Format:	EIFMT_SVAL
	Value:	function: _ZN3cub17CUB_200400_750_NS28DeviceReduceSingleTileKernelINS0_18DeviceReducePolicyIfjN6thrust20THRUST_200400_750_NS10multipliesIfEEE9Policy600ENS4_20permutation_iteratorINS4_6detail15normal_iteratorINS4_10device_ptrIfEEEENS4_18transform_iteratorIN13strided_rangeISE_E14stride_functorENS4_17counting_iteratorIlNS4_11use_defaultESK_SK_EESK_SK_EEEEPfjS6_ffN4cuda3std3__410__identityEEEvT0_T1_T2_T3_T4_T6_(0x30)	min stack size: 0x0
	<0x28>
	Attribute:	EIATTR_MIN_STACK_SIZE
	Format:	EIFMT_SVAL
	Value:	function: _ZN3cub17CUB_200400_750_NS11EmptyKernelIvEEvv(0x31)	min stack size: 0x0


.nv.info._ZN3cub17CUB_200400_750_NS28DeviceReduceSingleTileKernelINS0_18DeviceReducePolicyIfyN6thrust20THRUST_200400_750_NS10multipliesIfEEE9Policy600EPfS9_iS6_ffN4cuda3std3__410__identityEEEvT0_T1_T2_T3_T4_T6_
	<0x1>
	Attribute:	EIATTR_SW_WAR
	Format:	EIFMT_SVAL
	Value:	0x1 
	<0x2>
	Attribute:	EIATTR_CUDA_API_VERSION
	Format:	EIFMT_SVAL
	Value:	0x7d 
	<0x3>
	Attribute:	EIATTR_PARAM_CBANK
	Format:	EIFMT_SVAL
	Value:	0x16 0x1d0160 
	<0x4>
	Attribute:	EIATTR_CBANK_PARAM_SIZE
	Format:	EIFMT_HVAL
	Value:	0x1d
	<0x5>
	Attribute:	EIATTR_KPARAM_INFO
	Format:	EIFMT_SVAL
	Value:	Index : 0x0	Ordinal : 0x5	Offset  : 0x1c	Size    : 0x1
		Pointee's logAlignment : 0x0	Space : 0x0	cbank : 0x1f	Parameter Space : CBANK	
	<0x6>
	Attribute:	EIATTR_KPARAM_INFO
	Format:	EIFMT_SVAL
	Value:	Index : 0x0	Ordinal : 0x4	Offset  : 0x18	Size    : 0x4
		Pointee's logAlignment : 0x0	Space : 0x0	cbank : 0x1f	Parameter Space : CBANK	
	<0x7>
	Attribute:	EIATTR_KPARAM_INFO
	Format:	EIFMT_SVAL
	Value:	Index : 0x0	Ordinal : 0x3	Offset  : 0x14	Size    : 0x1
		Pointee's logAlignment : 0x0	Space : 0x0	cbank : 0x1f	Parameter Space : CBANK	
	<0x8>
	Attribute:	EIATTR_KPARAM_INFO
	Format:	EIFMT_SVAL
	Value:	Index : 0x0	Ordinal : 0x2	Offset  : 0x10	Size    : 0x4
		Pointee's logAlignment : 0x0	Space : 0x0	cbank : 0x1f	Parameter Space : CBANK	
	<0x9>
	Attribute:	EIATTR_KPARAM_INFO
	Format:	EIFMT_SVAL
	Value:	Index : 0x0	Ordinal : 0x1	Offset  : 0x8	Size    : 0x8
		Pointee's logAlignment : 0x0	Space : 0x0	cbank : 0x1f	Parameter Space : CBANK	
	<0x10>
	Attribute:	EIATTR_KPARAM_INFO
	Format:	EIFMT_SVAL
	Value:	Index : 0x0	Ordinal : 0x0	Offset  : 0x0	Size    : 0x8
		Pointee's logAlignment : 0x0	Space : 0x0	cbank : 0x1f	Parameter Space : CBANK	
	<0x11>
	Attribute:	EIATTR_MAXREG_COUNT
	Format:	EIFMT_HVAL
	Value:	0xff
	<0x12>
	Attribute:	EIATTR_COOP_GROUP_MASK_REGIDS
	Format:	EIFMT_SVAL
	Value:	0xffffffff 0xffffffff 0xffffffff 0xffffffff 0xffffffff 0xffffffff 0xffffffff 0xffffffff 0xffffffff 0xffffffff 0xffffffff 0xffffffff 0xffffffff 0xffffffff 0xffffffff 0xffffffff 0xffffffff 0xffffffff 0xffffffff 0xffffffff 0xffffffff 0xffffffff 0xffffffff 0xffffffff 0xffffffff 0xffffffff 0xffffffff 0xffffffff 0xffffffff 0xffffffff 
	<0x13>
	Attribute:	EIATTR_COOP_GROUP_INSTR_OFFSETS
	Format:	EIFMT_SVAL
	Value:	0x1000 0x1050 0x1080 0x10b0 0x1100 0x1b00 0x1b50 0x1ba0 0x1be0 0x1c10 0x1de0 0x1e30 0x1e60 0x1e90 0x1ee0 0x2e60 0x2ed0 0x2f20 0x2f50 0x2f80 0x3960 0x39b0 0x3a00 0x3a40 0x3a70 0x3c40 0x3c90 0x3cc0 0x3cf0 0x3d40 
	<0x14>
	Attribute:	EIATTR_EXIT_INSTR_OFFSETS
	Format:	EIFMT_SVAL
	Value:	0x3ea0 0x3ee0 0x3f10 0x3f50 
	<0x15>
	Attribute:	EIATTR_MAX_THREADS
	Format:	EIFMT_SVAL
	Value:	0x100 0x1 0x1 
	<0x16>
	Attribute:	EIATTR_CRS_STACK_SIZE
	Format:	EIFMT_SVAL
	Value:	0x0 


.nv.info._ZN3cub17CUB_200400_750_NS18DeviceReduceKernelINS0_18DeviceReducePolicyIfyN6thrust20THRUST_200400_750_NS10multipliesIfEEE9Policy600ENS4_20permutation_iteratorINS4_6detail15normal_iteratorINS4_10device_ptrIfEEEENS4_18transform_iteratorIN13strided_rangeISE_E14stride_functorENS4_17counting_iteratorIlNS4_11use_defaultESK_SK_EESK_SK_EEEEyS6_fN4cuda3std3__410__identityEEEvT0_PT3_T1_NS0_13GridEvenShareISV_EET2_T4_
	<0x1>
	Attribute:	EIATTR_SW_WAR
	Format:	EIFMT_SVAL
	Value:	0x1 
	<0x2>
	Attribute:	EIATTR_CUDA_API_VERSION
	Format:	EIFMT_SVAL
	Value:	0x7d 
	<0x3>
	Attribute:	EIATTR_PARAM_CBANK
	Format:	EIFMT_SVAL
	Value:	0x19 0x720160 
	<0x4>
	Attribute:	EIATTR_CBANK_PARAM_SIZE
	Format:	EIFMT_HVAL
	Value:	0x72
	<0x5>
	Attribute:	EIATTR_KPARAM_INFO
	Format:	EIFMT_SVAL
	Value:	Index : 0x0	Ordinal : 0x5	Offset  : 0x71	Size    : 0x1
		Pointee's logAlignment : 0x0	Space : 0x0	cbank : 0x1f	Parameter Space : CBANK	
	<0x6>
	Attribute:	EIATTR_KPARAM_INFO
	Format:	EIFMT_SVAL
	Value:	Index : 0x0	Ordinal : 0x4	Offset  : 0x70	Size    : 0x1
		Pointee's logAlignment : 0x0	Space : 0x0	cbank : 0x1f	Parameter Space : CBANK	
	<0x7>
	Attribute:	EIATTR_KPARAM_INFO
	Format:	EIFMT_SVAL
	Value:	Index : 0x0	Ordinal : 0x3	Offset  : 0x28	Size    : 0x48
		Pointee's logAlignment : 0x0	Space : 0x0	cbank : 0x1f	Parameter Space : CBANK	
	<0x8>
	Attribute:	EIATTR_KPARAM_INFO
	Format:	EIFMT_SVAL
	Value:	Index : 0x0	Ordinal : 0x2	Offset  : 0x20	Size    : 0x8
		Pointee's logAlignment : 0x0	Space : 0x0	cbank : 0x1f	Parameter Space : CBANK	
	<0x9>
	Attribute:	EIATTR_KPARAM_INFO
	Format:	EIFMT_SVAL
	Value:	Index : 0x0	Ordinal : 0x1	Offset  : 0x18	Size    : 0x8
		Pointee's logAlignment : 0x0	Space : 0x0	cbank : 0x1f	Parameter Space : CBANK	
	<0x10>
	Attribute:	EIATTR_KPARAM_INFO
	Format:	EIFMT_SVAL
	Value:	Index : 0x0	Ordinal : 0x0	Offset  : 0x0	Size    : 0x18
		Pointee's logAlignment : 0x0	Space : 0x0	cbank : 0x1f	Parameter Space : CBANK	
	<0x11>
	Attribute:	EIATTR_MAXREG_COUNT
	Format:	EIFMT_HVAL
	Value:	0xff
	<0x12>
	Attribute:	EIATTR_COOP_GROUP_MASK_REGIDS
	Format:	EIFMT_SVAL
	Value:	0xffffffff 0xffffffff 0xffffffff 0xffffffff 0xffffffff 0xffffffff 0xffffffff 0xffffffff 0xffffffff 0xffffffff 0xffffffff 0xffffffff 0xffffffff 0xffffffff 0xffffffff 
	<0x13>
	Attribute:	EIATTR_COOP_GROUP_INSTR_OFFSETS
	Format:	EIFMT_SVAL
	Value:	0x1810 0x1860 0x1890 0x18c0 0x1910 0x27a0 0x27f0 0x2830 0x2870 0x28b0 0x2a80 0x2ad0 0x2b00 0x2b30 0x2b80 
	<0x14>
	Attribute:	EIATTR_EXIT_INSTR_OFFSETS
	Format:	EIFMT_SVAL
	Value:	0x2ce0 0x2d40 
	<0x15>
	Attribute:	EIATTR_MAX_THREADS
	Format:	EIFMT_SVAL
	Value:	0x100 0x1 0x1 
	<0x16>
	Attribute:	EIATTR_CRS_STACK_SIZE
	Format:	EIFMT_SVAL
	Value:	0x0 


.nv.info._ZN3cub17CUB_200400_750_NS28DeviceReduceSingleTileKernelINS0_18DeviceReducePolicyIfyN6thrust20THRUST_200400_750_NS10multipliesIfEEE9Policy600ENS4_20permutation_iteratorINS4_6detail15normal_iteratorINS4_10device_ptrIfEEEENS4_18transform_iteratorIN13strided_rangeISE_E14stride_functorENS4_17counting_iteratorIlNS4_11use_defaultESK_SK_EESK_SK_EEEEPfyS6_ffN4cuda3std3__410__identityEEEvT0_T1_T2_T3_T4_T6_
	<0x1>
	Attribute:	EIATTR_SW_WAR
	Format:	EIFMT_SVAL
	Value:	0x1 
	<0x2>
	Attribute:	EIATTR_CUDA_API_VERSION
	Format:	EIFMT_SVAL
	Value:	0x7d 
	<0x3>
	Attribute:	EIATTR_PARAM_CBANK
	Format:	EIFMT_SVAL
	Value:	0x1c 0x310160 
	<0x4>
	Attribute:	EIATTR_CBANK_PARAM_SIZE
	Format:	EIFMT_HVAL
	Value:	0x31
	<0x5>
	Attribute:	EIATTR_KPARAM_INFO
	Format:	EIFMT_SVAL
	Value:	Index : 0x0	Ordinal : 0x5	Offset  : 0x30	Size    : 0x1
		Pointee's logAlignment : 0x0	Space : 0x0	cbank : 0x1f	Parameter Space : CBANK	
	<0x6>
	Attribute:	EIATTR_KPARAM_INFO
	Format:	EIFMT_SVAL
	Value:	Index : 0x0	Ordinal : 0x4	Offset  : 0x2c	Size    : 0x4
		Pointee's logAlignment : 0x0	Space : 0x0	cbank : 0x1f	Parameter Space : CBANK	
	<0x7>
	Attribute:	EIATTR_KPARAM_INFO
	Format:	EIFMT_SVAL
	Value:	Index : 0x0	Ordinal : 0x3	Offset  : 0x28	Size    : 0x1
		Pointee's logAlignment : 0x0	Space : 0x0	cbank : 0x1f	Parameter Space : CBANK	
	<0x8>
	Attribute:	EIATTR_KPARAM_INFO
	Format:	EIFMT_SVAL
	Value:	Index : 0x0	Ordinal : 0x2	Offset  : 0x20	Size    : 0x8
		Pointee's logAlignment : 0x0	Space : 0x0	cbank : 0x1f	Parameter Space : CBANK	
	<0x9>
	Attribute:	EIATTR_KPARAM_INFO
	Format:	EIFMT_SVAL
	Value:	Index : 0x0	Ordinal : 0x1	Offset  : 0x18	Size    : 0x8
		Pointee's logAlignment : 0x0	Space : 0x0	cbank : 0x1f	Parameter Space : CBANK	
	<0x10>
	Attribute:	EIATTR_KPARAM_INFO
	Format:	EIFMT_SVAL
	Value:	Index : 0x0	Ordinal : 0x0	Offset  : 0x0	Size    : 0x18
		Pointee's logAlignment : 0x0	Space : 0x0	cbank : 0x1f	Parameter Space : CBANK	
	<0x11>
	Attribute:	EIATTR_MAXREG_COUNT
	Format:	EIFMT_HVAL
	Value:	0xff
	<0x12>
	Attribute:	EIATTR_COOP_GROUP_MASK_REGIDS
	Format:	EIFMT_SVAL
	Value:	0xffffffff 0xffffffff 0xffffffff 0xffffffff 0xffffffff 0xffffffff 0xffffffff 0xffffffff 0xffffffff 0xffffffff 0xffffffff 0xffffffff 0xffffffff 0xffffffff 0xffffffff 
	<0x13>
	Attribute:	EIATTR_COOP_GROUP_INSTR_OFFSETS
	Format:	EIFMT_SVAL
	Value:	0x1780 0x17d0 0x1800 0x1830 0x1880 0x26e0 0x2730 0x2770 0x27b0 0x27e0 0x29b0 0x2a00 0x2a30 0x2a60 0x2ab0 
	<0x14>
	Attribute:	EIATTR_EXIT_INSTR_OFFSETS
	Format:	EIFMT_SVAL
	Value:	0x2c10 0x2c50 0x2c80 0x2cc0 
	<0x15>
	Attribute:	EIATTR_MAX_THREADS
	Format:	EIFMT_SVAL
	Value:	0x100 0x1 0x1 
	<0x16>
	Attribute:	EIATTR_CRS_STACK_SIZE
	Format:	EIFMT_SVAL
	Value:	0x0 


.nv.info._ZN3cub17CUB_200400_750_NS28DeviceReduceSingleTileKernelINS0_18DeviceReducePolicyIfjN6thrust20THRUST_200400_750_NS10multipliesIfEEE9Policy600EPfS9_iS6_ffN4cuda3std3__410__identityEEEvT0_T1_T2_T3_T4_T6_
	<0x1>
	Attribute:	EIATTR_SW_WAR
	Format:	EIFMT_SVAL
	Value:	0x1 
	<0x2>
	Attribute:	EIATTR_CUDA_API_VERSION
	Format:	EIFMT_SVAL
	Value:	0x7d 
	<0x3>
	Attribute:	EIATTR_PARAM_CBANK
	Format:	EIFMT_SVAL
	Value:	0x1f 0x1d0160 
	<0x4>
	Attribute:	EIATTR_CBANK_PARAM_SIZE
	Format:	EIFMT_HVAL
	Value:	0x1d
	<0x5>
	Attribute:	EIATTR_KPARAM_INFO
	Format:	EIFMT_SVAL
	Value:	Index : 0x0	Ordinal : 0x5	Offset  : 0x1c	Size    : 0x1
		Pointee's logAlignment : 0x0	Space : 0x0	cbank : 0x1f	Parameter Space : CBANK	
	<0x6>
	Attribute:	EIATTR_KPARAM_INFO
	Format:	EIFMT_SVAL
	Value:	Index : 0x0	Ordinal : 0x4	Offset  : 0x18	Size    : 0x4
		Pointee's logAlignment : 0x0	Space : 0x0	cbank : 0x1f	Parameter Space : CBANK	
	<0x7>
	Attribute:	EIATTR_KPARAM_INFO
	Format:	EIFMT_SVAL
	Value:	Index : 0x0	Ordinal : 0x3	Offset  : 0x14	Size    : 0x1
		Pointee's logAlignment : 0x0	Space : 0x0	cbank : 0x1f	Parameter Space : CBANK	
	<0x8>
	Attribute:	EIATTR_KPARAM_INFO
	Format:	EIFMT_SVAL
	Value:	Index : 0x0	Ordinal : 0x2	Offset  : 0x10	Size    : 0x4
		Pointee's logAlignment : 0x0	Space : 0x0	cbank : 0x1f	Parameter Space : CBANK	
	<0x9>
	Attribute:	EIATTR_KPARAM_INFO
	Format:	EIFMT_SVAL
	Value:	Index : 0x0	Ordinal : 0x1	Offset  : 0x8	Size    : 0x8
		Pointee's logAlignment : 0x0	Space : 0x0	cbank : 0x1f	Parameter Space : CBANK	
	<0x10>
	Attribute:	EIATTR_KPARAM_INFO
	Format:	EIFMT_SVAL
	Value:	Index : 0x0	Ordinal : 0x0	Offset  : 0x0	Size    : 0x8
		Pointee's logAlignment : 0x0	Space : 0x0	cbank : 0x1f	Parameter Space : CBANK	
	<0x11>
	Attribute:	EIATTR_MAXREG_COUNT
	Format:	EIFMT_HVAL
	Value:	0xff
	<0x12>
	Attribute:	EIATTR_COOP_GROUP_MASK_REGIDS
	Format:	EIFMT_SVAL
	Value:	0xffffffff 0xffffffff 0xffffffff 0xffffffff 0xffffffff 0xffffffff 0xffffffff 0xffffffff 0xffffffff 0xffffffff 0xffffffff 0xffffffff 0xffffffff 0xffffffff 0xffffffff 0xffffffff 0xffffffff 0xffffffff 0xffffffff 0xffffffff 0xffffffff 0xffffffff 0xffffffff 0xffffffff 0xffffffff 0xffffffff 0xffffffff 0xffffffff 0xffffffff 0xffffffff 
	<0x13>
	Attribute:	EIATTR_COOP_GROUP_INSTR_OFFSETS
	Format:	EIFMT_SVAL
	Value:	0x1000 0x1050 0x1080 0x10b0 0x1100 0x1b00 0x1b50 0x1ba0 0x1be0 0x1c10 0x1de0 0x1e30 0x1e60 0x1e90 0x1ee0 0x2e60 0x2ed0 0x2f20 0x2f50 0x2f80 0x3960 0x39b0 0x3a00 0x3a40 0x3a70 0x3c40 0x3c90 0x3cc0 0x3cf0 0x3d40 
	<0x14>
	Attribute:	EIATTR_EXIT_INSTR_OFFSETS
	Format:	EIFMT_SVAL
	Value:	0x3ea0 0x3ee0 0x3f10 0x3f50 
	<0x15>
	Attribute:	EIATTR_MAX_THREADS
	Format:	EIFMT_SVAL
	Value:	0x100 0x1 0x1 
	<0x16>
	Attribute:	EIATTR_CRS_STACK_SIZE
	Format:	EIFMT_SVAL
	Value:	0x0 


.nv.info._ZN3cub17CUB_200400_750_NS18DeviceReduceKernelINS0_18DeviceReducePolicyIfjN6thrust20THRUST_200400_750_NS10multipliesIfEEE9Policy600ENS4_20permutation_iteratorINS4_6detail15normal_iteratorINS4_10device_ptrIfEEEENS4_18transform_iteratorIN13strided_rangeISE_E14stride_functorENS4_17counting_iteratorIlNS4_11use_defaultESK_SK_EESK_SK_EEEEjS6_fN4cuda3std3__410__identityEEEvT0_PT3_T1_NS0_13GridEvenShareISV_EET2_T4_
	<0x1>
	Attribute:	EIATTR_SW_WAR
	Format:	EIFMT_SVAL
	Value:	0x1 
	<0x2>
	Attribute:	EIATTR_CUDA_API_VERSION
	Format:	EIFMT_SVAL
	Value:	0x7d 
	<0x3>
	Attribute:	EIATTR_PARAM_CBANK
	Format:	EIFMT_SVAL
	Value:	0x22 0x4e0160 
	<0x4>
	Attribute:	EIATTR_CBANK_PARAM_SIZE
	Format:	EIFMT_HVAL
	Value:	0x4e
	<0x5>
	Attribute:	EIATTR_KPARAM_INFO
	Format:	EIFMT_SVAL
	Value:	Index : 0x0	Ordinal : 0x5	Offset  : 0x4d	Size    : 0x1
		Pointee's logAlignment : 0x0	Space : 0x0	cbank : 0x1f	Parameter Space : CBANK	
	<0x6>
	Attribute:	EIATTR_KPARAM_INFO
	Format:	EIFMT_SVAL
	Value:	Index : 0x0	Ordinal : 0x4	Offset  : 0x4c	Size    : 0x1
		Pointee's logAlignment : 0x0	Space : 0x0	cbank : 0x1f	Parameter Space : CBANK	
	<0x7>
	Attribute:	EIATTR_KPARAM_INFO
	Format:	EIFMT_SVAL
	Value:	Index : 0x0	Ordinal : 0x3	Offset  : 0x24	Size    : 0x28
		Pointee's logAlignment : 0x0	Space : 0x0	cbank : 0x1f	Parameter Space : CBANK	
	<0x8>
	Attribute:	EIATTR_KPARAM_INFO
	Format:	EIFMT_SVAL
	Value:	Index : 0x0	Ordinal : 0x2	Offset  : 0x20	Size    : 0x4
		Pointee's logAlignment : 0x0	Space : 0x0	cbank : 0x1f	Parameter Space : CBANK	
	<0x9>
	Attribute:	EIATTR_KPARAM_INFO
	Format:	EIFMT_SVAL
	Value:	Index : 0x0	Ordinal : 0x1	Offset  : 0x18	Size    : 0x8
		Pointee's logAlignment : 0x0	Space : 0x0	cbank : 0x1f	Parameter Space : CBANK	
	<0x10>
	Attribute:	EIATTR_KPARAM_INFO
	Format:	EIFMT_SVAL
	Value:	Index : 0x0	Ordinal : 0x0	Offset  : 0x0	Size    : 0x18
		Pointee's logAlignment : 0x0	Space : 0x0	cbank : 0x1f	Parameter Space : CBANK	
	<0x11>
	Attribute:	EIATTR_MAXREG_COUNT
	Format:	EIFMT_HVAL
	Value:	0xff
	<0x12>
	Attribute:	EIATTR_COOP_GROUP_MASK_REGIDS
	Format:	EIFMT_SVAL
	Value:	0xffffffff 0xffffffff 0xffffffff 0xffffffff 0xffffffff 0xffffffff 0xffffffff 0xffffffff 0xffffffff 0xffffffff 0xffffffff 0xffffffff 0xffffffff 0xffffffff 0xffffffff 
	<0x13>
	Attribute:	EIATTR_COOP_GROUP_INSTR_OFFSETS
	Format:	EIFMT_SVAL
	Value:	0x21f0 0x2240 0x2270 0x22b0 0x2300 0x3cf0 0x3d40 0x3d90 0x3dd0 0x3e00 0x3fd0 0x4020 0x4050 0x4080 0x40d0 
	<0x14>
	Attribute:	EIATTR_EXIT_INSTR_OFFSETS
	Format:	EIFMT_SVAL
	Value:	0x4230 0x4290 
	<0x15>
	Attribute:	EIATTR_MAX_THREADS
	Format:	EIFMT_SVAL
	Value:	0x100 0x1 0x1 
	<0x16>
	Attribute:	EIATTR_CRS_STACK_SIZE
	Format:	EIFMT_SVAL
	Value:	0x0 


.nv.info._ZN3cub17CUB_200400_750_NS28DeviceReduceSingleTileKernelINS0_18DeviceReducePolicyIfjN6thrust20THRUST_200400_750_NS10multipliesIfEEE9Policy600ENS4_20permutation_iteratorINS4_6detail15normal_iteratorINS4_10device_ptrIfEEEENS4_18transform_iteratorIN13strided_rangeISE_E14stride_functorENS4_17counting_iteratorIlNS4_11use_defaultESK_SK_EESK_SK_EEEEPfjS6_ffN4cuda3std3__410__identityEEEvT0_T1_T2_T3_T4_T6_
	<0x1>
	Attribute:	EIATTR_SW_WAR
	Format:	EIFMT_SVAL
	Value:	0x1 
	<0x2>
	Attribute:	EIATTR_CUDA_API_VERSION
	Format:	EIFMT_SVAL
	Value:	0x7d 
	<0x3>
	Attribute:	EIATTR_PARAM_CBANK
	Format:	EIFMT_SVAL
	Value:	0x25 0x2d0160 
	<0x4>
	Attribute:	EIATTR_CBANK_PARAM_SIZE
	Format:	EIFMT_HVAL
	Value:	0x2d
	<0x5>
	Attribute:	EIATTR_KPARAM_INFO
	Format:	EIFMT_SVAL
	Value:	Index : 0x0	Ordinal : 0x5	Offset  : 0x2c	Size    : 0x1
		Pointee's logAlignment : 0x0	Space : 0x0	cbank : 0x1f	Parameter Space : CBANK	
	<0x6>
	Attribute:	EIATTR_KPARAM_INFO
	Format:	EIFMT_SVAL
	Value:	Index : 0x0	Ordinal : 0x4	Offset  : 0x28	Size    : 0x4
		Pointee's logAlignment : 0x0	Space : 0x0	cbank : 0x1f	Parameter Space : CBANK	
	<0x7>
	Attribute:	EIATTR_KPARAM_INFO
	Format:	EIFMT_SVAL
	Value:	Index : 0x0	Ordinal : 0x3	Offset  : 0x24	Size    : 0x1
		Pointee's logAlignment : 0x0	Space : 0x0	cbank : 0x1f	Parameter Space : CBANK	
	<0x8>
	Attribute:	EIATTR_KPARAM_INFO
	Format:	EIFMT_SVAL
	Value:	Index : 0x0	Ordinal : 0x2	Offset  : 0x20	Size    : 0x4
		Pointee's logAlignment : 0x0	Space : 0x0	cbank : 0x1f	Parameter Space : CBANK	
	<0x9>
	Attribute:	EIATTR_KPARAM_INFO
	Format:	EIFMT_SVAL
	Value:	Index : 0x0	Ordinal : 0x1	Offset  : 0x18	Size    : 0x8
		Pointee's logAlignment : 0x0	Space : 0x0	cbank : 0x1f	Parameter Space : CBANK	
	<0x10>
	Attribute:	EIATTR_KPARAM_INFO
	Format:	EIFMT_SVAL
	Value:	Index : 0x0	Ordinal : 0x0	Offset  : 0x0	Size    : 0x18
		Pointee's logAlignment : 0x0	Space : 0x0	cbank : 0x1f	Parameter Space : CBANK	
	<0x11>
	Attribute:	EIATTR_MAXREG_COUNT
	Format:	EIFMT_HVAL
	Value:	0xff
	<0x12>
	Attribute:	EIATTR_COOP_GROUP_MASK_REGIDS
	Format:	EIFMT_SVAL
	Value:	0xffffffff 0xffffffff 0xffffffff 0xffffffff 0xffffffff 0xffffffff 0xffffffff 0xffffffff 0xffffffff 0xffffffff 0xffffffff 0xffffffff 0xffffffff 0xffffffff 0xffffffff 
	<0x13>
	Attribute:	EIATTR_COOP_GROUP_INSTR_OFFSETS
	Format:	EIFMT_SVAL
	Value:	0x2140 0x21b0 0x21f0 0x2220 0x2260 0x3bf0 0x3c40 0x3c80 0x3cc0 0x3cf0 0x3ec0 0x3f10 0x3f40 0x3f70 0x3fc0 
	<0x14>
	Attribute:	EIATTR_EXIT_INSTR_OFFSETS
	Format:	EIFMT_SVAL
	Value:	0x4120 0x4160 0x4190 0x41d0 
	<0x15>
	Attribute:	EIATTR_MAX_THREADS
	Format:	EIFMT_SVAL
	Value:	0x100 0x1 0x1 
	<0x16>
	Attribute:	EIATTR_CRS_STACK_SIZE
	Format:	EIFMT_SVAL
	Value:	0x0 


.nv.info._ZN3cub17CUB_200400_750_NS11EmptyKernelIvEEvv
	<0x1>
	Attribute:	EIATTR_SW_WAR
	Format:	EIFMT_SVAL
	Value:	0x1 
	<0x2>
	Attribute:	EIATTR_CUDA_API_VERSION
	Format:	EIFMT_SVAL
	Value:	0x7d 
	<0x3>
	Attribute:	EIATTR_MAXREG_COUNT
	Format:	EIFMT_HVAL
	Value:	0xff
	<0x4>
	Attribute:	EIATTR_EXIT_INSTR_OFFSETS
	Format:	EIFMT_SVAL
	Value:	0x10 


.nv.callgraph
 <0,-1>
 <0,-2>
 <0,-3>
 <0,-4>


.nv.rel.action
Header : Base Relocation : R_CUDA_CONST_FIELD22_37
Reloc type : Symbol Kind,Addend Shift,Source Position1,length1,Destination Position1,Source Position2,length2,Destination Position2
R_CUDA_CONST_FIELD22_37 : EIVALUE_SYM_KIND_ADDR,0,0,17,37,0,5,54


.text._ZN3cub17CUB_200400_750_NS28DeviceReduceSingleTileKernelINS0_18DeviceReducePolicyIfyN6thrust20THRUST_200400_750_NS10multipliesIfEEE9Policy600EPfS9_iS6_ffN4cuda3std3__410__identityEEEvT0_T1_T2_T3_T4_T6_
bar = 1	reg = 45	lmem=0	smem=44
0x00017a02 0x00000a00 0x00000f00 0x000fe400
0xff007a0c 0x00005c00 0x03f05270 0x000fd800
0x00008947 0x00003ec0 0x03800000 0x000fea00
0x00007919 0x00000000 0x00002100 0x000e2200
0xff027624 0x00005800 0x078e00ff 0x000fe200
0x00ff7355 0x00000000 0x00100000 0x000fe200
0x00007945 0x00003e20 0x03800000 0x000fe600
0x02ff7812 0x0000000f 0x0780c0ff 0x000fd800
0x00008947 0x00001fa0 0x03800000 0x000fea00
0x00057a02 0x00005c00 0x00000f00 0x000fc800
0x0500780c 0x00001000 0x03f06270 0x000fd800
0x00008947 0x00001190 0x03800000 0x000fea00
0xff037424 0x00000004 0x078e00ff 0x000fc800
0x00027625 0x00005800 0x078e0203 0x001fd000
0x02047381 0x00000000 0x001e6900 0x000ea800
0x02077381 0x00040000 0x001e6900 0x000ea800
0x02067381 0x00080000 0x001e6900 0x000ee800
0x02087381 0x000c0000 0x001e6900 0x000f2800
0x02097381 0x00100000 0x001e6900 0x000f6800
0x020a7381 0x00140000 0x001e6900 0x000f6800
0x020b7381 0x00180000 0x001e6900 0x000f6800
0x020c7381 0x001c0000 0x001e6900 0x000f6800
0x020d7381 0x00200000 0x001e6900 0x000f6800
0x020e7381 0x00240000 0x001e6900 0x000f6800
0x020f7381 0x00280000 0x001e6900 0x000f6800
0x02107381 0x002c0000 0x001e6900 0x000f6800
0x02117381 0x00300000 0x001e6900 0x000f6800
0x02127381 0x00340000 0x001e6900 0x000f6800
0x02137381 0x00380000 0x001e6900 0x000f6800
0x02147381 0x003c0000 0x001e6900 0x000f6200
0x0500780c 0x00002000 0x03f06270 0x000fe200
0x04077220 0x00000007 0x00400000 0x004fc800
0x06077220 0x00000007 0x00400000 0x008fc800
0x08087220 0x00000007 0x00400000 0x010fe200
0x00077802 0x00001000 0x00000f00 0x000fc600
0x09097220 0x00000008 0x00400000 0x020fc800
0x0a0a7220 0x00000009 0x00400000 0x000fc800
0x0b0b7220 0x0000000a 0x00400000 0x000fc800
0x0c0c7220 0x0000000b 0x00400000 0x000fc800
0x0d0d7220 0x0000000c 0x00400000 0x000fc800
0x0e0e7220 0x0000000d 0x00400000 0x000fc800
0x0f0f7220 0x0000000e 0x00400000 0x000fc800
0x10107220 0x0000000f 0x00400000 0x000fc800
0x11117220 0x00000010 0x00400000 0x000fc800
0x12127220 0x00000011 0x00400000 0x000fc800
0x13137220 0x00000012 0x00400000 0x000fc800
0x14047220 0x00000013 0x00400000 0x000fe200
0x00008947 0x000002b0 0x03800000 0x000fea00
0x05067810 0xfffff000 0x07ffe0ff 0x000fe200
0xff077424 0x00001000 0x078e00ff 0x000fc600
0x00057202 0x00000006 0x00000f00 0x000fe400
0x02097381 0x00400000 0x001e6900 0x0000a800
0x02087381 0x00440000 0x001e6900 0x0000e800
0x020a7381 0x00480000 0x001e6900 0x00012800
0x020b7381 0x004c0000 0x001e6900 0x00016800
0x020c7381 0x00500000 0x001e6900 0x00016800
0x020d7381 0x00540000 0x001e6900 0x00016800
0x020e7381 0x00580000 0x001e6900 0x00016800
0x020f7381 0x005c0000 0x001e6900 0x00016800
0x02107381 0x00600000 0x001e6900 0x00016800
0x02117381 0x00640000 0x001e6900 0x00016800
0x02127381 0x00680000 0x001e6900 0x00016800
0x02137381 0x006c0000 0x001e6900 0x00016800
0x02147381 0x00700000 0x001e6900 0x00016800
0x02157381 0x00740000 0x001e6900 0x00016800
0x02167381 0x00780000 0x001e6900 0x00016800
0x02177381 0x007c0000 0x001e6900 0x00016200
0x0500780c 0x00001000 0x03f06270 0x000fc400
0x02027810 0x00004000 0x07f3e0ff 0x001fca00
0xff037224 0x000000ff 0x008e0603 0x000fe400
0x09097220 0x00000004 0x00400000 0x004fc800
0x08097220 0x00000009 0x00400000 0x008fc800
0x0a0a7220 0x00000009 0x00400000 0x010fc800
0x0b0b7220 0x0000000a 0x00400000 0x020fc800
0x0c0c7220 0x0000000b 0x00400000 0x000fc800
0x0d0d7220 0x0000000c 0x00400000 0x000fc800
0x0e0e7220 0x0000000d 0x00400000 0x000fc800
0x0f0f7220 0x0000000e 0x00400000 0x000fc800
0x10107220 0x0000000f 0x00400000 0x000fc800
0x11117220 0x00000010 0x00400000 0x000fc800
0x12127220 0x00000011 0x00400000 0x000fc800
0x13137220 0x00000012 0x00400000 0x000fc800
0x14147220 0x00000013 0x00400000 0x000fc800
0x15157220 0x00000014 0x00400000 0x000fc800
0x16167220 0x00000015 0x00400000 0x000fc800
0x17047220 0x00000016 0x00400000 0x000fe200
0x00008947 0x00000a80 0x03800000 0x000fea00
0x07077810 0x00001000 0x07ffe0ff 0x000fe400
0x05057810 0xfffff000 0x07ffe0ff 0x000fe400
0x0700720c 0x00000006 0x03f04270 0x000fd800
0x00008947 0xfffffd80 0x0383ffff 0x000fea00
0x07007a0c 0x00005c00 0x03f06270 0x000fd800
0x00000947 0x00000a20 0x03800000 0x000fea00
0x07037a10 0x00005c00 0x07ffe1ff 0x000fe200
0x01ff7355 0x00000000 0x00100000 0x000fe200
0x00017945 0x000009f0 0x03800000 0x000fe400
0x0000720c 0x00000003 0x03f06270 0x000fd800
0x00000947 0x000009c0 0x03800000 0x000fea00
0xff027212 0x00000000 0x078e33ff 0x000fe200
0x02ff7355 0x00000000 0x00100000 0x000fe200
0x00027945 0x00000150 0x03800000 0x000fe400
0x07067a10 0x00005c00 0x07ffe102 0x000fc800
0x06027811 0x00000001 0x078fc0ff 0x040fe400
0x0600780c 0x00000300 0x03f26070 0x000fe400
0x02057812 0x00000003 0x0780c0ff 0x000fe400
0x00027202 0x00000000 0x00000f00 0x000fd400
0x00008947 0x000000e0 0x03800000 0x000fea00
0x00097802 0x00000004 0x00000f00 0x000fe200
0x00087824 0x00000001 0x078e0207 0x000fe200
0x00027202 0x00000000 0x00000f00 0x000fc600
0x08087625 0x00005800 0x078e0209 0x000fc800
0xff0b7224 0x000000ff 0x078e0009 0x000fc800
0xff097224 0x000000ff 0x078e000b 0x000fd000
0x08097381 0x00000000 0x001e6900 0x0000a200
0x05057810 0xffffffff 0x07ffe0ff 0x000fe400
0x02027810 0x00000100 0x07ffe0ff 0x000fe400
0x0500720c 0x000000ff 0x03f05270 0x000fe400
0x08087810 0x00000400 0x07f5e0ff 0x001fc800
0xff0b7210 0x0000000b 0x017fe4ff 0x000fe200
0x09047220 0x00000004 0x00400000 0x004fca00
0x00000947 0xffffff70 0x0383ffff 0x000fea00
0x00027941 0x00000000 0x03800000 0x000fea00
0x00009947 0x00000830 0x03800000 0x000fea00
0x03057824 0x00000001 0x078e0a02 0x000fe200
0x000c7802 0x00000004 0x00000f00 0x000fe200
0x02077824 0x00000001 0x078e0207 0x000fe200
0x02ff7355 0x00000000 0x00100000 0x000fe200
0x00027945 0x00000460 0x03800000 0x000fe200
0x0500780c 0x00000c00 0x03f24270 0x000fe200
0x070a7625 0x00005800 0x078e020c 0x0c0fe200
0x07067810 0x00000300 0x07ffe0ff 0x040fe400
0x07087810 0x00000200 0x07ffe0ff 0x040fe200
0xff1c7224 0x000000ff 0x078e000b 0x000fe200
0x07057810 0x00000100 0x07ffe0ff 0x000fe200
0x06067625 0x00005800 0x078e020c 0x000fe200
0x000f7202 0x0000000a 0x00000f00 0x000fc400
0x0000781c 0x00000000 0x03f0f070 0x000fe200
0x08087625 0x00005800 0x078e020c 0x000fc800
0x050a7625 0x00005800 0x078e020c 0x000fe200
0x000c7202 0x00000006 0x00000f00 0x000fe400
0x00137202 0x00000008 0x00000f00 0x000fe200
0xff0d7224 0x000000ff 0x078e0007 0x000fe200
0x00117202 0x0000000a 0x00000f00 0x000fe200
0xff207224 0x000000ff 0x078e0009 0x000fe400
0xff1e7224 0x000000ff 0x078e000b 0x000fe200
0x00009947 0x00000330 0x03800000 0x000fea00
0x0000781c 0x00000000 0x03f0e170 0x000fe400
0x03157810 0xfffff400 0x07ffe0ff 0x000fc400
0x00087202 0x0000000f 0x00000f00 0x000fe200
0xff097224 0x000000ff 0x078e001c 0x000fe200
0x000a7202 0x00000011 0x00000f00 0x000fe200
0xff0b7224 0x000000ff 0x078e001e 0x000fe200
0x00067202 0x00000013 0x00000f00 0x000fe200
0xff077224 0x000000ff 0x078e0020 0x000fe200
0x0c127381 0x00000000 0x001e6900 0x0000a800
0x08057381 0x00000000 0x001e6900 0x000ee800
0x0a0e7381 0x00000000 0x001e6900 0x000f2800
0x06107381 0x00000000 0x001e6900 0x000f6800
0x08147381 0x00100000 0x001e6900 0x000ea800
0x0a167381 0x00100000 0x001e6900 0x000ea800
0x06187381 0x00100000 0x001e6900 0x000ea800
0x0c1a7381 0x00100000 0x001e6900 0x0000a800
0x081c7381 0x00200000 0x001e6900 0x000ea800
0x0a1e7381 0x00200000 0x001e6900 0x000ea800
0x06207381 0x00200000 0x001e6900 0x000ea800
0x0c227381 0x00200000 0x001e6900 0x0000a800
0x08247381 0x00300000 0x001e6900 0x000ea800
0x0a267381 0x00300000 0x001e6900 0x000ea800
0x06287381 0x00300000 0x001e6900 0x000ea800
0x0c2a7381 0x00300000 0x001e6900 0x0000a200
0x02027810 0x00001000 0x07ffe0ff 0x000fc400
0x0c0c7810 0x00004000 0x07f3e0ff 0x001fc800
0xff0d7210 0x0000000d 0x00ffe4ff 0x000fe400
0x0200720c 0x00000015 0x03f26270 0x000fe400
0x06137810 0x00004000 0x07f5e0ff 0x000fe400
0x080f7810 0x00004000 0x07f9e0ff 0x000fe400
0x0a117810 0x00004000 0x07f7e0ff 0x000fe200
0x05057220 0x00000004 0x00400000 0x008fc800
0x05057220 0x0000000e 0x00400000 0x010fc800
0x05057220 0x00000010 0x00400000 0x020fc800
0x05057220 0x00000012 0x00400000 0x004fc800
0x05057220 0x00000014 0x00400000 0x000fc800
0x05057220 0x00000016 0x00400000 0x000fc800
0x05057220 0x00000018 0x00400000 0x000fc800
0x05057220 0x0000001a 0x00400000 0x000fc800
0x05057220 0x0000001c 0x00400000 0x000fc800
0x05057220 0x0000001e 0x00400000 0x000fc800
0x05057220 0x00000020 0x00400000 0x000fc800
0x05057220 0x00000022 0x00400000 0x000fc800
0x05057220 0x00000024 0x00400000 0x000fc800
0x05057220 0x00000026 0x00400000 0x000fc800
0x05057220 0x00000028 0x00400000 0x000fe200
0xff1e7210 0x0000000b 0x01ffe4ff 0x000fe200
0xff207224 0x000000ff 0x010e0607 0x000fe400
0xff1c7224 0x000000ff 0x020e0609 0x000fe400
0x05047220 0x0000002a 0x00400000 0x000fe200
0x00009947 0xfffffcf0 0x0383ffff 0x000fea00
0x00027941 0x00000000 0x03800000 0x000fea00
0x03057210 0x80000002 0x07ffe0ff 0x000fe200
0x02ff7355 0x00000000 0x00100000 0x000fe200
0x00027945 0x00000230 0x03800000 0x000fe400
0x0500780c 0x00000400 0x03f24270 0x000fd800
0x00009947 0x00000200 0x03800000 0x000fea00
0xff067224 0x000000ff 0x078e000f 0x000fe200
0x00077202 0x0000001c 0x00000f00 0x000fe200
0xff087224 0x000000ff 0x078e0011 0x000fe200
0x00097202 0x0000001e 0x00000f00 0x000fe200
0xff0a7224 0x000000ff 0x078e0013 0x000fe200
0x000b7202 0x00000020 0x00000f00 0x000fe200
0x0c127381 0x00000000 0x001e6900 0x0000a800
0x06057381 0x00000000 0x001e6900 0x000ee800
0x080e7381 0x00000000 0x001e6900 0x000f2800
0x0a107381 0x00000000 0x001e6900 0x000f6800
0x06147381 0x00100000 0x001e6900 0x000ea800
0x08167381 0x00100000 0x001e6900 0x000ea800
0x0a187381 0x00100000 0x001e6900 0x000ea800
0x0c1a7381 0x00100000 0x001e6900 0x0000a200
0x11117810 0x00002000 0x07f7e0ff 0x000fc400
0x13137810 0x00002000 0x07f5e0ff 0x000fe400
0x0f0f7810 0x00002000 0x07f9e0ff 0x000fe400
0x0c0c7810 0x00002000 0x07f3e0ff 0x001fe200
0xff1e7224 0x000000ff 0x018e061e 0x000fe200
0x0000781c 0x00000000 0x03f0e170 0x000fe400
0x02027810 0x00000800 0x07ffe0ff 0x000fe200
0xff0d7224 0x000000ff 0x008e060d 0x000fe200
0xff207210 0x00000020 0x017fe4ff 0x000fc400
0xff1c7210 0x0000001c 0x027fe4ff 0x000fe200
0x04057220 0x00000005 0x00400000 0x008fc800
0x05057220 0x0000000e 0x00400000 0x010fc800
0x05057220 0x00000010 0x00400000 0x020fc800
0x05057220 0x00000012 0x00400000 0x004fc800
0x05057220 0x00000014 0x00400000 0x000fc800
0x05057220 0x00000016 0x00400000 0x000fc800
0x05057220 0x00000018 0x00400000 0x000fc800
0x05047220 0x0000001a 0x00400000 0x000fc600
0x00027941 0x00000000 0x03800000 0x000fea00
0x0200720c 0x00000003 0x00701670 0x000fe200
0xff027224 0x000000ff 0x078e000c 0x000fe200
0x00037202 0x0000000d 0x00000f00 0x000fe200
0xff067224 0x000000ff 0x078e0013 0x000fe200
0x00077202 0x00000020 0x00000f00 0x000fe200
0xff087224 0x000000ff 0x078e0011 0x000fe200
0x00097202 0x0000001e 0x00000f00 0x000fe200
0xff0a7224 0x000000ff 0x078e000f 0x000fe200
0x000b7202 0x0000001c 0x00000f00 0x000fc800
0x00008947 0x00000080 0x03800000 0x000fea00
0x0a0b7381 0x00000000 0x001e6900 0x000ea800
0x08097381 0x00000000 0x001e6900 0x000ee800
0x06077381 0x00000000 0x001e6900 0x000f2800
0x02037381 0x00000000 0x001e6900 0x000f6200
0x04047220 0x0000000b 0x00400000 0x004fc800
0x04047220 0x00000009 0x00400000 0x008fc800
0x04047220 0x00000007 0x00400000 0x010fc800
0x04047220 0x00000003 0x00400000 0x020fc600
0x00017941 0x00000000 0x03800000 0x000fea00
0x00037919 0x00000000 0x00000000 0x000e2800
0x04027f89 0x08201f00 0x000e0000 0x000e6200
0x0300780c 0x0000001e 0x03f04270 0x041fe400
0x0300720c 0x000000ff 0x03f25270 0x000fd400
0x02048220 0x00000004 0x00400000 0x002fe200
0x0300780c 0x0000001d 0x03f04270 0x000fce00
0x04027f89 0x08401f00 0x000e0000 0x000e2a00
0x04048220 0x00000002 0x00400000 0x001fe200
0x0300780c 0x0000001b 0x03f04270 0x000fce00
0x04027f89 0x08801f00 0x000e0000 0x000e2a00
0x04048220 0x00000002 0x00400000 0x001fe200
0x0300780c 0x00000017 0x03f04270 0x000fce00
0x04027f89 0x09001f00 0x000e0000 0x000e2a00
0x04048220 0x00000002 0x00400000 0x001fe200
0x0300780c 0x0000000f 0x03f04270 0x000fe400
0xff039819 0x0000001f 0x00011400 0x000fc800
0x03039211 0x00000000 0x078f28ff 0x000fe200
0x04027f89 0x0a001f00 0x000e0000 0x000e2600
0xff039819 0x00000005 0x00011403 0x000fca00
0x03039824 0x00000004 0x078e00ff 0x000fe400
0x04048220 0x00000002 0x00400000 0x001fe200
0x0000720c 0x000000ff 0x03f05270 0x000fc800
0x00027202 0x00000004 0x00000f00 0x000fd000
0x03009388 0x00000802 0x00000800 0x000fe800
0x00007b1d 0x00000000 0x00000000 0x000fea00
0x00000947 0x00002cf0 0x03800000 0x000fea00
0xff037984 0x00000c00 0x00001800 0x000e2200
0xff007224 0x000000ff 0x078e00ff 0x000fc600
0xff047984 0x00001000 0x00001c00 0x000e7000
0xff087984 0x00002000 0x00001a00 0x000ea200
0x02037220 0x00000003 0x00400000 0x001fc800
0x03047220 0x00000004 0x00400000 0x002fc800
0x04057220 0x00000005 0x00400000 0x000fc800
0x05067220 0x00000006 0x00400000 0x000fc800
0x06067220 0x00000007 0x00400000 0x000fc800
0x06067220 0x00000008 0x00400000 0x004fc800
0x06027220 0x00000009 0x00400000 0x000fe200
0x00007947 0x00002c30 0x03800000 0x000fea00
0x00007a0c 0x00005c00 0x03f06270 0x001fe200
0x01ff7355 0x00000000 0x00100000 0x000fe200
0x00017945 0x00000080 0x03800000 0x000fe200
0x00067202 0x000000ff 0x00000f00 0x000fe200
0xff047224 0x000000ff 0x078e0000 0x000fd000
0x00000947 0x00000040 0x03800000 0x000fea00
0x00037802 0x00000004 0x00000f00 0x000fca00
0x00027625 0x00005800 0x078e0203 0x000fd000
0x02067381 0x00000000 0x001e6900 0x00016200
0x00047810 0x00000100 0x07ffe0ff 0x000fc600
0x00017941 0x00000000 0x03800000 0x000fea00
0x04007a0c 0x00005c00 0x03f06270 0x000fe200
0x01ff7355 0x00000000 0x00100000 0x000fe200
0x00017945 0x000006e0 0x03800000 0x000ff400
0x00000947 0x000006c0 0x03800000 0x000fea00
0xff027212 0x00000004 0x078e33ff 0x001fe200
0x02ff7355 0x00000000 0x00100000 0x000fe200
0x00027945 0x00000120 0x03800000 0x000fe400
0x02037a10 0x00005c00 0x07ffe0ff 0x000fc800
0x03027811 0x00000001 0x078fc0ff 0x040fe400
0x0300780c 0x00000300 0x03f26070 0x000fe400
0x02077812 0x00000003 0x0780c0ff 0x000fd800
0x00008947 0x000000c0 0x03800000 0x000fea00
0xff037424 0x00000004 0x078e00ff 0x000fc800
0x04027625 0x00005800 0x078e0203 0x000fca00
0x00097202 0x00000003 0x00000f00 0x000fc800
0x00037202 0x00000009 0x00000f00 0x000fd000
0x02037381 0x00000000 0x001e6900 0x0000a200
0x07077810 0xffffffff 0x07ffe0ff 0x000fe400
0x04047810 0x00000100 0x07ffe0ff 0x000fe400
0x0700720c 0x000000ff 0x03f05270 0x000fe400
0x02027810 0x00000400 0x07f5e0ff 0x001fca00
0xff097224 0x000000ff 0x010e0609 0x000fe400
0x03067220 0x00000006 0x00400000 0x024fc600
0x00000947 0xffffff70 0x0383ffff 0x000fea00
0x00027941 0x00000000 0x03800000 0x000fea00
0x00009947 0x00000560 0x03800000 0x000fea00
0x04027a10 0x00005c00 0x07ffe1ff 0x000fe200
0x02ff7355 0x00000000 0x00100000 0x000fe200
0x00037802 0x00000004 0x00000f00 0x000fe200
0x00027945 0x000002c0 0x03800000 0x000fe200
0x0200780c 0x00000c00 0x03f24270 0x000fe400
0x0000781c 0x00000000 0x03f0f070 0x000fe200
0x04027625 0x00005800 0x078e0203 0x000fd200
0x00009947 0x00000270 0x03800000 0x000fea00
0x0000781c 0x00000000 0x03f0e170 0x000fe400
0x05097810 0xfffff400 0x07ffe0ff 0x000fe400
0x02077381 0x00000000 0x001e6900 0x0000a800
0x02087381 0x00040000 0x001e6900 0x0000e800
0x020a7381 0x00080000 0x001e6900 0x00012800
0x020c7381 0x000c0000 0x001e6900 0x00012800
0x020e7381 0x00100000 0x001e6900 0x00012800
0x02107381 0x00140000 0x001e6900 0x00012800
0x02127381 0x00180000 0x001e6900 0x00012800
0x02147381 0x001c0000 0x001e6900 0x00012800
0x02167381 0x00200000 0x001e6900 0x00012800
0x02187381 0x00240000 0x001e6900 0x00012800
0x021a7381 0x00280000 0x001e6900 0x00012800
0x021c7381 0x002c0000 0x001e6900 0x00012800
0x021e7381 0x00300000 0x001e6900 0x00012800
0x02207381 0x00340000 0x001e6900 0x00012800
0x02227381 0x00380000 0x001e6900 0x00012800
0x02247381 0x003c0000 0x001e6900 0x00012200
0x04047810 0x00001000 0x07ffe0ff 0x000fc800
0x0400720c 0x00000009 0x03f26270 0x000fe400
0x02027810 0x00004000 0x07f5e0ff 0x001fc800
0xff037210 0x00000003 0x017fe4ff 0x000fe200
0x07077220 0x00000006 0x00400000 0x024fc800
0x07077220 0x00000008 0x00400000 0x008fc800
0x07077220 0x0000000a 0x00400000 0x010fc800
0x07077220 0x0000000c 0x00400000 0x000fc800
0x07077220 0x0000000e 0x00400000 0x000fc800
0x07077220 0x00000010 0x00400000 0x000fc800
0x07077220 0x00000012 0x00400000 0x000fc800
0x07077220 0x00000014 0x00400000 0x000fc800
0x07077220 0x00000016 0x00400000 0x000fc800
0x07077220 0x00000018 0x00400000 0x000fc800
0x07077220 0x0000001a 0x00400000 0x000fc800
0x07077220 0x0000001c 0x00400000 0x000fc800
0x07077220 0x0000001e 0x00400000 0x000fc800
0x07077220 0x00000020 0x00400000 0x000fc800
0x07077220 0x00000022 0x00400000 0x000fc800
0x07067220 0x00000024 0x00400000 0x000fe200
0x00009947 0xfffffdb0 0x0383ffff 0x000fea00
0x00027941 0x00000000 0x03800000 0x000fea00
0x04077a10 0x00005c00 0x07ffe1ff 0x000fe200
0x02ff7355 0x00000000 0x00100000 0x000fe200
0x00027945 0x00000190 0x03800000 0x000fe400
0x0700780c 0x00000400 0x03f24270 0x000fd800
0x00009947 0x00000160 0x03800000 0x000fea00
0x02077381 0x00000000 0x001e6900 0x000ea800
0x02087381 0x00040000 0x001e6900 0x000ee800
0x020a7381 0x00080000 0x001e6900 0x000f2800
0x020c7381 0x000c0000 0x001e6900 0x00012800
0x020e7381 0x00100000 0x001e6900 0x00012800
0x02107381 0x00140000 0x001e6900 0x00012800
0x02127381 0x00180000 0x001e6900 0x00012800
0x02147381 0x001c0000 0x001e6900 0x00012200
0x0000781c 0x00000000 0x03f0e170 0x000fc400
0x04047810 0x00000800 0x07ffe0ff 0x000fe200
0x06077220 0x00000007 0x00400000 0x024fc800
0x07077220 0x00000008 0x00400000 0x008fe200
0x02087810 0x00002000 0x07f3e0ff 0x000fc600
0x07077220 0x0000000a 0x00400000 0x010fe200
0x00027202 0x00000008 0x00000f00 0x001fe200
0xff097224 0x000000ff 0x008e0603 0x000fe400
0x07077220 0x0000000c 0x00400000 0x000fc600
0x00037202 0x00000009 0x00000f00 0x000fe200
0x07077220 0x0000000e 0x00400000 0x000fc800
0x07077220 0x00000010 0x00400000 0x000fc800
0x07077220 0x00000012 0x00400000 0x000fc800
0x07067220 0x00000014 0x00400000 0x000fc600
0x00027941 0x00000000 0x03800000 0x000fea00
0x04007a0c 0x00005c00 0x00701670 0x000fd800
0x00008947 0x00000080 0x03800000 0x000fea00
0x02077381 0x00000000 0x001e6900 0x000ea800
0x02047381 0x00040000 0x001e6900 0x000ee800
0x02097381 0x00080000 0x001e6900 0x000f2800
0x020b7381 0x000c0000 0x001e6900 0x000f2200
0x06077220 0x00000007 0x00400000 0x024fc800
0x07047220 0x00000004 0x00400000 0x008fc800
0x04047220 0x00000009 0x00400000 0x010fc800
0x04067220 0x0000000b 0x00400000 0x000fc600
0x00017941 0x00000000 0x03800000 0x000fea00
0x0500780c 0x000000ff 0x03f04270 0x000fe200
0xff097224 0x000000ff 0x078e0006 0x020fd600
0x00000947 0x00000390 0x03800000 0x000fea00
0xff037819 0x0000001f 0x00011400 0x001fe200
0x00087919 0x00000000 0x00000000 0x000e2600
0x03067211 0x00000000 0x078f28ff 0x000fc800
0x06027812 0xffffffe0 0x078ec0ff 0x000fe400
0xff067819 0x00000005 0x00011406 0x000fe400
0x02037810 0x00000020 0x07ffe0ff 0x000fe400
0xff027212 0x00000002 0x078e33ff 0x000fe400
0x03007a0c 0x00005c00 0x03f04270 0x000fe400
0x02027a10 0x00005c00 0x07ffe0ff 0x000fc800
0x02037807 0x0000001f 0x00000000 0x000fe400
0x0800720c 0x000000ff 0x03f25270 0x041fe400
0x0800720c 0x00000003 0x03f06270 0x000fc800
0x09027989 0x08200000 0x000e0003 0x000e2400
0x02027220 0x00000009 0x00400000 0x001fca00
0x02047208 0x00000009 0x04000000 0x000fe400
0x08027810 0x00000002 0x07ffe0ff 0x000fc800
0x0200720c 0x00000003 0x03f04270 0x000fe400
0x04077989 0x08400000 0x000e0003 0x000e2200
0x08027810 0x00000004 0x07ffe0ff 0x000fd200
0x04048220 0x00000007 0x00400000 0x001fe200
0x0200720c 0x00000003 0x03f04270 0x000fe400
0x08027810 0x00000008 0x07ffe0ff 0x000fca00
0x04077989 0x08800000 0x000e0003 0x000e2a00
0x04048220 0x00000007 0x00400000 0x001fe200
0x0200720c 0x00000003 0x03f04270 0x000fe400
0x08027810 0x00000010 0x07ffe0ff 0x000fca00
0x04077989 0x09000000 0x000e0003 0x000e2a00
0x04048220 0x00000007 0x00400000 0x001fe200
0x0200720c 0x00000003 0x03f04270 0x000fce00
0x04077989 0x0a000000 0x000e0003 0x000e2a00
0x04048220 0x00000007 0x00400000 0x001fe200
0x0000720c 0x000000ff 0x03f05270 0x000fe400
0x06079819 0x00000002 0x000006ff 0x000fe400
0x00027202 0x00000004 0x00000f00 0x000fd000
0x07009388 0x00000802 0x00000800 0x000fe800
0x00007b1d 0x00000000 0x00000000 0x000fea00
0x00000947 0x000021f0 0x03800000 0x000fea00
0xff037984 0x00000c00 0x00001800 0x000e2200
0x0500780c 0x00000020 0x03f04270 0x040fe200
0xff007224 0x000000ff 0x078e00ff 0x000fe200
0x0500780c 0x00000040 0x03f24270 0x040fe200
0xff087984 0x00001000 0x00001c00 0x000e6200
0x0500780c 0x00000060 0x03f44270 0x000fce00
0xff067984 0x00002000 0x00001a00 0x000ea200
0x02020220 0x00000003 0x00400000 0x001fe200
0x0500780c 0x00000080 0x03f04270 0x000fc600
0x02021220 0x00000008 0x00400000 0x002fe200
0x0500780c 0x000000a0 0x03f24270 0x000fc600
0x02022220 0x00000009 0x00400000 0x000fe200
0x0500780c 0x000000c0 0x03f44270 0x000fc800
0x02020220 0x0000000a 0x00400000 0x000fe200
0x0500780c 0x000000e1 0x03f06270 0x000fc600
0x02021220 0x0000000b 0x00400000 0x000fc800
0x02022220 0x00000006 0x00400000 0x004fca00
0x00008947 0x000020d0 0x03800000 0x000fea00
0x02027220 0x00000007 0x00400000 0x000fe200
0x00007947 0x000020b0 0x03800000 0x000fea00
0x00037919 0x00000000 0x00000000 0x001e2800
0x09027f89 0x08201f00 0x000e0000 0x000e6200
0x0300780c 0x0000001e 0x03f04270 0x041fe400
0x0300720c 0x000000ff 0x03f25270 0x000fd400
0x02098220 0x00000009 0x00400000 0x002fe200
0x0300780c 0x0000001d 0x03f04270 0x000fce00
0x09027f89 0x08401f00 0x000e0000 0x000e2a00
0x09098220 0x00000002 0x00400000 0x001fe200
0x0300780c 0x0000001b 0x03f04270 0x000fce00
0x09027f89 0x08801f00 0x000e0000 0x000e2a00
0x09098220 0x00000002 0x00400000 0x001fe200
0x0300780c 0x00000017 0x03f04270 0x000fce00
0x09027f89 0x09001f00 0x000e0000 0x000e2a00
0x09098220 0x00000002 0x00400000 0x001fe200
0x0300780c 0x0000000f 0x03f04270 0x000fe400
0xff039819 0x0000001f 0x00011400 0x000fc800
0x03039211 0x00000000 0x078f28ff 0x000fe200
0x09027f89 0x0a001f00 0x000e0000 0x000e2600
0xff039819 0x00000005 0x00011403 0x000fc800
0x03039819 0x00000002 0x000006ff 0x000fe200
0x09098220 0x00000002 0x00400000 0x001fe200
0x0000720c 0x000000ff 0x03f05270 0x000fc800
0x00027202 0x00000009 0x00000f00 0x000fd000
0x03009388 0x00000802 0x00000800 0x000fe800
0x00007b1d 0x00000000 0x00000000 0x000fea00
0x00000947 0x00001f10 0x03800000 0x000fea00
0xff037984 0x00000c00 0x00001800 0x000e2200
0xff007224 0x000000ff 0x078e00ff 0x000fc600
0xff047984 0x00001000 0x00001c00 0x000e7000
0xff087984 0x00002000 0x00001a00 0x000ea200
0x02037220 0x00000003 0x00400000 0x001fc800
0x03047220 0x00000004 0x00400000 0x002fc800
0x04057220 0x00000005 0x00400000 0x000fc800
0x05067220 0x00000006 0x00400000 0x000fc800
0x06067220 0x00000007 0x00400000 0x000fc800
0x06067220 0x00000008 0x00400000 0x004fc800
0x06027220 0x00000009 0x00400000 0x000fe200
0x00007947 0x00001e50 0x03800000 0x000fea00
0x00037a02 0x00005c00 0x00000f00 0x000fc800
0x0300780c 0x00001000 0x03f06270 0x000fd800
0x00008947 0x00001050 0x03800000 0x000fea00
0x000c7819 0x00000002 0x000006ff 0x001fe200
0xff0d7424 0x00000004 0x078e00ff 0x000fc800
0x0c0c7625 0x00005800 0x078e000d 0x000fd000
0x0c107381 0x00000000 0x001e6d00 0x000ea800
0x0c147381 0x00100000 0x001e6d00 0x000ee800
0x0c087381 0x00200000 0x001e6d00 0x000f2800
0x0c047381 0x00300000 0x001e6d00 0x000f6200
0x0300780c 0x00002000 0x03f06270 0x000fe200
0x10117220 0x00000011 0x00400000 0x004fc800
0x12117220 0x00000011 0x00400000 0x000fc800
0x13117220 0x00000011 0x00400000 0x000fc800
0x14117220 0x00000011 0x00400000 0x008fc800
0x15117220 0x00000011 0x00400000 0x000fc800
0x16117220 0x00000011 0x00400000 0x000fc800
0x17117220 0x00000011 0x00400000 0x000fc800
0x08117220 0x00000011 0x00400000 0x010fc800
0x09117220 0x00000011 0x00400000 0x000fc800
0x0a117220 0x00000011 0x00400000 0x000fc800
0x0b117220 0x00000011 0x00400000 0x000fc800
0x04117220 0x00000011 0x00400000 0x020fc800
0x05117220 0x00000011 0x00400000 0x000fc800
0x06057220 0x00000011 0x00400000 0x000fe200
0x00117802 0x00001000 0x00000f00 0x000fc600
0x07027220 0x00000005 0x00400000 0x000fe200
0x00008947 0x00000210 0x03800000 0x000fea00
0x03107810 0xfffff000 0x07ffe0ff 0x000fe200
0xff137224 0x000000ff 0x078e000d 0x000fe200
0x00127202 0x0000000c 0x00000f00 0x000fe400
0x00117802 0x00001000 0x00000f00 0x000fe400
0x00037202 0x00000010 0x00000f00 0x000fc800
0x12147381 0x00400000 0x001e6d00 0x0000a800
0x120c7381 0x00500000 0x001e6d00 0x0000e800
0x12087381 0x00600000 0x001e6d00 0x00012800
0x12047381 0x00700000 0x001e6d00 0x00016200
0x0300780c 0x00001000 0x03f06270 0x000fc400
0x12127810 0x00004000 0x07f3e0ff 0x001fca00
0xff137224 0x000000ff 0x008e0613 0x000fe400
0x14147220 0x00000002 0x00400000 0x004fc800
0x15157220 0x00000014 0x00400000 0x000fc800
0x16157220 0x00000015 0x00400000 0x000fc800
0x17157220 0x00000015 0x00400000 0x000fc800
0x0c157220 0x00000015 0x00400000 0x008fc800
0x0d157220 0x00000015 0x00400000 0x000fc800
0x0e157220 0x00000015 0x00400000 0x000fc800
0x0f157220 0x00000015 0x00400000 0x000fc800
0x08157220 0x00000015 0x00400000 0x010fc800
0x09157220 0x00000015 0x00400000 0x000fc800
0x0a157220 0x00000015 0x00400000 0x000fc800
0x0b157220 0x00000015 0x00400000 0x000fc800
0x04157220 0x00000015 0x00400000 0x020fc800
0x05157220 0x00000015 0x00400000 0x000fc800
0x06157220 0x00000015 0x00400000 0x000fc800
0x07027220 0x00000015 0x00400000 0x000fe200
0x00008947 0x00000a80 0x03800000 0x000fea00
0x11117810 0x00001000 0x07ffe0ff 0x000fe400
0x03037810 0xfffff000 0x07ffe0ff 0x000fe400
0x1100720c 0x00000010 0x03f04270 0x000fd800
0x00008947 0xfffffe40 0x0383ffff 0x000fea00
0x11007a0c 0x00005c00 0x03f06270 0x000fd800
0x00000947 0x00000a20 0x03800000 0x000fea00
0x11037a10 0x00005c00 0x07ffe1ff 0x000fe200
0x01ff7355 0x00000000 0x00100000 0x000fe200
0x00017945 0x000009f0 0x03800000 0x000fe400
0x0000720c 0x00000003 0x03f06270 0x000fd800
0x00000947 0x000009c0 0x03800000 0x000fea00
0xff047212 0x00000000 0x078e33ff 0x080fe200
0x02ff7355 0x00000000 0x00100000 0x000fe200
0x00027945 0x00000150 0x03800000 0x000fe200
0x000c7202 0x00000000 0x00000f00 0x000fe400
0x11057a10 0x00005c00 0x07ffe104 0x000fc800
0x05047811 0x00000001 0x078fc0ff 0x040fe400
0x0500780c 0x00000300 0x03f26070 0x000fe400
0x04067812 0x00000003 0x0780c0ff 0x000fd800
0x00008947 0x000000e0 0x03800000 0x000fea00
0x00047210 0x00000011 0x07ffe0ff 0x000fe200
0xff057424 0x00000004 0x078e00ff 0x000fe200
0x000c7202 0x00000000 0x00000f00 0x000fc600
0x04047625 0x00005800 0x078e0205 0x000fca00
0x00077202 0x00000005 0x00000f00 0x000fca00
0xff057224 0x000000ff 0x078e0007 0x000fd000
0x04057381 0x00000000 0x001e6900 0x0000a200
0x06067810 0xffffffff 0x07ffe0ff 0x000fe400
0x0c0c7810 0x00000100 0x07ffe0ff 0x000fe400
0x0600720c 0x000000ff 0x03f05270 0x000fe400
0x04047810 0x00000400 0x07f5e0ff 0x001fc800
0xff077210 0x00000007 0x017fe4ff 0x000fe200
0x05027220 0x00000002 0x00400000 0x004fca00
0x00000947 0xffffff70 0x0383ffff 0x000fea00
0x00027941 0x00000000 0x03800000 0x000fea00
0x00009947 0x00000830 0x03800000 0x000fea00
0x03057210 0x8000000c 0x07ffe0ff 0x000fe200
0xff0a7424 0x00000004 0x078e00ff 0x000fe200
0x0c117210 0x00000011 0x07ffe0ff 0x000fe200
0x02ff7355 0x00000000 0x00100000 0x000fe200
0x0500780c 0x00000c00 0x03f24270 0x000fe200
0x00027945 0x00000450 0x03800000 0x000fe200
0x11047810 0x00000300 0x07ffe0ff 0x040fe200
0x11087625 0x00005800 0x078e020a 0x040fe200
0x11067810 0x00000200 0x07ffe0ff 0x040fe400
0x11117810 0x00000100 0x07ffe0ff 0x000fe200
0xff1c7224 0x000000ff 0x078e0009 0x000fe200
0x000f7202 0x00000008 0x00000f00 0x000fe200
0x04047625 0x00005800 0x078e020a 0x000fe200
0x0000781c 0x00000000 0x03f0f070 0x000fc600
0x06067625 0x00005800 0x078e020a 0x000fe200
0x000b7202 0x00000005 0x00000f00 0x000fc600
0x11087625 0x00005800 0x078e020a 0x000fe200
0x000a7202 0x00000004 0x00000f00 0x000fe400
0x00207202 0x00000007 0x00000f00 0x000fe200
0xff137224 0x000000ff 0x078e0006 0x000fe200
0x00117202 0x00000008 0x00000f00 0x000fe200
0xff1e7224 0x000000ff 0x078e0009 0x000fe200
0x00009947 0x00000330 0x03800000 0x000fea00
0x0000781c 0x00000000 0x03f0e170 0x000fe400
0x03157810 0xfffff400 0x07ffe0ff 0x000fe400
0x00067202 0x0000000f 0x00000f00 0x000fe400
0x00077202 0x0000001c 0x00000f00 0x000fe200
0xff087224 0x000000ff 0x078e0011 0x000fe200
0x00097202 0x0000001e 0x00000f00 0x000fe200
0xff057224 0x000000ff 0x078e0020 0x000fe200
0x00047202 0x00000013 0x00000f00 0x000fe200
0x0a127381 0x00000000 0x001e6900 0x0000a800
0x060d7381 0x00000000 0x001e6900 0x000ee800
0x080e7381 0x00000000 0x001e6900 0x000f2800
0x04107381 0x00000000 0x001e6900 0x000f6800
0x06147381 0x00100000 0x001e6900 0x000ea800
0x08167381 0x00100000 0x001e6900 0x000ea800
0x04187381 0x00100000 0x001e6900 0x000ea800
0x0a1a7381 0x00100000 0x001e6900 0x0000a800
0x061c7381 0x00200000 0x001e6900 0x000ea800
0x081e7381 0x00200000 0x001e6900 0x000ea800
0x04207381 0x00200000 0x001e6900 0x000ea800
0x0a227381 0x00200000 0x001e6900 0x0000a800
0x06247381 0x00300000 0x001e6900 0x000ea800
0x08267381 0x00300000 0x001e6900 0x000ea800
0x04287381 0x00300000 0x001e6900 0x000ea800
0x0a2a7381 0x00300000 0x001e6900 0x0000a200
0x0c0c7810 0x00001000 0x07ffe0ff 0x000fc400
0x0a0a7810 0x00004000 0x07f3e0ff 0x001fc800
0xff0b7210 0x0000000b 0x00ffe4ff 0x000fe400
0x0c00720c 0x00000015 0x03f26270 0x000fe400
0x08117810 0x00004000 0x07f7e0ff 0x000fe400
0x04137810 0x00004000 0x07f5e0ff 0x000fe400
0x060f7810 0x00004000 0x07f9e0ff 0x000fe200
0x0d0d7220 0x00000002 0x00400000 0x008fc800
0x0d0d7220 0x0000000e 0x00400000 0x010fc800
0x0d0d7220 0x00000010 0x00400000 0x020fc800
0x0d0d7220 0x00000012 0x00400000 0x004fc800
0x0d0d7220 0x00000014 0x00400000 0x000fc800
0x0d0d7220 0x00000016 0x00400000 0x000fc800
0x0d0d7220 0x00000018 0x00400000 0x000fc800
0x0d0d7220 0x0000001a 0x00400000 0x000fc800
0x0d0d7220 0x0000001c 0x00400000 0x000fc800
0x0d0d7220 0x0000001e 0x00400000 0x000fc800
0x0d0d7220 0x00000020 0x00400000 0x000fc800
0x0d0d7220 0x00000022 0x00400000 0x000fc800
0x0d0d7220 0x00000024 0x00400000 0x000fc800
0x0d0d7220 0x00000026 0x00400000 0x000fc800
0x0d0d7220 0x00000028 0x00400000 0x000fe200
0xff207210 0x00000005 0x017fe4ff 0x000fe200
0xff1e7224 0x000000ff 0x018e0609 0x000fe200
0xff1c7210 0x00000007 0x027fe4ff 0x000fe200
0x0d027220 0x0000002a 0x00400000 0x000fe200
0x00009947 0xfffffcf0 0x0383ffff 0x000fea00
0x00027941 0x00000000 0x03800000 0x000fea00
0x03047210 0x8000000c 0x07ffe0ff 0x000fe200
0x02ff7355 0x00000000 0x00100000 0x000fe200
0x00027945 0x00000230 0x03800000 0x000fe400
0x0400780c 0x00000400 0x03f24270 0x000fd800
0x00009947 0x00000200 0x03800000 0x000fea00
0xff047224 0x000000ff 0x078e000f 0x000fe200
0x00057202 0x0000001c 0x00000f00 0x000fe200
0xff077224 0x000000ff 0x078e001e 0x000fe200
0x00067202 0x00000011 0x00000f00 0x000fe200
0x0a127381 0x00000000 0x001e6900 0x0000a200
0x00087202 0x00000013 0x00000f00 0x000fe400
0x00097202 0x00000020 0x00000f00 0x000fe200
0x0a1a7381 0x00100000 0x001e6900 0x0000e800
0x040d7381 0x00000000 0x001e6900 0x000f2800
0x060e7381 0x00000000 0x001e6900 0x000f6800
0x08107381 0x00000000 0x001e6900 0x000ea800
0x04147381 0x00100000 0x001e6900 0x000ee800
0x06167381 0x00100000 0x001e6900 0x000ee800
0x08187381 0x00100000 0x001e6900 0x000ee200
0x0a0a7810 0x00002000 0x07f3e0ff 0x001fc400
0x0f0f7810 0x00002000 0x07f9e0ff 0x000fe400
0x13137810 0x00002000 0x07f5e0ff 0x000fe400
0x11117810 0x00002000 0x07f7e0ff 0x000fe200
0xff0b7224 0x000000ff 0x008e060b 0x000fe200
0x0000781c 0x00000000 0x03f0e170 0x000fe200
0xff1c7224 0x000000ff 0x020e061c 0x000fe200
0x0c0c7810 0x00000800 0x07ffe0ff 0x000fe400
0xff207210 0x00000020 0x017fe4ff 0x000fc400
0xff1e7210 0x0000001e 0x01ffe4ff 0x000fe200
0x020d7220 0x0000000d 0x00400000 0x010fc800
0x0d0d7220 0x0000000e 0x00400000 0x020fc800
0x0d0d7220 0x00000010 0x00400000 0x004fc800
0x0d0d7220 0x00000012 0x00400000 0x000fc800
0x0d0d7220 0x00000014 0x00400000 0x008fc800
0x0d0d7220 0x00000016 0x00400000 0x000fc800
0x0d0d7220 0x00000018 0x00400000 0x000fc800
0x0d027220 0x0000001a 0x00400000 0x000fc600
0x00027941 0x00000000 0x03800000 0x000fea00
0x0c00720c 0x00000003 0x00701670 0x000fe200
0xff067224 0x000000ff 0x078e0013 0x000fe200
0x00047202 0x0000000a 0x00000f00 0x000fe200
0xff097224 0x000000ff 0x078e001e 0x000fe200
0x00057202 0x0000000b 0x00000f00 0x000fe400
0x00077202 0x00000020 0x00000f00 0x000fe400
0x00087202 0x00000011 0x00000f00 0x000fe400
0x000a7202 0x0000000f 0x00000f00 0x000fc400
0x000b7202 0x0000001c 0x00000f00 0x000fe200
0x00008947 0x00000080 0x03800000 0x000fee00
0x0a0b7381 0x00000000 0x001e6900 0x000ea800
0x08097381 0x00000000 0x001e6900 0x000ee800
0x06077381 0x00000000 0x001e6900 0x000f2800
0x04057381 0x00000000 0x001e6900 0x000f6200
0x02027220 0x0000000b 0x00400000 0x004fc800
0x02027220 0x00000009 0x00400000 0x008fc800
0x02027220 0x00000007 0x00400000 0x010fc800
0x02027220 0x00000005 0x00400000 0x020fc600
0x00017941 0x00000000 0x03800000 0x000fea00
0x00047919 0x00000000 0x00000000 0x000e2200
0xff037224 0x000000ff 0x078e0002 0x000fd000
0x03027f89 0x08201f00 0x000e0000 0x000e6200
0x0400780c 0x0000001e 0x03f04270 0x041fe400
0x0400720c 0x000000ff 0x03f25270 0x000fd400
0x02038220 0x00000003 0x00400000 0x002fe200
0x0400780c 0x0000001d 0x03f04270 0x000fe400
0xff059819 0x0000001f 0x00011400 0x000fc800
0x05059211 0x00000000 0x078f28ff 0x000fe200
0x03027f89 0x08401f00 0x000e0000 0x000e2600
0xff059819 0x00000005 0x00011405 0x000fc800
0x05059819 0x00000002 0x000006ff 0x000fe200
0x03038220 0x00000002 0x00400000 0x001fe200
0x0400780c 0x0000001b 0x03f04270 0x000fce00
0x03027f89 0x08801f00 0x000e0000 0x000e2a00
0x03038220 0x00000002 0x00400000 0x001fe200
0x0400780c 0x00000017 0x03f04270 0x000fce00
0x03027f89 0x09001f00 0x000e0000 0x000e2a00
0x03038220 0x00000002 0x00400000 0x001fe200
0x0400780c 0x0000000f 0x03f04270 0x000fce00
0x03027f89 0x0a001f00 0x000e0000 0x000e2a00
0x03038220 0x00000002 0x00400000 0x001fe200
0x0000720c 0x000000ff 0x03f05270 0x000fc800
0x00027202 0x00000003 0x00000f00 0x000fd000
0x05009388 0x00000802 0x00000800 0x000fe800
0x00007b1d 0x00000000 0x00000000 0x000fea00
0x00000947 0x00000e90 0x03800000 0x000fea00
0xff037984 0x00000c00 0x00001800 0x000e2200
0xff007224 0x000000ff 0x078e00ff 0x000fc600
0xff047984 0x00001000 0x00001c00 0x000e7000
0xff087984 0x00002000 0x00001a00 0x000ea200
0x02037220 0x00000003 0x00400000 0x001fc800
0x03047220 0x00000004 0x00400000 0x002fc800
0x04057220 0x00000005 0x00400000 0x000fc800
0x05067220 0x00000006 0x00400000 0x000fc800
0x06067220 0x00000007 0x00400000 0x000fc800
0x06067220 0x00000008 0x00400000 0x004fc800
0x06027220 0x00000009 0x00400000 0x000fe200
0x00007947 0x00000dd0 0x03800000 0x000fea00
0x00007a0c 0x00005c00 0x03f06270 0x001fe200
0x01ff7355 0x00000000 0x00100000 0x000fe200
0x00017945 0x00000080 0x03800000 0x000fe200
0x00067202 0x000000ff 0x00000f00 0x000fe400
0x00027202 0x00000000 0x00000f00 0x000fce00
0x00000947 0x00000040 0x03800000 0x000fea00
0xff057424 0x00000004 0x078e00ff 0x000fc800
0x00047625 0x00005800 0x078e0205 0x000fd000
0x04067381 0x00000000 0x001e6900 0x00016200
0x00027810 0x00000100 0x07ffe0ff 0x000fc600
0x00017941 0x00000000 0x03800000 0x000fea00
0x02007a0c 0x00005c00 0x03f06270 0x000fe200
0x01ff7355 0x00000000 0x00100000 0x000fe200
0x00017945 0x000006e0 0x03800000 0x000ff400
0x00000947 0x000006c0 0x03800000 0x000fea00
0xff047212 0x00000002 0x078e33ff 0x001fe200
0x02ff7355 0x00000000 0x00100000 0x000fe200
0x00027945 0x00000120 0x03800000 0x000fe400
0x04057a10 0x00005c00 0x07ffe0ff 0x000fc800
0x05047811 0x00000001 0x078fc0ff 0x040fe400
0x0500780c 0x00000300 0x03f26070 0x000fe400
0x04077812 0x00000003 0x0780c0ff 0x000fd800
0x00008947 0x000000c0 0x03800000 0x000fea00
0x00057802 0x00000004 0x00000f00 0x000fca00
0x02047625 0x00005800 0x078e0205 0x000fca00
0x00097202 0x00000005 0x00000f00 0x000fca00
0xff057224 0x000000ff 0x078e0009 0x000fd000
0x04057381 0x00000000 0x001e6900 0x0000a200
0x07077810 0xffffffff 0x07ffe0ff 0x000fe400
0x02027810 0x00000100 0x07ffe0ff 0x000fe400
0x0700720c 0x000000ff 0x03f05270 0x000fe400
0x04047810 0x00000400 0x07f5e0ff 0x001fc800
0xff097210 0x00000009 0x017fe4ff 0x000fe200
0x05067220 0x00000006 0x00400000 0x024fca00
0x00000947 0xffffff70 0x0383ffff 0x000fea00
0x00027941 0x00000000 0x03800000 0x000fea00
0x00009947 0x00000560 0x03800000 0x000fea00
0x02047a10 0x00005c00 0x07ffe1ff 0x000fe200
0x02ff7355 0x00000000 0x00100000 0x000fe200
0x00057802 0x00000004 0x00000f00 0x000fe200
0x00027945 0x000002c0 0x03800000 0x000fe200
0x0400780c 0x00000c00 0x03f24270 0x000fe400
0x0000781c 0x00000000 0x03f0f070 0x000fe200
0x02047625 0x00005800 0x078e0205 0x000fd200
0x00009947 0x00000270 0x03800000 0x000fea00
0x0000781c 0x00000000 0x03f0e170 0x000fe400
0x03097810 0xfffff400 0x07ffe0ff 0x000fe400
0x04077381 0x00000000 0x001e6900 0x0000a800
0x04087381 0x00040000 0x001e6900 0x0000e800
0x040a7381 0x00080000 0x001e6900 0x00012800
0x040c7381 0x000c0000 0x001e6900 0x00012800
0x040e7381 0x00100000 0x001e6900 0x00012800
0x04107381 0x00140000 0x001e6900 0x00012800
0x04127381 0x00180000 0x001e6900 0x00012800
0x04147381 0x001c0000 0x001e6900 0x00012800
0x04167381 0x00200000 0x001e6900 0x00012800
0x04187381 0x00240000 0x001e6900 0x00012800
0x041a7381 0x00280000 0x001e6900 0x00012800
0x041c7381 0x002c0000 0x001e6900 0x00012800
0x041e7381 0x00300000 0x001e6900 0x00012800
0x04207381 0x00340000 0x001e6900 0x00012800
0x04227381 0x00380000 0x001e6900 0x00012800
0x04247381 0x003c0000 0x001e6900 0x00012200
0x02027810 0x00001000 0x07ffe0ff 0x000fc800
0x0200720c 0x00000009 0x03f26270 0x000fe400
0x04047810 0x00004000 0x07f5e0ff 0x001fca00
0xff057224 0x000000ff 0x010e0605 0x000fe400
0x07077220 0x00000006 0x00400000 0x024fc800
0x07077220 0x00000008 0x00400000 0x008fc800
0x07077220 0x0000000a 0x00400000 0x010fc800
0x07077220 0x0000000c 0x00400000 0x000fc800
0x07077220 0x0000000e 0x00400000 0x000fc800
0x07077220 0x00000010 0x00400000 0x000fc800
0x07077220 0x00000012 0x00400000 0x000fc800
0x07077220 0x00000014 0x00400000 0x000fc800
0x07077220 0x00000016 0x00400000 0x000fc800
0x07077220 0x00000018 0x00400000 0x000fc800
0x07077220 0x0000001a 0x00400000 0x000fc800
0x07077220 0x0000001c 0x00400000 0x000fc800
0x07077220 0x0000001e 0x00400000 0x000fc800
0x07077220 0x00000020 0x00400000 0x000fc800
0x07077220 0x00000022 0x00400000 0x000fc800
0x07067220 0x00000024 0x00400000 0x000fe200
0x00009947 0xfffffdb0 0x0383ffff 0x000fea00
0x00027941 0x00000000 0x03800000 0x000fea00
0x02077a10 0x00005c00 0x07ffe1ff 0x000fe200
0x02ff7355 0x00000000 0x00100000 0x000fe200
0x00027945 0x00000190 0x03800000 0x000fe400
0x0700780c 0x00000400 0x03f24270 0x000fd800
0x00009947 0x00000160 0x03800000 0x000fea00
0x04077381 0x00000000 0x001e6900 0x000ea800
0x04087381 0x00040000 0x001e6900 0x000ee800
0x040a7381 0x00080000 0x001e6900 0x000f2800
0x040c7381 0x000c0000 0x001e6900 0x00012800
0x040e7381 0x00100000 0x001e6900 0x00012800
0x04107381 0x00140000 0x001e6900 0x00012800
0x04127381 0x00180000 0x001e6900 0x00012800
0x04147381 0x001c0000 0x001e6900 0x00012200
0x0000781c 0x00000000 0x03f0e170 0x000fc400
0x02027810 0x00000800 0x07ffe0ff 0x000fe200
0x06077220 0x00000007 0x00400000 0x024fc800
0x07077220 0x00000008 0x00400000 0x008fe200
0x04087810 0x00002000 0x07f3e0ff 0x000fc600
0x07077220 0x0000000a 0x00400000 0x010fe200
0xff097210 0x00000005 0x00ffe4ff 0x000fe400
0x00047202 0x00000008 0x00000f00 0x001fe200
0x07077220 0x0000000c 0x00400000 0x000fe400
0xff057224 0x000000ff 0x078e0009 0x000fe400
0x07077220 0x0000000e 0x00400000 0x000fc800
0x07077220 0x00000010 0x00400000 0x000fc800
0x07077220 0x00000012 0x00400000 0x000fc800
0x07067220 0x00000014 0x00400000 0x000fc600
0x00027941 0x00000000 0x03800000 0x000fea00
0x02007a0c 0x00005c00 0x00701670 0x000fd800
0x00008947 0x00000080 0x03800000 0x000fea00
0x04077381 0x00000000 0x001e6900 0x000ea800
0x04027381 0x00040000 0x001e6900 0x000ee800
0x04097381 0x00080000 0x001e6900 0x000f2800
0x040b7381 0x000c0000 0x001e6900 0x000f2200
0x06077220 0x00000007 0x00400000 0x024fc800
0x07027220 0x00000002 0x00400000 0x008fc800
0x02027220 0x00000009 0x00400000 0x010fc800
0x02067220 0x0000000b 0x00400000 0x000fc600
0x00017941 0x00000000 0x03800000 0x000fea00
0x0300780c 0x000000ff 0x03f04270 0x000fe400
0x00077202 0x00000006 0x00000f00 0x020fd400
0x00000947 0x00000390 0x03800000 0x000fea00
0xff057819 0x0000001f 0x00011400 0x001fe200
0x00087919 0x00000000 0x00000000 0x000e2600
0x05067211 0x00000000 0x078f28ff 0x000fc800
0x06027812 0xffffffe0 0x078ec0ff 0x000fe400
0xff067819 0x00000005 0x00011406 0x000fe400
0x02047810 0x00000020 0x07ffe0ff 0x000fe400
0xff027212 0x00000002 0x078e33ff 0x000fe400
0x04007a0c 0x00005c00 0x03f04270 0x000fe400
0x02027a10 0x00005c00 0x07ffe0ff 0x000fc800
0x02097807 0x0000001f 0x00000000 0x000fe400
0x0800720c 0x000000ff 0x03f25270 0x041fe400
0x0800720c 0x00000009 0x03f06270 0x000fc800
0x07027989 0x08200000 0x000e0009 0x000e2400
0x02027220 0x00000007 0x00400000 0x001fca00
0x02047208 0x00000007 0x04000000 0x000fe400
0x08027810 0x00000002 0x07ffe0ff 0x000fc800
0x0200720c 0x00000009 0x03f04270 0x000fe400
0x04057989 0x08400000 0x000e0009 0x000e2200
0x08027810 0x00000004 0x07ffe0ff 0x000fd200
0x04048220 0x00000005 0x00400000 0x001fe200
0x0200720c 0x00000009 0x03f04270 0x000fe400
0x08027810 0x00000008 0x07ffe0ff 0x000fca00
0x04057989 0x08800000 0x000e0009 0x000e2a00
0x04048220 0x00000005 0x00400000 0x001fe200
0x0200720c 0x00000009 0x03f04270 0x000fe400
0x08027810 0x00000010 0x07ffe0ff 0x000fca00
0x04057989 0x09000000 0x000e0009 0x000e2a00
0x04048220 0x00000005 0x00400000 0x001fe200
0x0200720c 0x00000009 0x03f04270 0x000fce00
0x04057989 0x0a000000 0x000e0009 0x000e2a00
0x04048220 0x00000005 0x00400000 0x001fe200
0x0000720c 0x000000ff 0x03f05270 0x000fe400
0x06059819 0x00000002 0x000006ff 0x000fe200
0xff027224 0x000000ff 0x078e0004 0x000fd000
0x05009388 0x00000802 0x00000800 0x000fe800
0x00007b1d 0x00000000 0x00000000 0x000fea00
0x00000947 0x00000390 0x03800000 0x000fea00
0xff057984 0x00000c00 0x00001800 0x000e2200
0x0300780c 0x00000020 0x03f04270 0x000fc400
0x0300780c 0x00000040 0x03f24270 0x040fe200
0xff087984 0x00001000 0x00001c00 0x000e6200
0x0300780c 0x00000060 0x03f44270 0x000fe400
0x00007202 0x000000ff 0x00000f00 0x000fca00
0xff067984 0x00002000 0x00001a00 0x000ea200
0x02020220 0x00000005 0x00400000 0x001fe200
0x0300780c 0x00000080 0x03f04270 0x000fc600
0x02021220 0x00000008 0x00400000 0x002fe200
0x0300780c 0x000000a0 0x03f24270 0x000fc600
0x02022220 0x00000009 0x00400000 0x000fe200
0x0300780c 0x000000c0 0x03f44270 0x000fc800
0x02020220 0x0000000a 0x00400000 0x000fe200
0x0300780c 0x000000e1 0x03f06270 0x000fc600
0x02021220 0x0000000b 0x00400000 0x000fc800
0x02022220 0x00000006 0x00400000 0x004fca00
0x00008947 0x00000270 0x03800000 0x000fea00
0x02027220 0x00000007 0x00400000 0x000fe200
0x00007947 0x00000250 0x03800000 0x000fea00
0x00037919 0x00000000 0x00000000 0x000e6800
0x07027f89 0x08201f00 0x000e0000 0x000ea200
0x0300780c 0x0000001e 0x03f04270 0x042fe400
0x0300720c 0x000000ff 0x03f25270 0x000fd400
0x02078220 0x00000007 0x00400000 0x004fe200
0x0300780c 0x0000001d 0x03f04270 0x000fce00
0x07027f89 0x08401f00 0x000e0000 0x000e6a00
0x07078220 0x00000002 0x00400000 0x002fe200
0x0300780c 0x0000001b 0x03f04270 0x000fce00
0x07027f89 0x08801f00 0x000e0000 0x000e6a00
0x07078220 0x00000002 0x00400000 0x002fe200
0x0300780c 0x00000017 0x03f04270 0x000fce00
0x07027f89 0x09001f00 0x000e0000 0x000e6a00
0x07078220 0x00000002 0x00400000 0x002fe200
0x0300780c 0x0000000f 0x03f04270 0x000fe400
0xff039819 0x0000001f 0x00011400 0x000fc800
0x03039211 0x00000000 0x078f28ff 0x000fe200
0x07027f89 0x0a001f00 0x000e0000 0x000e6600
0xff039819 0x00000005 0x00011403 0x000fc800
0x03039819 0x00000002 0x000006ff 0x000fe200
0x07078220 0x00000002 0x00400000 0x002fe200
0x0000720c 0x000000ff 0x03f05270 0x000fc600
0xff027224 0x000000ff 0x078e0007 0x000fd000
0x03009388 0x00000802 0x00000800 0x000fe800
0x00007b1d 0x00000000 0x00000000 0x000fea00
0x00000947 0x000000b0 0x03800000 0x000fea00
0xff037984 0x00000c00 0x00001800 0x000e6200
0x00007202 0x000000ff 0x00000f00 0x000fc600
0xff047984 0x00001000 0x00001c00 0x001e3000
0xff087984 0x00002000 0x00001a00 0x000ea200
0x02037220 0x00000003 0x00400000 0x002fc800
0x03047220 0x00000004 0x00400000 0x001fc800
0x04057220 0x00000005 0x00400000 0x000fc800
0x05067220 0x00000006 0x00400000 0x000fc800
0x06067220 0x00000007 0x00400000 0x000fc800
0x06067220 0x00000008 0x00400000 0x004fc800
0x06027220 0x00000009 0x00400000 0x000fc600
0x00007941 0x00000000 0x03800000 0x000fea00
0x0000720c 0x000000ff 0x03f05270 0x000fd800
0x0000094d 0x00000000 0x03800000 0x000fea00
0x02027a20 0x00005e00 0x00400000 0x000fe200
0x00047ab9 0x00005a00 0x00000a00 0x000fce00
0xff007986 0x00000002 0x0c10e904 0x000fe200
0x0000794d 0x00000000 0x03800000 0x000fea00
0x00007919 0x00000000 0x00002100 0x000e2400
0x0000720c 0x000000ff 0x03f05270 0x001fd800
0x0000094d 0x00000000 0x03800000 0x000fea00
0x00007a02 0x00005e00 0x00000f00 0x000fe200
0x00047ab9 0x00005a00 0x00000a00 0x000fce00
0xff007986 0x00000000 0x0c10e904 0x000fe200
0x0000794d 0x00000000 0x03800000 0x000fea00
0x00007947 0xfffffff0 0x0383ffff 0x000fc000
0x00007918 0x00000000 0x00000000 0x000fc000



.text._ZN3cub17CUB_200400_750_NS18DeviceReduceKernelINS0_18DeviceReducePolicyIfyN6thrust20THRUST_200400_750_NS10multipliesIfEEE9Policy600ENS4_20permutation_iteratorINS4_6detail15normal_iteratorINS4_10device_ptrIfEEEENS4_18transform_iteratorIN13strided_rangeISE_E14stride_functorENS4_17counting_iteratorIlNS4_11use_defaultESK_SK_EESK_SK_EEEEyS6_fN4cuda3std3__410__identityEEEvT0_PT3_T1_NS0_13GridEvenShareISV_EET2_T4_
bar = 1	reg = 44	lmem=0	smem=44
0xff017624 0x00000a00 0x078e00ff 0x000fe400
0x00067919 0x00000000 0x00002500 0x000e2200
0x00ff7355 0x00000000 0x00100000 0x000fe200
0x00007945 0x00002c90 0x03800000 0x000fe200
0x06067824 0x00001000 0x078e00ff 0x001fca00
0x06187a10 0x00006a00 0x07f3e1ff 0x000fe400
0xff057819 0x0000001f 0x00011406 0x000fe400
0x1800780c 0x00001000 0x03f06070 0x000fe400
0x05167a10 0x00006b00 0x00ffe5ff 0x000fc800
0x1600720c 0x000000ff 0x03f06100 0x000fd800
0x00008947 0x000019b0 0x03800000 0x000fea00
0x00027919 0x00000000 0x00002100 0x000e2200
0x00067882 0x00000400 0x00000000 0x000fe400
0x00087ab9 0x00005a00 0x00000a00 0x000fe400
0x060472a5 0x00000008 0x0f8e003f 0x000fe400
0x060672a4 0x00000009 0x0f8e023f 0x000fc800
0x05077290 0x00000006 0x0fffe03f 0x000fe200
0xff047819 0x0000001f 0x00011402 0x001fe400
0x02007a10 0x00005800 0x0791e006 0x000fc800
0x04037a10 0x00005900 0x007e2405 0x000fe200
0x00087a25 0x00005a00 0x078e00ff 0x000fc800
0x03037a24 0x00005a00 0x078e02ff 0x000fe200
0x080c7a11 0x00005c00 0x078010ff 0x000fc600
0x00037a24 0x00005b00 0x078e0203 0x000fe200
0x0c0a7c10 0x00000004 0x0ff3e0ff 0x000fc600
0x09037824 0x00000001 0x078e0203 0x000fca00
0x080d7a11 0x00005d00 0x000f1403 0x000fe400
0x0a087c10 0x00000004 0x0ff1e0ff 0x000fe400
0x0d0b7c10 0x00000007 0x08ffe4ff 0x000fe400
0x080e7c10 0x00000004 0x0ff3e0ff 0x000fe400
0x0b097c10 0x00000007 0x087fe4ff 0x000fe200
0x0c037381 0x00000000 0x001ee900 0x0000a200
0x0e107c10 0x00000004 0x0ff1e0ff 0x000fc400
0x090f7c10 0x00000007 0x08ffe4ff 0x000fe200
0x0a007381 0x00000000 0x001ee900 0x0002a200
0x10127c10 0x00000004 0x0ff3e0ff 0x000fe400
0x0f117c10 0x00000007 0x087fe4ff 0x000fe200
0x08077381 0x00000000 0x001ee900 0x00072200
0x12147c10 0x00000004 0x0ff1e0ff 0x000fe400
0x11137c10 0x00000007 0x08ffe4ff 0x000fe200
0x0e177381 0x00000000 0x001ee900 0x000b2200
0x140c7c10 0x00000004 0x0ff3e0ff 0x001fc400
0x13157c10 0x00000007 0x087fe4ff 0x000fe200
0x10197381 0x00000000 0x001ee900 0x00012200
0x0c0a7c10 0x00000004 0x0ff1e0ff 0x002fe400
0x150d7c10 0x00000007 0x08ffe4ff 0x000fe200
0x121b7381 0x00000000 0x001ee900 0x00032200
0x0a087c10 0x00000004 0x0ff3e0ff 0x008fe400
0x0d0b7c10 0x00000007 0x087fe4ff 0x000fe200
0x141d7381 0x00000000 0x001ee900 0x00072200
0x080e7c10 0x00000004 0x0ff1e0ff 0x020fc400
0x0b097c10 0x00000007 0x08ffe4ff 0x000fe200
0x0c1f7381 0x00000000 0x001ee900 0x000b2200
0x0e107c10 0x00000004 0x0ff3e0ff 0x001fe400
0x090f7c10 0x00000007 0x087fe4ff 0x000fe200
0x0a0b7381 0x00000000 0x001ee900 0x000f2200
0x10127c10 0x00000004 0x0ff1e0ff 0x002fe400
0x0f117c10 0x00000007 0x08ffe4ff 0x000fe200
0x08097381 0x00000000 0x001ee900 0x000f2200
0x12147c10 0x00000004 0x0ff3e0ff 0x008fc400
0x11137c10 0x00000007 0x087fe4ff 0x000fe200
0x0e0f7381 0x00000000 0x001ee900 0x000ee200
0x140c7c10 0x00000004 0x0ff1e0ff 0x020fe400
0x13157c10 0x00000007 0x08ffe4ff 0x000fe200
0x10117381 0x00000000 0x001ee900 0x000f6600
0x150d7c10 0x00000007 0x087fe4ff 0x000fe200
0x12137381 0x00000000 0x001ee900 0x000f6800
0x14157381 0x00000000 0x001ee900 0x000f6200
0x00067c82 0x00000004 0x08000000 0x000fc600
0x0c217381 0x00000000 0x001ee900 0x000f6800
0x0c237981 0x00000006 0x0c1ee900 0x000f6200
0x00087ab9 0x00006c00 0x00000800 0x000fe400
0x08087899 0x0000000c 0x0800063f 0x000fc800
0x3f0e7899 0x0000001f 0x08011408 0x000fe400
0x18007c0c 0x00000008 0x0bf06070 0x000fc800
0x16007c0c 0x0000000e 0x0bf06100 0x000fe200
0x00007220 0x00000003 0x00400000 0x004fc800
0x00007220 0x00000007 0x00400000 0x010fc800
0x00007220 0x00000017 0x00400000 0x000fc800
0x00007220 0x00000019 0x00400000 0x000fc800
0x00007220 0x0000001b 0x00400000 0x000fc800
0x00007220 0x0000001d 0x00400000 0x000fc800
0x00007220 0x0000001f 0x00400000 0x000fc800
0x00007220 0x0000000b 0x00400000 0x000fc800
0x00007220 0x00000009 0x00400000 0x000fc800
0x00007220 0x0000000f 0x00400000 0x008fc800
0x00007220 0x00000011 0x00400000 0x020fc800
0x00007220 0x00000013 0x00400000 0x000fc800
0x00007220 0x00000015 0x00400000 0x000fc800
0x00007220 0x00000021 0x00400000 0x000fc800
0x00007220 0x00000023 0x00400000 0x000fe200
0x00008947 0x00001220 0x03800000 0x000fea00
0x000a7ab9 0x00006a00 0x00000a00 0x000fe200
0x06097c10 0x00000008 0x0ff1e0ff 0x040fe200
0x0a097890 0xfffff000 0x0ff1e03f 0x000fe200
0x06067a10 0x00005800 0x07a3e002 0x000fe400
0x05037c10 0x0000000e 0x087fe4ff 0x040fe200
0x0b0a7890 0xffffffff 0x087fe43f 0x000fe200
0x05077a10 0x00005900 0x00fe4404 0x000fe400
0x09007c0c 0x00000009 0x0bf04070 0x000fe200
0x00047805 0x00000000 0x0001ff00 0x000fe200
0x06067c10 0x00000008 0x0ff3e0ff 0x000fc400
0x03007c0c 0x0000000a 0x0bf04100 0x000fe400
0x07077c10 0x0000000e 0x08ffe4ff 0x000fd400
0x00000947 0x00000550 0x03800000 0x000fea00
0xff087819 0x0000001f 0x00011402 0x000fe400
0x020c7a10 0x00005800 0x0791e009 0x000fc800
0x08087a10 0x00005900 0x007e2403 0x000fe200
0x0c0a7a25 0x00005a00 0x078e00ff 0x000fc800
0x080d7a24 0x00005a00 0x078e02ff 0x000fc800
0x0c0d7a24 0x00005b00 0x078e020d 0x000fe200
0x0a0c7a11 0x00005c00 0x078010ff 0x000fc600
0x0b0b7824 0x00000001 0x078e020d 0x000fe200
0x0c0e7c10 0x00000004 0x0ff3e0ff 0x000fc800
0x0a0d7a11 0x00005d00 0x000f140b 0x000fe400
0x0e0a7c10 0x00000004 0x0ff1e0ff 0x000fe400
0x0d0f7c10 0x00000007 0x08ffe4ff 0x000fe400
0x0a107c10 0x00000004 0x0ff3e0ff 0x000fe400
0x0c197381 0x00000000 0x001ee900 0x0000a200
0x0f0b7c10 0x00000007 0x087fe4ff 0x000fe400
0x10127c10 0x00000004 0x0ff1e0ff 0x000fe200
0x0e087381 0x00000000 0x001ee900 0x0002e200
0x0b117c10 0x00000007 0x08ffe4ff 0x000fc400
0x12147c10 0x00000004 0x0ff3e0ff 0x000fe400
0x0a1b7381 0x00000000 0x001ee900 0x00096200
0x11137c10 0x00000007 0x087fe4ff 0x000fe400
0x14167c10 0x00000004 0x0ff1e0ff 0x000fe200
0x101d7381 0x00000000 0x001ee900 0x00096200
0x13157c10 0x00000007 0x08ffe4ff 0x000fe400
0x160c7c10 0x00000004 0x0ff3e0ff 0x001fe400
0x121f7381 0x00000000 0x001ee900 0x00016200
0x15177c10 0x00000007 0x087fe4ff 0x000fc400
0x0c0e7c10 0x00000004 0x0ff1e0ff 0x002fe200
0x14217381 0x00000000 0x001ee900 0x00036200
0x170d7c10 0x00000007 0x08ffe4ff 0x000fe400
0x0e0a7c10 0x00000004 0x0ff3e0ff 0x010fe400
0x16237381 0x00000000 0x001ee900 0x00096200
0x0d0f7c10 0x00000007 0x087fe4ff 0x000fe400
0x0a107c10 0x00000004 0x0ff1e0ff 0x000fe200
0x0c257381 0x00000000 0x001ee900 0x00096200
0x0f0b7c10 0x00000007 0x08ffe4ff 0x000fc400
0x10127c10 0x00000004 0x0ff3e0ff 0x001fe400
0x0e0f7381 0x00000000 0x001ee900 0x000f6200
0x0b117c10 0x00000007 0x087fe4ff 0x000fe400
0x12147c10 0x00000004 0x0ff1e0ff 0x002fe200
0x0a0b7381 0x00000000 0x001ee900 0x000f6200
0x11137c10 0x00000007 0x08ffe4ff 0x000fe400
0x14167c10 0x00000004 0x0ff3e0ff 0x010fe400
0x10117381 0x00000000 0x001ee900 0x000f2200
0x13157c10 0x00000007 0x087fe4ff 0x000fc400
0x160c7c10 0x00000004 0x0ff1e0ff 0x000fe200
0x12137381 0x00000000 0x001ee900 0x000f2200
0x15177c10 0x00000007 0x08ffe4ff 0x000fc800
0x14157381 0x00000000 0x001ee900 0x000f2200
0x170d7c10 0x00000007 0x087fe4ff 0x000fc600
0x16177381 0x00000000 0x001ee900 0x000f2200
0x000c7c82 0x00000004 0x08000000 0x000fe400
0x000d7c82 0x00000007 0x08000000 0x000fe400
0x0c277381 0x00000000 0x001ee900 0x000f2800
0x0c297981 0x0000000c 0x0c1ee900 0x000f2200
0x05057810 0x00000001 0x07f5e0ff 0x000fca00
0xff047224 0x000000ff 0x010e0604 0x000fe400
0x19197220 0x00000000 0x00400000 0x004fe200
0x09007a10 0x00006a00 0x07f3e1ff 0x000fc600
0x19087220 0x00000008 0x00400000 0x008fe200
0x00007c0c 0x00000008 0x0bf06070 0x000fe400
0x03007a10 0x00006b00 0x00ffe5ff 0x000fe200
0x08087220 0x0000001b 0x00400000 0x020fe200
0x06067c10 0x00000008 0x0ff3e0ff 0x000fe400
0x00007c0c 0x0000000e 0x0bf06100 0x000fe200
0x08087220 0x0000001d 0x00400000 0x000fe200
0x07077c10 0x0000000e 0x08ffe4ff 0x000fc600
0x08087220 0x0000001f 0x00400000 0x000fc800
0x08087220 0x00000021 0x00400000 0x000fc800
0x08087220 0x00000023 0x00400000 0x000fc800
0x08087220 0x00000025 0x00400000 0x000fc800
0x08087220 0x0000000f 0x00400000 0x000fc800
0x08087220 0x0000000b 0x00400000 0x000fc800
0x08087220 0x00000011 0x00400000 0x010fc800
0x08087220 0x00000013 0x00400000 0x000fc800
0x08087220 0x00000015 0x00400000 0x000fc800
0x08087220 0x00000017 0x00400000 0x000fc800
0x08087220 0x00000027 0x00400000 0x000fc800
0x08007220 0x00000029 0x00400000 0x000fe200
0x00008947 0x00000c50 0x03800000 0x000fea00
0x09097c10 0x00000008 0x0ff1e0ff 0x000fc800
0x03037c10 0x0000000e 0x087fe4ff 0x000fe400
0x09007c0c 0x00000009 0x0bf04070 0x000fc800
0x03007c0c 0x0000000a 0x0bf04100 0x000fd800
0x00008947 0xfffffab0 0x0383ffff 0x000fea00
0x09007a0c 0x00006a00 0x03f06070 0x000fc800
0x03007a0c 0x00006b00 0x03f06100 0x000fd800
0x00000947 0x00000bd0 0x03800000 0x000fea00
0x09037a10 0x00006a00 0x07ffe1ff 0x000fe200
0x01ff7355 0x00000000 0x00100000 0x000fe200
0x00017945 0x00000ba0 0x03800000 0x000fe400
0x0200720c 0x00000003 0x03f06270 0x000fd800
0x00000947 0x00000b70 0x03800000 0x000fea00
0xff087212 0x00000002 0x078e33ff 0x000fe200
0x02ff7355 0x00000000 0x00100000 0x000fe200
0x00027945 0x00000160 0x03800000 0x000fe400
0x09097a10 0x00006a00 0x07ffe108 0x000fc800
0x09087811 0x00000001 0x078fc0ff 0x040fe400
0x0900780c 0x00000300 0x03f06070 0x000fe400
0x08087812 0x00000003 0x0782c0ff 0x000fd800
0x00009947 0x00000100 0x03800000 0x000fea00
0x00027919 0x00000000 0x00002100 0x000e2200
0xff0c7224 0x000000ff 0x078e0008 0x000fc600
0x070b7a24 0x00005a00 0x078e02ff 0x000fe400
0x06087a25 0x00005a00 0x078e00ff 0x000fc800
0x060b7a24 0x00005b00 0x078e020b 0x000fe200
0x080a7a11 0x00005c00 0x078210ff 0x000fc600
0x09097824 0x00000001 0x078e020b 0x000fca00
0x080b7a11 0x00005d00 0x008f1409 0x000fd000
0x0a0b7381 0x00000000 0x001ee900 0x000ea200
0x0c0c7810 0xffffffff 0x07ffe0ff 0x000fe400
0x06067810 0x00000100 0x07f5e0ff 0x000fe400
0x0c00720c 0x000000ff 0x03f25270 0x000fe400
0x02027810 0x00000100 0x07ffe0ff 0x001fe200
0xff077224 0x000000ff 0x010e0607 0x000fe400
0x0b007220 0x00000000 0x00400000 0x004fce00
0x00001947 0xffffff20 0x0383ffff 0x000fea00
0x00027941 0x00000000 0x03800000 0x000fea00
0x00008947 0x000009d0 0x03800000 0x000fea00
0x000979c3 0x00000000 0x00002500 0x000e2200
0x000c7ab9 0x00005800 0x00000a00 0x000fe200
0x05097c24 0x0000000e 0x0f8e02ff 0x000fe200
0x02ff7355 0x00000000 0x00100000 0x000fe200
0x03087824 0x00000001 0x078e0a02 0x000fe200
0x00027945 0x000005c0 0x03800000 0x000fe200
0x04097c24 0x00000008 0x0f8e0209 0x000fc600
0x0800780c 0x00000c00 0x03f24270 0x000fe200
0x09097899 0x0000000c 0x0800063f 0x001fc800
0x3f0a7899 0x0000001f 0x08011409 0x000fe400
0x08097290 0x0000000c 0x0f91e009 0x000fc800
0x0e0a7290 0x0000000d 0x087e240a 0x000fe400
0xff067e24 0x00000009 0x0f8e00ff 0x000fc800
0xff077e24 0x0000000a 0x0f8e00ff 0x000fc800
0x05067c25 0x00000008 0x0f8e0006 0x000fe200
0xff057819 0x0000001f 0x00011402 0x000fc800
0x02067210 0x00000006 0x07f1e0ff 0x000fc800
0x05077210 0x00000007 0x007fe409 0x000fe200
0x06047a25 0x00005a00 0x078e00ff 0x000fe200
0x0000781c 0x00000000 0x03f0f070 0x000fc600
0x07077a24 0x00005a00 0x078e02ff 0x000fe200
0x040f7a11 0x00005c00 0x078410ff 0x000fc600
0x06077a24 0x00005b00 0x078e0207 0x000fc800
0x05057824 0x00000001 0x078e0207 0x000fca00
0x04107a11 0x00005d00 0x010f1405 0x000fe200
0x00009947 0x00000470 0x03800000 0x000fea00
0x0000781c 0x00000000 0x03f0e170 0x000fe400
0x03077810 0xfffff400 0x07ffe0ff 0x000fe400
0x0f087c10 0x00000004 0x0ff3e0ff 0x000fe200
0xff047224 0x000000ff 0x078e000f 0x000fe400
0xff057224 0x000000ff 0x078e0010 0x000fe200
0x10097c10 0x00000007 0x08ffe4ff 0x000fe400
0x080a7c10 0x00000004 0x0ff3e0ff 0x000fc800
0x090b7c10 0x00000007 0x08ffe4ff 0x000fe200
0x04177381 0x00000000 0x001ee900 0x0000a200
0x0a0c7c10 0x00000004 0x0ff3e0ff 0x000fc600
0x08067381 0x00000000 0x001ee900 0x0002e200
0x0b0d7c10 0x00000007 0x08ffe4ff 0x000fe400
0x0c0e7c10 0x00000004 0x0ff3e0ff 0x000fe200
0x0a197381 0x00000000 0x001ee900 0x00096600
0x0d0f7c10 0x00000007 0x08ffe4ff 0x000fe400
0x0e107c10 0x00000004 0x0ff3e0ff 0x000fe200
0x0c1b7381 0x00000000 0x001ee900 0x00016600
0x0f117c10 0x00000007 0x08ffe4ff 0x000fc400
0x10127c10 0x00000004 0x0ff3e0ff 0x000fe200
0x0e1d7381 0x00000000 0x001ee900 0x00016600
0x11137c10 0x00000007 0x08ffe4ff 0x000fe400
0x12147c10 0x00000004 0x0ff3e0ff 0x000fe200
0x101f7381 0x00000000 0x001ee900 0x00036600
0x13157c10 0x00000007 0x08ffe4ff 0x000fc400
0x14047c10 0x00000004 0x0ff3e0ff 0x001fe200
0x12217381 0x00000000 0x001ee900 0x00016600
0x15057c10 0x00000007 0x08ffe4ff 0x000fe400
0x04087c10 0x00000004 0x0ff3e0ff 0x002fe200
0x14157381 0x00000000 0x001ee900 0x000f6600
0x05097c10 0x00000007 0x08ffe4ff 0x000fc400
0x080a7c10 0x00000004 0x0ff3e0ff 0x010fe200
0x04237381 0x00000000 0x001ee900 0x00032600
0x090b7c10 0x00000007 0x08ffe4ff 0x000fe400
0x0a0c7c10 0x00000004 0x0ff3e0ff 0x000fe200
0x08097381 0x00000000 0x001ee900 0x000f2600
0x0b0d7c10 0x00000007 0x08ffe4ff 0x000fc400
0x0c0e7c10 0x00000004 0x0ff3e0ff 0x000fe200
0x0a0b7381 0x00000000 0x001ee900 0x000f2600
0x0d0f7c10 0x00000007 0x08ffe4ff 0x000fe400
0x0e107c10 0x00000004 0x0ff3e0ff 0x000fe200
0x0c0d7381 0x00000000 0x001ee900 0x000f2600
0x0f117c10 0x00000007 0x08ffe4ff 0x000fc400
0x10127c10 0x00000004 0x0ff3e0ff 0x001fe200
0x0e0f7381 0x00000000 0x001ee900 0x000f2600
0x11137c10 0x00000007 0x08ffe4ff 0x000fe400
0x12047c10 0x00000004 0x0ff3e0ff 0x002fe200
0x10117381 0x00000000 0x001ee900 0x000f2600
0x13057c10 0x00000007 0x08ffe4ff 0x000fc400
0x12257381 0x00000000 0x001ee900 0x000f2c00
0x04277381 0x00000000 0x001ee900 0x000f2200
0x02027810 0x00001000 0x07ffe0ff 0x000fc800
0x0200720c 0x00000007 0x03f26270 0x000fe200
0x17177220 0x00000000 0x00400000 0x004fc800
0x17067220 0x00000006 0x00400000 0x008fc800
0x06067220 0x00000019 0x00400000 0x020fc800
0x06067220 0x0000001b 0x00400000 0x000fc800
0x06067220 0x0000001d 0x00400000 0x000fc800
0x06067220 0x0000001f 0x00400000 0x000fc800
0x06067220 0x00000021 0x00400000 0x000fc800
0x06067220 0x00000015 0x00400000 0x000fc800
0x06067220 0x00000023 0x00400000 0x010fc800
0x06067220 0x00000009 0x00400000 0x000fc800
0x06067220 0x0000000b 0x00400000 0x000fc800
0x06067220 0x0000000d 0x00400000 0x000fc800
0x06067220 0x0000000f 0x00400000 0x000fe200
0x040f7c10 0x00000004 0x0ff5e0ff 0x000fc600
0x06067220 0x00000011 0x00400000 0x000fe200
0x05107c10 0x00000007 0x097fe4ff 0x000fc600
0x06067220 0x00000025 0x00400000 0x000fc800
0x06007220 0x00000027 0x00400000 0x000fe200
0x00009947 0xfffffbb0 0x0383ffff 0x000fea00
0x00027941 0x00000000 0x03800000 0x000fea00
0x03047824 0x00000001 0x078e0a02 0x000fe200
0x02ff7355 0x00000000 0x00100000 0x000fe200
0x00027945 0x00000270 0x03800000 0x000fe600
0x0400780c 0x00000400 0x03f24270 0x000fd800
0x00009947 0x00000240 0x03800000 0x000fea00
0x0f067c10 0x00000004 0x0ff1e0ff 0x000fe200
0xff047224 0x000000ff 0x078e000f 0x000fe400
0xff057224 0x000000ff 0x078e0010 0x000fe200
0x10077c10 0x00000007 0x087fe4ff 0x000fe400
0x06087c10 0x00000004 0x0ff1e0ff 0x000fc800
0x07097c10 0x00000007 0x087fe4ff 0x000fe200
0x04137381 0x00000000 0x001ee900 0x0000a200
0x080a7c10 0x00000004 0x0ff1e0ff 0x000fc600
0x06067381 0x00000000 0x001ee900 0x0002e200
0x090b7c10 0x00000007 0x087fe4ff 0x000fe400
0x0a0c7c10 0x00000004 0x0ff1e0ff 0x000fe200
0x08097381 0x00000000 0x001ee900 0x000f2600
0x0b0d7c10 0x00000007 0x087fe4ff 0x000fe400
0x0c0e7c10 0x00000004 0x0ff1e0ff 0x000fe200
0x0a0b7381 0x00000000 0x001ee900 0x000f6600
0x0d0f7c10 0x00000007 0x087fe4ff 0x000fc400
0x0e107c10 0x00000004 0x0ff1e0ff 0x000fe200
0x0c0d7381 0x00000000 0x001ee900 0x000f6600
0x0f117c10 0x00000007 0x087fe4ff 0x000fe400
0x10047c10 0x00000004 0x0ff1e0ff 0x001fe200
0x0e0f7381 0x00000000 0x001ee900 0x000f6600
0x11057c10 0x00000007 0x087fe4ff 0x000fc400
0x10117381 0x00000000 0x001ee900 0x000f6c00
0x04077381 0x00000000 0x001ee900 0x002f6200
0x0000781c 0x00000000 0x03f0e170 0x000fe400
0x02027810 0x00000800 0x07ffe0ff 0x000fe200
0x00137220 0x00000013 0x00400000 0x004fc800
0x13067220 0x00000006 0x00400000 0x008fc800
0x06067220 0x00000009 0x00400000 0x010fc800
0x06067220 0x0000000b 0x00400000 0x020fc800
0x06067220 0x0000000d 0x00400000 0x000fc800
0x06067220 0x0000000f 0x00400000 0x000fe200
0x040f7c10 0x00000004 0x0ff3e0ff 0x000fc600
0x06067220 0x00000011 0x00400000 0x000fe200
0x05107c10 0x00000007 0x08ffe4ff 0x000fc600
0x06007220 0x00000007 0x00400000 0x000fc600
0x00027941 0x00000000 0x03800000 0x000fea00
0x0200720c 0x00000003 0x00701670 0x000fd800
0x00008947 0x000000f0 0x03800000 0x000fea00
0x0f047c10 0x00000004 0x0ff1e0ff 0x000fe200
0xff027224 0x000000ff 0x078e000f 0x000fe400
0xff037224 0x000000ff 0x078e0010 0x000fe200
0x10057c10 0x00000007 0x087fe4ff 0x000fe400
0x04067c10 0x00000004 0x0ff1e0ff 0x000fc800
0x05077c10 0x00000007 0x087fe4ff 0x000fe200
0x02037381 0x00000000 0x001ee900 0x000ea800
0x04057381 0x00000000 0x001ee900 0x000ee200
0x00067c82 0x00000004 0x08000000 0x000fc600
0x06097381 0x00000000 0x001ee900 0x000f2800
0x060b7981 0x00000006 0x0c1ee900 0x000f6200
0x00007220 0x00000003 0x00400000 0x004fc800
0x00007220 0x00000005 0x00400000 0x008fc800
0x00007220 0x00000009 0x00400000 0x010fc800
0x00007220 0x0000000b 0x00400000 0x020fc600
0x00017941 0x00000000 0x03800000 0x000fea00
0x00027919 0x00000000 0x00000000 0x000e2200
0xff037224 0x000000ff 0x078e0000 0x000fc600
0x00057919 0x00000000 0x00002100 0x000e6a00
0x03007f89 0x08201f00 0x000e0000 0x000ea200
0x0200780c 0x0000001e 0x03f04270 0x041fe400
0x0200720c 0x000000ff 0x03f25270 0x000fd400
0x00038220 0x00000003 0x00400000 0x004fe200
0x0200780c 0x0000001d 0x03f04270 0x000fce00
0x03007f89 0x08401f00 0x000e0000 0x000e2a00
0x03038220 0x00000000 0x00400000 0x001fe200
0x0200780c 0x0000001b 0x03f04270 0x000fce00
0x03007f89 0x08801f00 0x000e0000 0x000e2a00
0x03038220 0x00000000 0x00400000 0x001fe200
0x0200780c 0x00000017 0x03f04270 0x000fce00
0x03007f89 0x09001f00 0x000e0000 0x000e2a00
0x03038220 0x00000000 0x00400000 0x001fe200
0x0200780c 0x0000000f 0x03f04270 0x000fe400
0xff029819 0x0000001f 0x00011405 0x002fc800
0x02029211 0x00000005 0x078f28ff 0x000fe200
0x03007f89 0x0a001f00 0x000e0000 0x000e2600
0xff029819 0x00000005 0x00011402 0x000fca00
0x02029824 0x00000004 0x078e00ff 0x000fe400
0x03038220 0x00000000 0x00400000 0x001fe200
0x0500720c 0x000000ff 0x03f05270 0x000fe200
0xff007224 0x000000ff 0x078e0005 0x000fcc00
0x02009388 0x00000803 0x00000800 0x000fe800
0x00007b1d 0x00000000 0x00000000 0x000fea00
0x00000947 0x00001320 0x03800000 0x000fea00
0xff007984 0x00000c00 0x00001800 0x000e2800
0xff047984 0x00001000 0x00001c00 0x000e7000
0xff087984 0x00002000 0x00001a00 0x000ea200
0x03007220 0x00000000 0x00400000 0x001fc800
0x00007220 0x00000004 0x00400000 0x002fc800
0x00057220 0x00000005 0x00400000 0x000fe400
0xff007224 0x000000ff 0x078e00ff 0x000fe400
0x05067220 0x00000006 0x00400000 0x000fc800
0x06067220 0x00000007 0x00400000 0x000fc800
0x06067220 0x00000008 0x00400000 0x004fc800
0x06037220 0x00000009 0x00400000 0x000fe200
0x00007947 0x00001260 0x03800000 0x000fea00
0x00037919 0x00000000 0x00002100 0x000e2200
0x06027a10 0x00006a00 0x07ffe1ff 0x000fe200
0x01ff7355 0x00000000 0x00100000 0x000fe200
0x00017945 0x00000100 0x03800000 0x000fe200
0xff047224 0x000000ff 0x078e00ff 0x000fe200
0x0300720c 0x00000002 0x03f06270 0x001fe200
0xff007224 0x000000ff 0x078e0003 0x000fd600
0x00000947 0x000000b0 0x03800000 0x000fea00
0xff047819 0x0000001f 0x00011400 0x100fe400
0x06037a10 0x00005800 0x0791e000 0x000fc800
0x05047a10 0x00005900 0x007e2404 0x000fe200
0x03087a25 0x00005a00 0x078e00ff 0x000fc800
0x04047a24 0x00005a00 0x078e02ff 0x000fe200
0x080a7a11 0x00005c00 0x078010ff 0x000fc600
0x03037a24 0x00005b00 0x078e0204 0x000fc800
0x09037824 0x00000001 0x078e0203 0x000fca00
0x080b7a11 0x00005d00 0x000f1403 0x000fd000
0x0a047381 0x00000000 0x001ee900 0x00016200
0x00037810 0x00000100 0x07ffe0ff 0x000fc600
0x00017941 0x00000000 0x03800000 0x000fea00
0x0300720c 0x00000002 0x03f06270 0x000fe200
0x01ff7355 0x00000000 0x00100000 0x000fe200
0x00017945 0x00000ae0 0x03800000 0x000ff400
0x00000947 0x00000ac0 0x03800000 0x000fea00
0xff077212 0x00000003 0x078e33ff 0x000fe200
0x02ff7355 0x00000000 0x00100000 0x000fe200
0x00027945 0x00000170 0x03800000 0x000fe400
0x06087a10 0x00006a00 0x07ffe107 0x000fc800
0x08077811 0x00000001 0x078fc0ff 0x040fe400
0x0800780c 0x00000300 0x03f06070 0x000fe400
0x07077812 0x00000003 0x0782c0ff 0x000fd800
0x00009947 0x00000110 0x03800000 0x000fea00
0xff087819 0x0000001f 0x00011403 0x100fe400
0x060c7a10 0x00005800 0x07a3e003 0x000fc800
0x050d7a10 0x00005900 0x00fe4408 0x000fca00
0x0d0b7a24 0x00005a00 0x078e02ff 0x001fe400
0x0c087a25 0x00005a00 0x078e00ff 0x000fc800
0x0c0b7a24 0x00005b00 0x078e020b 0x000fe200
0x080a7a11 0x00005c00 0x078210ff 0x000fc600
0x09097824 0x00000001 0x078e020b 0x000fca00
0x080b7a11 0x00005d00 0x008f1409 0x000fd000
0x0a0b7381 0x00000000 0x001ee900 0x000ea200
0x07077810 0xffffffff 0x07ffe0ff 0x000fe400
0x0c0c7810 0x00000100 0x07f5e0ff 0x000fe400
0x0700720c 0x000000ff 0x03f25270 0x000fe400
0x03037810 0x00000100 0x07ffe0ff 0x000fe200
0xff0d7224 0x000000ff 0x010e060d 0x000fe400
0x0b047220 0x00000004 0x00400000 0x024fce00
0x00001947 0xffffff20 0x0383ffff 0x000fea00
0x00027941 0x00000000 0x03800000 0x000fea00
0x00008947 0x00000910 0x03800000 0x000fea00
0x06087a10 0x00005800 0x0791e003 0x100fe200
0x02097824 0x00000001 0x078e0a03 0x100fe200
0xff067819 0x0000001f 0x00011403 0x000fe200
0xff0a7424 0x0000000a 0x078e00ff 0x001fe200
0x02ff7355 0x00000000 0x00100000 0x000fe200
0x00027945 0x00000530 0x03800000 0x000fe200
0x05057a10 0x00005900 0x007e2406 0x000fe200
0x08067a25 0x00005a00 0x078e00ff 0x000fe200
0x0900780c 0x00000c00 0x03f24270 0x000fc600
0x05057a24 0x00005a00 0x078e02ff 0x000fc800
0x08057a24 0x00005b00 0x078e0205 0x000fe200
0x06087a11 0x00005c00 0x078010ff 0x000fc600
0x07097824 0x00000001 0x078e0205 0x000fe400
0xff077624 0x00005a00 0x078e00ff 0x000fc600
0x06097a11 0x00005d00 0x000f1409 0x000fe200
0x07067824 0x00000400 0x078e00ff 0x040fe200
0x0000781c 0x00000000 0x03f0f070 0x000fe400
0x07057619 0x00005b00 0x0001020a 0x000fe200
0x00009947 0x00000450 0x03800000 0x000fea00
0x0000781c 0x00000000 0x03f0e170 0x000fe400
0x020a7810 0xfffff400 0x07ffe0ff 0x000fe400
0x080c7210 0x00000006 0x07f3e0ff 0x080fe200
0x08077381 0x00000000 0x001ee900 0x0000a800
0x090d7824 0x00000001 0x008e0605 0x000fe200
0x0c0e7210 0x00000006 0x07f3e0ff 0x000fca00
0x0d0f7824 0x00000001 0x008e0605 0x100fe200
0x0e107210 0x00000006 0x07f3e0ff 0x080fe200
0x0c1a7381 0x00000000 0x001ee900 0x0002e800
0x0f117824 0x00000001 0x008e0605 0x100fe200
0x10127210 0x00000006 0x07f3e0ff 0x080fe200
0x0e1c7381 0x00000000 0x001ee900 0x0008e800
0x11137824 0x00000001 0x008e0605 0x100fe200
0x12147210 0x00000006 0x07f3e0ff 0x080fe200
0x101e7381 0x00000000 0x001ee900 0x0000e800
0x13157824 0x00000001 0x008e0605 0x100fe200
0x14167210 0x00000006 0x07f3e0ff 0x080fe200
0x12207381 0x00000000 0x001ee900 0x0000e800
0x15177824 0x00000001 0x008e0605 0x100fe200
0x16187210 0x00000006 0x07f3e0ff 0x080fe200
0x14227381 0x00000000 0x001ee900 0x0002e800
0x17197824 0x00000001 0x008e0605 0x100fe200
0x18087210 0x00000006 0x07f3e0ff 0x081fe200
0x16247381 0x00000000 0x001ee900 0x0000e800
0x19097824 0x00000001 0x008e0605 0x100fe200
0x080c7210 0x00000006 0x07f3e0ff 0x082fe200
0x18187381 0x00000000 0x001ee900 0x000ee800
0x090d7824 0x00000001 0x008e0605 0x100fe200
0x0c0e7210 0x00000006 0x07f3e0ff 0x090fe200
0x08267381 0x00000000 0x001ee900 0x00032800
0x0d0f7824 0x00000001 0x008e0605 0x100fe200
0x0e107210 0x00000006 0x07f3e0ff 0x080fe200
0x0c0c7381 0x00000000 0x001ee900 0x000f2800
0x0f117824 0x00000001 0x008e0605 0x100fe200
0x10127210 0x00000006 0x07f3e0ff 0x080fe200
0x0e0e7381 0x00000000 0x001ee900 0x000f2800
0x11137824 0x00000001 0x008e0605 0x100fe200
0x12147210 0x00000006 0x07f3e0ff 0x080fe200
0x10107381 0x00000000 0x001ee900 0x000f2800
0x13157824 0x00000001 0x008e0605 0x100fe200
0x14167210 0x00000006 0x07f3e0ff 0x081fe200
0x12127381 0x00000000 0x001ee900 0x000f2800
0x15177824 0x00000001 0x008e0605 0x100fe200
0x16087210 0x00000006 0x07f3e0ff 0x002fe200
0x14147381 0x00000000 0x001ee900 0x000f2800
0x17097824 0x00000001 0x008e0605 0x000fc400
0x16167381 0x00000000 0x001ee900 0x000f2c00
0x08287381 0x00000000 0x001ee900 0x00012200
0x03037810 0x00001000 0x07ffe0ff 0x000fc800
0x0300720c 0x0000000a 0x03f26270 0x000fe400
0x08087210 0x00000006 0x07f5e0ff 0x001fca00
0x09097824 0x00000001 0x010e0605 0x000fe400
0x07077220 0x00000004 0x00400000 0x024fc800
0x07077220 0x0000001a 0x00400000 0x008fc800
0x07077220 0x0000001c 0x00400000 0x000fc800
0x07077220 0x0000001e 0x00400000 0x000fc800
0x07077220 0x00000020 0x00400000 0x000fc800
0x07077220 0x00000022 0x00400000 0x000fc800
0x07077220 0x00000024 0x00400000 0x000fc800
0x07077220 0x00000018 0x00400000 0x000fc800
0x07077220 0x00000026 0x00400000 0x010fc800
0x07077220 0x0000000c 0x00400000 0x000fc800
0x07077220 0x0000000e 0x00400000 0x000fc800
0x07077220 0x00000010 0x00400000 0x000fc800
0x07077220 0x00000012 0x00400000 0x000fc800
0x07077220 0x00000014 0x00400000 0x000fc800
0x07077220 0x00000016 0x00400000 0x000fc800
0x07047220 0x00000028 0x00400000 0x000fe200
0x00009947 0xfffffbd0 0x0383ffff 0x000fea00
0x00027941 0x00000000 0x03800000 0x000fea00
0x02077824 0x00000001 0x078e0a03 0x000fe200
0x02ff7355 0x00000000 0x00100000 0x000fe200
0x00027945 0x00000250 0x03800000 0x000fe600
0x0700780c 0x00000400 0x03f24270 0x000fd800
0x00009947 0x00000220 0x03800000 0x000fea00
0x080a7210 0x00000006 0x07f1e0ff 0x080fe200
0x08077381 0x00000000 0x001ee900 0x0000a800
0x090b7824 0x00000001 0x000e0605 0x000fe200
0x0a0c7210 0x00000006 0x07f1e0ff 0x000fca00
0x0b0d7824 0x00000001 0x000e0605 0x100fe200
0x0c0e7210 0x00000006 0x07f1e0ff 0x080fe200
0x0a0a7381 0x00000000 0x001ee900 0x000ee800
0x0d0f7824 0x00000001 0x000e0605 0x100fe200
0x0e107210 0x00000006 0x07f1e0ff 0x080fe200
0x0c0c7381 0x00000000 0x001ee900 0x000f2800
0x0f117824 0x00000001 0x000e0605 0x100fe200
0x10127210 0x00000006 0x07f1e0ff 0x080fe200
0x0e0e7381 0x00000000 0x001ee900 0x000f2800
0x11137824 0x00000001 0x000e0605 0x100fe200
0x12147210 0x00000006 0x07f1e0ff 0x080fe200
0x10107381 0x00000000 0x001ee900 0x000f2800
0x13157824 0x00000001 0x000e0605 0x100fe200
0x14087210 0x00000006 0x07f1e0ff 0x001fe200
0x12127381 0x00000000 0x001ee900 0x000f2800
0x15097824 0x00000001 0x000e0605 0x000fc400
0x14147381 0x00000000 0x001ee900 0x000f2c00
0x08167381 0x00000000 0x001ee900 0x00012200
0x0000781c 0x00000000 0x03f0e170 0x000fe400
0x03037810 0x00000800 0x07ffe0ff 0x000fe400
0x08087210 0x00000006 0x07f3e0ff 0x001fca00
0x09097824 0x00000001 0x008e0605 0x000fe400
0x04077220 0x00000007 0x00400000 0x024fc800
0x07077220 0x0000000a 0x00400000 0x008fc800
0x07077220 0x0000000c 0x00400000 0x010fc800
0x07077220 0x0000000e 0x00400000 0x000fc800
0x07077220 0x00000010 0x00400000 0x000fc800
0x07077220 0x00000012 0x00400000 0x000fc800
0x07077220 0x00000014 0x00400000 0x000fc800
0x07047220 0x00000016 0x00400000 0x000fc600
0x00027941 0x00000000 0x03800000 0x000fea00
0x0300720c 0x00000002 0x00701670 0x000fd800
0x00008947 0x000000e0 0x03800000 0x000fea00
0x080a7210 0x00000006 0x07f1e0ff 0x000fc800
0x0a0c7210 0x00000006 0x07f3e0ff 0x080fe200
0x090b7824 0x00000001 0x000e0605 0x100fe400
0x08097381 0x00000000 0x001ee900 0x000ea200
0x0c067210 0x00000006 0x07f1e0ff 0x000fe200
0x0b0d7824 0x00000001 0x008e0605 0x000fc800
0x0a0b7381 0x00000000 0x001ee900 0x000ee200
0x0d077824 0x00000001 0x000e0605 0x000fc600
0x0c0d7381 0x00000000 0x001ee900 0x000f2a00
0x06077381 0x00000000 0x001ee900 0x000f2200
0x04047220 0x00000009 0x00400000 0x024fc800
0x04047220 0x0000000b 0x00400000 0x008fc800
0x04047220 0x0000000d 0x00400000 0x010fc800
0x04047220 0x00000007 0x00400000 0x000fc600
0x00017941 0x00000000 0x03800000 0x000fea00
0x0200780c 0x000000ff 0x03f04270 0x000fe200
0xff097224 0x000000ff 0x078e0004 0x020fd600
0x00000947 0x00000390 0x03800000 0x000fea00
0xff037819 0x0000001f 0x00011400 0x000fe200
0x00087919 0x00000000 0x00000000 0x000e6600
0x03037211 0x00000000 0x078f28ff 0x000fc800
0x03047812 0xffffffe0 0x078ec0ff 0x000fc800
0xff077212 0x00000004 0x078e33ff 0x000fe400
0x04057810 0x00000020 0x07ffe0ff 0x000fc600
0x02077824 0x00000001 0x078e0207 0x000fe200
0x0500720c 0x00000002 0x03f04270 0x000fc800
0x07077807 0x0000001f 0x00000000 0x000fe400
0x08067810 0x00000002 0x07ffe0ff 0x042fe400
0x0800720c 0x00000007 0x03f06270 0x040fe400
0x0800720c 0x000000ff 0x03f25270 0x000fe400
0x09047989 0x08200000 0x000e0007 0x000e6400
0x04047220 0x00000009 0x00400000 0x002fca00
0x04047208 0x00000009 0x04000000 0x000fe400
0x0600720c 0x00000007 0x03f04270 0x000fe400
0x08067810 0x00000004 0x07ffe0ff 0x000fc800
0x04057989 0x08400000 0x000e0007 0x000e6c00
0x04048220 0x00000005 0x00400000 0x002fe200
0x0600720c 0x00000007 0x03f04270 0x000fe400
0x08067810 0x00000008 0x07ffe0ff 0x000fca00
0x04057989 0x08800000 0x000e0007 0x000e6a00
0x04048220 0x00000005 0x00400000 0x002fe200
0x0600720c 0x00000007 0x03f04270 0x000fe400
0x08067810 0x00000010 0x07ffe0ff 0x000fca00
0x04057989 0x09000000 0x000e0007 0x000e6a00
0x04048220 0x00000005 0x00400000 0x002fe200
0x0600720c 0x00000007 0x03f04270 0x000fe400
0xff067819 0x00000005 0x00011403 0x000fca00
0x04057989 0x0a000000 0x000e0007 0x000e6200
0x06069824 0x00000004 0x078e00ff 0x000fc800
0x04048220 0x00000005 0x00400000 0x002fe200
0x0000720c 0x000000ff 0x03f05270 0x000fc600
0xff037224 0x000000ff 0x078e0004 0x000fd000
0x06009388 0x00000803 0x00000800 0x000fe800
0x00007b1d 0x00000000 0x00000000 0x000fea00
0x00000947 0x00000390 0x03800000 0x000fea00
0xff007984 0x00000c00 0x00001800 0x000e6200
0x0200780c 0x00000020 0x03f24270 0x000fc400
0x0200780c 0x00000040 0x03f44270 0x040fe200
0xff047984 0x00001000 0x00001c00 0x000ea200
0x0200780c 0x00000060 0x03f04270 0x000fce00
0xff087984 0x00002000 0x00001a00 0x000ee200
0x03031220 0x00000000 0x00400000 0x002fe200
0x0200780c 0x00000080 0x03f24270 0x040fe200
0xff007224 0x000000ff 0x078e00ff 0x000fe400
0x03032220 0x00000004 0x00400000 0x004fe200
0x0200780c 0x000000a0 0x03f44270 0x000fc600
0x03030220 0x00000005 0x00400000 0x000fe200
0x0200780c 0x000000c0 0x03f04270 0x000fc800
0x03031220 0x00000006 0x00400000 0x000fe200
0x0200780c 0x000000e1 0x03f26270 0x000fc600
0x03032220 0x00000007 0x00400000 0x000fc800
0x03030220 0x00000008 0x00400000 0x008fca00
0x00009947 0x00000270 0x03800000 0x000fea00
0x03037220 0x00000009 0x00400000 0x000fe200
0x00007947 0x00000250 0x03800000 0x000fea00
0x00037919 0x00000000 0x00000000 0x000e6800
0x09027f89 0x08201f00 0x000e0000 0x000ea200
0x0300780c 0x0000001e 0x03f04270 0x042fe400
0x0300720c 0x000000ff 0x03f25270 0x000fd400
0x02098220 0x00000009 0x00400000 0x004fe200
0x0300780c 0x0000001d 0x03f04270 0x000fce00
0x09027f89 0x08401f00 0x000e0000 0x000e6a00
0x09098220 0x00000002 0x00400000 0x002fe200
0x0300780c 0x0000001b 0x03f04270 0x000fce00
0x09027f89 0x08801f00 0x000e0000 0x000e6a00
0x09098220 0x00000002 0x00400000 0x002fe200
0x0300780c 0x00000017 0x03f04270 0x000fce00
0x09027f89 0x09001f00 0x000e0000 0x000e6a00
0x09098220 0x00000002 0x00400000 0x002fe200
0x0300780c 0x0000000f 0x03f04270 0x000fe400
0xff039819 0x0000001f 0x00011400 0x000fc800
0x03039211 0x00000000 0x078f28ff 0x000fe200
0x09027f89 0x0a001f00 0x000e0000 0x000e6600
0xff039819 0x00000005 0x00011403 0x000fe400
0x09098220 0x00000002 0x00400000 0x002fe200
0x0000720c 0x000000ff 0x03f05270 0x000fe400
0x03029824 0x00000004 0x078e00ff 0x000fe400
0xff037224 0x000000ff 0x078e0009 0x000fd000
0x02009388 0x00000803 0x00000800 0x000fe800
0x00007b1d 0x00000000 0x00000000 0x000fea00
0x00000947 0x000000b0 0x03800000 0x000fea00
0xff007984 0x00000c00 0x00001800 0x000e6800
0xff047984 0x00001000 0x00001c00 0x000eb000
0xff087984 0x00002000 0x00001a00 0x000ee200
0x03007220 0x00000000 0x00400000 0x002fc800
0x00007220 0x00000004 0x00400000 0x004fc800
0x00057220 0x00000005 0x00400000 0x000fe400
0xff007224 0x000000ff 0x078e00ff 0x000fe400
0x05067220 0x00000006 0x00400000 0x000fc800
0x06067220 0x00000007 0x00400000 0x000fc800
0x06067220 0x00000008 0x00400000 0x008fc800
0x06037220 0x00000009 0x00400000 0x000fc600
0x00007941 0x00000000 0x03800000 0x000fea00
0x0000720c 0x000000ff 0x03f05270 0x000fd800
0x0000094d 0x00000000 0x03800000 0x000fea00
0x000779c3 0x00000000 0x00002500 0x000e6200
0x00067882 0x00000004 0x00000000 0x000fe400
0x00047ab9 0x00005e00 0x00000a00 0x000fe400
0x070472a5 0x00000006 0x0f8e0004 0x002fd200
0xff007986 0x00000003 0x0c10e904 0x000fe200
0x0000794d 0x00000000 0x03800000 0x000fea00
0x00007947 0xfffffff0 0x0383ffff 0x000fc000
0x00007918 0x00000000 0x00000000 0x000fc000
0x00007918 0x00000000 0x00000000 0x000fc000



.text._ZN3cub17CUB_200400_750_NS28DeviceReduceSingleTileKernelINS0_18DeviceReducePolicyIfyN6thrust20THRUST_200400_750_NS10multipliesIfEEE9Policy600ENS4_20permutation_iteratorINS4_6detail15normal_iteratorINS4_10device_ptrIfEEEENS4_18transform_iteratorIN13strided_rangeISE_E14stride_functorENS4_17counting_iteratorIlNS4_11use_defaultESK_SK_EESK_SK_EEEEPfyS6_ffN4cuda3std3__410__identityEEEvT0_T1_T2_T3_T4_T6_
bar = 1	reg = 46	lmem=0	smem=44
0xff017624 0x00000a00 0x078e00ff 0x000fe400
0xff007a0c 0x00006000 0x03f05070 0x000fc800
0xff007a0c 0x00006100 0x03f05300 0x000fd800
0x00008947 0x00002c20 0x03800000 0x000fea00
0xff007624 0x00006000 0x078e00ff 0x000fe200
0x00ff7355 0x00000000 0x00100000 0x000fe200
0xff067624 0x00006100 0x078e00ff 0x000fe200
0x00007945 0x00002b80 0x03800000 0x000fe400
0x0000780c 0x00001000 0x03f06070 0x000fc800
0x0600720c 0x000000ff 0x03f06100 0x000fd800
0x00008947 0x00001920 0x03800000 0x000fea00
0x00057919 0x00000000 0x00002100 0x000e2200
0x00067882 0x00000400 0x00000000 0x000fe400
0x00087ab9 0x00005a00 0x00000a00 0x000fe400
0x060472a5 0x00000008 0x0f8e003f 0x000fe400
0x060672a4 0x00000009 0x0f8e023f 0x000fc800
0x05077290 0x00000006 0x0fffe03f 0x000fe200
0x05047a10 0x00005800 0x07f1e0ff 0x001fc800
0x05057a11 0x00005900 0x000f0eff 0x000fe200
0x04087a25 0x00005a00 0x078e00ff 0x000fc800
0x05037a24 0x00005a00 0x078e02ff 0x000fe200
0x08027a11 0x00005c00 0x078010ff 0x000fc600
0x04037a24 0x00005b00 0x078e0203 0x000fe200
0x020a7c10 0x00000004 0x0ff3e0ff 0x000fc600
0x09037824 0x00000001 0x078e0203 0x000fca00
0x08037a11 0x00005d00 0x000f1403 0x000fe400
0x0a087c10 0x00000004 0x0ff1e0ff 0x000fe400
0x030b7c10 0x00000007 0x08ffe4ff 0x000fe400
0x080c7c10 0x00000004 0x0ff3e0ff 0x000fe400
0x0b097c10 0x00000007 0x087fe4ff 0x000fe200
0x02167381 0x00000000 0x001ee900 0x000ea200
0x0c0e7c10 0x00000004 0x0ff1e0ff 0x000fc400
0x090d7c10 0x00000007 0x08ffe4ff 0x000fe200
0x0a077381 0x00000000 0x001ee900 0x0000a200
0x0e107c10 0x00000004 0x0ff3e0ff 0x000fe400
0x0d0f7c10 0x00000007 0x087fe4ff 0x000fe200
0x08187381 0x00000000 0x001ee900 0x0002e200
0x10127c10 0x00000004 0x0ff1e0ff 0x000fe400
0x0f117c10 0x00000007 0x08ffe4ff 0x000fe200
0x0c1a7381 0x00000000 0x001ee900 0x00096200
0x12147c10 0x00000004 0x0ff3e0ff 0x000fc400
0x11137c10 0x00000007 0x087fe4ff 0x000fe200
0x0e1c7381 0x00000000 0x001ee900 0x00096200
0x140a7c10 0x00000004 0x0ff1e0ff 0x001fe400
0x13157c10 0x00000007 0x08ffe4ff 0x000fe200
0x101e7381 0x00000000 0x001ee900 0x00016200
0x0a087c10 0x00000004 0x0ff3e0ff 0x002fe400
0x150b7c10 0x00000007 0x087fe4ff 0x000fe200
0x12207381 0x00000000 0x001ee900 0x00036200
0x080c7c10 0x00000004 0x0ff1e0ff 0x010fc400
0x0b097c10 0x00000007 0x08ffe4ff 0x000fe200
0x14227381 0x00000000 0x001ee900 0x00096200
0x0c0e7c10 0x00000004 0x0ff3e0ff 0x000fe400
0x090d7c10 0x00000007 0x087fe4ff 0x000fe200
0x0a0a7381 0x00000000 0x001ee900 0x00096200
0x0e107c10 0x00000004 0x0ff1e0ff 0x001fe400
0x0d0f7c10 0x00000007 0x08ffe4ff 0x000fe200
0x08087381 0x00000000 0x001ee900 0x000f6200
0x10127c10 0x00000004 0x0ff3e0ff 0x002fc400
0x0f117c10 0x00000007 0x087fe4ff 0x000fe200
0x0c0c7381 0x00000000 0x001ee900 0x000f6200
0x12147c10 0x00000004 0x0ff1e0ff 0x010fe400
0x11137c10 0x00000007 0x08ffe4ff 0x000fe200
0x0e0e7381 0x00000000 0x001ee900 0x000f2600
0x13157c10 0x00000007 0x087fe4ff 0x000fe200
0x10107381 0x00000000 0x001ee900 0x000f2800
0x12127381 0x00000000 0x001ee900 0x000f2200
0x00067c82 0x00000004 0x08000000 0x000fc600
0x14247381 0x00000000 0x001ee900 0x000f2800
0x140b7981 0x00000006 0x0c1ee900 0x000f2200
0x07077220 0x00000016 0x00400000 0x004fc800
0x07077220 0x00000018 0x00400000 0x008fc800
0x07077220 0x0000001a 0x00400000 0x020fc800
0x07077220 0x0000001c 0x00400000 0x000fc800
0x07077220 0x0000001e 0x00400000 0x000fc800
0x07077220 0x00000020 0x00400000 0x000fc800
0x07077220 0x00000022 0x00400000 0x000fc800
0x07077220 0x0000000a 0x00400000 0x000fc800
0x07077220 0x00000008 0x00400000 0x000fe200
0x00087810 0xfffff000 0x07f1e0ff 0x000fc600
0x07077220 0x0000000c 0x00400000 0x000fe200
0x06097810 0xffffffff 0x007fe4ff 0x000fe200
0xff067224 0x000000ff 0x078e00ff 0x000fe200
0x0800780c 0x00001000 0x03f06070 0x000fe200
0x07077220 0x0000000e 0x00400000 0x010fc600
0x0900720c 0x000000ff 0x03f06100 0x000fe200
0x07077220 0x00000010 0x00400000 0x000fc800
0x07077220 0x00000012 0x00400000 0x000fc800
0x07247220 0x00000024 0x00400000 0x000fe400
0xff077424 0x00001000 0x078e00ff 0x000fe400
0x24007220 0x0000000b 0x00400000 0x000fe200
0x00008947 0x000005b0 0x03800000 0x000fea00
0x04047810 0x00001000 0x07f1e0ff 0x000fe200
0xff0a7424 0x0000000e 0x078e00ff 0x000fe400
0xff0c7224 0x000000ff 0x078e0008 0x000fe400
0xff057224 0x000000ff 0x000e0605 0x000fc400
0x04067a25 0x00005a00 0x078e00ff 0x000fc800
0x05057a24 0x00005a00 0x078e02ff 0x000fe400
0xff0d7224 0x000000ff 0x078e0009 0x000fe400
0x04057a24 0x00005b00 0x078e0205 0x000fe200
0x06047a11 0x00005c00 0x078010ff 0x000fc600
0x070b7824 0x00000001 0x078e0205 0x000fe400
0xff057624 0x00005a00 0x078e00ff 0x000fe400
0xff077424 0x00001000 0x078e00ff 0x000fe200
0x060b7a11 0x00005d00 0x000f140b 0x000fe200
0xff067224 0x000000ff 0x078e00ff 0x000fe200
0x050a7619 0x00005b00 0x0001020a 0x000fe400
0x04107c10 0x00000004 0x0ff1e0ff 0x000fe200
0xff0e7224 0x000000ff 0x078e0004 0x000fe400
0xff0f7224 0x000000ff 0x078e000b 0x000fe200
0x0b117c10 0x00000007 0x087fe4ff 0x000fc400
0x10127c10 0x00000004 0x0ff1e0ff 0x000fc800
0x11137c10 0x00000007 0x087fe4ff 0x000fe200
0x0e1f7381 0x00000000 0x001ee900 0x0000a200
0x12147c10 0x00000004 0x0ff1e0ff 0x000fc600
0x101e7381 0x00000000 0x001ee900 0x0002e200
0x13157c10 0x00000007 0x087fe4ff 0x000fe400
0x14167c10 0x00000004 0x0ff1e0ff 0x000fe200
0x12217381 0x00000000 0x001ee900 0x00096600
0x15177c10 0x00000007 0x087fe4ff 0x000fe400
0x16187c10 0x00000004 0x0ff1e0ff 0x000fe200
0x14237381 0x00000000 0x001ee900 0x00016600
0x17197c10 0x00000007 0x087fe4ff 0x000fc400
0x181a7c10 0x00000004 0x0ff1e0ff 0x000fe200
0x16257381 0x00000000 0x001ee900 0x00016600
0x191b7c10 0x00000007 0x087fe4ff 0x000fe400
0x1a1c7c10 0x00000004 0x0ff1e0ff 0x000fe200
0x18277381 0x00000000 0x001ee900 0x00036600
0x1b1d7c10 0x00000007 0x087fe4ff 0x000fc400
0x1c0e7c10 0x00000004 0x0ff1e0ff 0x001fe200
0x1a297381 0x00000000 0x001ee900 0x00016600
0x1d0f7c10 0x00000007 0x087fe4ff 0x000fe400
0x0e107c10 0x00000004 0x0ff1e0ff 0x002fe200
0x1c1d7381 0x00000000 0x001ee900 0x000f6600
0x0f117c10 0x00000007 0x087fe4ff 0x000fc400
0x10127c10 0x00000004 0x0ff1e0ff 0x010fe200
0x0e0e7381 0x00000000 0x001ee900 0x00032600
0x11137c10 0x00000007 0x087fe4ff 0x000fe400
0x12147c10 0x00000004 0x0ff1e0ff 0x000fe200
0x10117381 0x00000000 0x001ee900 0x000f2600
0x13157c10 0x00000007 0x087fe4ff 0x000fc400
0x14167c10 0x00000004 0x0ff1e0ff 0x000fe200
0x12137381 0x00000000 0x001ee900 0x000f2600
0x15177c10 0x00000007 0x087fe4ff 0x000fe400
0x16187c10 0x00000004 0x0ff1e0ff 0x000fe200
0x14157381 0x00000000 0x001ee900 0x000f2600
0x17197c10 0x00000007 0x087fe4ff 0x000fc400
0x181a7c10 0x00000004 0x0ff1e0ff 0x001fe200
0x16177381 0x00000000 0x001ee900 0x000f2600
0x191b7c10 0x00000007 0x087fe4ff 0x000fe400
0x18197381 0x00000000 0x001ee900 0x000f2200
0x00087c82 0x00000004 0x08000000 0x000fe400
0x00097c82 0x00000007 0x08000000 0x000fc600
0x1a0f7381 0x00000000 0x001ee900 0x002f2800
0x1a2b7981 0x00000008 0x0c1ee900 0x000f2200
0x0c00780c 0x00001000 0x03f06070 0x000fc800
0x0d00720c 0x000000ff 0x03f06100 0x000fe200
0x1f1f7220 0x00000000 0x00400000 0x004fc800
0x1f1e7220 0x0000001e 0x00400000 0x008fc800
0x1e1e7220 0x00000021 0x00400000 0x020fc800
0x1e1e7220 0x00000023 0x00400000 0x000fc800
0x1e1e7220 0x00000025 0x00400000 0x000fc800
0x1e1e7220 0x00000027 0x00400000 0x000fc800
0x1e1e7220 0x00000029 0x00400000 0x000fc800
0x1e1d7220 0x0000001d 0x00400000 0x000fc800
0x1d0e7220 0x0000000e 0x00400000 0x010fc800
0x0e0e7220 0x00000011 0x00400000 0x000fc800
0x0e0e7220 0x00000013 0x00400000 0x000fc800
0x0e0e7220 0x00000015 0x00400000 0x000fc800
0x0e0e7220 0x00000017 0x00400000 0x000fc800
0x0e0e7220 0x00000019 0x00400000 0x000fc800
0x0e0e7220 0x0000000f 0x00400000 0x000fc800
0x0e007220 0x0000002b 0x00400000 0x000fe200
0x00008947 0x00000c70 0x03800000 0x000fea00
0x07077810 0x00001000 0x07f1e0ff 0x000fe400
0x05047211 0x00000004 0x078470ff 0x000fe400
0x0c0c7810 0xfffff000 0x07f3e0ff 0x000fe200
0xff067224 0x000000ff 0x000e0606 0x000fe200
0x0700720c 0x00000008 0x03f04070 0x000fe200
0x0b0b7824 0x00000001 0x010e060a 0x000fe200
0x0d0d7810 0xffffffff 0x00ffe4ff 0x000fe400
0x0600720c 0x00000009 0x03f04100 0x000fd800
0x00008947 0xfffffb40 0x0383ffff 0x000fea00
0x07007a0c 0x00006000 0x03f06070 0x000fc800
0x06007a0c 0x00006100 0x03f06100 0x000fd800
0x00000947 0x00000bb0 0x03800000 0x000fea00
0x000a7919 0x00000000 0x00002100 0x000e2200
0x07057a10 0x00006000 0x07ffe1ff 0x000fe200
0x01ff7355 0x00000000 0x00100000 0x000fe200
0x00017945 0x00000b70 0x03800000 0x000fe400
0x0a00720c 0x00000005 0x03f06270 0x001fd800
0x00000947 0x00000b40 0x03800000 0x000fea00
0xff047212 0x0000000a 0x078e33ff 0x000fe200
0x02ff7355 0x00000000 0x00100000 0x000fe200
0x00027945 0x00000210 0x03800000 0x000fe400
0x07097a10 0x00006000 0x07ffe104 0x000fc800
0x09047811 0x00000001 0x078fc0ff 0x040fe400
0x0900780c 0x00000300 0x03f06070 0x000fe400
0x04087812 0x00000003 0x0782c0ff 0x000fe200
0xff047224 0x000000ff 0x078e000a 0x000fd600
0x00009947 0x000001a0 0x03800000 0x000fea00
0xff0f7624 0x00005a00 0x078e00ff 0x000fe400
0xff107424 0x00000008 0x078e00ff 0x000fe400
0xff0c7224 0x000000ff 0x078e0008 0x000fe400
0x06087a24 0x00005a00 0x078e02ff 0x000fe200
0x0f107619 0x00005b00 0x00010210 0x000fe200
0xff047224 0x000000ff 0x078e000a 0x000fe400
0xff0d7224 0x000000ff 0x078e00ff 0x000fc400
0xff0e7224 0x000000ff 0x078e00ff 0x000fe400
0x0f0f7824 0x00000100 0x078e00ff 0x000fe400
0x07117a24 0x00005b00 0x078e0208 0x000fe400
0x100a7224 0x0000000d 0x078e02ff 0x080fe400
0x0f087225 0x0000000d 0x078e00ff 0x000fc800
0x0e0b7224 0x0000000f 0x078e020a 0x000fc800
0x09097824 0x00000001 0x078e020b 0x000fc800
0x07087a25 0x00005a00 0x078e0008 0x000fc800
0x09097824 0x00000001 0x078e0211 0x000fe200
0x080a7211 0x00000002 0x078210ff 0x000fc800
0x080b7211 0x00000003 0x008f1409 0x000fd000
0x0a0b7381 0x00000000 0x001ee900 0x000ea200
0x0c0c7810 0xffffffff 0x07ffe0ff 0x000fe400
0x0d0d7810 0x00000001 0x07f5e0ff 0x000fe400
0x0c00720c 0x000000ff 0x03f25270 0x000fe400
0x04047810 0x00000100 0x07ffe0ff 0x000fe200
0xff0e7224 0x000000ff 0x010e060e 0x000fe400
0x0b007220 0x00000000 0x00400000 0x004fce00
0x00001947 0xffffff00 0x0383ffff 0x000fea00
0x00027941 0x00000000 0x03800000 0x000fea00
0x00008947 0x000008f0 0x03800000 0x000fea00
0x04077a10 0x00005800 0x0791e007 0x000fe200
0x05087824 0x00000001 0x078e0a04 0x100fe200
0xff037819 0x0000001f 0x00011404 0x000fe200
0x02ff7355 0x00000000 0x00100000 0x000fe200
0x00027945 0x00000510 0x03800000 0x000fe400
0x03037a10 0x00005900 0x007e2406 0x000fe400
0x0800780c 0x00000c00 0x03f24270 0x000fe400
0x0000781c 0x00000000 0x03f0f070 0x000fe200
0x03067a24 0x00005a00 0x078e02ff 0x000fc400
0x07027a25 0x00005a00 0x078e00ff 0x000fc800
0x07077a24 0x00005b00 0x078e0206 0x000fe200
0x020f7a11 0x00005c00 0x078410ff 0x000fc600
0x03037824 0x00000001 0x078e0207 0x000fca00
0x02037a11 0x00005d00 0x010f1403 0x000fe200
0x00009947 0x00000460 0x03800000 0x000fea00
0x0000781c 0x00000000 0x03f0e170 0x000fe400
0x05077810 0xfffff400 0x07ffe0ff 0x000fe400
0x0f087c10 0x00000004 0x0ff3e0ff 0x000fe200
0xff027224 0x000000ff 0x078e000f 0x000fc600
0x03097c10 0x00000007 0x08ffe4ff 0x000fe400
0x080a7c10 0x00000004 0x0ff3e0ff 0x000fc600
0x02177381 0x00000000 0x001ee900 0x0000a200
0x090b7c10 0x00000007 0x08ffe4ff 0x000fe400
0x0a0c7c10 0x00000004 0x0ff3e0ff 0x000fe200
0x08067381 0x00000000 0x001ee900 0x0002e600
0x0b0d7c10 0x00000007 0x08ffe4ff 0x000fe400
0x0c0e7c10 0x00000004 0x0ff3e0ff 0x000fe200
0x0a197381 0x00000000 0x001ee900 0x00096600
0x0d0f7c10 0x00000007 0x08ffe4ff 0x000fc400
0x0e107c10 0x00000004 0x0ff3e0ff 0x000fe200
0x0c1b7381 0x00000000 0x001ee900 0x00016600
0x0f117c10 0x00000007 0x08ffe4ff 0x000fe400
0x10127c10 0x00000004 0x0ff3e0ff 0x000fe200
0x0e1d7381 0x00000000 0x001ee900 0x00016600
0x11137c10 0x00000007 0x08ffe4ff 0x000fc400
0x12147c10 0x00000004 0x0ff3e0ff 0x000fe200
0x101f7381 0x00000000 0x001ee900 0x00036600
0x13157c10 0x00000007 0x08ffe4ff 0x000fe400
0x14027c10 0x00000004 0x0ff3e0ff 0x001fe200
0x12217381 0x00000000 0x001ee900 0x00016600
0x15037c10 0x00000007 0x08ffe4ff 0x000fc400
0x02087c10 0x00000004 0x0ff3e0ff 0x002fe200
0x14157381 0x00000000 0x001ee900 0x000f6600
0x03097c10 0x00000007 0x08ffe4ff 0x000fe400
0x080a7c10 0x00000004 0x0ff3e0ff 0x010fe200
0x02237381 0x00000000 0x001ee900 0x00032600
0x090b7c10 0x00000007 0x08ffe4ff 0x000fc400
0x0a0c7c10 0x00000004 0x0ff3e0ff 0x000fe200
0x08097381 0x00000000 0x001ee900 0x000f2600
0x0b0d7c10 0x00000007 0x08ffe4ff 0x000fe400
0x0c0e7c10 0x00000004 0x0ff3e0ff 0x000fe200
0x0a0b7381 0x00000000 0x001ee900 0x000f2600
0x0d0f7c10 0x00000007 0x08ffe4ff 0x000fc400
0x0e107c10 0x00000004 0x0ff3e0ff 0x000fe200
0x0c0d7381 0x00000000 0x001ee900 0x000f2600
0x0f117c10 0x00000007 0x08ffe4ff 0x000fe400
0x10127c10 0x00000004 0x0ff3e0ff 0x001fe200
0x0e0f7381 0x00000000 0x001ee900 0x000f2600
0x11137c10 0x00000007 0x08ffe4ff 0x000fc400
0x12027c10 0x00000004 0x0ff3e0ff 0x002fe200
0x10117381 0x00000000 0x001ee900 0x000f2600
0x13037c10 0x00000007 0x08ffe4ff 0x000fe400
0x12257381 0x00000000 0x001ee900 0x000f2c00
0x02277381 0x00000000 0x001ee900 0x00012200
0x04047810 0x00001000 0x07ffe0ff 0x000fc800
0x0400720c 0x00000007 0x03f26270 0x000fe200
0x17177220 0x00000000 0x00400000 0x004fc800
0x17067220 0x00000006 0x00400000 0x008fc800
0x06067220 0x00000019 0x00400000 0x020fc800
0x06067220 0x0000001b 0x00400000 0x000fc800
0x06067220 0x0000001d 0x00400000 0x000fc800
0x06067220 0x0000001f 0x00400000 0x000fc800
0x06067220 0x00000021 0x00400000 0x000fc800
0x06067220 0x00000015 0x00400000 0x000fc800
0x06067220 0x00000023 0x00400000 0x010fc800
0x06067220 0x00000009 0x00400000 0x000fc800
0x06067220 0x0000000b 0x00400000 0x000fc800
0x06067220 0x0000000d 0x00400000 0x000fc800
0x06067220 0x0000000f 0x00400000 0x000fe200
0x020f7c10 0x00000004 0x0ff5e0ff 0x000fc600
0x06067220 0x00000011 0x00400000 0x000fe200
0x03037c10 0x00000007 0x097fe4ff 0x001fc600
0x06067220 0x00000025 0x00400000 0x000fc800
0x06007220 0x00000027 0x00400000 0x000fe200
0x00009947 0xfffffbc0 0x0383ffff 0x000fea00
0x00027941 0x00000000 0x03800000 0x000fea00
0x05027824 0x00000001 0x078e0a04 0x000fe200
0x02ff7355 0x00000000 0x00100000 0x000fe200
0x00027945 0x00000260 0x03800000 0x000fe600
0x0200780c 0x00000400 0x03f24270 0x000fd800
0x00009947 0x00000230 0x03800000 0x000fea00
0x0f067c10 0x00000004 0x0ff1e0ff 0x000fe200
0xff027224 0x000000ff 0x078e000f 0x000fc600
0x03077c10 0x00000007 0x087fe4ff 0x000fe400
0x06087c10 0x00000004 0x0ff1e0ff 0x000fc600
0x02137381 0x00000000 0x001ee900 0x0000a200
0x07097c10 0x00000007 0x087fe4ff 0x000fe400
0x080a7c10 0x00000004 0x0ff1e0ff 0x000fe200
0x06067381 0x00000000 0x001ee900 0x0002e600
0x090b7c10 0x00000007 0x087fe4ff 0x000fe400
0x0a0c7c10 0x00000004 0x0ff1e0ff 0x000fe200
0x08097381 0x00000000 0x001ee900 0x000f2600
0x0b0d7c10 0x00000007 0x087fe4ff 0x000fc400
0x0c0e7c10 0x00000004 0x0ff1e0ff 0x000fe200
0x0a0b7381 0x00000000 0x001ee900 0x000f6600
0x0d0f7c10 0x00000007 0x087fe4ff 0x000fe400
0x0e107c10 0x00000004 0x0ff1e0ff 0x000fe200
0x0c0d7381 0x00000000 0x001ee900 0x000f6600
0x0f117c10 0x00000007 0x087fe4ff 0x000fc400
0x10027c10 0x00000004 0x0ff1e0ff 0x001fe200
0x0e0f7381 0x00000000 0x001ee900 0x000f6600
0x11037c10 0x00000007 0x087fe4ff 0x000fe400
0x10117381 0x00000000 0x001ee900 0x000f6c00
0x02077381 0x00000000 0x001ee900 0x00216200
0x0000781c 0x00000000 0x03f0e170 0x000fc400
0x04047810 0x00000800 0x07ffe0ff 0x000fe200
0x00137220 0x00000013 0x00400000 0x004fc800
0x13067220 0x00000006 0x00400000 0x008fc800
0x06067220 0x00000009 0x00400000 0x010fc800
0x06067220 0x0000000b 0x00400000 0x020fc800
0x06067220 0x0000000d 0x00400000 0x000fc800
0x06067220 0x0000000f 0x00400000 0x000fe200
0x020f7c10 0x00000004 0x0ff3e0ff 0x000fc600
0x06067220 0x00000011 0x00400000 0x000fe200
0x03037c10 0x00000007 0x08ffe4ff 0x001fc600
0x06007220 0x00000007 0x00400000 0x000fc600
0x00027941 0x00000000 0x03800000 0x000fea00
0x0400720c 0x00000005 0x00701670 0x000fd800
0x00008947 0x000000e0 0x03800000 0x000fea00
0x0f047c10 0x00000004 0x0ff1e0ff 0x000fe200
0xff027224 0x000000ff 0x078e000f 0x000fc600
0x03057c10 0x00000007 0x087fe4ff 0x000fe400
0x04067c10 0x00000004 0x0ff1e0ff 0x000fc600
0x02037381 0x00000000 0x001ee900 0x000ea200
0x05077c10 0x00000007 0x087fe4ff 0x000fc600
0x04057381 0x00000000 0x001ee900 0x000ee200
0x00067c82 0x00000004 0x08000000 0x000fc800
0x06097381 0x00000000 0x001ee900 0x000f2800
0x060b7981 0x00000006 0x0c1ee900 0x000f6200
0x00007220 0x00000003 0x00400000 0x004fc800
0x00007220 0x00000005 0x00400000 0x008fc800
0x00007220 0x00000009 0x00400000 0x010fc800
0x00007220 0x0000000b 0x00400000 0x020fc600
0x00017941 0x00000000 0x03800000 0x000fea00
0x00027919 0x00000000 0x00000000 0x000e2200
0xff037224 0x000000ff 0x078e0000 0x000fc600
0x00057919 0x00000000 0x00002100 0x000e6a00
0x03007f89 0x08201f00 0x000e0000 0x000ea200
0x0200780c 0x0000001e 0x03f04270 0x041fe400
0x0200720c 0x000000ff 0x03f25270 0x000fd400
0x00038220 0x00000003 0x00400000 0x004fe200
0x0200780c 0x0000001d 0x03f04270 0x000fce00
0x03007f89 0x08401f00 0x000e0000 0x000e2a00
0x03038220 0x00000000 0x00400000 0x001fe200
0x0200780c 0x0000001b 0x03f04270 0x000fce00
0x03007f89 0x08801f00 0x000e0000 0x000e2a00
0x03038220 0x00000000 0x00400000 0x001fe200
0x0200780c 0x00000017 0x03f04270 0x000fce00
0x03007f89 0x09001f00 0x000e0000 0x000e2a00
0x03038220 0x00000000 0x00400000 0x001fe200
0x0200780c 0x0000000f 0x03f04270 0x000fe400
0xff029819 0x0000001f 0x00011405 0x002fc800
0x02029211 0x00000005 0x078f28ff 0x000fe200
0x03007f89 0x0a001f00 0x000e0000 0x000e2600
0xff029819 0x00000005 0x00011402 0x000fe400
0x03038220 0x00000000 0x00400000 0x001fe200
0x0500720c 0x000000ff 0x03f05270 0x000fe400
0x02009824 0x00000004 0x078e00ff 0x000fe400
0xff027224 0x000000ff 0x078e0005 0x000fcc00
0x00009388 0x00000803 0x00000800 0x000fe800
0x00007b1d 0x00000000 0x00000000 0x000fea00
0x00000947 0x000012e0 0x03800000 0x000fea00
0xff007984 0x00000c00 0x00001800 0x000e2200
0xff027224 0x000000ff 0x078e00ff 0x000fc600
0xff047984 0x00001000 0x00001c00 0x000e7000
0xff087984 0x00002000 0x00001a00 0x000ea200
0x03007220 0x00000000 0x00400000 0x001fc800
0x00007220 0x00000004 0x00400000 0x002fc800
0x00057220 0x00000005 0x00400000 0x000fc800
0x05067220 0x00000006 0x00400000 0x000fc800
0x06067220 0x00000007 0x00400000 0x000fc800
0x06067220 0x00000008 0x00400000 0x004fc800
0x06037220 0x00000009 0x00400000 0x000fe200
0x00007947 0x00001220 0x03800000 0x000fea00
0x00057919 0x00000000 0x00002100 0x000e2200
0x01ff7355 0x00000000 0x00100000 0x000fe200
0x00017945 0x000000f0 0x03800000 0x000fe200
0xff037224 0x000000ff 0x078e00ff 0x000fe200
0x05007a0c 0x00006000 0x03f06270 0x001fe200
0xff027224 0x000000ff 0x078e0005 0x000fd600
0x00000947 0x000000a0 0x03800000 0x000fea00
0x02037a10 0x00005800 0x07f1e0ff 0x000fc800
0x02047a11 0x00005900 0x000f0eff 0x000fca00
0x04067a24 0x00005a00 0x078e02ff 0x000fe400
0x03047a25 0x00005a00 0x078e00ff 0x000fc800
0x03037a24 0x00005b00 0x078e0206 0x000fe200
0x04067a11 0x00005c00 0x078010ff 0x000fc600
0x05037824 0x00000001 0x078e0203 0x000fca00
0x04077a11 0x00005d00 0x000f1403 0x000fd000
0x06037381 0x00000000 0x001ee900 0x00016200
0x02057810 0x00000100 0x07ffe0ff 0x000fc600
0x00017941 0x00000000 0x03800000 0x000fea00
0x05007a0c 0x00006000 0x03f06270 0x000fe200
0x01ff7355 0x00000000 0x00100000 0x000fe200
0x00017945 0x00000ac0 0x03800000 0x000ff400
0x00000947 0x00000aa0 0x03800000 0x000fea00
0xff047212 0x00000005 0x078e33ff 0x000fe200
0x02ff7355 0x00000000 0x00100000 0x000fe200
0x00027945 0x00000160 0x03800000 0x000fe400
0x04067a10 0x00006000 0x07ffe0ff 0x001fc800
0x06047811 0x00000001 0x078fc0ff 0x040fe400
0x0600780c 0x00000300 0x03f06070 0x000fe400
0x04047812 0x00000003 0x0782c0ff 0x000fd800
0x00009947 0x00000100 0x03800000 0x000fea00
0x050a7a10 0x00005800 0x07f3e0ff 0x000fc800
0x050b7a11 0x00005900 0x008f0eff 0x000fca00
0x0b097a24 0x00005a00 0x078e02ff 0x000fe400
0x0a067a25 0x00005a00 0x078e00ff 0x000fc800
0x0a097a24 0x00005b00 0x078e0209 0x000fe200
0x06087a11 0x00005c00 0x078210ff 0x000fc600
0x07077824 0x00000001 0x078e0209 0x000fca00
0x06097a11 0x00005d00 0x008f1407 0x000fd000
0x08087381 0x00000000 0x001ee900 0x000ea200
0x04047810 0xffffffff 0x07ffe0ff 0x000fe400
0x0a0a7810 0x00000100 0x07f5e0ff 0x000fe400
0x0400720c 0x000000ff 0x03f25270 0x000fe400
0x05057810 0x00000100 0x07ffe0ff 0x000fe200
0xff0b7224 0x000000ff 0x010e060b 0x000fe400
0x08037220 0x00000003 0x00400000 0x024fce00
0x00001947 0xffffff20 0x0383ffff 0x000fea00
0x00027941 0x00000000 0x03800000 0x000fea00
0x00008947 0x00000900 0x03800000 0x000fea00
0x05097a10 0x00005800 0x07f1e0ff 0x040fe200
0x02ff7355 0x00000000 0x00100000 0x000fe200
0x05087a10 0x00006000 0x07ffe1ff 0x040fe200
0x00027945 0x00000540 0x03800000 0x000fe200
0x05047a11 0x00005900 0x000f0eff 0x000fe200
0x09067a25 0x00005a00 0x078e00ff 0x000fe200
0x0800780c 0x00000c00 0x03f24270 0x000fc600
0x04047a24 0x00005a00 0x078e02ff 0x000fe200
0x06087a11 0x00005c00 0x078010ff 0x000fc600
0x09097a24 0x00005b00 0x078e0204 0x000fe400
0xff047424 0x0000000a 0x078e00ff 0x000fe400
0x07097824 0x00000001 0x078e0209 0x000fe400
0xff077624 0x00005a00 0x078e00ff 0x000fc600
0x06097a11 0x00005d00 0x000f1409 0x000fe200
0x07067824 0x00000400 0x078e00ff 0x040fe200
0x0000781c 0x00000000 0x03f0f070 0x000fe400
0x07047619 0x00005b00 0x00010204 0x000fe200
0x00009947 0x00000450 0x03800000 0x000fea00
0x0000781c 0x00000000 0x03f0e170 0x000fe400
0x000a7810 0xfffff400 0x07ffe0ff 0x000fe400
0x080c7210 0x00000006 0x07f3e0ff 0x080fe200
0x081a7381 0x00000000 0x001ee900 0x0000a800
0x090d7824 0x00000001 0x008e0604 0x000fe200
0x0c0e7210 0x00000006 0x07f3e0ff 0x000fca00
0x0d0f7824 0x00000001 0x008e0604 0x100fe200
0x0e107210 0x00000006 0x07f3e0ff 0x080fe200
0x0c077381 0x00000000 0x001ee900 0x0002e800
0x0f117824 0x00000001 0x008e0604 0x100fe200
0x10127210 0x00000006 0x07f3e0ff 0x080fe200
0x0e1c7381 0x00000000 0x001ee900 0x0008e800
0x11137824 0x00000001 0x008e0604 0x100fe200
0x12147210 0x00000006 0x07f3e0ff 0x080fe200
0x101e7381 0x00000000 0x001ee900 0x0000e800
0x13157824 0x00000001 0x008e0604 0x100fe200
0x14167210 0x00000006 0x07f3e0ff 0x080fe200
0x12207381 0x00000000 0x001ee900 0x0000e800
0x15177824 0x00000001 0x008e0604 0x100fe200
0x16187210 0x00000006 0x07f3e0ff 0x080fe200
0x14227381 0x00000000 0x001ee900 0x0002e800
0x17197824 0x00000001 0x008e0604 0x100fe200
0x18087210 0x00000006 0x07f3e0ff 0x081fe200
0x16247381 0x00000000 0x001ee900 0x0000e800
0x19097824 0x00000001 0x008e0604 0x100fe200
0x080c7210 0x00000006 0x07f3e0ff 0x082fe200
0x18187381 0x00000000 0x001ee900 0x000ee800
0x090d7824 0x00000001 0x008e0604 0x100fe200
0x0c0e7210 0x00000006 0x07f3e0ff 0x090fe200
0x08267381 0x00000000 0x001ee900 0x00032800
0x0d0f7824 0x00000001 0x008e0604 0x100fe200
0x0e107210 0x00000006 0x07f3e0ff 0x080fe200
0x0c0c7381 0x00000000 0x001ee900 0x000f2800
0x0f117824 0x00000001 0x008e0604 0x100fe200
0x10127210 0x00000006 0x07f3e0ff 0x080fe200
0x0e0e7381 0x00000000 0x001ee900 0x000f2800
0x11137824 0x00000001 0x008e0604 0x100fe200
0x12147210 0x00000006 0x07f3e0ff 0x080fe200
0x10107381 0x00000000 0x001ee900 0x000f2800
0x13157824 0x00000001 0x008e0604 0x100fe200
0x14167210 0x00000006 0x07f3e0ff 0x081fe200
0x12127381 0x00000000 0x001ee900 0x000f2800
0x15177824 0x00000001 0x008e0604 0x100fe200
0x16087210 0x00000006 0x07f3e0ff 0x002fe200
0x14147381 0x00000000 0x001ee900 0x000f2800
0x17097824 0x00000001 0x008e0604 0x000fc400
0x16167381 0x00000000 0x001ee900 0x000f2c00
0x08287381 0x00000000 0x001ee900 0x00012200
0x05057810 0x00001000 0x07ffe0ff 0x000fc800
0x0500720c 0x0000000a 0x03f26270 0x000fe400
0x08087210 0x00000006 0x07f5e0ff 0x001fca00
0x09097824 0x00000001 0x010e0604 0x000fe400
0x1a1a7220 0x00000003 0x00400000 0x024fc800
0x1a077220 0x00000007 0x00400000 0x008fc800
0x07077220 0x0000001c 0x00400000 0x000fc800
0x07077220 0x0000001e 0x00400000 0x000fc800
0x07077220 0x00000020 0x00400000 0x000fc800
0x07077220 0x00000022 0x00400000 0x000fc800
0x07077220 0x00000024 0x00400000 0x000fc800
0x07077220 0x00000018 0x00400000 0x000fc800
0x07077220 0x00000026 0x00400000 0x010fc800
0x07077220 0x0000000c 0x00400000 0x000fc800
0x07077220 0x0000000e 0x00400000 0x000fc800
0x07077220 0x00000010 0x00400000 0x000fc800
0x07077220 0x00000012 0x00400000 0x000fc800
0x07077220 0x00000014 0x00400000 0x000fc800
0x07077220 0x00000016 0x00400000 0x000fc800
0x07037220 0x00000028 0x00400000 0x000fe200
0x00009947 0xfffffbd0 0x0383ffff 0x000fea00
0x00027941 0x00000000 0x03800000 0x000fea00
0x05077a10 0x00006000 0x07ffe1ff 0x000fe200
0x02ff7355 0x00000000 0x00100000 0x000fe200
0x00027945 0x00000250 0x03800000 0x000fe400
0x0700780c 0x00000400 0x03f24270 0x000fd800
0x00009947 0x00000220 0x03800000 0x000fea00
0x080a7210 0x00000006 0x07f1e0ff 0x080fe200
0x08167381 0x00000000 0x001ee900 0x0000a800
0x090b7824 0x00000001 0x000e0604 0x000fe200
0x0a0c7210 0x00000006 0x07f1e0ff 0x000fca00
0x0b0d7824 0x00000001 0x000e0604 0x100fe200
0x0c0e7210 0x00000006 0x07f1e0ff 0x080fe200
0x0a0b7381 0x00000000 0x001ee900 0x0002e800
0x0d0f7824 0x00000001 0x000e0604 0x100fe200
0x0e107210 0x00000006 0x07f1e0ff 0x080fe200
0x0c0c7381 0x00000000 0x001ee900 0x000f2800
0x0f117824 0x00000001 0x000e0604 0x100fe200
0x10127210 0x00000006 0x07f1e0ff 0x080fe200
0x0e0e7381 0x00000000 0x001ee900 0x000f2800
0x11137824 0x00000001 0x000e0604 0x100fe200
0x12147210 0x00000006 0x07f1e0ff 0x080fe200
0x10107381 0x00000000 0x001ee900 0x000f2800
0x13157824 0x00000001 0x000e0604 0x100fe200
0x14087210 0x00000006 0x07f1e0ff 0x001fe200
0x12127381 0x00000000 0x001ee900 0x000f2800
0x15097824 0x00000001 0x000e0604 0x000fc400
0x14147381 0x00000000 0x001ee900 0x000f2c00
0x080a7381 0x00000000 0x001ee900 0x00212200
0x0000781c 0x00000000 0x03f0e170 0x000fe400
0x05057810 0x00000800 0x07ffe0ff 0x000fe400
0x08087210 0x00000006 0x07f3e0ff 0x001fca00
0x09097824 0x00000001 0x008e0604 0x000fe400
0x03167220 0x00000016 0x00400000 0x024fc800
0x160b7220 0x0000000b 0x00400000 0x008fc800
0x0b0b7220 0x0000000c 0x00400000 0x010fc800
0x0b0b7220 0x0000000e 0x00400000 0x000fc800
0x0b0b7220 0x00000010 0x00400000 0x000fc800
0x0b0b7220 0x00000012 0x00400000 0x000fc800
0x0b0b7220 0x00000014 0x00400000 0x000fc800
0x0b037220 0x0000000a 0x00400000 0x000fc600
0x00027941 0x00000000 0x03800000 0x000fea00
0x05007a0c 0x00006000 0x00701670 0x000fd800
0x00008947 0x000000e0 0x03800000 0x000fea00
0x080a7210 0x00000006 0x07f1e0ff 0x080fe400
0x08087381 0x00000000 0x001ee900 0x000ea400
0x0a0c7210 0x00000006 0x07f3e0ff 0x000fe200
0x090b7824 0x00000001 0x000e0604 0x000fc600
0x0c067210 0x00000006 0x07f1e0ff 0x000fe200
0x0b0d7824 0x00000001 0x008e0604 0x000fc800
0x0a0a7381 0x00000000 0x001ee900 0x000ee200
0x0d077824 0x00000001 0x000e0604 0x000fc600
0x0c0c7381 0x00000000 0x001ee900 0x000f2a00
0x06067381 0x00000000 0x001ee900 0x000f2200
0x03037220 0x00000008 0x00400000 0x024fc800
0x03037220 0x0000000a 0x00400000 0x008fc800
0x03037220 0x0000000c 0x00400000 0x010fc800
0x03037220 0x00000006 0x00400000 0x000fc600
0x00017941 0x00000000 0x03800000 0x000fea00
0x0000780c 0x000000ff 0x03f04270 0x000fe200
0xff097224 0x000000ff 0x078e0003 0x020fd600
0x00000947 0x00000390 0x03800000 0x000fea00
0xff037819 0x0000001f 0x00011402 0x000fe200
0x000b7919 0x00000000 0x00000000 0x000e6600
0x03037211 0x00000002 0x078f28ff 0x000fc800
0x03047812 0xffffffe0 0x078ec0ff 0x000fe400
0xff037819 0x00000005 0x00011403 0x000fe400
0x04057810 0x00000020 0x07ffe0ff 0x000fe400
0xff047212 0x00000004 0x078e33ff 0x000fe400
0x05007a0c 0x00006000 0x03f04270 0x000fe400
0x04047a10 0x00006000 0x07ffe0ff 0x000fc800
0x04047807 0x0000001f 0x00000000 0x000fe400
0x0b077810 0x00000002 0x07ffe0ff 0x043fe400
0x0b00720c 0x00000004 0x03f06270 0x040fe400
0x0b00720c 0x000000ff 0x03f25270 0x000fe400
0x09057989 0x08200000 0x000e0004 0x000e2400
0x05057220 0x00000009 0x00400000 0x001fca00
0x05057208 0x00000009 0x04000000 0x000fe400
0x0700720c 0x00000004 0x03f04270 0x000fe400
0x0b077810 0x00000004 0x07ffe0ff 0x000fc800
0x05067989 0x08400000 0x000e0004 0x000e2c00
0x05058220 0x00000006 0x00400000 0x001fe200
0x0700720c 0x00000004 0x03f04270 0x000fe400
0x0b077810 0x00000008 0x07ffe0ff 0x000fca00
0x05067989 0x08800000 0x000e0004 0x000e2a00
0x05058220 0x00000006 0x00400000 0x001fe200
0x0700720c 0x00000004 0x03f04270 0x000fe400
0x0b077810 0x00000010 0x07ffe0ff 0x000fca00
0x05067989 0x09000000 0x000e0004 0x000e2a00
0x05058220 0x00000006 0x00400000 0x001fe200
0x0700720c 0x00000004 0x03f04270 0x000fce00
0x05067989 0x0a000000 0x000e0004 0x000e2a00
0x05058220 0x00000006 0x00400000 0x001fe200
0x0200720c 0x000000ff 0x03f05270 0x000fe200
0x03069824 0x00000004 0x078e00ff 0x000fe400
0xff037224 0x000000ff 0x078e0005 0x000fd000
0x06009388 0x00000803 0x00000800 0x000fe800
0x00007b1d 0x00000000 0x00000000 0x000fea00
0x00000947 0x00000390 0x03800000 0x000fea00
0xff027984 0x00000c00 0x00001800 0x000e2200
0x0000780c 0x00000020 0x03f24270 0x000fc400
0x0000780c 0x00000040 0x03f44270 0x040fe200
0xff047984 0x00001000 0x00001c00 0x000e6200
0x0000780c 0x00000060 0x03f04270 0x000fce00
0xff087984 0x00002000 0x00001a00 0x000ea200
0x03031220 0x00000002 0x00400000 0x001fe200
0x0000780c 0x00000080 0x03f24270 0x040fe200
0xff027224 0x000000ff 0x078e00ff 0x000fe400
0x03032220 0x00000004 0x00400000 0x002fe200
0x0000780c 0x000000a0 0x03f44270 0x000fc600
0x03030220 0x00000005 0x00400000 0x000fe200
0x0000780c 0x000000c0 0x03f04270 0x000fc800
0x03031220 0x00000006 0x00400000 0x000fe200
0x0000780c 0x000000e1 0x03f26270 0x000fc600
0x03032220 0x00000007 0x00400000 0x000fc800
0x03030220 0x00000008 0x00400000 0x004fca00
0x00009947 0x00000270 0x03800000 0x000fea00
0x03037220 0x00000009 0x00400000 0x000fe200
0x00007947 0x00000250 0x03800000 0x000fea00
0x00037919 0x00000000 0x00000000 0x000e6800
0x09007f89 0x08201f00 0x000e0000 0x000ea200
0x0300780c 0x0000001e 0x03f04270 0x042fe400
0x0300720c 0x000000ff 0x03f25270 0x000fd400
0x00098220 0x00000009 0x00400000 0x004fe200
0x0300780c 0x0000001d 0x03f04270 0x000fce00
0x09007f89 0x08401f00 0x000e0000 0x000e6a00
0x09098220 0x00000000 0x00400000 0x002fe200
0x0300780c 0x0000001b 0x03f04270 0x000fce00
0x09007f89 0x08801f00 0x000e0000 0x000e6a00
0x09098220 0x00000000 0x00400000 0x002fe200
0x0300780c 0x00000017 0x03f04270 0x000fce00
0x09007f89 0x09001f00 0x000e0000 0x000e6a00
0x09098220 0x00000000 0x00400000 0x002fe200
0x0300780c 0x0000000f 0x03f04270 0x000fe400
0xff039819 0x0000001f 0x00011402 0x000fc800
0x03039211 0x00000002 0x078f28ff 0x000fe200
0x09007f89 0x0a001f00 0x000e0000 0x000e6600
0xff039819 0x00000005 0x00011403 0x000fe400
0x09098220 0x00000000 0x00400000 0x002fe200
0x0200720c 0x000000ff 0x03f05270 0x000fe400
0x03009824 0x00000004 0x078e00ff 0x000fe400
0xff037224 0x000000ff 0x078e0009 0x000fd000
0x00009388 0x00000803 0x00000800 0x000fe800
0x00007b1d 0x00000000 0x00000000 0x000fea00
0x00000947 0x000000b0 0x03800000 0x000fea00
0xff007984 0x00000c00 0x00001800 0x000e6200
0xff027224 0x000000ff 0x078e00ff 0x000fc600
0xff047984 0x00001000 0x00001c00 0x001e3000
0xff087984 0x00002000 0x00001a00 0x000ea200
0x03007220 0x00000000 0x00400000 0x002fc800
0x00007220 0x00000004 0x00400000 0x001fc800
0x00057220 0x00000005 0x00400000 0x000fc800
0x05067220 0x00000006 0x00400000 0x000fc800
0x06067220 0x00000007 0x00400000 0x000fc800
0x06067220 0x00000008 0x00400000 0x004fc800
0x06037220 0x00000009 0x00400000 0x000fc600
0x00007941 0x00000000 0x03800000 0x000fea00
0x0200720c 0x000000ff 0x03f05270 0x000fd800
0x0000094d 0x00000000 0x03800000 0x000fea00
0x03037a20 0x00006300 0x00400000 0x000fe200
0x00047ab9 0x00005e00 0x00000a00 0x000fce00
0xff007986 0x00000003 0x0c10e904 0x000fe200
0x0000794d 0x00000000 0x03800000 0x000fea00
0x00007919 0x00000000 0x00002100 0x000e2400
0x0000720c 0x000000ff 0x03f05270 0x001fd800
0x0000094d 0x00000000 0x03800000 0x000fea00
0xff007624 0x00006300 0x078e00ff 0x000fe200
0x00047ab9 0x00005e00 0x00000a00 0x000fce00
0xff007986 0x00000000 0x0c10e904 0x000fe200
0x0000794d 0x00000000 0x03800000 0x000fea00
0x00007947 0xfffffff0 0x0383ffff 0x000fc000
0x00007918 0x00000000 0x00000000 0x000fc000
0x00007918 0x00000000 0x00000000 0x000fc000



.text._ZN3cub17CUB_200400_750_NS28DeviceReduceSingleTileKernelINS0_18DeviceReducePolicyIfjN6thrust20THRUST_200400_750_NS10multipliesIfEEE9Policy600EPfS9_iS6_ffN4cuda3std3__410__identityEEEvT0_T1_T2_T3_T4_T6_
bar = 1	reg = 45	lmem=0	smem=44
0x00017a02 0x00000a00 0x00000f00 0x000fe400
0xff007a0c 0x00005c00 0x03f05270 0x000fd800
0x00008947 0x00003ec0 0x03800000 0x000fea00
0x00007919 0x00000000 0x00002100 0x000e2200
0xff027624 0x00005800 0x078e00ff 0x000fe200
0x00ff7355 0x00000000 0x00100000 0x000fe200
0x00007945 0x00003e20 0x03800000 0x000fe600
0x02ff7812 0x0000000f 0x0780c0ff 0x000fd800
0x00008947 0x00001fa0 0x03800000 0x000fea00
0x00057a02 0x00005c00 0x00000f00 0x000fc800
0x0500780c 0x00001000 0x03f06270 0x000fd800
0x00008947 0x00001190 0x03800000 0x000fea00
0xff037424 0x00000004 0x078e00ff 0x000fc800
0x00027625 0x00005800 0x078e0203 0x001fd000
0x02047381 0x00000000 0x001e6900 0x000ea800
0x02077381 0x00040000 0x001e6900 0x000ea800
0x02067381 0x00080000 0x001e6900 0x000ee800
0x02087381 0x000c0000 0x001e6900 0x000f2800
0x02097381 0x00100000 0x001e6900 0x000f6800
0x020a7381 0x00140000 0x001e6900 0x000f6800
0x020b7381 0x00180000 0x001e6900 0x000f6800
0x020c7381 0x001c0000 0x001e6900 0x000f6800
0x020d7381 0x00200000 0x001e6900 0x000f6800
0x020e7381 0x00240000 0x001e6900 0x000f6800
0x020f7381 0x00280000 0x001e6900 0x000f6800
0x02107381 0x002c0000 0x001e6900 0x000f6800
0x02117381 0x00300000 0x001e6900 0x000f6800
0x02127381 0x00340000 0x001e6900 0x000f6800
0x02137381 0x00380000 0x001e6900 0x000f6800
0x02147381 0x003c0000 0x001e6900 0x000f6200
0x0500780c 0x00002000 0x03f06270 0x000fe200
0x04077220 0x00000007 0x00400000 0x004fc800
0x06077220 0x00000007 0x00400000 0x008fc800
0x08087220 0x00000007 0x00400000 0x010fe200
0x00077802 0x00001000 0x00000f00 0x000fc600
0x09097220 0x00000008 0x00400000 0x020fc800
0x0a0a7220 0x00000009 0x00400000 0x000fc800
0x0b0b7220 0x0000000a 0x00400000 0x000fc800
0x0c0c7220 0x0000000b 0x00400000 0x000fc800
0x0d0d7220 0x0000000c 0x00400000 0x000fc800
0x0e0e7220 0x0000000d 0x00400000 0x000fc800
0x0f0f7220 0x0000000e 0x00400000 0x000fc800
0x10107220 0x0000000f 0x00400000 0x000fc800
0x11117220 0x00000010 0x00400000 0x000fc800
0x12127220 0x00000011 0x00400000 0x000fc800
0x13137220 0x00000012 0x00400000 0x000fc800
0x14047220 0x00000013 0x00400000 0x000fe200
0x00008947 0x000002b0 0x03800000 0x000fea00
0x05067810 0xfffff000 0x07ffe0ff 0x000fe200
0xff077424 0x00001000 0x078e00ff 0x000fc600
0x00057202 0x00000006 0x00000f00 0x000fe400
0x02097381 0x00400000 0x001e6900 0x0000a800
0x02087381 0x00440000 0x001e6900 0x0000e800
0x020a7381 0x00480000 0x001e6900 0x00012800
0x020b7381 0x004c0000 0x001e6900 0x00016800
0x020c7381 0x00500000 0x001e6900 0x00016800
0x020d7381 0x00540000 0x001e6900 0x00016800
0x020e7381 0x00580000 0x001e6900 0x00016800
0x020f7381 0x005c0000 0x001e6900 0x00016800
0x02107381 0x00600000 0x001e6900 0x00016800
0x02117381 0x00640000 0x001e6900 0x00016800
0x02127381 0x00680000 0x001e6900 0x00016800
0x02137381 0x006c0000 0x001e6900 0x00016800
0x02147381 0x00700000 0x001e6900 0x00016800
0x02157381 0x00740000 0x001e6900 0x00016800
0x02167381 0x00780000 0x001e6900 0x00016800
0x02177381 0x007c0000 0x001e6900 0x00016200
0x0500780c 0x00001000 0x03f06270 0x000fc400
0x02027810 0x00004000 0x07f3e0ff 0x001fca00
0xff037224 0x000000ff 0x008e0603 0x000fe400
0x09097220 0x00000004 0x00400000 0x004fc800
0x08097220 0x00000009 0x00400000 0x008fc800
0x0a0a7220 0x00000009 0x00400000 0x010fc800
0x0b0b7220 0x0000000a 0x00400000 0x020fc800
0x0c0c7220 0x0000000b 0x00400000 0x000fc800
0x0d0d7220 0x0000000c 0x00400000 0x000fc800
0x0e0e7220 0x0000000d 0x00400000 0x000fc800
0x0f0f7220 0x0000000e 0x00400000 0x000fc800
0x10107220 0x0000000f 0x00400000 0x000fc800
0x11117220 0x00000010 0x00400000 0x000fc800
0x12127220 0x00000011 0x00400000 0x000fc800
0x13137220 0x00000012 0x00400000 0x000fc800
0x14147220 0x00000013 0x00400000 0x000fc800
0x15157220 0x00000014 0x00400000 0x000fc800
0x16167220 0x00000015 0x00400000 0x000fc800
0x17047220 0x00000016 0x00400000 0x000fe200
0x00008947 0x00000a80 0x03800000 0x000fea00
0x07077810 0x00001000 0x07ffe0ff 0x000fe400
0x05057810 0xfffff000 0x07ffe0ff 0x000fe400
0x0700720c 0x00000006 0x03f04270 0x000fd800
0x00008947 0xfffffd80 0x0383ffff 0x000fea00
0x07007a0c 0x00005c00 0x03f06270 0x000fd800
0x00000947 0x00000a20 0x03800000 0x000fea00
0x07037a10 0x00005c00 0x07ffe1ff 0x000fe200
0x01ff7355 0x00000000 0x00100000 0x000fe200
0x00017945 0x000009f0 0x03800000 0x000fe400
0x0000720c 0x00000003 0x03f06270 0x000fd800
0x00000947 0x000009c0 0x03800000 0x000fea00
0xff027212 0x00000000 0x078e33ff 0x000fe200
0x02ff7355 0x00000000 0x00100000 0x000fe200
0x00027945 0x00000150 0x03800000 0x000fe400
0x07067a10 0x00005c00 0x07ffe102 0x000fc800
0x06027811 0x00000001 0x078fc0ff 0x040fe400
0x0600780c 0x00000300 0x03f26070 0x000fe400
0x02057812 0x00000003 0x0780c0ff 0x000fe400
0x00027202 0x00000000 0x00000f00 0x000fd400
0x00008947 0x000000e0 0x03800000 0x000fea00
0x00097802 0x00000004 0x00000f00 0x000fe200
0x00087824 0x00000001 0x078e0207 0x000fe200
0x00027202 0x00000000 0x00000f00 0x000fc600
0x08087625 0x00005800 0x078e0209 0x000fc800
0xff0b7224 0x000000ff 0x078e0009 0x000fc800
0xff097224 0x000000ff 0x078e000b 0x000fd000
0x08097381 0x00000000 0x001e6900 0x0000a200
0x05057810 0xffffffff 0x07ffe0ff 0x000fe400
0x02027810 0x00000100 0x07ffe0ff 0x000fe400
0x0500720c 0x000000ff 0x03f05270 0x000fe400
0x08087810 0x00000400 0x07f5e0ff 0x001fc800
0xff0b7210 0x0000000b 0x017fe4ff 0x000fe200
0x09047220 0x00000004 0x00400000 0x004fca00
0x00000947 0xffffff70 0x0383ffff 0x000fea00
0x00027941 0x00000000 0x03800000 0x000fea00
0x00009947 0x00000830 0x03800000 0x000fea00
0x03057824 0x00000001 0x078e0a02 0x000fe200
0x000c7802 0x00000004 0x00000f00 0x000fe200
0x02077824 0x00000001 0x078e0207 0x000fe200
0x02ff7355 0x00000000 0x00100000 0x000fe200
0x00027945 0x00000460 0x03800000 0x000fe200
0x0500780c 0x00000c00 0x03f24270 0x000fe200
0x070a7625 0x00005800 0x078e020c 0x0c0fe200
0x07067810 0x00000300 0x07ffe0ff 0x040fe400
0x07087810 0x00000200 0x07ffe0ff 0x040fe200
0xff1c7224 0x000000ff 0x078e000b 0x000fe200
0x07057810 0x00000100 0x07ffe0ff 0x000fe200
0x06067625 0x00005800 0x078e020c 0x000fe200
0x000f7202 0x0000000a 0x00000f00 0x000fc400
0x0000781c 0x00000000 0x03f0f070 0x000fe200
0x08087625 0x00005800 0x078e020c 0x000fc800
0x050a7625 0x00005800 0x078e020c 0x000fe200
0x000c7202 0x00000006 0x00000f00 0x000fe400
0x00137202 0x00000008 0x00000f00 0x000fe200
0xff0d7224 0x000000ff 0x078e0007 0x000fe200
0x00117202 0x0000000a 0x00000f00 0x000fe200
0xff207224 0x000000ff 0x078e0009 0x000fe400
0xff1e7224 0x000000ff 0x078e000b 0x000fe200
0x00009947 0x00000330 0x03800000 0x000fea00
0x0000781c 0x00000000 0x03f0e170 0x000fe400
0x03157810 0xfffff400 0x07ffe0ff 0x000fc400
0x00087202 0x0000000f 0x00000f00 0x000fe200
0xff097224 0x000000ff 0x078e001c 0x000fe200
0x000a7202 0x00000011 0x00000f00 0x000fe200
0xff0b7224 0x000000ff 0x078e001e 0x000fe200
0x00067202 0x00000013 0x00000f00 0x000fe200
0xff077224 0x000000ff 0x078e0020 0x000fe200
0x0c127381 0x00000000 0x001e6900 0x0000a800
0x08057381 0x00000000 0x001e6900 0x000ee800
0x0a0e7381 0x00000000 0x001e6900 0x000f2800
0x06107381 0x00000000 0x001e6900 0x000f6800
0x08147381 0x00100000 0x001e6900 0x000ea800
0x0a167381 0x00100000 0x001e6900 0x000ea800
0x06187381 0x00100000 0x001e6900 0x000ea800
0x0c1a7381 0x00100000 0x001e6900 0x0000a800
0x081c7381 0x00200000 0x001e6900 0x000ea800
0x0a1e7381 0x00200000 0x001e6900 0x000ea800
0x06207381 0x00200000 0x001e6900 0x000ea800
0x0c227381 0x00200000 0x001e6900 0x0000a800
0x08247381 0x00300000 0x001e6900 0x000ea800
0x0a267381 0x00300000 0x001e6900 0x000ea800
0x06287381 0x00300000 0x001e6900 0x000ea800
0x0c2a7381 0x00300000 0x001e6900 0x0000a200
0x02027810 0x00001000 0x07ffe0ff 0x000fc400
0x0c0c7810 0x00004000 0x07f3e0ff 0x001fc800
0xff0d7210 0x0000000d 0x00ffe4ff 0x000fe400
0x0200720c 0x00000015 0x03f26270 0x000fe400
0x06137810 0x00004000 0x07f5e0ff 0x000fe400
0x080f7810 0x00004000 0x07f9e0ff 0x000fe400
0x0a117810 0x00004000 0x07f7e0ff 0x000fe200
0x05057220 0x00000004 0x00400000 0x008fc800
0x05057220 0x0000000e 0x00400000 0x010fc800
0x05057220 0x00000010 0x00400000 0x020fc800
0x05057220 0x00000012 0x00400000 0x004fc800
0x05057220 0x00000014 0x00400000 0x000fc800
0x05057220 0x00000016 0x00400000 0x000fc800
0x05057220 0x00000018 0x00400000 0x000fc800
0x05057220 0x0000001a 0x00400000 0x000fc800
0x05057220 0x0000001c 0x00400000 0x000fc800
0x05057220 0x0000001e 0x00400000 0x000fc800
0x05057220 0x00000020 0x00400000 0x000fc800
0x05057220 0x00000022 0x00400000 0x000fc800
0x05057220 0x00000024 0x00400000 0x000fc800
0x05057220 0x00000026 0x00400000 0x000fc800
0x05057220 0x00000028 0x00400000 0x000fe200
0xff1e7210 0x0000000b 0x01ffe4ff 0x000fe200
0xff207224 0x000000ff 0x010e0607 0x000fe400
0xff1c7224 0x000000ff 0x020e0609 0x000fe400
0x05047220 0x0000002a 0x00400000 0x000fe200
0x00009947 0xfffffcf0 0x0383ffff 0x000fea00
0x00027941 0x00000000 0x03800000 0x000fea00
0x03057210 0x80000002 0x07ffe0ff 0x000fe200
0x02ff7355 0x00000000 0x00100000 0x000fe200
0x00027945 0x00000230 0x03800000 0x000fe400
0x0500780c 0x00000400 0x03f24270 0x000fd800
0x00009947 0x00000200 0x03800000 0x000fea00
0xff067224 0x000000ff 0x078e000f 0x000fe200
0x00077202 0x0000001c 0x00000f00 0x000fe200
0xff087224 0x000000ff 0x078e0011 0x000fe200
0x00097202 0x0000001e 0x00000f00 0x000fe200
0xff0a7224 0x000000ff 0x078e0013 0x000fe200
0x000b7202 0x00000020 0x00000f00 0x000fe200
0x0c127381 0x00000000 0x001e6900 0x0000a800
0x06057381 0x00000000 0x001e6900 0x000ee800
0x080e7381 0x00000000 0x001e6900 0x000f2800
0x0a107381 0x00000000 0x001e6900 0x000f6800
0x06147381 0x00100000 0x001e6900 0x000ea800
0x08167381 0x00100000 0x001e6900 0x000ea800
0x0a187381 0x00100000 0x001e6900 0x000ea800
0x0c1a7381 0x00100000 0x001e6900 0x0000a200
0x11117810 0x00002000 0x07f7e0ff 0x000fc400
0x13137810 0x00002000 0x07f5e0ff 0x000fe400
0x0f0f7810 0x00002000 0x07f9e0ff 0x000fe400
0x0c0c7810 0x00002000 0x07f3e0ff 0x001fe200
0xff1e7224 0x000000ff 0x018e061e 0x000fe200
0x0000781c 0x00000000 0x03f0e170 0x000fe400
0x02027810 0x00000800 0x07ffe0ff 0x000fe200
0xff0d7224 0x000000ff 0x008e060d 0x000fe200
0xff207210 0x00000020 0x017fe4ff 0x000fc400
0xff1c7210 0x0000001c 0x027fe4ff 0x000fe200
0x04057220 0x00000005 0x00400000 0x008fc800
0x05057220 0x0000000e 0x00400000 0x010fc800
0x05057220 0x00000010 0x00400000 0x020fc800
0x05057220 0x00000012 0x00400000 0x004fc800
0x05057220 0x00000014 0x00400000 0x000fc800
0x05057220 0x00000016 0x00400000 0x000fc800
0x05057220 0x00000018 0x00400000 0x000fc800
0x05047220 0x0000001a 0x00400000 0x000fc600
0x00027941 0x00000000 0x03800000 0x000fea00
0x0200720c 0x00000003 0x00701670 0x000fe200
0xff027224 0x000000ff 0x078e000c 0x000fe200
0x00037202 0x0000000d 0x00000f00 0x000fe200
0xff067224 0x000000ff 0x078e0013 0x000fe200
0x00077202 0x00000020 0x00000f00 0x000fe200
0xff087224 0x000000ff 0x078e0011 0x000fe200
0x00097202 0x0000001e 0x00000f00 0x000fe200
0xff0a7224 0x000000ff 0x078e000f 0x000fe200
0x000b7202 0x0000001c 0x00000f00 0x000fc800
0x00008947 0x00000080 0x03800000 0x000fea00
0x0a0b7381 0x00000000 0x001e6900 0x000ea800
0x08097381 0x00000000 0x001e6900 0x000ee800
0x06077381 0x00000000 0x001e6900 0x000f2800
0x02037381 0x00000000 0x001e6900 0x000f6200
0x04047220 0x0000000b 0x00400000 0x004fc800
0x04047220 0x00000009 0x00400000 0x008fc800
0x04047220 0x00000007 0x00400000 0x010fc800
0x04047220 0x00000003 0x00400000 0x020fc600
0x00017941 0x00000000 0x03800000 0x000fea00
0x00037919 0x00000000 0x00000000 0x000e2800
0x04027f89 0x08201f00 0x000e0000 0x000e6200
0x0300780c 0x0000001e 0x03f04270 0x041fe400
0x0300720c 0x000000ff 0x03f25270 0x000fd400
0x02048220 0x00000004 0x00400000 0x002fe200
0x0300780c 0x0000001d 0x03f04270 0x000fce00
0x04027f89 0x08401f00 0x000e0000 0x000e2a00
0x04048220 0x00000002 0x00400000 0x001fe200
0x0300780c 0x0000001b 0x03f04270 0x000fce00
0x04027f89 0x08801f00 0x000e0000 0x000e2a00
0x04048220 0x00000002 0x00400000 0x001fe200
0x0300780c 0x00000017 0x03f04270 0x000fce00
0x04027f89 0x09001f00 0x000e0000 0x000e2a00
0x04048220 0x00000002 0x00400000 0x001fe200
0x0300780c 0x0000000f 0x03f04270 0x000fe400
0xff039819 0x0000001f 0x00011400 0x000fc800
0x03039211 0x00000000 0x078f28ff 0x000fe200
0x04027f89 0x0a001f00 0x000e0000 0x000e2600
0xff039819 0x00000005 0x00011403 0x000fca00
0x03039824 0x00000004 0x078e00ff 0x000fe400
0x04048220 0x00000002 0x00400000 0x001fe200
0x0000720c 0x000000ff 0x03f05270 0x000fc800
0x00027202 0x00000004 0x00000f00 0x000fd000
0x03009388 0x00000802 0x00000800 0x000fe800
0x00007b1d 0x00000000 0x00000000 0x000fea00
0x00000947 0x00002cf0 0x03800000 0x000fea00
0xff037984 0x00000c00 0x00001800 0x000e2200
0xff007224 0x000000ff 0x078e00ff 0x000fc600
0xff047984 0x00001000 0x00001c00 0x000e7000
0xff087984 0x00002000 0x00001a00 0x000ea200
0x02037220 0x00000003 0x00400000 0x001fc800
0x03047220 0x00000004 0x00400000 0x002fc800
0x04057220 0x00000005 0x00400000 0x000fc800
0x05067220 0x00000006 0x00400000 0x000fc800
0x06067220 0x00000007 0x00400000 0x000fc800
0x06067220 0x00000008 0x00400000 0x004fc800
0x06027220 0x00000009 0x00400000 0x000fe200
0x00007947 0x00002c30 0x03800000 0x000fea00
0x00007a0c 0x00005c00 0x03f06270 0x001fe200
0x01ff7355 0x00000000 0x00100000 0x000fe200
0x00017945 0x00000080 0x03800000 0x000fe200
0x00067202 0x000000ff 0x00000f00 0x000fe200
0xff047224 0x000000ff 0x078e0000 0x000fd000
0x00000947 0x00000040 0x03800000 0x000fea00
0x00037802 0x00000004 0x00000f00 0x000fca00
0x00027625 0x00005800 0x078e0203 0x000fd000
0x02067381 0x00000000 0x001e6900 0x00016200
0x00047810 0x00000100 0x07ffe0ff 0x000fc600
0x00017941 0x00000000 0x03800000 0x000fea00
0x04007a0c 0x00005c00 0x03f06270 0x000fe200
0x01ff7355 0x00000000 0x00100000 0x000fe200
0x00017945 0x000006e0 0x03800000 0x000ff400
0x00000947 0x000006c0 0x03800000 0x000fea00
0xff027212 0x00000004 0x078e33ff 0x001fe200
0x02ff7355 0x00000000 0x00100000 0x000fe200
0x00027945 0x00000120 0x03800000 0x000fe400
0x02037a10 0x00005c00 0x07ffe0ff 0x000fc800
0x03027811 0x00000001 0x078fc0ff 0x040fe400
0x0300780c 0x00000300 0x03f26070 0x000fe400
0x02077812 0x00000003 0x0780c0ff 0x000fd800
0x00008947 0x000000c0 0x03800000 0x000fea00
0xff037424 0x00000004 0x078e00ff 0x000fc800
0x04027625 0x00005800 0x078e0203 0x000fca00
0x00097202 0x00000003 0x00000f00 0x000fc800
0x00037202 0x00000009 0x00000f00 0x000fd000
0x02037381 0x00000000 0x001e6900 0x0000a200
0x07077810 0xffffffff 0x07ffe0ff 0x000fe400
0x04047810 0x00000100 0x07ffe0ff 0x000fe400
0x0700720c 0x000000ff 0x03f05270 0x000fe400
0x02027810 0x00000400 0x07f5e0ff 0x001fca00
0xff097224 0x000000ff 0x010e0609 0x000fe400
0x03067220 0x00000006 0x00400000 0x024fc600
0x00000947 0xffffff70 0x0383ffff 0x000fea00
0x00027941 0x00000000 0x03800000 0x000fea00
0x00009947 0x00000560 0x03800000 0x000fea00
0x04027a10 0x00005c00 0x07ffe1ff 0x000fe200
0x02ff7355 0x00000000 0x00100000 0x000fe200
0x00037802 0x00000004 0x00000f00 0x000fe200
0x00027945 0x000002c0 0x03800000 0x000fe200
0x0200780c 0x00000c00 0x03f24270 0x000fe400
0x0000781c 0x00000000 0x03f0f070 0x000fe200
0x04027625 0x00005800 0x078e0203 0x000fd200
0x00009947 0x00000270 0x03800000 0x000fea00
0x0000781c 0x00000000 0x03f0e170 0x000fe400
0x05097810 0xfffff400 0x07ffe0ff 0x000fe400
0x02077381 0x00000000 0x001e6900 0x0000a800
0x02087381 0x00040000 0x001e6900 0x0000e800
0x020a7381 0x00080000 0x001e6900 0x00012800
0x020c7381 0x000c0000 0x001e6900 0x00012800
0x020e7381 0x00100000 0x001e6900 0x00012800
0x02107381 0x00140000 0x001e6900 0x00012800
0x02127381 0x00180000 0x001e6900 0x00012800
0x02147381 0x001c0000 0x001e6900 0x00012800
0x02167381 0x00200000 0x001e6900 0x00012800
0x02187381 0x00240000 0x001e6900 0x00012800
0x021a7381 0x00280000 0x001e6900 0x00012800
0x021c7381 0x002c0000 0x001e6900 0x00012800
0x021e7381 0x00300000 0x001e6900 0x00012800
0x02207381 0x00340000 0x001e6900 0x00012800
0x02227381 0x00380000 0x001e6900 0x00012800
0x02247381 0x003c0000 0x001e6900 0x00012200
0x04047810 0x00001000 0x07ffe0ff 0x000fc800
0x0400720c 0x00000009 0x03f26270 0x000fe400
0x02027810 0x00004000 0x07f5e0ff 0x001fc800
0xff037210 0x00000003 0x017fe4ff 0x000fe200
0x07077220 0x00000006 0x00400000 0x024fc800
0x07077220 0x00000008 0x00400000 0x008fc800
0x07077220 0x0000000a 0x00400000 0x010fc800
0x07077220 0x0000000c 0x00400000 0x000fc800
0x07077220 0x0000000e 0x00400000 0x000fc800
0x07077220 0x00000010 0x00400000 0x000fc800
0x07077220 0x00000012 0x00400000 0x000fc800
0x07077220 0x00000014 0x00400000 0x000fc800
0x07077220 0x00000016 0x00400000 0x000fc800
0x07077220 0x00000018 0x00400000 0x000fc800
0x07077220 0x0000001a 0x00400000 0x000fc800
0x07077220 0x0000001c 0x00400000 0x000fc800
0x07077220 0x0000001e 0x00400000 0x000fc800
0x07077220 0x00000020 0x00400000 0x000fc800
0x07077220 0x00000022 0x00400000 0x000fc800
0x07067220 0x00000024 0x00400000 0x000fe200
0x00009947 0xfffffdb0 0x0383ffff 0x000fea00
0x00027941 0x00000000 0x03800000 0x000fea00
0x04077a10 0x00005c00 0x07ffe1ff 0x000fe200
0x02ff7355 0x00000000 0x00100000 0x000fe200
0x00027945 0x00000190 0x03800000 0x000fe400
0x0700780c 0x00000400 0x03f24270 0x000fd800
0x00009947 0x00000160 0x03800000 0x000fea00
0x02077381 0x00000000 0x001e6900 0x000ea800
0x02087381 0x00040000 0x001e6900 0x000ee800
0x020a7381 0x00080000 0x001e6900 0x000f2800
0x020c7381 0x000c0000 0x001e6900 0x00012800
0x020e7381 0x00100000 0x001e6900 0x00012800
0x02107381 0x00140000 0x001e6900 0x00012800
0x02127381 0x00180000 0x001e6900 0x00012800
0x02147381 0x001c0000 0x001e6900 0x00012200
0x0000781c 0x00000000 0x03f0e170 0x000fc400
0x04047810 0x00000800 0x07ffe0ff 0x000fe200
0x06077220 0x00000007 0x00400000 0x024fc800
0x07077220 0x00000008 0x00400000 0x008fe200
0x02087810 0x00002000 0x07f3e0ff 0x000fc600
0x07077220 0x0000000a 0x00400000 0x010fe200
0x00027202 0x00000008 0x00000f00 0x001fe200
0xff097224 0x000000ff 0x008e0603 0x000fe400
0x07077220 0x0000000c 0x00400000 0x000fc600
0x00037202 0x00000009 0x00000f00 0x000fe200
0x07077220 0x0000000e 0x00400000 0x000fc800
0x07077220 0x00000010 0x00400000 0x000fc800
0x07077220 0x00000012 0x00400000 0x000fc800
0x07067220 0x00000014 0x00400000 0x000fc600
0x00027941 0x00000000 0x03800000 0x000fea00
0x04007a0c 0x00005c00 0x00701670 0x000fd800
0x00008947 0x00000080 0x03800000 0x000fea00
0x02077381 0x00000000 0x001e6900 0x000ea800
0x02047381 0x00040000 0x001e6900 0x000ee800
0x02097381 0x00080000 0x001e6900 0x000f2800
0x020b7381 0x000c0000 0x001e6900 0x000f2200
0x06077220 0x00000007 0x00400000 0x024fc800
0x07047220 0x00000004 0x00400000 0x008fc800
0x04047220 0x00000009 0x00400000 0x010fc800
0x04067220 0x0000000b 0x00400000 0x000fc600
0x00017941 0x00000000 0x03800000 0x000fea00
0x0500780c 0x000000ff 0x03f04270 0x000fe200
0xff097224 0x000000ff 0x078e0006 0x020fd600
0x00000947 0x00000390 0x03800000 0x000fea00
0xff037819 0x0000001f 0x00011400 0x001fe200
0x00087919 0x00000000 0x00000000 0x000e2600
0x03067211 0x00000000 0x078f28ff 0x000fc800
0x06027812 0xffffffe0 0x078ec0ff 0x000fe400
0xff067819 0x00000005 0x00011406 0x000fe400
0x02037810 0x00000020 0x07ffe0ff 0x000fe400
0xff027212 0x00000002 0x078e33ff 0x000fe400
0x03007a0c 0x00005c00 0x03f04270 0x000fe400
0x02027a10 0x00005c00 0x07ffe0ff 0x000fc800
0x02037807 0x0000001f 0x00000000 0x000fe400
0x0800720c 0x000000ff 0x03f25270 0x041fe400
0x0800720c 0x00000003 0x03f06270 0x000fc800
0x09027989 0x08200000 0x000e0003 0x000e2400
0x02027220 0x00000009 0x00400000 0x001fca00
0x02047208 0x00000009 0x04000000 0x000fe400
0x08027810 0x00000002 0x07ffe0ff 0x000fc800
0x0200720c 0x00000003 0x03f04270 0x000fe400
0x04077989 0x08400000 0x000e0003 0x000e2200
0x08027810 0x00000004 0x07ffe0ff 0x000fd200
0x04048220 0x00000007 0x00400000 0x001fe200
0x0200720c 0x00000003 0x03f04270 0x000fe400
0x08027810 0x00000008 0x07ffe0ff 0x000fca00
0x04077989 0x08800000 0x000e0003 0x000e2a00
0x04048220 0x00000007 0x00400000 0x001fe200
0x0200720c 0x00000003 0x03f04270 0x000fe400
0x08027810 0x00000010 0x07ffe0ff 0x000fca00
0x04077989 0x09000000 0x000e0003 0x000e2a00
0x04048220 0x00000007 0x00400000 0x001fe200
0x0200720c 0x00000003 0x03f04270 0x000fce00
0x04077989 0x0a000000 0x000e0003 0x000e2a00
0x04048220 0x00000007 0x00400000 0x001fe200
0x0000720c 0x000000ff 0x03f05270 0x000fe400
0x06079819 0x00000002 0x000006ff 0x000fe400
0x00027202 0x00000004 0x00000f00 0x000fd000
0x07009388 0x00000802 0x00000800 0x000fe800
0x00007b1d 0x00000000 0x00000000 0x000fea00
0x00000947 0x000021f0 0x03800000 0x000fea00
0xff037984 0x00000c00 0x00001800 0x000e2200
0x0500780c 0x00000020 0x03f04270 0x040fe200
0xff007224 0x000000ff 0x078e00ff 0x000fe200
0x0500780c 0x00000040 0x03f24270 0x040fe200
0xff087984 0x00001000 0x00001c00 0x000e6200
0x0500780c 0x00000060 0x03f44270 0x000fce00
0xff067984 0x00002000 0x00001a00 0x000ea200
0x02020220 0x00000003 0x00400000 0x001fe200
0x0500780c 0x00000080 0x03f04270 0x000fc600
0x02021220 0x00000008 0x00400000 0x002fe200
0x0500780c 0x000000a0 0x03f24270 0x000fc600
0x02022220 0x00000009 0x00400000 0x000fe200
0x0500780c 0x000000c0 0x03f44270 0x000fc800
0x02020220 0x0000000a 0x00400000 0x000fe200
0x0500780c 0x000000e1 0x03f06270 0x000fc600
0x02021220 0x0000000b 0x00400000 0x000fc800
0x02022220 0x00000006 0x00400000 0x004fca00
0x00008947 0x000020d0 0x03800000 0x000fea00
0x02027220 0x00000007 0x00400000 0x000fe200
0x00007947 0x000020b0 0x03800000 0x000fea00
0x00037919 0x00000000 0x00000000 0x001e2800
0x09027f89 0x08201f00 0x000e0000 0x000e6200
0x0300780c 0x0000001e 0x03f04270 0x041fe400
0x0300720c 0x000000ff 0x03f25270 0x000fd400
0x02098220 0x00000009 0x00400000 0x002fe200
0x0300780c 0x0000001d 0x03f04270 0x000fce00
0x09027f89 0x08401f00 0x000e0000 0x000e2a00
0x09098220 0x00000002 0x00400000 0x001fe200
0x0300780c 0x0000001b 0x03f04270 0x000fce00
0x09027f89 0x08801f00 0x000e0000 0x000e2a00
0x09098220 0x00000002 0x00400000 0x001fe200
0x0300780c 0x00000017 0x03f04270 0x000fce00
0x09027f89 0x09001f00 0x000e0000 0x000e2a00
0x09098220 0x00000002 0x00400000 0x001fe200
0x0300780c 0x0000000f 0x03f04270 0x000fe400
0xff039819 0x0000001f 0x00011400 0x000fc800
0x03039211 0x00000000 0x078f28ff 0x000fe200
0x09027f89 0x0a001f00 0x000e0000 0x000e2600
0xff039819 0x00000005 0x00011403 0x000fc800
0x03039819 0x00000002 0x000006ff 0x000fe200
0x09098220 0x00000002 0x00400000 0x001fe200
0x0000720c 0x000000ff 0x03f05270 0x000fc800
0x00027202 0x00000009 0x00000f00 0x000fd000
0x03009388 0x00000802 0x00000800 0x000fe800
0x00007b1d 0x00000000 0x00000000 0x000fea00
0x00000947 0x00001f10 0x03800000 0x000fea00
0xff037984 0x00000c00 0x00001800 0x000e2200
0xff007224 0x000000ff 0x078e00ff 0x000fc600
0xff047984 0x00001000 0x00001c00 0x000e7000
0xff087984 0x00002000 0x00001a00 0x000ea200
0x02037220 0x00000003 0x00400000 0x001fc800
0x03047220 0x00000004 0x00400000 0x002fc800
0x04057220 0x00000005 0x00400000 0x000fc800
0x05067220 0x00000006 0x00400000 0x000fc800
0x06067220 0x00000007 0x00400000 0x000fc800
0x06067220 0x00000008 0x00400000 0x004fc800
0x06027220 0x00000009 0x00400000 0x000fe200
0x00007947 0x00001e50 0x03800000 0x000fea00
0x00037a02 0x00005c00 0x00000f00 0x000fc800
0x0300780c 0x00001000 0x03f06270 0x000fd800
0x00008947 0x00001050 0x03800000 0x000fea00
0x000c7819 0x00000002 0x000006ff 0x001fe200
0xff0d7424 0x00000004 0x078e00ff 0x000fc800
0x0c0c7625 0x00005800 0x078e000d 0x000fd000
0x0c107381 0x00000000 0x001e6d00 0x000ea800
0x0c147381 0x00100000 0x001e6d00 0x000ee800
0x0c087381 0x00200000 0x001e6d00 0x000f2800
0x0c047381 0x00300000 0x001e6d00 0x000f6200
0x0300780c 0x00002000 0x03f06270 0x000fe200
0x10117220 0x00000011 0x00400000 0x004fc800
0x12117220 0x00000011 0x00400000 0x000fc800
0x13117220 0x00000011 0x00400000 0x000fc800
0x14117220 0x00000011 0x00400000 0x008fc800
0x15117220 0x00000011 0x00400000 0x000fc800
0x16117220 0x00000011 0x00400000 0x000fc800
0x17117220 0x00000011 0x00400000 0x000fc800
0x08117220 0x00000011 0x00400000 0x010fc800
0x09117220 0x00000011 0x00400000 0x000fc800
0x0a117220 0x00000011 0x00400000 0x000fc800
0x0b117220 0x00000011 0x00400000 0x000fc800
0x04117220 0x00000011 0x00400000 0x020fc800
0x05117220 0x00000011 0x00400000 0x000fc800
0x06057220 0x00000011 0x00400000 0x000fe200
0x00117802 0x00001000 0x00000f00 0x000fc600
0x07027220 0x00000005 0x00400000 0x000fe200
0x00008947 0x00000210 0x03800000 0x000fea00
0x03107810 0xfffff000 0x07ffe0ff 0x000fe200
0xff137224 0x000000ff 0x078e000d 0x000fe200
0x00127202 0x0000000c 0x00000f00 0x000fe400
0x00117802 0x00001000 0x00000f00 0x000fe400
0x00037202 0x00000010 0x00000f00 0x000fc800
0x12147381 0x00400000 0x001e6d00 0x0000a800
0x120c7381 0x00500000 0x001e6d00 0x0000e800
0x12087381 0x00600000 0x001e6d00 0x00012800
0x12047381 0x00700000 0x001e6d00 0x00016200
0x0300780c 0x00001000 0x03f06270 0x000fc400
0x12127810 0x00004000 0x07f3e0ff 0x001fca00
0xff137224 0x000000ff 0x008e0613 0x000fe400
0x14147220 0x00000002 0x00400000 0x004fc800
0x15157220 0x00000014 0x00400000 0x000fc800
0x16157220 0x00000015 0x00400000 0x000fc800
0x17157220 0x00000015 0x00400000 0x000fc800
0x0c157220 0x00000015 0x00400000 0x008fc800
0x0d157220 0x00000015 0x00400000 0x000fc800
0x0e157220 0x00000015 0x00400000 0x000fc800
0x0f157220 0x00000015 0x00400000 0x000fc800
0x08157220 0x00000015 0x00400000 0x010fc800
0x09157220 0x00000015 0x00400000 0x000fc800
0x0a157220 0x00000015 0x00400000 0x000fc800
0x0b157220 0x00000015 0x00400000 0x000fc800
0x04157220 0x00000015 0x00400000 0x020fc800
0x05157220 0x00000015 0x00400000 0x000fc800
0x06157220 0x00000015 0x00400000 0x000fc800
0x07027220 0x00000015 0x00400000 0x000fe200
0x00008947 0x00000a80 0x03800000 0x000fea00
0x11117810 0x00001000 0x07ffe0ff 0x000fe400
0x03037810 0xfffff000 0x07ffe0ff 0x000fe400
0x1100720c 0x00000010 0x03f04270 0x000fd800
0x00008947 0xfffffe40 0x0383ffff 0x000fea00
0x11007a0c 0x00005c00 0x03f06270 0x000fd800
0x00000947 0x00000a20 0x03800000 0x000fea00
0x11037a10 0x00005c00 0x07ffe1ff 0x000fe200
0x01ff7355 0x00000000 0x00100000 0x000fe200
0x00017945 0x000009f0 0x03800000 0x000fe400
0x0000720c 0x00000003 0x03f06270 0x000fd800
0x00000947 0x000009c0 0x03800000 0x000fea00
0xff047212 0x00000000 0x078e33ff 0x080fe200
0x02ff7355 0x00000000 0x00100000 0x000fe200
0x00027945 0x00000150 0x03800000 0x000fe200
0x000c7202 0x00000000 0x00000f00 0x000fe400
0x11057a10 0x00005c00 0x07ffe104 0x000fc800
0x05047811 0x00000001 0x078fc0ff 0x040fe400
0x0500780c 0x00000300 0x03f26070 0x000fe400
0x04067812 0x00000003 0x0780c0ff 0x000fd800
0x00008947 0x000000e0 0x03800000 0x000fea00
0x00047210 0x00000011 0x07ffe0ff 0x000fe200
0xff057424 0x00000004 0x078e00ff 0x000fe200
0x000c7202 0x00000000 0x00000f00 0x000fc600
0x04047625 0x00005800 0x078e0205 0x000fca00
0x00077202 0x00000005 0x00000f00 0x000fca00
0xff057224 0x000000ff 0x078e0007 0x000fd000
0x04057381 0x00000000 0x001e6900 0x0000a200
0x06067810 0xffffffff 0x07ffe0ff 0x000fe400
0x0c0c7810 0x00000100 0x07ffe0ff 0x000fe400
0x0600720c 0x000000ff 0x03f05270 0x000fe400
0x04047810 0x00000400 0x07f5e0ff 0x001fc800
0xff077210 0x00000007 0x017fe4ff 0x000fe200
0x05027220 0x00000002 0x00400000 0x004fca00
0x00000947 0xffffff70 0x0383ffff 0x000fea00
0x00027941 0x00000000 0x03800000 0x000fea00
0x00009947 0x00000830 0x03800000 0x000fea00
0x03057210 0x8000000c 0x07ffe0ff 0x000fe200
0xff0a7424 0x00000004 0x078e00ff 0x000fe200
0x0c117210 0x00000011 0x07ffe0ff 0x000fe200
0x02ff7355 0x00000000 0x00100000 0x000fe200
0x0500780c 0x00000c00 0x03f24270 0x000fe200
0x00027945 0x00000450 0x03800000 0x000fe200
0x11047810 0x00000300 0x07ffe0ff 0x040fe200
0x11087625 0x00005800 0x078e020a 0x040fe200
0x11067810 0x00000200 0x07ffe0ff 0x040fe400
0x11117810 0x00000100 0x07ffe0ff 0x000fe200
0xff1c7224 0x000000ff 0x078e0009 0x000fe200
0x000f7202 0x00000008 0x00000f00 0x000fe200
0x04047625 0x00005800 0x078e020a 0x000fe200
0x0000781c 0x00000000 0x03f0f070 0x000fc600
0x06067625 0x00005800 0x078e020a 0x000fe200
0x000b7202 0x00000005 0x00000f00 0x000fc600
0x11087625 0x00005800 0x078e020a 0x000fe200
0x000a7202 0x00000004 0x00000f00 0x000fe400
0x00207202 0x00000007 0x00000f00 0x000fe200
0xff137224 0x000000ff 0x078e0006 0x000fe200
0x00117202 0x00000008 0x00000f00 0x000fe200
0xff1e7224 0x000000ff 0x078e0009 0x000fe200
0x00009947 0x00000330 0x03800000 0x000fea00
0x0000781c 0x00000000 0x03f0e170 0x000fe400
0x03157810 0xfffff400 0x07ffe0ff 0x000fe400
0x00067202 0x0000000f 0x00000f00 0x000fe400
0x00077202 0x0000001c 0x00000f00 0x000fe200
0xff087224 0x000000ff 0x078e0011 0x000fe200
0x00097202 0x0000001e 0x00000f00 0x000fe200
0xff057224 0x000000ff 0x078e0020 0x000fe200
0x00047202 0x00000013 0x00000f00 0x000fe200
0x0a127381 0x00000000 0x001e6900 0x0000a800
0x060d7381 0x00000000 0x001e6900 0x000ee800
0x080e7381 0x00000000 0x001e6900 0x000f2800
0x04107381 0x00000000 0x001e6900 0x000f6800
0x06147381 0x00100000 0x001e6900 0x000ea800
0x08167381 0x00100000 0x001e6900 0x000ea800
0x04187381 0x00100000 0x001e6900 0x000ea800
0x0a1a7381 0x00100000 0x001e6900 0x0000a800
0x061c7381 0x00200000 0x001e6900 0x000ea800
0x081e7381 0x00200000 0x001e6900 0x000ea800
0x04207381 0x00200000 0x001e6900 0x000ea800
0x0a227381 0x00200000 0x001e6900 0x0000a800
0x06247381 0x00300000 0x001e6900 0x000ea800
0x08267381 0x00300000 0x001e6900 0x000ea800
0x04287381 0x00300000 0x001e6900 0x000ea800
0x0a2a7381 0x00300000 0x001e6900 0x0000a200
0x0c0c7810 0x00001000 0x07ffe0ff 0x000fc400
0x0a0a7810 0x00004000 0x07f3e0ff 0x001fc800
0xff0b7210 0x0000000b 0x00ffe4ff 0x000fe400
0x0c00720c 0x00000015 0x03f26270 0x000fe400
0x08117810 0x00004000 0x07f7e0ff 0x000fe400
0x04137810 0x00004000 0x07f5e0ff 0x000fe400
0x060f7810 0x00004000 0x07f9e0ff 0x000fe200
0x0d0d7220 0x00000002 0x00400000 0x008fc800
0x0d0d7220 0x0000000e 0x00400000 0x010fc800
0x0d0d7220 0x00000010 0x00400000 0x020fc800
0x0d0d7220 0x00000012 0x00400000 0x004fc800
0x0d0d7220 0x00000014 0x00400000 0x000fc800
0x0d0d7220 0x00000016 0x00400000 0x000fc800
0x0d0d7220 0x00000018 0x00400000 0x000fc800
0x0d0d7220 0x0000001a 0x00400000 0x000fc800
0x0d0d7220 0x0000001c 0x00400000 0x000fc800
0x0d0d7220 0x0000001e 0x00400000 0x000fc800
0x0d0d7220 0x00000020 0x00400000 0x000fc800
0x0d0d7220 0x00000022 0x00400000 0x000fc800
0x0d0d7220 0x00000024 0x00400000 0x000fc800
0x0d0d7220 0x00000026 0x00400000 0x000fc800
0x0d0d7220 0x00000028 0x00400000 0x000fe200
0xff207210 0x00000005 0x017fe4ff 0x000fe200
0xff1e7224 0x000000ff 0x018e0609 0x000fe200
0xff1c7210 0x00000007 0x027fe4ff 0x000fe200
0x0d027220 0x0000002a 0x00400000 0x000fe200
0x00009947 0xfffffcf0 0x0383ffff 0x000fea00
0x00027941 0x00000000 0x03800000 0x000fea00
0x03047210 0x8000000c 0x07ffe0ff 0x000fe200
0x02ff7355 0x00000000 0x00100000 0x000fe200
0x00027945 0x00000230 0x03800000 0x000fe400
0x0400780c 0x00000400 0x03f24270 0x000fd800
0x00009947 0x00000200 0x03800000 0x000fea00
0xff047224 0x000000ff 0x078e000f 0x000fe200
0x00057202 0x0000001c 0x00000f00 0x000fe200
0xff077224 0x000000ff 0x078e001e 0x000fe200
0x00067202 0x00000011 0x00000f00 0x000fe200
0x0a127381 0x00000000 0x001e6900 0x0000a200
0x00087202 0x00000013 0x00000f00 0x000fe400
0x00097202 0x00000020 0x00000f00 0x000fe200
0x0a1a7381 0x00100000 0x001e6900 0x0000e800
0x040d7381 0x00000000 0x001e6900 0x000f2800
0x060e7381 0x00000000 0x001e6900 0x000f6800
0x08107381 0x00000000 0x001e6900 0x000ea800
0x04147381 0x00100000 0x001e6900 0x000ee800
0x06167381 0x00100000 0x001e6900 0x000ee800
0x08187381 0x00100000 0x001e6900 0x000ee200
0x0a0a7810 0x00002000 0x07f3e0ff 0x001fc400
0x0f0f7810 0x00002000 0x07f9e0ff 0x000fe400
0x13137810 0x00002000 0x07f5e0ff 0x000fe400
0x11117810 0x00002000 0x07f7e0ff 0x000fe200
0xff0b7224 0x000000ff 0x008e060b 0x000fe200
0x0000781c 0x00000000 0x03f0e170 0x000fe200
0xff1c7224 0x000000ff 0x020e061c 0x000fe200
0x0c0c7810 0x00000800 0x07ffe0ff 0x000fe400
0xff207210 0x00000020 0x017fe4ff 0x000fc400
0xff1e7210 0x0000001e 0x01ffe4ff 0x000fe200
0x020d7220 0x0000000d 0x00400000 0x010fc800
0x0d0d7220 0x0000000e 0x00400000 0x020fc800
0x0d0d7220 0x00000010 0x00400000 0x004fc800
0x0d0d7220 0x00000012 0x00400000 0x000fc800
0x0d0d7220 0x00000014 0x00400000 0x008fc800
0x0d0d7220 0x00000016 0x00400000 0x000fc800
0x0d0d7220 0x00000018 0x00400000 0x000fc800
0x0d027220 0x0000001a 0x00400000 0x000fc600
0x00027941 0x00000000 0x03800000 0x000fea00
0x0c00720c 0x00000003 0x00701670 0x000fe200
0xff067224 0x000000ff 0x078e0013 0x000fe200
0x00047202 0x0000000a 0x00000f00 0x000fe200
0xff097224 0x000000ff 0x078e001e 0x000fe200
0x00057202 0x0000000b 0x00000f00 0x000fe400
0x00077202 0x00000020 0x00000f00 0x000fe400
0x00087202 0x00000011 0x00000f00 0x000fe400
0x000a7202 0x0000000f 0x00000f00 0x000fc400
0x000b7202 0x0000001c 0x00000f00 0x000fe200
0x00008947 0x00000080 0x03800000 0x000fee00
0x0a0b7381 0x00000000 0x001e6900 0x000ea800
0x08097381 0x00000000 0x001e6900 0x000ee800
0x06077381 0x00000000 0x001e6900 0x000f2800
0x04057381 0x00000000 0x001e6900 0x000f6200
0x02027220 0x0000000b 0x00400000 0x004fc800
0x02027220 0x00000009 0x00400000 0x008fc800
0x02027220 0x00000007 0x00400000 0x010fc800
0x02027220 0x00000005 0x00400000 0x020fc600
0x00017941 0x00000000 0x03800000 0x000fea00
0x00047919 0x00000000 0x00000000 0x000e2200
0xff037224 0x000000ff 0x078e0002 0x000fd000
0x03027f89 0x08201f00 0x000e0000 0x000e6200
0x0400780c 0x0000001e 0x03f04270 0x041fe400
0x0400720c 0x000000ff 0x03f25270 0x000fd400
0x02038220 0x00000003 0x00400000 0x002fe200
0x0400780c 0x0000001d 0x03f04270 0x000fe400
0xff059819 0x0000001f 0x00011400 0x000fc800
0x05059211 0x00000000 0x078f28ff 0x000fe200
0x03027f89 0x08401f00 0x000e0000 0x000e2600
0xff059819 0x00000005 0x00011405 0x000fc800
0x05059819 0x00000002 0x000006ff 0x000fe200
0x03038220 0x00000002 0x00400000 0x001fe200
0x0400780c 0x0000001b 0x03f04270 0x000fce00
0x03027f89 0x08801f00 0x000e0000 0x000e2a00
0x03038220 0x00000002 0x00400000 0x001fe200
0x0400780c 0x00000017 0x03f04270 0x000fce00
0x03027f89 0x09001f00 0x000e0000 0x000e2a00
0x03038220 0x00000002 0x00400000 0x001fe200
0x0400780c 0x0000000f 0x03f04270 0x000fce00
0x03027f89 0x0a001f00 0x000e0000 0x000e2a00
0x03038220 0x00000002 0x00400000 0x001fe200
0x0000720c 0x000000ff 0x03f05270 0x000fc800
0x00027202 0x00000003 0x00000f00 0x000fd000
0x05009388 0x00000802 0x00000800 0x000fe800
0x00007b1d 0x00000000 0x00000000 0x000fea00
0x00000947 0x00000e90 0x03800000 0x000fea00
0xff037984 0x00000c00 0x00001800 0x000e2200
0xff007224 0x000000ff 0x078e00ff 0x000fc600
0xff047984 0x00001000 0x00001c00 0x000e7000
0xff087984 0x00002000 0x00001a00 0x000ea200
0x02037220 0x00000003 0x00400000 0x001fc800
0x03047220 0x00000004 0x00400000 0x002fc800
0x04057220 0x00000005 0x00400000 0x000fc800
0x05067220 0x00000006 0x00400000 0x000fc800
0x06067220 0x00000007 0x00400000 0x000fc800
0x06067220 0x00000008 0x00400000 0x004fc800
0x06027220 0x00000009 0x00400000 0x000fe200
0x00007947 0x00000dd0 0x03800000 0x000fea00
0x00007a0c 0x00005c00 0x03f06270 0x001fe200
0x01ff7355 0x00000000 0x00100000 0x000fe200
0x00017945 0x00000080 0x03800000 0x000fe200
0x00067202 0x000000ff 0x00000f00 0x000fe400
0x00027202 0x00000000 0x00000f00 0x000fce00
0x00000947 0x00000040 0x03800000 0x000fea00
0xff057424 0x00000004 0x078e00ff 0x000fc800
0x00047625 0x00005800 0x078e0205 0x000fd000
0x04067381 0x00000000 0x001e6900 0x00016200
0x00027810 0x00000100 0x07ffe0ff 0x000fc600
0x00017941 0x00000000 0x03800000 0x000fea00
0x02007a0c 0x00005c00 0x03f06270 0x000fe200
0x01ff7355 0x00000000 0x00100000 0x000fe200
0x00017945 0x000006e0 0x03800000 0x000ff400
0x00000947 0x000006c0 0x03800000 0x000fea00
0xff047212 0x00000002 0x078e33ff 0x001fe200
0x02ff7355 0x00000000 0x00100000 0x000fe200
0x00027945 0x00000120 0x03800000 0x000fe400
0x04057a10 0x00005c00 0x07ffe0ff 0x000fc800
0x05047811 0x00000001 0x078fc0ff 0x040fe400
0x0500780c 0x00000300 0x03f26070 0x000fe400
0x04077812 0x00000003 0x0780c0ff 0x000fd800
0x00008947 0x000000c0 0x03800000 0x000fea00
0x00057802 0x00000004 0x00000f00 0x000fca00
0x02047625 0x00005800 0x078e0205 0x000fca00
0x00097202 0x00000005 0x00000f00 0x000fca00
0xff057224 0x000000ff 0x078e0009 0x000fd000
0x04057381 0x00000000 0x001e6900 0x0000a200
0x07077810 0xffffffff 0x07ffe0ff 0x000fe400
0x02027810 0x00000100 0x07ffe0ff 0x000fe400
0x0700720c 0x000000ff 0x03f05270 0x000fe400
0x04047810 0x00000400 0x07f5e0ff 0x001fc800
0xff097210 0x00000009 0x017fe4ff 0x000fe200
0x05067220 0x00000006 0x00400000 0x024fca00
0x00000947 0xffffff70 0x0383ffff 0x000fea00
0x00027941 0x00000000 0x03800000 0x000fea00
0x00009947 0x00000560 0x03800000 0x000fea00
0x02047a10 0x00005c00 0x07ffe1ff 0x000fe200
0x02ff7355 0x00000000 0x00100000 0x000fe200
0x00057802 0x00000004 0x00000f00 0x000fe200
0x00027945 0x000002c0 0x03800000 0x000fe200
0x0400780c 0x00000c00 0x03f24270 0x000fe400
0x0000781c 0x00000000 0x03f0f070 0x000fe200
0x02047625 0x00005800 0x078e0205 0x000fd200
0x00009947 0x00000270 0x03800000 0x000fea00
0x0000781c 0x00000000 0x03f0e170 0x000fe400
0x03097810 0xfffff400 0x07ffe0ff 0x000fe400
0x04077381 0x00000000 0x001e6900 0x0000a800
0x04087381 0x00040000 0x001e6900 0x0000e800
0x040a7381 0x00080000 0x001e6900 0x00012800
0x040c7381 0x000c0000 0x001e6900 0x00012800
0x040e7381 0x00100000 0x001e6900 0x00012800
0x04107381 0x00140000 0x001e6900 0x00012800
0x04127381 0x00180000 0x001e6900 0x00012800
0x04147381 0x001c0000 0x001e6900 0x00012800
0x04167381 0x00200000 0x001e6900 0x00012800
0x04187381 0x00240000 0x001e6900 0x00012800
0x041a7381 0x00280000 0x001e6900 0x00012800
0x041c7381 0x002c0000 0x001e6900 0x00012800
0x041e7381 0x00300000 0x001e6900 0x00012800
0x04207381 0x00340000 0x001e6900 0x00012800
0x04227381 0x00380000 0x001e6900 0x00012800
0x04247381 0x003c0000 0x001e6900 0x00012200
0x02027810 0x00001000 0x07ffe0ff 0x000fc800
0x0200720c 0x00000009 0x03f26270 0x000fe400
0x04047810 0x00004000 0x07f5e0ff 0x001fca00
0xff057224 0x000000ff 0x010e0605 0x000fe400
0x07077220 0x00000006 0x00400000 0x024fc800
0x07077220 0x00000008 0x00400000 0x008fc800
0x07077220 0x0000000a 0x00400000 0x010fc800
0x07077220 0x0000000c 0x00400000 0x000fc800
0x07077220 0x0000000e 0x00400000 0x000fc800
0x07077220 0x00000010 0x00400000 0x000fc800
0x07077220 0x00000012 0x00400000 0x000fc800
0x07077220 0x00000014 0x00400000 0x000fc800
0x07077220 0x00000016 0x00400000 0x000fc800
0x07077220 0x00000018 0x00400000 0x000fc800
0x07077220 0x0000001a 0x00400000 0x000fc800
0x07077220 0x0000001c 0x00400000 0x000fc800
0x07077220 0x0000001e 0x00400000 0x000fc800
0x07077220 0x00000020 0x00400000 0x000fc800
0x07077220 0x00000022 0x00400000 0x000fc800
0x07067220 0x00000024 0x00400000 0x000fe200
0x00009947 0xfffffdb0 0x0383ffff 0x000fea00
0x00027941 0x00000000 0x03800000 0x000fea00
0x02077a10 0x00005c00 0x07ffe1ff 0x000fe200
0x02ff7355 0x00000000 0x00100000 0x000fe200
0x00027945 0x00000190 0x03800000 0x000fe400
0x0700780c 0x00000400 0x03f24270 0x000fd800
0x00009947 0x00000160 0x03800000 0x000fea00
0x04077381 0x00000000 0x001e6900 0x000ea800
0x04087381 0x00040000 0x001e6900 0x000ee800
0x040a7381 0x00080000 0x001e6900 0x000f2800
0x040c7381 0x000c0000 0x001e6900 0x00012800
0x040e7381 0x00100000 0x001e6900 0x00012800
0x04107381 0x00140000 0x001e6900 0x00012800
0x04127381 0x00180000 0x001e6900 0x00012800
0x04147381 0x001c0000 0x001e6900 0x00012200
0x0000781c 0x00000000 0x03f0e170 0x000fc400
0x02027810 0x00000800 0x07ffe0ff 0x000fe200
0x06077220 0x00000007 0x00400000 0x024fc800
0x07077220 0x00000008 0x00400000 0x008fe200
0x04087810 0x00002000 0x07f3e0ff 0x000fc600
0x07077220 0x0000000a 0x00400000 0x010fe200
0xff097210 0x00000005 0x00ffe4ff 0x000fe400
0x00047202 0x00000008 0x00000f00 0x001fe200
0x07077220 0x0000000c 0x00400000 0x000fe400
0xff057224 0x000000ff 0x078e0009 0x000fe400
0x07077220 0x0000000e 0x00400000 0x000fc800
0x07077220 0x00000010 0x00400000 0x000fc800
0x07077220 0x00000012 0x00400000 0x000fc800
0x07067220 0x00000014 0x00400000 0x000fc600
0x00027941 0x00000000 0x03800000 0x000fea00
0x02007a0c 0x00005c00 0x00701670 0x000fd800
0x00008947 0x00000080 0x03800000 0x000fea00
0x04077381 0x00000000 0x001e6900 0x000ea800
0x04027381 0x00040000 0x001e6900 0x000ee800
0x04097381 0x00080000 0x001e6900 0x000f2800
0x040b7381 0x000c0000 0x001e6900 0x000f2200
0x06077220 0x00000007 0x00400000 0x024fc800
0x07027220 0x00000002 0x00400000 0x008fc800
0x02027220 0x00000009 0x00400000 0x010fc800
0x02067220 0x0000000b 0x00400000 0x000fc600
0x00017941 0x00000000 0x03800000 0x000fea00
0x0300780c 0x000000ff 0x03f04270 0x000fe400
0x00077202 0x00000006 0x00000f00 0x020fd400
0x00000947 0x00000390 0x03800000 0x000fea00
0xff057819 0x0000001f 0x00011400 0x001fe200
0x00087919 0x00000000 0x00000000 0x000e2600
0x05067211 0x00000000 0x078f28ff 0x000fc800
0x06027812 0xffffffe0 0x078ec0ff 0x000fe400
0xff067819 0x00000005 0x00011406 0x000fe400
0x02047810 0x00000020 0x07ffe0ff 0x000fe400
0xff027212 0x00000002 0x078e33ff 0x000fe400
0x04007a0c 0x00005c00 0x03f04270 0x000fe400
0x02027a10 0x00005c00 0x07ffe0ff 0x000fc800
0x02097807 0x0000001f 0x00000000 0x000fe400
0x0800720c 0x000000ff 0x03f25270 0x041fe400
0x0800720c 0x00000009 0x03f06270 0x000fc800
0x07027989 0x08200000 0x000e0009 0x000e2400
0x02027220 0x00000007 0x00400000 0x001fca00
0x02047208 0x00000007 0x04000000 0x000fe400
0x08027810 0x00000002 0x07ffe0ff 0x000fc800
0x0200720c 0x00000009 0x03f04270 0x000fe400
0x04057989 0x08400000 0x000e0009 0x000e2200
0x08027810 0x00000004 0x07ffe0ff 0x000fd200
0x04048220 0x00000005 0x00400000 0x001fe200
0x0200720c 0x00000009 0x03f04270 0x000fe400
0x08027810 0x00000008 0x07ffe0ff 0x000fca00
0x04057989 0x08800000 0x000e0009 0x000e2a00
0x04048220 0x00000005 0x00400000 0x001fe200
0x0200720c 0x00000009 0x03f04270 0x000fe400
0x08027810 0x00000010 0x07ffe0ff 0x000fca00
0x04057989 0x09000000 0x000e0009 0x000e2a00
0x04048220 0x00000005 0x00400000 0x001fe200
0x0200720c 0x00000009 0x03f04270 0x000fce00
0x04057989 0x0a000000 0x000e0009 0x000e2a00
0x04048220 0x00000005 0x00400000 0x001fe200
0x0000720c 0x000000ff 0x03f05270 0x000fe400
0x06059819 0x00000002 0x000006ff 0x000fe200
0xff027224 0x000000ff 0x078e0004 0x000fd000
0x05009388 0x00000802 0x00000800 0x000fe800
0x00007b1d 0x00000000 0x00000000 0x000fea00
0x00000947 0x00000390 0x03800000 0x000fea00
0xff057984 0x00000c00 0x00001800 0x000e2200
0x0300780c 0x00000020 0x03f04270 0x000fc400
0x0300780c 0x00000040 0x03f24270 0x040fe200
0xff087984 0x00001000 0x00001c00 0x000e6200
0x0300780c 0x00000060 0x03f44270 0x000fe400
0x00007202 0x000000ff 0x00000f00 0x000fca00
0xff067984 0x00002000 0x00001a00 0x000ea200
0x02020220 0x00000005 0x00400000 0x001fe200
0x0300780c 0x00000080 0x03f04270 0x000fc600
0x02021220 0x00000008 0x00400000 0x002fe200
0x0300780c 0x000000a0 0x03f24270 0x000fc600
0x02022220 0x00000009 0x00400000 0x000fe200
0x0300780c 0x000000c0 0x03f44270 0x000fc800
0x02020220 0x0000000a 0x00400000 0x000fe200
0x0300780c 0x000000e1 0x03f06270 0x000fc600
0x02021220 0x0000000b 0x00400000 0x000fc800
0x02022220 0x00000006 0x00400000 0x004fca00
0x00008947 0x00000270 0x03800000 0x000fea00
0x02027220 0x00000007 0x00400000 0x000fe200
0x00007947 0x00000250 0x03800000 0x000fea00
0x00037919 0x00000000 0x00000000 0x000e6800
0x07027f89 0x08201f00 0x000e0000 0x000ea200
0x0300780c 0x0000001e 0x03f04270 0x042fe400
0x0300720c 0x000000ff 0x03f25270 0x000fd400
0x02078220 0x00000007 0x00400000 0x004fe200
0x0300780c 0x0000001d 0x03f04270 0x000fce00
0x07027f89 0x08401f00 0x000e0000 0x000e6a00
0x07078220 0x00000002 0x00400000 0x002fe200
0x0300780c 0x0000001b 0x03f04270 0x000fce00
0x07027f89 0x08801f00 0x000e0000 0x000e6a00
0x07078220 0x00000002 0x00400000 0x002fe200
0x0300780c 0x00000017 0x03f04270 0x000fce00
0x07027f89 0x09001f00 0x000e0000 0x000e6a00
0x07078220 0x00000002 0x00400000 0x002fe200
0x0300780c 0x0000000f 0x03f04270 0x000fe400
0xff039819 0x0000001f 0x00011400 0x000fc800
0x03039211 0x00000000 0x078f28ff 0x000fe200
0x07027f89 0x0a001f00 0x000e0000 0x000e6600
0xff039819 0x00000005 0x00011403 0x000fc800
0x03039819 0x00000002 0x000006ff 0x000fe200
0x07078220 0x00000002 0x00400000 0x002fe200
0x0000720c 0x000000ff 0x03f05270 0x000fc600
0xff027224 0x000000ff 0x078e0007 0x000fd000
0x03009388 0x00000802 0x00000800 0x000fe800
0x00007b1d 0x00000000 0x00000000 0x000fea00
0x00000947 0x000000b0 0x03800000 0x000fea00
0xff037984 0x00000c00 0x00001800 0x000e6200
0x00007202 0x000000ff 0x00000f00 0x000fc600
0xff047984 0x00001000 0x00001c00 0x001e3000
0xff087984 0x00002000 0x00001a00 0x000ea200
0x02037220 0x00000003 0x00400000 0x002fc800
0x03047220 0x00000004 0x00400000 0x001fc800
0x04057220 0x00000005 0x00400000 0x000fc800
0x05067220 0x00000006 0x00400000 0x000fc800
0x06067220 0x00000007 0x00400000 0x000fc800
0x06067220 0x00000008 0x00400000 0x004fc800
0x06027220 0x00000009 0x00400000 0x000fc600
0x00007941 0x00000000 0x03800000 0x000fea00
0x0000720c 0x000000ff 0x03f05270 0x000fd800
0x0000094d 0x00000000 0x03800000 0x000fea00
0x02027a20 0x00005e00 0x00400000 0x000fe200
0x00047ab9 0x00005a00 0x00000a00 0x000fce00
0xff007986 0x00000002 0x0c10e904 0x000fe200
0x0000794d 0x00000000 0x03800000 0x000fea00
0x00007919 0x00000000 0x00002100 0x000e2400
0x0000720c 0x000000ff 0x03f05270 0x001fd800
0x0000094d 0x00000000 0x03800000 0x000fea00
0x00007a02 0x00005e00 0x00000f00 0x000fe200
0x00047ab9 0x00005a00 0x00000a00 0x000fce00
0xff007986 0x00000000 0x0c10e904 0x000fe200
0x0000794d 0x00000000 0x03800000 0x000fea00
0x00007947 0xfffffff0 0x0383ffff 0x000fc000
0x00007918 0x00000000 0x00000000 0x000fc000



.text._ZN3cub17CUB_200400_750_NS18DeviceReduceKernelINS0_18DeviceReducePolicyIfjN6thrust20THRUST_200400_750_NS10multipliesIfEEE9Policy600ENS4_20permutation_iteratorINS4_6detail15normal_iteratorINS4_10device_ptrIfEEEENS4_18transform_iteratorIN13strided_rangeISE_E14stride_functorENS4_17counting_iteratorIlNS4_11use_defaultESK_SK_EESK_SK_EEEEjS6_fN4cuda3std3__410__identityEEEvT0_PT3_T1_NS0_13GridEvenShareISV_EET2_T4_
bar = 1	reg = 50	lmem=0	smem=44
0xff017624 0x00000a00 0x078e00ff 0x000fe400
0x00037919 0x00000000 0x00002500 0x000e2200
0x00ff7355 0x00000000 0x00100000 0x000fe200
0x00007945 0x000041e0 0x03800000 0x000fe400
0x00007919 0x00000000 0x00002100 0x000e6200
0x03077824 0x00001000 0x078e00ff 0x001fe400
0xff107224 0x000000ff 0x078e0000 0x002fc600
0x07067a10 0x00006600 0x07ffe1ff 0x000fc800
0x0600780c 0x00001000 0x03f06070 0x000fd800
0x00008947 0x000023b0 0x03800000 0x000fea00
0x10077a10 0x00005800 0x0791e007 0x000fe200
0x00047ab9 0x00005a00 0x00000a00 0x000fe200
0xff027819 0x0000001f 0x00011410 0x000fe200
0x04087899 0x0000000a 0x0800063f 0x000fe400
0x07047a25 0x00005a00 0x078e00ff 0x000fe200
0x02027a10 0x00005900 0x007e24ff 0x000fe200
0x00067882 0x0000000a 0x00000000 0x000fe400
0x04097299 0x00000006 0x08010205 0x000fe200
0x040a7a11 0x00005c00 0x078010ff 0x000fe200
0x02027a24 0x00005a00 0x078e02ff 0x000fc600
0x0a087c10 0x00000008 0x0ff3e0ff 0x000fe200
0x07077a24 0x00005b00 0x078e0202 0x000fc800
0x05057824 0x00000001 0x078e0207 0x000fca00
0x040b7a11 0x00005d00 0x000f1405 0x000fe400
0x08047c10 0x00000008 0x0ff1e0ff 0x000fe400
0x0b097c10 0x00000009 0x08ffe4ff 0x000fe400
0x040c7c10 0x00000008 0x0ff3e0ff 0x000fe400
0x09057c10 0x00000009 0x087fe4ff 0x000fe200
0x0a077381 0x00000000 0x001ee900 0x0000a200
0x0c0e7c10 0x00000008 0x0ff1e0ff 0x000fc400
0x050d7c10 0x00000009 0x08ffe4ff 0x000fe200
0x08027381 0x00000000 0x001ee900 0x0002a200
0x0e107c10 0x00000008 0x0ff3e0ff 0x000fe400
0x0d0f7c10 0x00000009 0x087fe4ff 0x000fe200
0x04157381 0x00000000 0x001ee900 0x00072200
0x10127c10 0x00000008 0x0ff1e0ff 0x000fe400
0x0f117c10 0x00000009 0x08ffe4ff 0x000fe200
0x0c177381 0x00000000 0x001ee900 0x000b2200
0x120a7c10 0x00000008 0x0ff3e0ff 0x001fc400
0x11137c10 0x00000009 0x087fe4ff 0x000fe200
0x0e197381 0x00000000 0x001ee900 0x00012200
0x0a087c10 0x00000008 0x0ff1e0ff 0x002fe400
0x130b7c10 0x00000009 0x08ffe4ff 0x000fe200
0x101b7381 0x00000000 0x001ee900 0x00032200
0x08047c10 0x00000008 0x0ff3e0ff 0x008fe400
0x0b097c10 0x00000009 0x087fe4ff 0x000fe200
0x121d7381 0x00000000 0x001ee900 0x00072200
0x040c7c10 0x00000008 0x0ff1e0ff 0x020fc400
0x09057c10 0x00000009 0x08ffe4ff 0x000fe200
0x0a1f7381 0x00000000 0x001ee900 0x000b2200
0x0c0e7c10 0x00000008 0x0ff3e0ff 0x001fe400
0x050d7c10 0x00000009 0x087fe4ff 0x000fe200
0x08097381 0x00000000 0x001ee900 0x000f2200
0x0e107c10 0x00000008 0x0ff1e0ff 0x002fe400
0x0d0f7c10 0x00000009 0x08ffe4ff 0x000fe200
0x04057381 0x00000000 0x001ee900 0x000f2200
0x10127c10 0x00000008 0x0ff3e0ff 0x008fc400
0x0f117c10 0x00000009 0x087fe4ff 0x000fe200
0x0c0d7381 0x00000000 0x001ee900 0x000ee200
0x120a7c10 0x00000008 0x0ff1e0ff 0x020fe400
0x11137c10 0x00000009 0x08ffe4ff 0x000fe200
0x0e0f7381 0x00000000 0x001ee900 0x000f6600
0x130b7c10 0x00000009 0x087fe4ff 0x000fe200
0x10117381 0x00000000 0x001ee900 0x000f6800
0x12137381 0x00000000 0x001ee900 0x000f6800
0x0a217381 0x00000000 0x001ee900 0x000f6800
0x0a237981 0x00000008 0x0c1ee900 0x000f6200
0x02027220 0x00000007 0x00400000 0x004fc800
0x02027220 0x00000015 0x00400000 0x010fc800
0x02027220 0x00000017 0x00400000 0x000fc800
0x02027220 0x00000019 0x00400000 0x000fc800
0x02027220 0x0000001b 0x00400000 0x000fc800
0x02027220 0x0000001d 0x00400000 0x000fc800
0x02027220 0x0000001f 0x00400000 0x000fc800
0x02027220 0x00000009 0x00400000 0x000fc800
0x02027220 0x00000005 0x00400000 0x000fe200
0x00057a02 0x00006700 0x00000f00 0x000fc600
0x02027220 0x0000000d 0x00400000 0x008fe400
0x05057824 0x00001000 0x078e00ff 0x000fe400
0x02027220 0x0000000f 0x00400000 0x020fc600
0x0600720c 0x00000005 0x03f06070 0x000fe200
0x02027220 0x00000011 0x00400000 0x000fc800
0x02027220 0x00000013 0x00400000 0x000fc800
0x02027220 0x00000021 0x00400000 0x000fc800
0x02027220 0x00000023 0x00400000 0x000fe200
0x00008947 0x00001c70 0x03800000 0x000fea00
0x00047ab9 0x00006600 0x00000800 0x000fe200
0x03077824 0x00001000 0x078e0205 0x000fe200
0x04047890 0xfffff000 0x0fffe03f 0x000fe200
0x05067824 0x00000001 0x078e0200 0x000fc600
0x07087810 0x00000300 0x07ffe0ff 0x000fe200
0x03067824 0x00001000 0x078e0206 0x000fe200
0x07007c0c 0x00000004 0x0bf04070 0x000fe400
0x00047202 0x00000007 0x00000f00 0x000fd400
0x00000947 0x00000500 0x03800000 0x000fea00
0xff097819 0x0000001f 0x00011400 0x000fe400
0x00037a10 0x00005800 0x0791e007 0x000fc800
0x090a7a10 0x00005900 0x007e24ff 0x000fca00
0x0a0c7a24 0x00005a00 0x078e02ff 0x000fe400
0x030a7a25 0x00005a00 0x078e00ff 0x000fc800
0x03037a24 0x00005b00 0x078e020c 0x000fe200
0x0a0c7a11 0x00005c00 0x078010ff 0x000fc600
0x0b037824 0x00000001 0x078e0203 0x000fe200
0x0c0e7c10 0x00000008 0x0ff3e0ff 0x000fc800
0x0a0d7a11 0x00005d00 0x000f1403 0x000fe400
0x0e0a7c10 0x00000008 0x0ff1e0ff 0x000fe400
0x0d0f7c10 0x00000009 0x08ffe4ff 0x000fe400
0x0a107c10 0x00000008 0x0ff3e0ff 0x000fe400
0x0c037381 0x00000000 0x001ee900 0x0000a200
0x0f0b7c10 0x00000009 0x087fe4ff 0x000fe400
0x10127c10 0x00000008 0x0ff1e0ff 0x000fe200
0x0e187381 0x00000000 0x001ee900 0x0002e200
0x0b117c10 0x00000009 0x08ffe4ff 0x000fc400
0x12147c10 0x00000008 0x0ff3e0ff 0x000fe400
0x0a1a7381 0x00000000 0x001ee900 0x00096200
0x11137c10 0x00000009 0x087fe4ff 0x000fe400
0x14167c10 0x00000008 0x0ff1e0ff 0x000fe200
0x101c7381 0x00000000 0x001ee900 0x00096200
0x13157c10 0x00000009 0x08ffe4ff 0x000fe400
0x160c7c10 0x00000008 0x0ff3e0ff 0x001fe400
0x121e7381 0x00000000 0x001ee900 0x00016200
0x15177c10 0x00000009 0x087fe4ff 0x000fc400
0x0c0e7c10 0x00000008 0x0ff1e0ff 0x002fe200
0x14207381 0x00000000 0x001ee900 0x00036200
0x170d7c10 0x00000009 0x08ffe4ff 0x000fe400
0x0e0a7c10 0x00000008 0x0ff3e0ff 0x010fe400
0x16227381 0x00000000 0x001ee900 0x00096200
0x0d0f7c10 0x00000009 0x087fe4ff 0x000fe400
0x0a107c10 0x00000008 0x0ff1e0ff 0x000fe200
0x0c247381 0x00000000 0x001ee900 0x00096200
0x0f0b7c10 0x00000009 0x08ffe4ff 0x000fc400
0x10127c10 0x00000008 0x0ff3e0ff 0x001fe400
0x0e0e7381 0x00000000 0x001ee900 0x000f6200
0x0b117c10 0x00000009 0x087fe4ff 0x000fe400
0x12147c10 0x00000008 0x0ff1e0ff 0x002fe200
0x0a0a7381 0x00000000 0x001ee900 0x000f6200
0x11137c10 0x00000009 0x08ffe4ff 0x000fe400
0x14167c10 0x00000008 0x0ff3e0ff 0x010fe400
0x10107381 0x00000000 0x001ee900 0x000f2200
0x13157c10 0x00000009 0x087fe4ff 0x000fc400
0x160c7c10 0x00000008 0x0ff1e0ff 0x000fe200
0x12127381 0x00000000 0x001ee900 0x000f2200
0x15177c10 0x00000009 0x08ffe4ff 0x000fc800
0x14147381 0x00000000 0x001ee900 0x000f2200
0x170d7c10 0x00000009 0x087fe4ff 0x000fc600
0x16167381 0x00000000 0x001ee900 0x000f2200
0x00067c82 0x00000008 0x08000000 0x000fe400
0x00077c82 0x00000009 0x08000000 0x000fe400
0x0c267381 0x00000000 0x001ee900 0x000f2800
0x0c287981 0x00000006 0x0c1ee900 0x000f2200
0x03037220 0x00000002 0x00400000 0x004fe200
0x07027a10 0x00006600 0x07ffe1ff 0x000fc600
0x03037220 0x00000018 0x00400000 0x008fe200
0x0200720c 0x00000005 0x03f06070 0x000fc600
0x03037220 0x0000001a 0x00400000 0x020fc800
0x03037220 0x0000001c 0x00400000 0x000fc800
0x03037220 0x0000001e 0x00400000 0x000fc800
0x03037220 0x00000020 0x00400000 0x000fc800
0x03037220 0x00000022 0x00400000 0x000fc800
0x03037220 0x00000024 0x00400000 0x000fc800
0x03037220 0x0000000e 0x00400000 0x000fc800
0x03037220 0x0000000a 0x00400000 0x000fc800
0x03037220 0x00000010 0x00400000 0x010fc800
0x03037220 0x00000012 0x00400000 0x000fc800
0x03037220 0x00000014 0x00400000 0x000fc800
0x03037220 0x00000016 0x00400000 0x000fc800
0x03037220 0x00000026 0x00400000 0x000fc800
0x03027220 0x00000028 0x00400000 0x000fe200
0x00008947 0x00001740 0x03800000 0x000fea00
0x05077824 0x00000001 0x078e0207 0x040fe200
0x05067210 0x00000006 0x07ffe0ff 0x040fe200
0x05087824 0x00000001 0x078e0208 0x040fe400
0x05047824 0x00000001 0x078e0204 0x000fe200
0x07007c0c 0x00000004 0x0bf04070 0x000fd800
0x00008947 0xfffffb10 0x0383ffff 0x000fea00
0x07007a0c 0x00006600 0x03f06070 0x000fd800
0x00000947 0x000016c0 0x03800000 0x000fea00
0x00097919 0x00000000 0x00002100 0x000e2200
0x07007a10 0x00006600 0x07ffe1ff 0x000fe200
0x01ff7355 0x00000000 0x00100000 0x000fe200
0x00017945 0x00001680 0x03800000 0x000fe400
0x0900720c 0x00000000 0x03f06270 0x001fd800
0x00000947 0x00001650 0x03800000 0x000fea00
0xff0a7212 0x00000009 0x078e33ff 0x000fe200
0x02ff7355 0x00000000 0x00100000 0x000fe200
0x00027945 0x00000170 0x03800000 0x000fe400
0x070a7a10 0x00006600 0x07ffe10a 0x000fc800
0x0a037811 0x00000001 0x078fc0ff 0x040fe400
0x0a00780c 0x00000300 0x03f26070 0x000fe400
0x03057812 0x00000003 0x0780c0ff 0x000fe200
0xff037224 0x000000ff 0x078e0009 0x000fd600
0x00008947 0x00000100 0x03800000 0x000fea00
0xff037224 0x000000ff 0x078e0009 0x000fe400
0x06077a10 0x00005800 0x07f1e0ff 0x000fca00
0xff097624 0x00005900 0x000e06ff 0x000fe400
0x070a7a25 0x00005a00 0x078e00ff 0x000fc800
0x090c7a24 0x00005a00 0x078e02ff 0x000fc800
0x07077a24 0x00005b00 0x078e020c 0x000fe200
0x0a0c7a11 0x00005c00 0x078010ff 0x000fc600
0x0b077824 0x00000001 0x078e0207 0x000fca00
0x0a0d7a11 0x00005d00 0x000f1407 0x000fd000
0x0c0d7381 0x00000000 0x001ee900 0x000ea200
0x05057810 0xffffffff 0x07ffe0ff 0x000fe400
0x03037810 0x00000100 0x07ffe0ff 0x000fe400
0x0500720c 0x000000ff 0x03f05270 0x000fe400
0x06067810 0x00000100 0x07ffe0ff 0x000fe200
0x0d027220 0x00000002 0x00400000 0x004fd200
0x00000947 0xffffff10 0x0383ffff 0x000fea00
0x00027941 0x00000000 0x03800000 0x000fea00
0x00009947 0x000014a0 0x03800000 0x000fea00
0x00057210 0x80000003 0x07ffe0ff 0x000fe200
0x02ff7355 0x00000000 0x00100000 0x000fe200
0x00027945 0x00000bb0 0x03800000 0x000fe200
0x03087824 0x00000001 0x078e0208 0x000fe200
0x0500780c 0x00000c00 0x03f24270 0x000fe200
0x03097824 0x00000001 0x078e0204 0x000fe200
0x0000781c 0x00000000 0x03f0f070 0x000fd400
0x00009947 0x00000b50 0x03800000 0x000fea00
0x0000781c 0x00000000 0x03f0e170 0x000fe400
0x001a7810 0xfffff400 0x07ffe0ff 0x000fe400
0x090a7a10 0x00005800 0x07f3e0ff 0x000fe400
0x08047810 0xfffffe00 0x07ffe0ff 0x040fe400
0x08067a10 0x00005800 0x07f5e0ff 0x000fe200
0xff057624 0x00005900 0x008e06ff 0x000fe200
0x04077a10 0x00005800 0x07f3e0ff 0x000fc600
0x050b7a24 0x00005a00 0x078e02ff 0x000fe200
0xff057a10 0x00005900 0x00ffe4ff 0x000fe200
0xff047624 0x00005900 0x010e06ff 0x000fe400
0x0a0d7a24 0x00005b00 0x078e020b 0x000fe400
0x040f7a24 0x00005a00 0x078e02ff 0x000fe400
0x050c7a24 0x00005a00 0x078e02ff 0x000fe400
0x0a047a25 0x00005a00 0x078e00ff 0x000fc800
0x060a7a25 0x00005a00 0x078e00ff 0x000fe200
0x04207a11 0x00005c00 0x078210ff 0x000fc600
0x06117a24 0x00005b00 0x078e020f 0x000fe200
0x0a1e7a11 0x00005c00 0x078610ff 0x000fe200
0x050d7824 0x00000001 0x078e020d 0x000fe400
0x070f7a24 0x00005b00 0x078e020c 0x040fe400
0x07067a25 0x00005a00 0x078e00ff 0x000fe200
0x04217a11 0x00005d00 0x008f140d 0x000fe400
0x08047810 0xffffff00 0x07ffe0ff 0x000fe200
0x0b057824 0x00000001 0x078e0211 0x000fe200
0x061c7a11 0x00005c00 0x078410ff 0x000fe200
0x07077824 0x00000001 0x078e020f 0x000fc600
0x0a1f7a11 0x00005d00 0x018f1405 0x000fe200
0x20217381 0x00000000 0x001ee900 0x0000a200
0x09057810 0x00000400 0x07ffe0ff 0x000fe400
0x040a7a10 0x00005800 0x07f3e0ff 0x000fe400
0x061d7a11 0x00005d00 0x010f1407 0x000fe400
0x08067810 0x00000200 0x07ffe0ff 0x040fe200
0xff0d7624 0x00005900 0x008e06ff 0x000fe200
0x050c7a10 0x00005800 0x07f5e0ff 0x000fe200
0x1e1e7381 0x00000000 0x001ee900 0x000ee200
0x08077810 0x00000300 0x07ffe0ff 0x040fe200
0x0d0d7a24 0x00005a00 0x078e02ff 0x000fe200
0x08047810 0x00000400 0x07ffe0ff 0x000fe200
0x1c1c7381 0x00000000 0x001ee900 0x00032200
0x060b7a10 0x00005800 0x07f3e0ff 0x000fe200
0x0a117a24 0x00005b00 0x078e020d 0x000fe200
0xff057a10 0x00005900 0x017fe4ff 0x000fc400
0x070e7a10 0x00005800 0x07f7e0ff 0x000fe200
0xff077624 0x00005900 0x008e06ff 0x000fe200
0x04147a10 0x00005800 0x07f5e0ff 0x000fe200
0x050f7a24 0x00005a00 0x078e02ff 0x000fe400
0xff067624 0x00005900 0x018e06ff 0x000fe400
0x0a047a25 0x00005a00 0x078e00ff 0x000fc800
0x07107a24 0x00005a00 0x078e02ff 0x000fe400
0xff0a7624 0x00005900 0x010e06ff 0x000fe400
0x0c137a24 0x00005b00 0x078e020f 0x000fe400
0x060f7a24 0x00005a00 0x078e02ff 0x000fe400
0x0c0c7a25 0x00005a00 0x078e00ff 0x000fc800
0x0b177a24 0x00005b00 0x078e0210 0x040fe200
0x04107a11 0x00005c00 0x078210ff 0x000fe200
0x0b067a25 0x00005a00 0x078e00ff 0x000fe200
0x050b7210 0x00000011 0x07ffe0ff 0x000fc600
0x0a157a24 0x00005a00 0x078e02ff 0x000fe200
0x0c0a7a11 0x00005c00 0x078410ff 0x000fe200
0x0d057824 0x00000001 0x078e0213 0x000fe200
0x04117a11 0x00005d00 0x008f140b 0x000fe200
0x141b7a24 0x00005b00 0x078e0215 0x000fe200
0x06127a11 0x00005c00 0x078210ff 0x000fe200
0x0e197a24 0x00005b00 0x078e020f 0x000fe200
0x0c0b7a11 0x00005d00 0x010f1405 0x000fe200
0x14147a25 0x00005a00 0x078e00ff 0x000fc600
0x10107381 0x00000000 0x001ee900 0x000ae200
0x07137824 0x00000001 0x078e0217 0x000fe200
0x09077810 0x00000800 0x07ffe0ff 0x000fe200
0x0e0e7a25 0x00005a00 0x078e00ff 0x000fe200
0x15057210 0x0000001b 0x07ffe0ff 0x000fe200
0x0a0a7381 0x00000000 0x001ee900 0x0000e200
0x06137a11 0x00005d00 0x008f1413 0x000fe200
0x0f0d7824 0x00000001 0x078e0219 0x000fe200
0x0e0c7a11 0x00005c00 0x078410ff 0x000fe400
0x14047a11 0x00005c00 0x078610ff 0x000fc400
0x07157a10 0x00005800 0x07f3e0ff 0x000fe400
0x08077810 0x00000600 0x07ffe0ff 0x040fe200
0x12127381 0x00000000 0x001ee900 0x0000e200
0x08067810 0x00000800 0x07ffe0ff 0x000fe400
0x0e0d7a11 0x00005d00 0x010f140d 0x000fe400
0x14057a11 0x00005d00 0x018f1405 0x000fe200
0xff147624 0x00005900 0x008e06ff 0x000fe200
0x080e7810 0x00000700 0x07ffe0ff 0x000fc400
0x07227a10 0x00005800 0x07f3e0ff 0x000fe400
0x06267a10 0x00005800 0x07f7e0ff 0x000fe200
0x0c0c7381 0x00000000 0x001ee900 0x0000e200
0x090f7810 0x00000c00 0x07ffe0ff 0x000fe200
0xff067624 0x00005900 0x008e06ff 0x000fe200
0x0e247a10 0x00005800 0x07f5e0ff 0x000fe200
0x140e7a24 0x00005a00 0x078e02ff 0x000fe200
0xff077a10 0x00005900 0x01ffe4ff 0x000fe400
0x0f287a10 0x00005800 0x07f3e0ff 0x000fe200
0x15177a24 0x00005b00 0x078e020e 0x000fc400
0x150e7a25 0x00005a00 0x078e00ff 0x000fc800
0x06157a24 0x00005a00 0x078e02ff 0x000fe400
0x07077a24 0x00005a00 0x078e02ff 0x000fe400
0xff067624 0x00005900 0x008e06ff 0x000fe400
0x261b7a24 0x00005b00 0x078e0207 0x000fe400
0xff147624 0x00005900 0x010e06ff 0x000fe400
0x22157a24 0x00005b00 0x078e0215 0x000fc400
0x06297a24 0x00005a00 0x078e02ff 0x000fe200
0x0e067a11 0x00005c00 0x078210ff 0x000fe200
0x0f077824 0x00000001 0x078e0217 0x000fe400
0x22227a25 0x00005a00 0x078e00ff 0x000fc600
0x0e077a11 0x00005d00 0x008f1407 0x000fe200
0x14197a24 0x00005a00 0x078e02ff 0x000fe200
0x22147a11 0x00005c00 0x078210ff 0x000fe200
0x23157824 0x00000001 0x078e0215 0x000fe400
0x24197a24 0x00005b00 0x078e0219 0x040fe400
0x24247a25 0x00005a00 0x078e00ff 0x000fe200
0x22157a11 0x00005d00 0x008f1415 0x000fe200
0x06067381 0x00000000 0x001ee900 0x0000e200
0x08227810 0x00000a00 0x07ffe0ff 0x000fe200
0x26267a25 0x00005a00 0x078e00ff 0x000fe200
0x24167a11 0x00005c00 0x078410ff 0x000fc400
0x25177210 0x00000019 0x07ffe0ff 0x000fe200
0x27197824 0x00000001 0x078e021b 0x000fe200
0x08237810 0x00000b00 0x07ffe0ff 0x000fe200
0x041b7381 0x00000000 0x001ee900 0x0002e200
0x22227a10 0x00005800 0x07f3e0ff 0x000fe200
0x280f7a24 0x00005b00 0x078e0229 0x000fe200
0x24177a11 0x00005d00 0x010f1417 0x000fe200
0x28287a25 0x00005a00 0x078e00ff 0x000fe200
0x23247a10 0x00005800 0x07f5e0ff 0x000fe200
0x14117381 0x00000000 0x001ee900 0x020ae200
0x080b7810 0x00000c00 0x07ffe0ff 0x001fe200
0xff1d7624 0x00005900 0x008e06ff 0x002fe200
0xff137a10 0x00005900 0x017fe4ff 0x000fe200
0x290f7824 0x00000001 0x078e020f 0x000fe200
0x0b0b7a10 0x00005800 0x07f3e0ff 0x000fe200
0x1d1d7a24 0x00005a00 0x078e02ff 0x000fe200
0x26187a11 0x00005c00 0x078610ff 0x000fe200
0x13137a24 0x00005a00 0x078e02ff 0x000fe200
0x280e7a11 0x00005c00 0x078810ff 0x000fe200
0x221d7a24 0x00005b00 0x078e021d 0x000fe200
0x26197a11 0x00005d00 0x018f1419 0x000fe200
0xff047624 0x00005900 0x008e06ff 0x000fe200
0x280f7a11 0x00005d00 0x020f140f 0x000fe200
0x22227a25 0x00005a00 0x078e00ff 0x000fe200
0x16167381 0x00000000 0x001ee900 0x000ee600
0x24057a24 0x00005b00 0x078e0213 0x000fe200
0x18207381 0x00000000 0x001ee900 0x0000e200
0x04267a24 0x00005a00 0x078e02ff 0x000fe200
0x22147a11 0x00005c00 0x078210ff 0x020fe200
0x24247a25 0x00005a00 0x078e00ff 0x000fe200
0x0e0e7381 0x00000000 0x001ee900 0x000f6600
0x23077824 0x00000001 0x078e021d 0x000fc400
0x0b0d7a24 0x00005b00 0x078e0226 0x000fe200
0x24047a11 0x00005c00 0x078410ff 0x000fe200
0x25057824 0x00000001 0x078e0205 0x000fe200
0x22157a11 0x00005d00 0x008f1407 0x000fe200
0x0b267a25 0x00005a00 0x078e00ff 0x000fc600
0x24057a11 0x00005d00 0x010f1405 0x000fe400
0x26187a11 0x00005c00 0x078210ff 0x041fe400
0x27077210 0x0000000d 0x07ffe0ff 0x000fe200
0x14157381 0x00000000 0x001ee900 0x000f6600
0x26197a11 0x00005d00 0x008f1407 0x000fe200
0x04057381 0x00000000 0x001ee900 0x000f6e00
0x18187381 0x00000000 0x001ee900 0x000f6200
0x03037810 0x00001000 0x07ffe0ff 0x000fc800
0x0300720c 0x0000001a 0x03f26270 0x000fe400
0x09097810 0x00001000 0x07ffe0ff 0x000fe400
0x08087810 0x00001000 0x07ffe0ff 0x000fe200
0x21217220 0x00000002 0x00400000 0x004fc800
0x21217220 0x0000001c 0x00400000 0x010fc800
0x21217220 0x00000010 0x00400000 0x008fc800
0x21217220 0x0000001e 0x00400000 0x000fc800
0x21217220 0x0000000a 0x00400000 0x000fc800
0x21217220 0x00000012 0x00400000 0x000fc800
0x210c7220 0x0000000c 0x00400000 0x000fc800
0x0c1b7220 0x0000001b 0x00400000 0x000fc800
0x1b067220 0x00000006 0x00400000 0x000fc800
0x06117220 0x00000011 0x00400000 0x000fc800
0x11117220 0x00000016 0x00400000 0x000fc800
0x11117220 0x00000020 0x00400000 0x000fc800
0x110e7220 0x0000000e 0x00400000 0x020fc800
0x0e0e7220 0x00000015 0x00400000 0x000fc800
0x0e057220 0x00000005 0x00400000 0x000fc800
0x05027220 0x00000018 0x00400000 0x000fe200
0x00009947 0xfffff4d0 0x0383ffff 0x000fea00
0x00027941 0x00000000 0x03800000 0x000fea00
0x00047824 0x00000001 0x078e0a03 0x000fe200
0x02ff7355 0x00000000 0x00100000 0x000fe200
0x00027945 0x000005d0 0x03800000 0x000fe600
0x0400780c 0x00000400 0x03f24270 0x000fd800
0x00009947 0x000005a0 0x03800000 0x000fea00
0x09077a10 0x00005800 0x07f1e0ff 0x000fe400
0x08067810 0xfffffe00 0x07ffe0ff 0x000fc600
0xff047624 0x00005900 0x000e06ff 0x000fe200
0x080a7a10 0x00005800 0x07f1e0ff 0x000fe400
0x060e7a10 0x00005800 0x07f3e0ff 0x000fe200
0x040c7a24 0x00005a00 0x078e02ff 0x000fe400
0x07047a25 0x00005a00 0x078e00ff 0x000fc800
0x070d7a24 0x00005b00 0x078e020c 0x000fe200
0x08077810 0xffffff00 0x07ffe0ff 0x000fe200
0xff0b7624 0x00005900 0x000e06ff 0x000fe200
0x04067a11 0x00005c00 0x078010ff 0x000fe200
0xff0c7624 0x00005900 0x008e06ff 0x000fe200
0x050d7210 0x0000000d 0x07ffe0ff 0x000fe200
0x0b0f7a24 0x00005a00 0x078e02ff 0x000fe200
0x09057810 0x00000400 0x07ffe0ff 0x000fe400
0x07127a10 0x00005800 0x07f5e0ff 0x000fe200
0x0a137a24 0x00005b00 0x078e020f 0x000fe200
0x04077a11 0x00005d00 0x000f140d 0x000fe200
0x0c0d7a24 0x00005a00 0x078e02ff 0x000fe200
0x05147a10 0x00005800 0x07f1e0ff 0x000fe200
0xff0b7624 0x00005900 0x010e06ff 0x000fc400
0x0a047a25 0x00005a00 0x078e00ff 0x000fc800
0xff0a7624 0x00005900 0x000e06ff 0x000fe200
0x040c7a11 0x00005c00 0x078010ff 0x000fe200
0x0b117a24 0x00005a00 0x078e02ff 0x000fe200
0x05057210 0x00000013 0x07ffe0ff 0x000fe200
0x0e0b7a24 0x00005b00 0x078e020d 0x000fe400
0x0a0d7a24 0x00005a00 0x078e02ff 0x000fe400
0x0e0e7a25 0x00005a00 0x078e00ff 0x000fc800
0x12117a24 0x00005b00 0x078e0211 0x000fe400
0x14177a24 0x00005b00 0x078e020d 0x000fe200
0x040d7a11 0x00005d00 0x000f1405 0x000fe200
0x12127a25 0x00005a00 0x078e00ff 0x000fe200
0x0e107a11 0x00005c00 0x078010ff 0x000fc600
0x0f0f7824 0x00000001 0x078e020b 0x000fe200
0x120a7a11 0x00005c00 0x078210ff 0x000fe200
0x130b7824 0x00000001 0x078e0211 0x000fe200
0x0c167381 0x00000000 0x001ee900 0x0000a200
0x14147a25 0x00005a00 0x078e00ff 0x000fe200
0x0e117a11 0x00005d00 0x000f140f 0x000fe400
0x080e7810 0x00000200 0x07ffe0ff 0x040fe200
0x15057824 0x00000001 0x078e0217 0x000fe200
0x080f7810 0x00000300 0x07ffe0ff 0x000fe400
0x0e177a10 0x00005800 0x07f1e0ff 0x000fe200
0x06157381 0x00000000 0x001ee900 0x0002e200
0x120b7a11 0x00005d00 0x008f140b 0x000fc400
0x0f0f7a10 0x00005800 0x07f3e0ff 0x000fe400
0xff127a10 0x00005900 0x007fe4ff 0x000fe400
0x080e7810 0x00000400 0x07ffe0ff 0x000fe200
0xff137624 0x00005900 0x008e06ff 0x000fe200
0x14047a11 0x00005c00 0x078410ff 0x000fe200
0x12187a24 0x00005a00 0x078e02ff 0x000fe200
0x0e127a10 0x00005800 0x07f1e0ff 0x000fe200
0x130e7a24 0x00005a00 0x078e02ff 0x000fe200
0x14057a11 0x00005d00 0x010f1405 0x000fe200
0x17197a24 0x00005b00 0x078e0218 0x040fe200
0x10147381 0x00000000 0x001ee900 0x00096200
0x17067a25 0x00005a00 0x078e00ff 0x002fc600
0x0a0b7381 0x00000000 0x001ee900 0x000ea200
0xff137624 0x00005900 0x000e06ff 0x000fe400
0x0f177a24 0x00005b00 0x078e020e 0x040fe200
0x04047381 0x00000000 0x001ee900 0x000ea200
0x0f0e7a25 0x00005a00 0x078e00ff 0x000fe200
0x060c7a11 0x00005c00 0x078010ff 0x001fc600
0x13137a24 0x00005a00 0x078e02ff 0x000fe400
0x070d7824 0x00000001 0x078e0219 0x000fe200
0x0f077210 0x00000017 0x07ffe0ff 0x000fe200
0x120f7a24 0x00005b00 0x078e0213 0x000fe200
0x0e107a11 0x00005c00 0x078210ff 0x010fe200
0x12127a25 0x00005a00 0x078e00ff 0x000fe200
0x060d7a11 0x00005d00 0x000f140d 0x000fe400
0x0e117a11 0x00005d00 0x008f1407 0x000fe200
0x13077824 0x00000001 0x078e020f 0x000fe200
0x12067a11 0x00005c00 0x078010ff 0x000fc800
0x0c0d7381 0x00000000 0x001ee900 0x000f2200
0x12077a11 0x00005d00 0x000f1407 0x000fc600
0x10117381 0x00000000 0x001ee900 0x000f2a00
0x06077381 0x00000000 0x001ee900 0x000f2200
0x0000781c 0x00000000 0x03f0e170 0x000fe400
0x03037810 0x00000800 0x07ffe0ff 0x000fe400
0x09097810 0x00000800 0x07ffe0ff 0x000fc400
0x08087810 0x00000800 0x07ffe0ff 0x000fe200
0x02157220 0x00000015 0x00400000 0x008fc800
0x15147220 0x00000014 0x00400000 0x020fc800
0x140b7220 0x0000000b 0x00400000 0x004fc800
0x0b0b7220 0x00000016 0x00400000 0x000fc800
0x0b047220 0x00000004 0x00400000 0x000fc800
0x04047220 0x0000000d 0x00400000 0x010fc800
0x04047220 0x00000011 0x00400000 0x000fc800
0x04027220 0x00000007 0x00400000 0x000fc600
0x00027941 0x00000000 0x03800000 0x000fea00
0x0300720c 0x00000000 0x00701670 0x000fd800
0x00008947 0x000002a0 0x03800000 0x000fea00
0x090a7a10 0x00005800 0x07f1e0ff 0x000fe400
0x08007810 0xfffffe00 0x07ffe0ff 0x040fe400
0x08037810 0xffffff00 0x07ffe0ff 0x000fe200
0xff047624 0x00005900 0x000e06ff 0x000fe200
0x00097a10 0x00005800 0x07f1e0ff 0x000fe400
0x03037a10 0x00005800 0x07f3e0ff 0x000fe200
0x040b7a24 0x00005a00 0x078e02ff 0x000fe200
0x080e7a10 0x00005800 0x07f5e0ff 0x000fe200
0xff067624 0x00005900 0x000e06ff 0x000fe200
0xff077a10 0x00005900 0x00ffe4ff 0x000fe200
0x0a047a25 0x00005a00 0x078e00ff 0x000fc800
0x0a0b7a24 0x00005b00 0x078e020b 0x000fe400
0x06087a24 0x00005a00 0x078e02ff 0x000fe200
0x04067a11 0x00005c00 0x078010ff 0x040fe200
0x070c7a24 0x00005a00 0x078e02ff 0x000fe400
0x05057824 0x00000001 0x078e020b 0x000fe400
0xff007624 0x00005900 0x010e06ff 0x000fe400
0x090d7a24 0x00005b00 0x078e0208 0x040fe200
0x04077a11 0x00005d00 0x000f1405 0x000fe200
0x09087a25 0x00005a00 0x078e00ff 0x000fc800
0x030a7a25 0x00005a00 0x078e00ff 0x040fe200
0x08047a11 0x00005c00 0x078010ff 0x000fe400
0x06077381 0x00000000 0x001ee900 0x000ea200
0x03037a24 0x00005b00 0x078e020c 0x000fe200
0x0a0c7a11 0x00005c00 0x078210ff 0x000fe200
0x000f7a24 0x00005a00 0x078e02ff 0x000fe400
0x09057824 0x00000001 0x078e020d 0x000fe200
0x0b037210 0x00000003 0x07ffe0ff 0x000fe200
0x0e097a24 0x00005b00 0x078e020f 0x000fc400
0x0e0e7a25 0x00005a00 0x078e00ff 0x000fe200
0x08057a11 0x00005d00 0x000f1405 0x000fe400
0x0a0d7a11 0x00005d00 0x008f1403 0x000fe200
0x0f037824 0x00000001 0x078e0209 0x000fe200
0x0e087a11 0x00005c00 0x078010ff 0x000fc800
0x04057381 0x00000000 0x001ee900 0x000ee200
0x0e097a11 0x00005d00 0x000f1403 0x000fc600
0x0c0d7381 0x00000000 0x001ee900 0x000f2a00
0x08097381 0x00000000 0x001ee900 0x000f6200
0x02027220 0x00000007 0x00400000 0x004fc800
0x02027220 0x00000005 0x00400000 0x008fc800
0x02027220 0x0000000d 0x00400000 0x010fc800
0x02027220 0x00000009 0x00400000 0x020fc600
0x00017941 0x00000000 0x03800000 0x000fea00
0x00037919 0x00000000 0x00000000 0x000e2200
0xff057224 0x000000ff 0x078e0002 0x000fd000
0x05007f89 0x08201f00 0x000e0000 0x000e6200
0x0300780c 0x0000001e 0x03f04270 0x041fe400
0x0300720c 0x000000ff 0x03f25270 0x000fd400
0x00058220 0x00000005 0x00400000 0x002fe200
0x0300780c 0x0000001d 0x03f04270 0x000fce00
0x05007f89 0x08401f00 0x000e0000 0x000e2a00
0x05058220 0x00000000 0x00400000 0x001fe200
0x0300780c 0x0000001b 0x03f04270 0x000fce00
0x05007f89 0x08801f00 0x000e0000 0x000e2a00
0x05058220 0x00000000 0x00400000 0x001fe200
0x0300780c 0x00000017 0x03f04270 0x000fe200
0x00007919 0x00000000 0x00002100 0x000e2c00
0x05027f89 0x09001f00 0x000e0000 0x000e6a00
0x05058220 0x00000002 0x00400000 0x002fe200
0x0300780c 0x0000000f 0x03f04270 0x000fc400
0xff039819 0x0000001f 0x00011400 0x001fc800
0x03039211 0x00000000 0x078f28ff 0x000fe200
0x05027f89 0x0a001f00 0x000e0000 0x000e2600
0xff039819 0x00000005 0x00011403 0x000fca00
0x03039824 0x00000004 0x078e00ff 0x000fe400
0x05058220 0x00000002 0x00400000 0x001fe200
0x0000720c 0x000000ff 0x03f05270 0x000fc800
0x00027202 0x00000005 0x00000f00 0x000fd000
0x03009388 0x00000802 0x00000800 0x000fe800
0x00007b1d 0x00000000 0x00000000 0x000fea00
0x00000947 0x00001e80 0x03800000 0x000fea00
0xff037984 0x00000c00 0x00001800 0x000e2200
0xff007224 0x000000ff 0x078e00ff 0x000fc600
0xff047984 0x00001000 0x00001c00 0x000e7000
0xff087984 0x00002000 0x00001a00 0x000ea200
0x02037220 0x00000003 0x00400000 0x001fc800
0x03047220 0x00000004 0x00400000 0x002fc800
0x04057220 0x00000005 0x00400000 0x000fc800
0x05067220 0x00000006 0x00400000 0x000fc800
0x06067220 0x00000007 0x00400000 0x000fc800
0x06067220 0x00000008 0x00400000 0x004fc800
0x06027220 0x00000009 0x00400000 0x000fe200
0x00007947 0x00001dc0 0x03800000 0x000fea00
0x1000720c 0x00000006 0x03f06270 0x000fe200
0x01ff7355 0x00000000 0x00100000 0x000fe200
0x00017945 0x000000e0 0x03800000 0x000fe200
0xff0e7224 0x000000ff 0x078e00ff 0x000fd200
0x00000947 0x000000b0 0x03800000 0x000fea00
0x07027824 0x00000001 0x078e0210 0x000fca00
0x02047a10 0x00005800 0x07f1e0ff 0x000fc800
0xff027a10 0x00005900 0x007fe4ff 0x000fca00
0x02057a24 0x00005a00 0x078e02ff 0x000fe400
0x04027a25 0x00005a00 0x078e00ff 0x000fc800
0x04057a24 0x00005b00 0x078e0205 0x000fe200
0x020e7a11 0x00005c00 0x078010ff 0x000fc600
0x03037824 0x00000001 0x078e0205 0x000fca00
0x020f7a11 0x00005d00 0x000f1403 0x000fd000
0x0e0e7381 0x00000000 0x001ee900 0x00016200
0x10107810 0x00000100 0x07ffe0ff 0x000fc600
0x00017941 0x00000000 0x03800000 0x000fea00
0x1000720c 0x00000006 0x03f06270 0x000fe200
0x01ff7355 0x00000000 0x00100000 0x000fe200
0x00017945 0x00001670 0x03800000 0x000ff400
0x00000947 0x00001650 0x03800000 0x000fea00
0xff027212 0x00000010 0x078e33ff 0x000fe200
0x02ff7355 0x00000000 0x00100000 0x000fe200
0x00027945 0x00000170 0x03800000 0x000fe400
0x07037a10 0x00006600 0x07ffe102 0x000fc800
0x03027811 0x00000001 0x078fc0ff 0x040fe400
0x0300780c 0x00000300 0x03f26070 0x000fe400
0x02027812 0x00000003 0x0780c0ff 0x000fd800
0x00008947 0x00000110 0x03800000 0x000fea00
0xff087224 0x000000ff 0x078e0002 0x000fe400
0x07097824 0x00000001 0x078e0210 0x000fca00
0x09047a10 0x00005800 0x07f1e0ff 0x000fc800
0xff027a10 0x00005900 0x007fe4ff 0x000fca00
0x02057a24 0x00005a00 0x078e02ff 0x000fe400
0x04027a25 0x00005a00 0x078e00ff 0x000fc800
0x04057a24 0x00005b00 0x078e0205 0x000fe200
0x02047a11 0x00005c00 0x078010ff 0x000fc600
0x03037824 0x00000001 0x078e0205 0x000fca00
0x02057a11 0x00005d00 0x000f1403 0x000fd000
0x04057381 0x00000000 0x001ee900 0x000ea200
0x08087810 0xffffffff 0x07ffe0ff 0x000fe400
0x10107810 0x00000100 0x07ffe0ff 0x000fe400
0x0800720c 0x000000ff 0x03f05270 0x000fe400
0x09097810 0x00000100 0x07ffe0ff 0x000fe200
0x050e7220 0x0000000e 0x00400000 0x024fd200
0x00000947 0xffffff10 0x0383ffff 0x000fea00
0x00027941 0x00000000 0x03800000 0x000fea00
0x00009947 0x000014a0 0x03800000 0x000fea00
0x06027824 0x00000001 0x078e0a10 0x000fe200
0x02ff7355 0x00000000 0x00100000 0x000fe200
0x00027945 0x00000ba0 0x03800000 0x000fe200
0x0000781c 0x00000000 0x03f0f070 0x000fe400
0x0200780c 0x00000c00 0x03f24270 0x000fe400
0x100f7810 0x00000300 0x07ffe007 0x001fd400
0x00009947 0x00000b50 0x03800000 0x000fea00
0x0000781c 0x00000000 0x03f0e170 0x000fe400
0x06117810 0xfffff400 0x07ffe0ff 0x000fe400
0x07027824 0x00000001 0x078e0210 0x000fe200
0x0f037810 0xfffffe00 0x07ffe0ff 0x040fe400
0x0f087a10 0x00005800 0x07f7e0ff 0x000fe400
0x02057a10 0x00005800 0x07f3e0ff 0x000fe400
0x03047a10 0x00005800 0x07f5e0ff 0x000fe400
0xff027a10 0x00005900 0x01ffe4ff 0x000fe200
0xff097624 0x00005900 0x008e06ff 0x000fc400
0xff037624 0x00005900 0x010e06ff 0x000fe400
0x020b7a24 0x00005a00 0x078e02ff 0x000fe400
0x090a7a24 0x00005a00 0x078e02ff 0x000fe400
0x030d7a24 0x00005a00 0x078e02ff 0x000fe400
0x08137a24 0x00005b00 0x078e020b 0x000fe400
0x05027a25 0x00005a00 0x078e00ff 0x000fc800
0x050b7a24 0x00005b00 0x078e020a 0x000fe200
0x02207a11 0x00005c00 0x078210ff 0x000fe200
0x040d7a24 0x00005b00 0x078e020d 0x040fe400
0x04047a25 0x00005a00 0x078e00ff 0x000fe200
0x030b7210 0x0000000b 0x07ffe0ff 0x000fc600
0x05037824 0x00000001 0x078e020d 0x000fe200
0x041c7a11 0x00005c00 0x078410ff 0x000fe200
0x08087a25 0x00005a00 0x078e00ff 0x000fe200
0x02217a11 0x00005d00 0x008f140b 0x000fe400
0x0f027810 0xffffff00 0x07ffe0ff 0x000fe200
0x09097824 0x00000001 0x078e0213 0x000fe200
0x041d7a11 0x00005d00 0x010f1403 0x000fe400
0x07037810 0x00000400 0x07ffe010 0x000fe400
0x081e7a11 0x00005c00 0x078610ff 0x000fe200
0x20217381 0x00000000 0x001ee900 0x0000a200
0x020b7a10 0x00005800 0x07f3e0ff 0x000fc400
0x0f047810 0x00000200 0x07ffe0ff 0x000fe200
0x1c1c7381 0x00000000 0x001ee900 0x0002e200
0x030a7a10 0x00005800 0x07f5e0ff 0x000fe400
0x0f057810 0x00000300 0x07ffe0ff 0x040fe400
0x081f7a11 0x00005d00 0x018f1409 0x000fe200
0xff097624 0x00005900 0x008e06ff 0x000fe200
0x04037a10 0x00005800 0x07f3e0ff 0x000fe200
0xff047624 0x00005900 0x010e06ff 0x000fe200
0x0f027810 0x00000400 0x07ffe0ff 0x000fe200
0x09127a24 0x00005a00 0x078e02ff 0x000fe200
0x05087a10 0x00005800 0x07f7e0ff 0x000fe200
0x040d7a24 0x00005a00 0x078e02ff 0x000fe200
0xff097a10 0x00005900 0x00ffe4ff 0x000fe200
0x0b137a24 0x00005b00 0x078e0212 0x040fe200
0x020c7a10 0x00005800 0x07f5e0ff 0x000fe200
0xff027624 0x00005900 0x018e06ff 0x000fe200
0x1e1e7381 0x00000000 0x001ee900 0x000f2200
0x0b047a25 0x00005a00 0x078e00ff 0x000fc800
0x09127a24 0x00005a00 0x078e02ff 0x000fe200
0x04187a11 0x00005c00 0x078210ff 0x000fe200
0x0a157a24 0x00005b00 0x078e020d 0x040fe400
0x0a0a7a25 0x00005a00 0x078e00ff 0x000fc800
0x02097a24 0x00005a00 0x078e02ff 0x000fe400
0xff0d7624 0x00005900 0x010e06ff 0x000fe200
0x0a167a11 0x00005c00 0x078410ff 0x000fe200
0x031b7a24 0x00005b00 0x078e0212 0x000fe400
0x08237a24 0x00005b00 0x078e0209 0x000fe400
0x0d0d7a24 0x00005a00 0x078e02ff 0x000fe400
0x05137824 0x00000001 0x078e0213 0x000fe200
0x0b057210 0x00000015 0x07ffe0ff 0x000fe200
0x03027a25 0x00005a00 0x078e00ff 0x000fc600
0x04197a11 0x00005d00 0x008f1413 0x000fe200
0x08087a25 0x00005a00 0x078e00ff 0x000fe200
0x0a177a11 0x00005d00 0x010f1405 0x000fe400
0x021a7a11 0x00005c00 0x078210ff 0x000fe200
0x0c157a24 0x00005b00 0x078e020d 0x000fe200
0x08147a11 0x00005c00 0x078410ff 0x000fe200
0x0c0c7a25 0x00005a00 0x078e00ff 0x000fe200
0x0f047810 0x00000700 0x07ffe0ff 0x000fe200
0x18187381 0x00000000 0x001ee900 0x00012400
0x030b7824 0x00000001 0x078e021b 0x000fe200
0x07037810 0x00000800 0x07ffe010 0x000fe200
0x09097824 0x00000001 0x078e0223 0x000fe200
0x0c127a11 0x00005c00 0x078610ff 0x000fe200
0x0d057824 0x00000001 0x078e0215 0x000fe200
0x021b7a11 0x00005d00 0x008f140b 0x000fe200
0x16167381 0x00000000 0x001ee900 0x00012200
0x08157a11 0x00005d00 0x010f1409 0x000fc400
0x03087a10 0x00005800 0x07f3e0ff 0x000fe400
0x0f037810 0x00000600 0x07ffe0ff 0x000fe400
0xff097a10 0x00005900 0x00ffe4ff 0x000fe200
0x1a1a7381 0x00000000 0x001ee900 0x00012200
0x03227a10 0x00005800 0x07f3e0ff 0x000fe400
0x0f027810 0x00000800 0x07ffe0ff 0x000fe200
0x09037a24 0x00005a00 0x078e02ff 0x000fe200
0x04247a10 0x00005800 0x07f5e0ff 0x000fe200
0xff047624 0x00005900 0x008e06ff 0x000fe200
0x0c137a11 0x00005d00 0x018f1405 0x000fe200
0x080b7a24 0x00005b00 0x078e0203 0x000fe200
0x02267a10 0x00005800 0x07f7e0ff 0x000fe200
0xff097624 0x00005900 0x010e06ff 0x000fe200
0x07057810 0x00000c00 0x07ffe010 0x000fe200
0x08027a25 0x00005a00 0x078e00ff 0x000fe200
0x14147381 0x00000000 0x001ee900 0x00032400
0x05057a10 0x00005800 0x07f3e0ff 0x000fe200
0x040d7a24 0x00005a00 0x078e02ff 0x000fe200
0x0f177810 0x00000c00 0x07ffe0ff 0x001fe200
0xff087624 0x00005900 0x018e06ff 0x000fe200
0xff047a10 0x00005900 0x00ffe4ff 0x000fe200
0x09257a24 0x00005a00 0x078e02ff 0x000fe200
0x020c7a11 0x00005c00 0x078210ff 0x000fe200
0x22097a24 0x00005b00 0x078e020d 0x000fe200
0x12127381 0x00000000 0x001ee900 0x00012200
0x080d7a24 0x00005a00 0x078e02ff 0x000fc400
0x03037824 0x00000001 0x078e020b 0x000fe400
0x22227a25 0x00005a00 0x078e00ff 0x000fc800
0x262d7a24 0x00005b00 0x078e020d 0x000fe200
0x020d7a11 0x00005d00 0x008f1403 0x000fe200
0x23097824 0x00000001 0x078e0209 0x000fe200
0x22087a11 0x00005c00 0x078210ff 0x000fe200
0x242b7a24 0x00005b00 0x078e0225 0x040fe400
0x24247a25 0x00005a00 0x078e00ff 0x000fe200
0x22097a11 0x00005d00 0x008f1409 0x000fe400
0x0f227810 0x00000a00 0x07ffe0ff 0x000fe200
0x250b7824 0x00000001 0x078e022b 0x000fe200
0x240a7a11 0x00005c00 0x078410ff 0x000fe200
0x04047a24 0x00005a00 0x078e02ff 0x000fe200
0x0f237810 0x00000b00 0x07ffe0ff 0x000fe200
0x26267a25 0x00005a00 0x078e00ff 0x000fe200
0x22227a10 0x00005800 0x07f3e0ff 0x000fe200
0x0c207381 0x00000000 0x001ee900 0x00012200
0x240b7a11 0x00005d00 0x010f140b 0x000fe200
0x052f7a24 0x00005b00 0x078e0204 0x000fe200
0x23247a10 0x00005800 0x07f5e0ff 0x000fe200
0xff1d7624 0x00005900 0x008e06ff 0x002fe200
0x17177a10 0x00005800 0x07f3e0ff 0x000fe200
0x05287a25 0x00005a00 0x078e00ff 0x000fe200
0x26047a11 0x00005c00 0x078610ff 0x000fe200
0x08197381 0x00000000 0x001ee900 0x00032200
0x27057210 0x0000002d 0x07ffe0ff 0x000fe200
0xff1b7624 0x00005900 0x010e06ff 0x000fe200
0x28027a11 0x00005c00 0x078810ff 0x000fe200
0x1d1d7a24 0x00005a00 0x078e02ff 0x000fe200
0xff0c7a10 0x00005900 0x00ffe4ff 0x001fe200
0x29037824 0x00000001 0x078e022f 0x000fe200
0x26057a11 0x00005d00 0x018f1405 0x000fe200
0x1b1b7a24 0x00005a00 0x078e02ff 0x000fe200
0x0a157381 0x00000000 0x001ee900 0x00012200
0x221d7a24 0x00005b00 0x078e021d 0x000fe200
0x28037a11 0x00005d00 0x020f1403 0x000fe200
0x22227a25 0x00005a00 0x078e00ff 0x000fc600
0x04267381 0x00000000 0x001ee900 0x00012200
0x241b7a24 0x00005b00 0x078e021b 0x040fe400
0x24247a25 0x00005a00 0x078e00ff 0x000fe200
0x02027381 0x00000000 0x001ee900 0x000f2600
0x0c287a24 0x00005a00 0x078e02ff 0x000fe200
0x220c7a11 0x00005c00 0x078210ff 0x000fe200
0x230d7824 0x00000001 0x078e021d 0x000fe200
0x24087a11 0x00005c00 0x078410ff 0x002fe200
0x25097824 0x00000001 0x078e021b 0x000fc400
0x17137a24 0x00005b00 0x078e0228 0x040fe200
0x220d7a11 0x00005d00 0x008f140d 0x000fe200
0x170a7a25 0x00005a00 0x078e00ff 0x001fe200
0x24097a11 0x00005d00 0x010f1409 0x000fc600
0x0b057824 0x00000001 0x078e0213 0x000fe200
0x0a047a11 0x00005c00 0x078210ff 0x040fe400
0x0c0d7381 0x00000000 0x001ee900 0x000f2400
0x0a057a11 0x00005d00 0x008f1405 0x000fe400
0x08097381 0x00000000 0x001ee900 0x000f2c00
0x04057381 0x00000000 0x001ee900 0x000f2200
0x10107810 0x00001000 0x07ffe0ff 0x000fc800
0x1000720c 0x00000011 0x03f26270 0x000fe400
0x0f0f7810 0x00001000 0x07ffe0ff 0x000fe200
0x21217220 0x0000000e 0x00400000 0x024fc800
0x21217220 0x0000001c 0x00400000 0x008fc800
0x21217220 0x00000018 0x00400000 0x010fc800
0x21217220 0x0000001e 0x00400000 0x000fc800
0x21217220 0x00000016 0x00400000 0x000fc800
0x21217220 0x0000001a 0x00400000 0x000fc800
0x21217220 0x00000014 0x00400000 0x000fc800
0x21217220 0x00000012 0x00400000 0x000fc800
0x21207220 0x00000020 0x00400000 0x000fc800
0x20207220 0x00000019 0x00400000 0x000fc800
0x20157220 0x00000015 0x00400000 0x000fc800
0x15157220 0x00000026 0x00400000 0x000fc800
0x15027220 0x00000002 0x00400000 0x000fc800
0x02027220 0x0000000d 0x00400000 0x000fc800
0x02027220 0x00000009 0x00400000 0x000fc800
0x020e7220 0x00000005 0x00400000 0x000fe200
0x00009947 0xfffff4d0 0x0383ffff 0x000fea00
0x00027941 0x00000000 0x03800000 0x000fea00
0x06027210 0x80000010 0x07ffe0ff 0x000fe200
0x02ff7355 0x00000000 0x00100000 0x000fe200
0x00027945 0x000005d0 0x03800000 0x000fe400
0x0200780c 0x00000400 0x03f24270 0x000fd800
0x00009947 0x000005a0 0x03800000 0x000fea00
0x0f027a10 0x00005800 0x07f1e0ff 0x000fe200
0x07057824 0x00000001 0x078e0210 0x100fe200
0x0f047810 0xfffffe00 0x07ffe0ff 0x000fe400
0x07097810 0x00000400 0x07ffe010 0x000fe200
0xff037624 0x00005900 0x000e06ff 0x000fe200
0x050d7a10 0x00005800 0x07f3e0ff 0x000fe400
0x040c7a10 0x00005800 0x07f1e0ff 0x000fe200
0x03037a24 0x00005a00 0x078e02ff 0x000fe200
0x0f057810 0xffffff00 0x07ffe0ff 0x000fe200
0xff047624 0x00005900 0x008e06ff 0x000fe200
0x09167a10 0x00005800 0x07f7e0ff 0x000fe200
0x020b7a24 0x00005b00 0x078e0203 0x040fe200
0x05057a10 0x00005800 0x07f3e0ff 0x000fe200
0x02027a25 0x00005a00 0x078e00ff 0x000fc800
0xff0a7624 0x00005900 0x008e06ff 0x000fe200
0x02087a11 0x00005c00 0x078410ff 0x000fe400
0x03037210 0x0000000b 0x07ffe0ff 0x000fe200
0xff0b7624 0x00005900 0x000e06ff 0x000fe400
0x0a127a24 0x00005a00 0x078e02ff 0x000fe200
0x02097a11 0x00005d00 0x010f1403 0x000fe200
0x04027a24 0x00005a00 0x078e02ff 0x000fe400
0x0b0b7a24 0x00005a00 0x078e02ff 0x000fc400
0x0d157a24 0x00005b00 0x078e0202 0x040fe400
0xff047624 0x00005900 0x018e06ff 0x000fe200
0x081a7381 0x00000000 0x001ee900 0x0000a200
0x0d027a25 0x00005a00 0x078e00ff 0x000fc800
0x0c117a24 0x00005b00 0x078e020b 0x000fe200
0x020a7a11 0x00005c00 0x078010ff 0x000fe200
0x040b7a24 0x00005a00 0x078e02ff 0x000fe200
0x03197210 0x00000015 0x07ffe0ff 0x000fe200
0x0c0c7a25 0x00005a00 0x078e00ff 0x000fc800
0x16037a24 0x00005b00 0x078e020b 0x000fe200
0x020b7a11 0x00005d00 0x000f1419 0x000fe200
0x05137a24 0x00005b00 0x078e0212 0x040fe200
0x0c127a11 0x00005c00 0x078010ff 0x000fe200
0x05147a25 0x00005a00 0x078e00ff 0x000fc800
0x0d0d7824 0x00000001 0x078e0211 0x000fe200
0x14047a11 0x00005c00 0x078210ff 0x000fe200
0x15057824 0x00000001 0x078e0213 0x000fe200
0x0a117381 0x00000000 0x001ee900 0x0002e200
0x16167a25 0x00005a00 0x078e00ff 0x000fe200
0x0c137a11 0x00005d00 0x000f140d 0x000fe400
0x0f0c7810 0x00000200 0x07ffe0ff 0x000fe200
0x17037824 0x00000001 0x078e0203 0x000fe200
0x0f0d7810 0x00000300 0x07ffe0ff 0x000fe400
0x0c177a10 0x00005800 0x07f1e0ff 0x000fc400
0x14057a11 0x00005d00 0x008f1405 0x000fe400
0x0d0d7a10 0x00005800 0x07f3e0ff 0x000fe400
0xff147a10 0x00005900 0x007fe4ff 0x000fe400
0x0f0c7810 0x00000400 0x07ffe0ff 0x000fe200
0xff157624 0x00005900 0x008e06ff 0x000fe200
0x16027a11 0x00005c00 0x078410ff 0x000fe200
0x14187a24 0x00005a00 0x078e02ff 0x000fe200
0x0c147a10 0x00005800 0x07f1e0ff 0x000fe200
0x150c7a24 0x00005a00 0x078e02ff 0x000fe200
0x16037a11 0x00005d00 0x010f1403 0x000fe200
0x17197a24 0x00005b00 0x078e0218 0x040fe200
0x12167381 0x00000000 0x001ee900 0x0008a200
0x17087a25 0x00005a00 0x078e00ff 0x001fc600
0x04187381 0x00000000 0x001ee900 0x0000a200
0xff157624 0x00005900 0x000e06ff 0x000fe400
0x0d177a24 0x00005b00 0x078e020c 0x040fe200
0x02027381 0x00000000 0x001ee900 0x000ea200
0x0d0c7a25 0x00005a00 0x078e00ff 0x000fe200
0x080a7a11 0x00005c00 0x078010ff 0x002fc600
0x15157a24 0x00005a00 0x078e02ff 0x000fe400
0x090b7824 0x00000001 0x078e0219 0x000fe200
0x0d097210 0x00000017 0x07ffe0ff 0x000fe200
0x140d7a24 0x00005b00 0x078e0215 0x000fe200
0x0c127a11 0x00005c00 0x078210ff 0x010fe200
0x14147a25 0x00005a00 0x078e00ff 0x000fe200
0x080b7a11 0x00005d00 0x000f140b 0x000fe400
0x0c137a11 0x00005d00 0x008f1409 0x000fe200
0x15057824 0x00000001 0x078e020d 0x001fe200
0x14047a11 0x00005c00 0x078010ff 0x000fc800
0x0a0b7381 0x00000000 0x001ee900 0x000f2200
0x14057a11 0x00005d00 0x000f1405 0x000fc600
0x12137381 0x00000000 0x001ee900 0x000f2a00
0x04057381 0x00000000 0x001ee900 0x000f2200
0x0000781c 0x00000000 0x03f0e170 0x000fe400
0x10107810 0x00000800 0x07ffe0ff 0x000fe400
0x0f0f7810 0x00000800 0x07ffe0ff 0x000fe200
0x0e117220 0x00000011 0x00400000 0x028fc800
0x11117220 0x00000016 0x00400000 0x004fc800
0x11117220 0x00000018 0x00400000 0x000fc800
0x11117220 0x0000001a 0x00400000 0x000fc800
0x11027220 0x00000002 0x00400000 0x000fc800
0x02027220 0x0000000b 0x00400000 0x010fc800
0x02027220 0x00000013 0x00400000 0x000fc800
0x020e7220 0x00000005 0x00400000 0x000fc600
0x00027941 0x00000000 0x03800000 0x000fea00
0x1000720c 0x00000006 0x00701670 0x000fd800
0x00008947 0x000002b0 0x03800000 0x000fea00
0x07077824 0x00000001 0x078e0210 0x000fe200
0x0f027810 0xfffffe00 0x07ffe0ff 0x040fe400
0x0f037810 0xffffff00 0x07ffe0ff 0x000fe400
0x07097a10 0x00005800 0x07f1e0ff 0x000fe400
0x02087a10 0x00005800 0x07f3e0ff 0x000fc600
0xff027624 0x00005900 0x000e06ff 0x000fe200
0x03057a10 0x00005800 0x07f1e0ff 0x000fe400
0xff077a10 0x00005900 0x00ffe4ff 0x000fe200
0x020a7a24 0x00005a00 0x078e02ff 0x000fe200
0x0f0f7a10 0x00005800 0x07f3e0ff 0x000fe200
0xff047624 0x00005900 0x000e06ff 0x000fe400
0x09027a25 0x00005a00 0x078e00ff 0x000fc800
0x09097a24 0x00005b00 0x078e020a 0x000fe400
0x070b7a24 0x00005a00 0x078e02ff 0x000fe400
0x040c7a24 0x00005a00 0x078e02ff 0x000fe200
0x02047a11 0x00005c00 0x078010ff 0x000fe200
0xff077624 0x00005900 0x008e06ff 0x000fe400
0x080d7a24 0x00005b00 0x078e020b 0x000fe400
0x03037824 0x00000001 0x078e0209 0x000fc400
0x08087a25 0x00005a00 0x078e00ff 0x000fc800
0x050a7a25 0x00005a00 0x078e00ff 0x000fc800
0x05117a24 0x00005b00 0x078e020c 0x000fe200
0x02057a11 0x00005d00 0x000f1403 0x000fe200
0x07107a24 0x00005a00 0x078e02ff 0x000fe200
0x08027a11 0x00005c00 0x078010ff 0x000fe200
0x0b077824 0x00000001 0x078e0211 0x000fe200
0x09037210 0x0000000d 0x07ffe0ff 0x000fe200
0x0f097a24 0x00005b00 0x078e0210 0x040fe200
0x0a0c7a11 0x00005c00 0x078210ff 0x000fe200
0x0f107a25 0x00005a00 0x078e00ff 0x000fe200
0x08037a11 0x00005d00 0x000f1403 0x000fe200
0x04057381 0x00000000 0x001ee900 0x000ea200
0x0a0d7a11 0x00005d00 0x008f1407 0x000fe200
0x11077824 0x00000001 0x078e0209 0x000fe200
0x10087a11 0x00005c00 0x078010ff 0x000fc800
0x02037381 0x00000000 0x001ee900 0x000ee200
0x10097a11 0x00005d00 0x000f1407 0x000fc600
0x0c0d7381 0x00000000 0x001ee900 0x000f2a00
0x08097381 0x00000000 0x001ee900 0x000f2200
0x0e0e7220 0x00000005 0x00400000 0x024fc800
0x0e0e7220 0x00000003 0x00400000 0x008fc800
0x0e0e7220 0x0000000d 0x00400000 0x010fc800
0x0e0e7220 0x00000009 0x00400000 0x000fc600
0x00017941 0x00000000 0x03800000 0x000fea00
0x0600780c 0x000000ff 0x03f04270 0x000fe200
0xff077224 0x000000ff 0x078e000e 0x020fd600
0x00000947 0x00000390 0x03800000 0x000fea00
0xff037819 0x0000001f 0x00011400 0x000fe200
0x000a7919 0x00000000 0x00000000 0x000e6600
0x03087211 0x00000000 0x078f28ff 0x000fc800
0x08027812 0xffffffe0 0x078ec0ff 0x000fe400
0xff087819 0x00000005 0x00011408 0x000fe400
0x02037810 0x00000020 0x07ffe0ff 0x000fe400
0xff057212 0x00000002 0x078e33ff 0x000fe400
0x0300720c 0x00000006 0x03f04270 0x000fe400
0x06057210 0x00000005 0x07ffe0ff 0x000fc800
0x05057807 0x0000001f 0x00000000 0x000fe400
0x0a00720c 0x000000ff 0x03f25270 0x042fe400
0x0a00720c 0x00000005 0x03f06270 0x000fc800
0x07027989 0x08200000 0x000e0005 0x000e6400
0x02027220 0x00000007 0x00400000 0x002fca00
0x02047208 0x00000007 0x04000000 0x000fe400
0x0a027810 0x00000002 0x07ffe0ff 0x000fc800
0x0200720c 0x00000005 0x03f04270 0x000fe400
0x04037989 0x08400000 0x000e0005 0x000e6200
0x0a027810 0x00000004 0x07ffe0ff 0x000fd200
0x04048220 0x00000003 0x00400000 0x002fe200
0x0200720c 0x00000005 0x03f04270 0x000fe400
0x0a027810 0x00000008 0x07ffe0ff 0x000fca00
0x04037989 0x08800000 0x000e0005 0x000e6a00
0x04048220 0x00000003 0x00400000 0x002fe200
0x0200720c 0x00000005 0x03f04270 0x000fe400
0x0a027810 0x00000010 0x07ffe0ff 0x000fca00
0x04037989 0x09000000 0x000e0005 0x000e6a00
0x04048220 0x00000003 0x00400000 0x002fe200
0x0200720c 0x00000005 0x03f04270 0x000fce00
0x04037989 0x0a000000 0x000e0005 0x000e6a00
0x04048220 0x00000003 0x00400000 0x002fe200
0x0000720c 0x000000ff 0x03f05270 0x000fe200
0x08039824 0x00000004 0x078e00ff 0x000fe400
0xff027224 0x000000ff 0x078e0004 0x000fd000
0x03009388 0x00000802 0x00000800 0x000fe800
0x00007b1d 0x00000000 0x00000000 0x000fea00
0x00000947 0x00000390 0x03800000 0x000fea00
0xff037984 0x00000c00 0x00001800 0x000e6200
0x0600780c 0x00000020 0x03f04270 0x040fe200
0xff007224 0x000000ff 0x078e00ff 0x000fe200
0x0600780c 0x00000040 0x03f24270 0x040fe200
0xff087984 0x00001000 0x00001c00 0x000ea200
0x0600780c 0x00000060 0x03f44270 0x000fce00
0xff047984 0x00002000 0x00001a00 0x000ee200
0x02020220 0x00000003 0x00400000 0x002fe200
0x0600780c 0x00000080 0x03f04270 0x000fc600
0x02021220 0x00000008 0x00400000 0x004fe200
0x0600780c 0x000000a0 0x03f24270 0x000fc600
0x02022220 0x00000009 0x00400000 0x000fe200
0x0600780c 0x000000c0 0x03f44270 0x000fc800
0x02020220 0x0000000a 0x00400000 0x000fe200
0x0600780c 0x000000e1 0x03f06270 0x000fc600
0x02021220 0x0000000b 0x00400000 0x000fc800
0x02022220 0x00000004 0x00400000 0x008fca00
0x00008947 0x00000270 0x03800000 0x000fea00
0x02027220 0x00000005 0x00400000 0x000fe200
0x00007947 0x00000250 0x03800000 0x000fea00
0x00037919 0x00000000 0x00000000 0x000e6800
0x07027f89 0x08201f00 0x000e0000 0x000ea200
0x0300780c 0x0000001e 0x03f04270 0x042fe400
0x0300720c 0x000000ff 0x03f25270 0x000fd400
0x02078220 0x00000007 0x00400000 0x004fe200
0x0300780c 0x0000001d 0x03f04270 0x000fce00
0x07027f89 0x08401f00 0x000e0000 0x000e6a00
0x07078220 0x00000002 0x00400000 0x002fe200
0x0300780c 0x0000001b 0x03f04270 0x000fce00
0x07027f89 0x08801f00 0x000e0000 0x000e6a00
0x07078220 0x00000002 0x00400000 0x002fe200
0x0300780c 0x00000017 0x03f04270 0x000fce00
0x07027f89 0x09001f00 0x000e0000 0x000e6a00
0x07078220 0x00000002 0x00400000 0x002fe200
0x0300780c 0x0000000f 0x03f04270 0x000fe400
0xff039819 0x0000001f 0x00011400 0x000fc800
0x03039211 0x00000000 0x078f28ff 0x000fe200
0x07027f89 0x0a001f00 0x000e0000 0x000e6600
0xff039819 0x00000005 0x00011403 0x000fc800
0x03039819 0x00000002 0x000006ff 0x000fe200
0x07078220 0x00000002 0x00400000 0x002fe200
0x0000720c 0x000000ff 0x03f05270 0x000fc600
0xff027224 0x000000ff 0x078e0007 0x000fd000
0x03009388 0x00000802 0x00000800 0x000fe800
0x00007b1d 0x00000000 0x00000000 0x000fea00
0x00000947 0x000000b0 0x03800000 0x000fea00
0xff037984 0x00000c00 0x00001800 0x000e6200
0xff007224 0x000000ff 0x078e00ff 0x000fc600
0xff047984 0x00001000 0x00001c00 0x000eb000
0xff087984 0x00002000 0x00001a00 0x000ee200
0x02037220 0x00000003 0x00400000 0x002fc800
0x03047220 0x00000004 0x00400000 0x004fc800
0x04057220 0x00000005 0x00400000 0x000fc800
0x05067220 0x00000006 0x00400000 0x000fc800
0x06067220 0x00000007 0x00400000 0x000fc800
0x06067220 0x00000008 0x00400000 0x008fc800
0x06027220 0x00000009 0x00400000 0x000fc600
0x00007941 0x00000000 0x03800000 0x000fea00
0x0000720c 0x000000ff 0x03f05270 0x000fd800
0x0000094d 0x00000000 0x03800000 0x000fea00
0x000779c3 0x00000000 0x00002500 0x000e6200
0x00067882 0x00000004 0x00000000 0x000fe400
0x00047ab9 0x00005e00 0x00000a00 0x000fe400
0x070472a5 0x00000006 0x0f8e0004 0x002fd200
0xff007986 0x00000002 0x0c10e904 0x000fe200
0x0000794d 0x00000000 0x03800000 0x000fea00
0x00007947 0xfffffff0 0x0383ffff 0x000fc000
0x00007918 0x00000000 0x00000000 0x000fc000
0x00007918 0x00000000 0x00000000 0x000fc000
0x00007918 0x00000000 0x00000000 0x000fc000
0x00007918 0x00000000 0x00000000 0x000fc000
0x00007918 0x00000000 0x00000000 0x000fc000



.text._ZN3cub17CUB_200400_750_NS28DeviceReduceSingleTileKernelINS0_18DeviceReducePolicyIfjN6thrust20THRUST_200400_750_NS10multipliesIfEEE9Policy600ENS4_20permutation_iteratorINS4_6detail15normal_iteratorINS4_10device_ptrIfEEEENS4_18transform_iteratorIN13strided_rangeISE_E14stride_functorENS4_17counting_iteratorIlNS4_11use_defaultESK_SK_EESK_SK_EEEEPfjS6_ffN4cuda3std3__410__identityEEEvT0_T1_T2_T3_T4_T6_
bar = 1	reg = 46	lmem=0	smem=44
0xff017624 0x00000a00 0x078e00ff 0x000fe400
0xff007a0c 0x00006000 0x03f05270 0x000fd800
0x00008947 0x00004140 0x03800000 0x000fea00
0x00077919 0x00000000 0x00002100 0x000e2200
0xff007624 0x00006000 0x078e00ff 0x000fe200
0x00ff7355 0x00000000 0x00100000 0x000fe200
0x00007945 0x000040a0 0x03800000 0x000fe600
0x0000780c 0x00001000 0x03f06070 0x000fd800
0x00008947 0x00002300 0x03800000 0x000fea00
0xff067819 0x0000001f 0x00011407 0x001fe200
0x00047ab9 0x00005a00 0x00000a00 0x000fe200
0x07047a10 0x00005800 0x07f1e0ff 0x000fe200
0x04087899 0x0000000a 0x0800063f 0x000fe400
0x00067882 0x0000000a 0x00000000 0x000fe200
0x06027a10 0x00005900 0x007fe4ff 0x000fe200
0x04097299 0x00000006 0x08010205 0x000fc800
0x02057a24 0x00005a00 0x078e02ff 0x000fe400
0x04027a25 0x00005a00 0x078e00ff 0x000fc800
0x04057a24 0x00005b00 0x078e0205 0x000fe200
0x02087a11 0x00005c00 0x078010ff 0x000fc600
0x03037824 0x00000001 0x078e0205 0x000fe200
0x08047c10 0x00000008 0x0ff3e0ff 0x000fc800
0x02097a11 0x00005d00 0x000f1403 0x000fe400
0x04027c10 0x00000008 0x0ff1e0ff 0x000fe400
0x09057c10 0x00000009 0x08ffe4ff 0x000fe400
0x020a7c10 0x00000008 0x0ff3e0ff 0x000fe400
0x05037c10 0x00000009 0x087fe4ff 0x000fe200
0x08137381 0x00000000 0x001ee900 0x0000a200
0x0a0c7c10 0x00000008 0x0ff1e0ff 0x000fc400
0x030b7c10 0x00000009 0x08ffe4ff 0x000fe200
0x04127381 0x00000000 0x001ee900 0x0002a200
0x0c0e7c10 0x00000008 0x0ff3e0ff 0x000fe400
0x0b0d7c10 0x00000009 0x087fe4ff 0x000fe200
0x02157381 0x00000000 0x001ee900 0x00072200
0x0e107c10 0x00000008 0x0ff1e0ff 0x000fe400
0x0d0f7c10 0x00000009 0x08ffe4ff 0x000fe200
0x0a177381 0x00000000 0x001ee900 0x000b2200
0x10087c10 0x00000008 0x0ff3e0ff 0x001fc400
0x0f117c10 0x00000009 0x087fe4ff 0x000fe200
0x0c197381 0x00000000 0x001ee900 0x00012200
0x08047c10 0x00000008 0x0ff1e0ff 0x002fe400
0x11097c10 0x00000009 0x08ffe4ff 0x000fe200
0x0e1b7381 0x00000000 0x001ee900 0x00032200
0x04027c10 0x00000008 0x0ff3e0ff 0x008fe400
0x09057c10 0x00000009 0x087fe4ff 0x000fe200
0x101d7381 0x00000000 0x001ee900 0x00072200
0x020a7c10 0x00000008 0x0ff1e0ff 0x020fc400
0x05037c10 0x00000009 0x08ffe4ff 0x000fe200
0x081f7381 0x00000000 0x001ee900 0x000b2200
0x0a0c7c10 0x00000008 0x0ff3e0ff 0x001fe400
0x030b7c10 0x00000009 0x087fe4ff 0x000fe200
0x04057381 0x00000000 0x001ee900 0x000f2200
0x0c0e7c10 0x00000008 0x0ff1e0ff 0x002fe400
0x0b0d7c10 0x00000009 0x08ffe4ff 0x000fe200
0x02027381 0x00000000 0x001ee900 0x00012200
0x0e107c10 0x00000008 0x0ff3e0ff 0x008fc400
0x0d0f7c10 0x00000009 0x087fe4ff 0x000fe200
0x0a0b7381 0x00000000 0x001ee900 0x000ee200
0x10087c10 0x00000008 0x0ff1e0ff 0x020fe400
0x0f117c10 0x00000009 0x08ffe4ff 0x000fe200
0x0c0d7381 0x00000000 0x001ee900 0x000f6600
0x11097c10 0x00000009 0x087fe4ff 0x000fe200
0x0e0f7381 0x00000000 0x001ee900 0x000f6800
0x10117381 0x00000000 0x001ee900 0x000f6800
0x08217381 0x00000000 0x001ee900 0x000f6800
0x08237981 0x00000008 0x0c1ee900 0x000f6200
0x00037810 0xfffff000 0x07ffe0ff 0x001fe200
0xff007424 0x00001000 0x078e00ff 0x000fc600
0x0300780c 0x00001000 0x03f06070 0x000fe200
0x12127220 0x00000013 0x00400000 0x004fc800
0x12127220 0x00000015 0x00400000 0x010fc800
0x12127220 0x00000017 0x00400000 0x000fc800
0x12127220 0x00000019 0x00400000 0x000fc800
0x12127220 0x0000001b 0x00400000 0x000fc800
0x12127220 0x0000001d 0x00400000 0x000fc800
0x12127220 0x0000001f 0x00400000 0x000fc800
0x12057220 0x00000005 0x00400000 0x000fc800
0x05027220 0x00000002 0x00400000 0x000fc800
0x02027220 0x0000000b 0x00400000 0x008fc800
0x02027220 0x0000000d 0x00400000 0x020fc800
0x02027220 0x0000000f 0x00400000 0x000fc800
0x02027220 0x00000011 0x00400000 0x000fc800
0x02027220 0x00000021 0x00400000 0x000fc800
0x02027220 0x00000023 0x00400000 0x000fe200
0x00008947 0x000004e0 0x03800000 0x000fea00
0x00007802 0x00001000 0x00000f00 0x000fe200
0xff047224 0x000000ff 0x078e0003 0x000fc600
0x07057a10 0x00005800 0x0791e000 0x000fc800
0x06087a10 0x00005900 0x007e24ff 0x000fca00
0x080a7a24 0x00005a00 0x078e02ff 0x000fe400
0x05087a25 0x00005a00 0x078e00ff 0x000fc800
0x05057a24 0x00005b00 0x078e020a 0x000fe200
0x080a7a11 0x00005c00 0x078010ff 0x000fc600
0x09057824 0x00000001 0x078e0205 0x000fe200
0x0a0c7c10 0x00000008 0x0ff3e0ff 0x000fc800
0x080b7a11 0x00005d00 0x000f1405 0x000fe400
0x0c087c10 0x00000008 0x0ff1e0ff 0x000fe400
0x0b0d7c10 0x00000009 0x08ffe4ff 0x000fe400
0x080e7c10 0x00000008 0x0ff3e0ff 0x000fe400
0x0a057381 0x00000000 0x001ee900 0x0000a200
0x0d097c10 0x00000009 0x087fe4ff 0x000fe400
0x0e107c10 0x00000008 0x0ff1e0ff 0x000fe200
0x0c167381 0x00000000 0x001ee900 0x0002e200
0x090f7c10 0x00000009 0x08ffe4ff 0x000fc400
0x10127c10 0x00000008 0x0ff3e0ff 0x000fe400
0x08187381 0x00000000 0x001ee900 0x00096200
0x0f117c10 0x00000009 0x087fe4ff 0x000fe400
0x12147c10 0x00000008 0x0ff1e0ff 0x000fe200
0x0e1a7381 0x00000000 0x001ee900 0x00096200
0x11137c10 0x00000009 0x08ffe4ff 0x000fe400
0x140a7c10 0x00000008 0x0ff3e0ff 0x001fe400
0x101c7381 0x00000000 0x001ee900 0x00016200
0x13157c10 0x00000009 0x087fe4ff 0x000fc400
0x0a0c7c10 0x00000008 0x0ff1e0ff 0x002fe200
0x121e7381 0x00000000 0x001ee900 0x00036200
0x150b7c10 0x00000009 0x08ffe4ff 0x000fe400
0x0c087c10 0x00000008 0x0ff3e0ff 0x010fe400
0x14207381 0x00000000 0x001ee900 0x00096200
0x0b0d7c10 0x00000009 0x087fe4ff 0x000fe400
0x080e7c10 0x00000008 0x0ff1e0ff 0x000fe200
0x0a227381 0x00000000 0x001ee900 0x00096200
0x0d097c10 0x00000009 0x08ffe4ff 0x000fc400
0x0e107c10 0x00000008 0x0ff3e0ff 0x001fe400
0x0c0c7381 0x00000000 0x001ee900 0x000f6200
0x090f7c10 0x00000009 0x087fe4ff 0x000fe400
0x10127c10 0x00000008 0x0ff1e0ff 0x002fe200
0x08087381 0x00000000 0x001ee900 0x000f6200
0x0f117c10 0x00000009 0x08ffe4ff 0x000fe400
0x12147c10 0x00000008 0x0ff3e0ff 0x010fe400
0x0e0e7381 0x00000000 0x001ee900 0x000f2200
0x11137c10 0x00000009 0x087fe4ff 0x000fc400
0x140a7c10 0x00000008 0x0ff1e0ff 0x000fe200
0x10107381 0x00000000 0x001ee900 0x000f2200
0x13157c10 0x00000009 0x08ffe4ff 0x000fc800
0x12127381 0x00000000 0x001ee900 0x000f2200
0x150b7c10 0x00000009 0x087fe4ff 0x000fc600
0x14147381 0x00000000 0x001ee900 0x000f2200
0x00047c82 0x00000008 0x08000000 0x000fe400
0x00057c82 0x00000009 0x08000000 0x000fe400
0x0a247381 0x00000000 0x001ee900 0x000f2800
0x0a267981 0x00000004 0x0c1ee900 0x000f2200
0x0400780c 0x00001000 0x03f06070 0x000fe200
0x05057220 0x00000002 0x00400000 0x004fc800
0x05057220 0x00000016 0x00400000 0x008fc800
0x05057220 0x00000018 0x00400000 0x020fc800
0x05057220 0x0000001a 0x00400000 0x000fc800
0x05057220 0x0000001c 0x00400000 0x000fc800
0x05057220 0x0000001e 0x00400000 0x000fc800
0x05057220 0x00000020 0x00400000 0x000fc800
0x05057220 0x00000022 0x00400000 0x000fc800
0x05057220 0x0000000c 0x00400000 0x000fc800
0x05057220 0x00000008 0x00400000 0x000fc800
0x05057220 0x0000000e 0x00400000 0x010fc800
0x05057220 0x00000010 0x00400000 0x000fc800
0x05057220 0x00000012 0x00400000 0x000fc800
0x05057220 0x00000014 0x00400000 0x000fc800
0x05057220 0x00000024 0x00400000 0x000fc800
0x05027220 0x00000026 0x00400000 0x000fe200
0x00008947 0x00001720 0x03800000 0x000fea00
0x00007810 0x00001000 0x07ffe0ff 0x000fe400
0x04047810 0xfffff000 0x07ffe0ff 0x000fe400
0x0000720c 0x00000003 0x03f04070 0x000fd800
0x00008947 0xfffffb40 0x0383ffff 0x000fea00
0x00007a0c 0x00006000 0x03f06070 0x000fd800
0x00000947 0x000016c0 0x03800000 0x000fea00
0x00097919 0x00000000 0x00002100 0x000e2200
0x00037a10 0x00006000 0x07ffe1ff 0x000fe200
0x01ff7355 0x00000000 0x00100000 0x000fe200
0x00017945 0x00001680 0x03800000 0x000fe400
0x0900720c 0x00000003 0x03f06270 0x001fd800
0x00000947 0x00001650 0x03800000 0x000fea00
0xff057212 0x00000009 0x078e33ff 0x000fe200
0x02ff7355 0x00000000 0x00100000 0x000fe200
0x00027945 0x00000170 0x03800000 0x000fe400
0x00057a10 0x00006000 0x07ffe105 0x000fc800
0x05047811 0x00000001 0x078fc0ff 0x040fe400
0x0500780c 0x00000300 0x03f26070 0x000fe400
0x04047812 0x00000003 0x0780c0ff 0x000fd800
0x00008947 0x00000110 0x03800000 0x000fea00
0xff087224 0x000000ff 0x078e0004 0x000fe400
0x090a7824 0x00000001 0x078e0200 0x000fca00
0x0a067a10 0x00005800 0x07f1e0ff 0x000fc800
0xff047a10 0x00005900 0x007fe4ff 0x000fca00
0x04077a24 0x00005a00 0x078e02ff 0x000fe400
0x06047a25 0x00005a00 0x078e00ff 0x000fc800
0x06077a24 0x00005b00 0x078e0207 0x000fe200
0x04067a11 0x00005c00 0x078010ff 0x000fc600
0x05057824 0x00000001 0x078e0207 0x000fca00
0x04077a11 0x00005d00 0x000f1405 0x000fd000
0x06077381 0x00000000 0x001ee900 0x000ea200
0x08087810 0xffffffff 0x07ffe0ff 0x000fe400
0x09097810 0x00000100 0x07ffe0ff 0x000fe400
0x0800720c 0x000000ff 0x03f05270 0x000fe400
0x0a0a7810 0x00000100 0x07ffe0ff 0x000fe200
0x07027220 0x00000002 0x00400000 0x004fd200
0x00000947 0xffffff10 0x0383ffff 0x000fea00
0x00027941 0x00000000 0x03800000 0x000fea00
0x00009947 0x000014a0 0x03800000 0x000fea00
0x03047824 0x00000001 0x078e0a09 0x000fe200
0x02ff7355 0x00000000 0x00100000 0x000fe200
0x00027945 0x00000ba0 0x03800000 0x000fe200
0x0000781c 0x00000000 0x03f0f070 0x000fe400
0x0400780c 0x00000c00 0x03f24270 0x000fe400
0x09087810 0x00000300 0x07ffe000 0x000fd400
0x00009947 0x00000b50 0x03800000 0x000fea00
0x0000781c 0x00000000 0x03f0e170 0x000fe400
0x031a7810 0xfffff400 0x07ffe0ff 0x000fe400
0x09047824 0x00000001 0x078e0200 0x000fe200
0x08057810 0xfffffe00 0x07ffe0ff 0x040fe400
0x080a7a10 0x00005800 0x07f7e0ff 0x000fe400
0x04077a10 0x00005800 0x07f3e0ff 0x000fe400
0x05067a10 0x00005800 0x07f5e0ff 0x000fe200
0xff047624 0x00005900 0x018e06ff 0x000fe200
0xff0b7a10 0x00005900 0x00ffe4ff 0x000fc600
0xff057624 0x00005900 0x010e06ff 0x000fe400
0x040d7a24 0x00005a00 0x078e02ff 0x000fe400
0x0b0c7a24 0x00005a00 0x078e02ff 0x000fe400
0x050f7a24 0x00005a00 0x078e02ff 0x000fe400
0x0a117a24 0x00005b00 0x078e020d 0x000fe400
0x07047a25 0x00005a00 0x078e00ff 0x000fc800
0x070d7a24 0x00005b00 0x078e020c 0x000fe200
0x04207a11 0x00005c00 0x078210ff 0x000fe200
0x060f7a24 0x00005b00 0x078e020f 0x040fe400
0x06067a25 0x00005a00 0x078e00ff 0x000fc800
0x0a0a7a25 0x00005a00 0x078e00ff 0x000fe200
0x061c7a11 0x00005c00 0x078410ff 0x000fc600
0x050d7824 0x00000001 0x078e020d 0x000fe200
0x0a1e7a11 0x00005c00 0x078610ff 0x000fe200
0x07057824 0x00000001 0x078e020f 0x000fe200
0x08077810 0x00000300 0x07ffe0ff 0x000fe200
0x0b0b7824 0x00000001 0x078e0211 0x000fe200
0x04217a11 0x00005d00 0x008f140d 0x000fe400
0x08047810 0xffffff00 0x07ffe0ff 0x000fe400
0x061d7a11 0x00005d00 0x010f1405 0x000fe400
0x0a1f7a11 0x00005d00 0x018f140b 0x000fc400
0x00057810 0x00000400 0x07ffe009 0x000fe200
0x20217381 0x00000000 0x001ee900 0x0000a200
0x040a7a10 0x00005800 0x07f3e0ff 0x000fe400
0x08067810 0x00000200 0x07ffe0ff 0x040fe200
0x1c1c7381 0x00000000 0x001ee900 0x0002e200
0x050c7a10 0x00005800 0x07f5e0ff 0x000fe400
0xff0d7a10 0x00005900 0x00ffe4ff 0x000fe200
0x1e1e7381 0x00000000 0x001ee900 0x000f2200
0x08047810 0x00000400 0x07ffe0ff 0x000fe200
0xff057624 0x00005900 0x010e06ff 0x000fe200
0x060b7a10 0x00005800 0x07f3e0ff 0x000fe200
0x0d0d7a24 0x00005a00 0x078e02ff 0x000fe200
0x070e7a10 0x00005800 0x07f7e0ff 0x000fe200
0x050f7a24 0x00005a00 0x078e02ff 0x000fe200
0x04147a10 0x00005800 0x07f5e0ff 0x000fe200
0xff077624 0x00005900 0x008e06ff 0x000fc400
0xff067624 0x00005900 0x018e06ff 0x000fe400
0x0a117a24 0x00005b00 0x078e020d 0x040fe400
0x0a047a25 0x00005a00 0x078e00ff 0x000fc800
0x07107a24 0x00005a00 0x078e02ff 0x000fe400
0xff0a7624 0x00005900 0x010e06ff 0x000fe400
0x0c137a24 0x00005b00 0x078e020f 0x040fe400
0x0c0c7a25 0x00005a00 0x078e00ff 0x000fc800
0x060f7a24 0x00005a00 0x078e02ff 0x000fe400
0x0b177a24 0x00005b00 0x078e0210 0x040fe200
0x04107a11 0x00005c00 0x078210ff 0x000fe200
0x0b067a25 0x00005a00 0x078e00ff 0x000fe200
0x050b7210 0x00000011 0x07ffe0ff 0x000fc600
0x0a157a24 0x00005a00 0x078e02ff 0x000fe200
0x0c0a7a11 0x00005c00 0x078410ff 0x000fe200
0x0d057824 0x00000001 0x078e0213 0x000fe200
0x04117a11 0x00005d00 0x008f140b 0x000fe200
0x0e197a24 0x00005b00 0x078e020f 0x000fe200
0x06127a11 0x00005c00 0x078210ff 0x000fe200
0x141b7a24 0x00005b00 0x078e0215 0x000fe200
0x0c0b7a11 0x00005d00 0x010f1405 0x000fe200
0x0e0e7a25 0x00005a00 0x078e00ff 0x000fc600
0x10107381 0x00000000 0x001ee900 0x000b2200
0x14147a25 0x00005a00 0x078e00ff 0x000fe200
0x0e0c7a11 0x00005c00 0x078410ff 0x000fe400
0x0a0a7381 0x00000000 0x001ee900 0x00012200
0x07137824 0x00000001 0x078e0217 0x000fe200
0x00077810 0x00000800 0x07ffe009 0x000fe200
0x0f0d7824 0x00000001 0x078e0219 0x000fe200
0x14047a11 0x00005c00 0x078610ff 0x000fe200
0x15057824 0x00000001 0x078e021b 0x000fe200
0x06137a11 0x00005d00 0x008f1413 0x000fc400
0x07157a10 0x00005800 0x07f3e0ff 0x000fe400
0x08077810 0x00000600 0x07ffe0ff 0x000fe400
0x0e0d7a11 0x00005d00 0x010f140d 0x000fe400
0x14057a11 0x00005d00 0x018f1405 0x000fe200
0x12127381 0x00000000 0x001ee900 0x00012200
0x08067810 0x00000800 0x07ffe0ff 0x040fe400
0x080e7810 0x00000700 0x07ffe0ff 0x000fc400
0xff147a10 0x00005900 0x00ffe4ff 0x000fe200
0x0c0c7381 0x00000000 0x001ee900 0x00012200
0x07227a10 0x00005800 0x07f3e0ff 0x000fe400
0x000f7810 0x00000c00 0x07ffe009 0x000fe400
0x06267a10 0x00005800 0x07f7e0ff 0x000fe200
0xff067624 0x00005900 0x008e06ff 0x000fe200
0x0e247a10 0x00005800 0x07f5e0ff 0x000fe200
0x140e7a24 0x00005a00 0x078e02ff 0x000fe200
0x0f287a10 0x00005800 0x07f3e0ff 0x000fe200
0xff077624 0x00005900 0x018e06ff 0x000fc400
0x15177a24 0x00005b00 0x078e020e 0x040fe400
0x150e7a25 0x00005a00 0x078e00ff 0x000fc800
0x06157a24 0x00005a00 0x078e02ff 0x000fe400
0xff067624 0x00005900 0x008e06ff 0x000fe400
0x07077a24 0x00005a00 0x078e02ff 0x000fe400
0xff147624 0x00005900 0x010e06ff 0x000fe400
0x22157a24 0x00005b00 0x078e0215 0x000fe400
0x06297a24 0x00005a00 0x078e02ff 0x000fe200
0x0e067a11 0x00005c00 0x078210ff 0x000fe200
0x261b7a24 0x00005b00 0x078e0207 0x000fe200
0x0f077210 0x00000017 0x07ffe0ff 0x000fe200
0x22227a25 0x00005a00 0x078e00ff 0x000fc600
0x0e077a11 0x00005d00 0x008f1407 0x000fe200
0x14197a24 0x00005a00 0x078e02ff 0x000fe200
0x22147a11 0x00005c00 0x078210ff 0x000fe200
0x23157824 0x00000001 0x078e0215 0x000fe400
0x24197a24 0x00005b00 0x078e0219 0x040fe400
0x24247a25 0x00005a00 0x078e00ff 0x000fe200
0x22157a11 0x00005d00 0x008f1415 0x000fe200
0x06067381 0x00000000 0x001ee900 0x00012200
0x08227810 0x00000a00 0x07ffe0ff 0x000fe200
0x25177824 0x00000001 0x078e0219 0x000fe200
0x24167a11 0x00005c00 0x078410ff 0x000fe200
0x26267a25 0x00005a00 0x078e00ff 0x000fe200
0x08237810 0x00000b00 0x07ffe0ff 0x000fc400
0x22227a10 0x00005800 0x07f3e0ff 0x000fe200
0x27197824 0x00000001 0x078e021b 0x000fe200
0x24177a11 0x00005d00 0x010f1417 0x000fe200
0x041b7381 0x00000000 0x001ee900 0x000b2200
0x23247a10 0x00005800 0x07f5e0ff 0x000fe200
0x280f7a24 0x00005b00 0x078e0229 0x040fe200
0xff1d7a10 0x00005900 0x00ffe4ff 0x002fe200
0x28287a25 0x00005a00 0x078e00ff 0x000fe200
0x080b7810 0x00000c00 0x07ffe0ff 0x001fe200
0x14117381 0x00000000 0x001ee900 0x02016200
0x26187a11 0x00005c00 0x078610ff 0x000fe200
0xff137624 0x00005900 0x010e06ff 0x000fe200
0x0b0b7a10 0x00005800 0x07f3e0ff 0x000fe200
0x1d1d7a24 0x00005a00 0x078e02ff 0x000fe200
0x280e7a11 0x00005c00 0x078810ff 0x000fe200
0x13137a24 0x00005a00 0x078e02ff 0x000fe200
0x26197a11 0x00005d00 0x018f1419 0x000fe200
0x221d7a24 0x00005b00 0x078e021d 0x000fe200
0x16167381 0x00000000 0x001ee900 0x000f6200
0xff047624 0x00005900 0x008e06ff 0x000fc400
0x290f7824 0x00000001 0x078e020f 0x000fe400
0x22227a25 0x00005a00 0x078e00ff 0x000fe200
0x18207381 0x00000000 0x001ee900 0x00036400
0x280f7a11 0x00005d00 0x020f140f 0x000fe200
0x24057a24 0x00005b00 0x078e0213 0x000fe400
0x04267a24 0x00005a00 0x078e02ff 0x000fe200
0x22147a11 0x00005c00 0x078210ff 0x001fe200
0x24247a25 0x00005a00 0x078e00ff 0x000fc600
0x0e0e7381 0x00000000 0x001ee900 0x000f6200
0x23077824 0x00000001 0x078e021d 0x000fe400
0x0b0d7a24 0x00005b00 0x078e0226 0x000fe200
0x24047a11 0x00005c00 0x078410ff 0x000fe200
0x25057824 0x00000001 0x078e0205 0x000fe200
0x22157a11 0x00005d00 0x008f1407 0x000fe200
0x0b267a25 0x00005a00 0x078e00ff 0x000fc600
0x24057a11 0x00005d00 0x010f1405 0x000fe400
0x26187a11 0x00005c00 0x078210ff 0x042fe400
0x27077210 0x0000000d 0x07ffe0ff 0x000fe200
0x14157381 0x00000000 0x001ee900 0x000f6600
0x26197a11 0x00005d00 0x008f1407 0x000fe200
0x04057381 0x00000000 0x001ee900 0x000f6e00
0x18187381 0x00000000 0x001ee900 0x000f6200
0x09097810 0x00001000 0x07ffe0ff 0x000fc800
0x0900720c 0x0000001a 0x03f26270 0x000fe400
0x08087810 0x00001000 0x07ffe0ff 0x000fe200
0x21217220 0x00000002 0x00400000 0x004fc800
0x21217220 0x0000001c 0x00400000 0x008fc800
0x21217220 0x00000010 0x00400000 0x010fc800
0x21217220 0x0000001e 0x00400000 0x000fc800
0x21217220 0x0000000a 0x00400000 0x000fc800
0x21217220 0x00000012 0x00400000 0x000fc800
0x210c7220 0x0000000c 0x00400000 0x000fc800
0x0c1b7220 0x0000001b 0x00400000 0x000fc800
0x1b067220 0x00000006 0x00400000 0x000fc800
0x06117220 0x00000011 0x00400000 0x020fc800
0x11117220 0x00000016 0x00400000 0x000fc800
0x11117220 0x00000020 0x00400000 0x000fc800
0x110e7220 0x0000000e 0x00400000 0x000fc800
0x0e0e7220 0x00000015 0x00400000 0x000fc800
0x0e057220 0x00000005 0x00400000 0x000fc800
0x05027220 0x00000018 0x00400000 0x000fe200
0x00009947 0xfffff4d0 0x0383ffff 0x000fea00
0x00027941 0x00000000 0x03800000 0x000fea00
0x03047824 0x00000001 0x078e0a09 0x000fe200
0x02ff7355 0x00000000 0x00100000 0x000fe200
0x00027945 0x000005d0 0x03800000 0x000fe600
0x0400780c 0x00000400 0x03f24270 0x000fd800
0x00009947 0x000005a0 0x03800000 0x000fea00
0x08057a10 0x00005800 0x07f1e0ff 0x040fe200
0x09047824 0x00000001 0x078e0200 0x000fe200
0x08077810 0xffffff00 0x07ffe0ff 0x000fc600
0xff067624 0x00005900 0x000e06ff 0x000fe200
0x040f7a10 0x00005800 0x07f1e0ff 0x000fc600
0x060a7a24 0x00005a00 0x078e02ff 0x000fe200
0x08067810 0xfffffe00 0x07ffe0ff 0x000fe200
0xff0b7624 0x00005900 0x000e06ff 0x000fe200
0x07127a10 0x00005800 0x07f1e0ff 0x000fe200
0x050d7a24 0x00005b00 0x078e020a 0x040fe200
0x060e7a10 0x00005800 0x07f3e0ff 0x000fe200
0x05047a25 0x00005a00 0x078e00ff 0x000fe200
0x000a7810 0x00000400 0x07ffe009 0x000fc600
0xff0c7624 0x00005900 0x000e06ff 0x000fe200
0x04067a11 0x00005c00 0x078410ff 0x000fe400
0x05057210 0x0000000d 0x07ffe0ff 0x000fe200
0xff0d7624 0x00005900 0x008e06ff 0x000fe200
0x0a0a7a10 0x00005800 0x07f7e0ff 0x000fe200
0x0c137a24 0x00005a00 0x078e02ff 0x000fe200
0x04077a11 0x00005d00 0x010f1405 0x000fe200
0x0b047a24 0x00005a00 0x078e02ff 0x000fe400
0x0d117a24 0x00005a00 0x078e02ff 0x000fc400
0x0f0d7a24 0x00005b00 0x078e0204 0x040fe400
0x0f047a25 0x00005a00 0x078e00ff 0x000fe400
0x06167381 0x00000000 0x001ee900 0x0000a600
0x0e117a24 0x00005b00 0x078e0211 0x000fe200
0x040c7a11 0x00005c00 0x078010ff 0x000fe200
0x05057824 0x00000001 0x078e020d 0x000fe400
0xff0b7624 0x00005900 0x018e06ff 0x000fc400
0x0e0e7a25 0x00005a00 0x078e00ff 0x000fe200
0x040d7a11 0x00005d00 0x000f1405 0x000fc600
0x0b157a24 0x00005a00 0x078e02ff 0x000fe200
0x0e107a11 0x00005c00 0x078010ff 0x000fe200
0x120b7a24 0x00005b00 0x078e0213 0x040fe200
0x0f0f7210 0x00000011 0x07ffe0ff 0x000fe200
0x12127a25 0x00005a00 0x078e00ff 0x000fc600
0x0e117a11 0x00005d00 0x000f140f 0x000fe200
0x0a177a24 0x00005b00 0x078e0215 0x000fe200
0x080e7810 0x00000200 0x07ffe0ff 0x000fe200
0x0a147a25 0x00005a00 0x078e00ff 0x000fe200
0x120a7a11 0x00005c00 0x078210ff 0x000fe400
0x080f7810 0x00000300 0x07ffe0ff 0x000fe200
0x130b7824 0x00000001 0x078e020b 0x000fe200
0x14047a11 0x00005c00 0x078410ff 0x000fe200
0x15057824 0x00000001 0x078e0217 0x000fe200
0x0e177a10 0x00005800 0x07f1e0ff 0x000fe200
0x0c157381 0x00000000 0x001ee900 0x0002e200
0x120b7a11 0x00005d00 0x008f140b 0x000fc400
0x0f0f7a10 0x00005800 0x07f3e0ff 0x000fe200
0xff127624 0x00005900 0x000e06ff 0x000fe200
0x080e7810 0x00000400 0x07ffe0ff 0x000fe400
0x14057a11 0x00005d00 0x010f1405 0x000fe200
0xff137624 0x00005900 0x008e06ff 0x000fe200
0x10147381 0x00000000 0x001ee900 0x00096200
0x12187a24 0x00005a00 0x078e02ff 0x000fe200
0x0e127a10 0x00005800 0x07f1e0ff 0x000fe200
0x130e7a24 0x00005a00 0x078e02ff 0x000fe200
0x0a0b7381 0x00000000 0x001ee900 0x000ea400
0xff137a10 0x00005900 0x007fe4ff 0x000fe200
0x17197a24 0x00005b00 0x078e0218 0x040fe200
0x04047381 0x00000000 0x001ee900 0x000ea200
0x17067a25 0x00005a00 0x078e00ff 0x001fc800
0x0f177a24 0x00005b00 0x078e020e 0x040fe400
0x0f0e7a25 0x00005a00 0x078e00ff 0x000fe200
0x060c7a11 0x00005c00 0x078010ff 0x002fc600
0x13137a24 0x00005a00 0x078e02ff 0x000fe400
0x070d7824 0x00000001 0x078e0219 0x000fe200
0x0e107a11 0x00005c00 0x078210ff 0x010fe200
0x0f077824 0x00000001 0x078e0217 0x000fe400
0x120f7a24 0x00005b00 0x078e0213 0x000fe200
0x060d7a11 0x00005d00 0x000f140d 0x000fe200
0x12127a25 0x00005a00 0x078e00ff 0x000fe200
0x0e117a11 0x00005d00 0x008f1407 0x000fc600
0x13077824 0x00000001 0x078e020f 0x000fe200
0x12067a11 0x00005c00 0x078010ff 0x040fe400
0x0c0d7381 0x00000000 0x001ee900 0x000f2400
0x12077a11 0x00005d00 0x000f1407 0x000fe400
0x10117381 0x00000000 0x001ee900 0x000f2c00
0x06077381 0x00000000 0x001ee900 0x000f2200
0x0000781c 0x00000000 0x03f0e170 0x000fc400
0x09097810 0x00000800 0x07ffe0ff 0x000fe400
0x08087810 0x00000800 0x07ffe0ff 0x000fe200
0x02157220 0x00000015 0x00400000 0x008fc800
0x15147220 0x00000014 0x00400000 0x020fc800
0x140b7220 0x0000000b 0x00400000 0x004fc800
0x0b0b7220 0x00000016 0x00400000 0x000fc800
0x0b047220 0x00000004 0x00400000 0x000fc800
0x04047220 0x0000000d 0x00400000 0x010fc800
0x04047220 0x00000011 0x00400000 0x000fc800
0x04027220 0x00000007 0x00400000 0x000fc600
0x00027941 0x00000000 0x03800000 0x000fea00
0x0900720c 0x00000003 0x00701670 0x000fd800
0x00008947 0x000002b0 0x03800000 0x000fea00
0x09007824 0x00000001 0x078e0200 0x000fe200
0x08037810 0xfffffe00 0x07ffe0ff 0x000fc800
0x00077a10 0x00005800 0x07f1e0ff 0x000fe400
0x08007810 0xffffff00 0x07ffe0ff 0x000fe400
0x03097a10 0x00005800 0x07f3e0ff 0x000fe400
0xff047a10 0x00005900 0x007fe4ff 0x000fe400
0x00037a10 0x00005800 0x07f1e0ff 0x000fe200
0xff007624 0x00005900 0x008e06ff 0x000fe200
0x080e7a10 0x00005800 0x07f3e0ff 0x000fe200
0x040a7a24 0x00005a00 0x078e02ff 0x000fc400
0xff067624 0x00005900 0x000e06ff 0x000fe400
0x07047a25 0x00005a00 0x078e00ff 0x000fc800
0x07077a24 0x00005b00 0x078e020a 0x000fe400
0x00087a24 0x00005a00 0x078e02ff 0x000fe400
0x060c7a24 0x00005a00 0x078e02ff 0x000fe200
0x04067a11 0x00005c00 0x078010ff 0x000fe200
0xff007624 0x00005900 0x008e06ff 0x000fe400
0x090d7a24 0x00005b00 0x078e0208 0x000fe400
0x05057824 0x00000001 0x078e0207 0x000fc400
0x09087a25 0x00005a00 0x078e00ff 0x000fc600
0x04077a11 0x00005d00 0x000f1405 0x000fe200
0x030a7a25 0x00005a00 0x078e00ff 0x000fe200
0x08047a11 0x00005c00 0x078010ff 0x000fe400
0x09057210 0x0000000d 0x07ffe0ff 0x000fe200
0x03037a24 0x00005b00 0x078e020c 0x000fe200
0x0a0c7a11 0x00005c00 0x078210ff 0x000fe200
0x000f7a24 0x00005a00 0x078e02ff 0x000fe200
0x08057a11 0x00005d00 0x000f1405 0x000fe200
0x0b037824 0x00000001 0x078e0203 0x000fe200
0x06077381 0x00000000 0x001ee900 0x000ea200
0x0e097a24 0x00005b00 0x078e020f 0x000fc400
0x0e0e7a25 0x00005a00 0x078e00ff 0x000fe200
0x0a0d7a11 0x00005d00 0x008f1403 0x000fe400
0x04057381 0x00000000 0x001ee900 0x000ee200
0x0f037824 0x00000001 0x078e0209 0x000fe200
0x0e087a11 0x00005c00 0x078010ff 0x000fc800
0x0e097a11 0x00005d00 0x000f1403 0x000fe200
0x0c0d7381 0x00000000 0x001ee900 0x000f2e00
0x08097381 0x00000000 0x001ee900 0x000f6200
0x02027220 0x00000007 0x00400000 0x004fc800
0x02027220 0x00000005 0x00400000 0x008fc800
0x02027220 0x0000000d 0x00400000 0x010fc800
0x02027220 0x00000009 0x00400000 0x020fc600
0x00017941 0x00000000 0x03800000 0x000fea00
0x00037919 0x00000000 0x00000000 0x000e2200
0xff057224 0x000000ff 0x078e0002 0x000fc600
0x00077919 0x00000000 0x00002100 0x000e6a00
0x05007f89 0x08201f00 0x000e0000 0x000ea200
0x0300780c 0x0000001e 0x03f04270 0x041fe400
0x0300720c 0x000000ff 0x03f25270 0x000fd400
0x00058220 0x00000005 0x00400000 0x004fe200
0x0300780c 0x0000001d 0x03f04270 0x000fe400
0xff029819 0x0000001f 0x00011407 0x002fc800
0x02029211 0x00000007 0x078f28ff 0x000fe200
0x05007f89 0x08401f00 0x000e0000 0x000e2600
0xff029819 0x00000005 0x00011402 0x000fe400
0x05058220 0x00000000 0x00400000 0x001fe200
0x0300780c 0x0000001b 0x03f04270 0x000fce00
0x05007f89 0x08801f00 0x000e0000 0x000e2a00
0x05058220 0x00000000 0x00400000 0x001fe200
0x0300780c 0x00000017 0x03f04270 0x000fce00
0x05007f89 0x09001f00 0x000e0000 0x000e2a00
0x05058220 0x00000000 0x00400000 0x001fe200
0x0300780c 0x0000000f 0x03f04270 0x000fe200
0x02039824 0x00000004 0x078e00ff 0x000fcc00
0x05007f89 0x0a001f00 0x000e0000 0x000e2a00
0x05058220 0x00000000 0x00400000 0x001fe200
0x0700720c 0x000000ff 0x03f05270 0x000fc800
0x00027202 0x00000005 0x00000f00 0x000fd000
0x03009388 0x00000802 0x00000800 0x000fe800
0x00007b1d 0x00000000 0x00000000 0x000fea00
0x00000947 0x00001e30 0x03800000 0x000fea00
0xff037984 0x00000c00 0x00001800 0x000e2800
0xff047984 0x00001000 0x00001c00 0x000e7000
0xff087984 0x00002000 0x00001a00 0x000ea200
0x02037220 0x00000003 0x00400000 0x001fc800
0x03047220 0x00000004 0x00400000 0x002fc800
0x04057220 0x00000005 0x00400000 0x000fc800
0x05067220 0x00000006 0x00400000 0x000fc800
0x06067220 0x00000007 0x00400000 0x000fe400
0xff077224 0x000000ff 0x078e00ff 0x000fe400
0x06067220 0x00000008 0x00400000 0x004fc800
0x06027220 0x00000009 0x00400000 0x000fe200
0x00007947 0x00001d70 0x03800000 0x000fea00
0x07007a0c 0x00006000 0x03f06270 0x001fe200
0x01ff7355 0x00000000 0x00100000 0x000fe200
0x00017945 0x000000e0 0x03800000 0x000fe200
0xff067224 0x000000ff 0x078e00ff 0x000fe400
0xff127224 0x000000ff 0x078e0007 0x000fce00
0x00000947 0x000000a0 0x03800000 0x000fea00
0x07037a10 0x00005800 0x07f1e0ff 0x000fca00
0xff027624 0x00005900 0x000e06ff 0x000fe400
0x03047a25 0x00005a00 0x078e00ff 0x000fc800
0x02027a24 0x00005a00 0x078e02ff 0x000fc800
0x03037a24 0x00005b00 0x078e0202 0x000fe200
0x04027a11 0x00005c00 0x078010ff 0x000fc800
0x05037210 0x00000003 0x07ffe0ff 0x000fc800
0x04037a11 0x00005d00 0x000f1403 0x000fd000
0x02067381 0x00000000 0x001ee900 0x00016200
0x07127810 0x00000100 0x07ffe0ff 0x000fc600
0x00017941 0x00000000 0x03800000 0x000fea00
0x12007a0c 0x00006000 0x03f06270 0x000fe200
0x01ff7355 0x00000000 0x00100000 0x000fe200
0x00017945 0x00001620 0x03800000 0x000ff400
0x00000947 0x00001600 0x03800000 0x000fea00
0xff027212 0x00000012 0x078e33ff 0x001fe200
0x02ff7355 0x00000000 0x00100000 0x000fe200
0x00027945 0x00000150 0x03800000 0x000fe400
0x02037a10 0x00006000 0x07ffe0ff 0x000fc800
0x03027811 0x00000001 0x078fc0ff 0x040fe400
0x0300780c 0x00000300 0x03f26070 0x000fe400
0x02027812 0x00000003 0x0780c0ff 0x000fd800
0x00008947 0x000000f0 0x03800000 0x000fea00
0xff087224 0x000000ff 0x078e0002 0x000fe400
0x12047a10 0x00005800 0x07f1e0ff 0x000fca00
0xff027624 0x00005900 0x000e06ff 0x000fc800
0x02057a24 0x00005a00 0x078e02ff 0x000fe400
0x04027a25 0x00005a00 0x078e00ff 0x000fc800
0x04057a24 0x00005b00 0x078e0205 0x000fe200
0x02047a11 0x00005c00 0x078010ff 0x000fc600
0x03037824 0x00000001 0x078e0205 0x000fca00
0x02057a11 0x00005d00 0x000f1403 0x000fd000
0x04057381 0x00000000 0x001ee900 0x000ea200
0x08087810 0xffffffff 0x07ffe0ff 0x000fe400
0x12127810 0x00000100 0x07ffe0ff 0x000fe400
0x0800720c 0x000000ff 0x03f05270 0x000fe200
0x05067220 0x00000006 0x00400000 0x024fd600
0x00000947 0xffffff20 0x0383ffff 0x000fea00
0x00027941 0x00000000 0x03800000 0x000fea00
0x00009947 0x00001470 0x03800000 0x000fea00
0x12027a10 0x00006000 0x07ffe1ff 0x000fe200
0x02ff7355 0x00000000 0x00100000 0x000fe200
0x00027945 0x00000b80 0x03800000 0x000fe200
0x0000781c 0x00000000 0x03f0f070 0x000fe400
0x0200780c 0x00000c00 0x03f24270 0x000fd800
0x00009947 0x00000b40 0x03800000 0x000fea00
0x0000781c 0x00000000 0x03f0e170 0x000fe400
0x00137810 0xfffff400 0x07ffe0ff 0x000fe400
0x12087a10 0x00005800 0x07f3e0ff 0x040fe400
0x12057810 0x00000100 0x07ffe0ff 0x040fe400
0x12027810 0x00000200 0x07ffe0ff 0x000fe200
0xff037624 0x00005900 0x008e06ff 0x000fe200
0x05057a10 0x00005800 0x07f3e0ff 0x000fe400
0x02047a10 0x00005800 0x07f5e0ff 0x000fe200
0x03097a24 0x00005a00 0x078e02ff 0x000fe200
0xff037a10 0x00005900 0x00ffe4ff 0x000fc600
0xff027624 0x00005900 0x010e06ff 0x000fe400
0x030a7a24 0x00005a00 0x078e02ff 0x000fe400
0x020d7a24 0x00005a00 0x078e02ff 0x000fe400
0x080f7a24 0x00005b00 0x078e0209 0x040fe400
0x08087a25 0x00005a00 0x078e00ff 0x000fc800
0x05027a25 0x00005a00 0x078e00ff 0x000fe200
0x081e7a11 0x00005c00 0x078610ff 0x000fc600
0x050b7a24 0x00005b00 0x078e020a 0x000fe200
0x021a7a11 0x00005c00 0x078210ff 0x000fe200
0x040d7a24 0x00005b00 0x078e020d 0x040fe400
0x04047a25 0x00005a00 0x078e00ff 0x000fc800
0x090f7824 0x00000001 0x078e020f 0x000fe200
0x04147a11 0x00005c00 0x078410ff 0x000fe200
0x03097824 0x00000001 0x078e020b 0x000fe400
0x05037824 0x00000001 0x078e020d 0x000fe200
0x081f7a11 0x00005d00 0x018f140f 0x000fe400
0x021b7a11 0x00005d00 0x008f1409 0x000fe400
0x12027810 0x00000300 0x07ffe0ff 0x000fe400
0x04157a11 0x00005d00 0x010f1403 0x000fc400
0x12037810 0x00000400 0x07ffe0ff 0x000fe200
0x1e1f7381 0x00000000 0x001ee900 0x0000a200
0x02097a10 0x00005800 0x07f3e0ff 0x000fe400
0x12027810 0x00000600 0x07ffe0ff 0x040fe200
0x1a1a7381 0x00000000 0x001ee900 0x0002e200
0x03087a10 0x00005800 0x07f5e0ff 0x000fe400
0x12047810 0x00000500 0x07ffe0ff 0x000fe200
0x14147381 0x00000000 0x001ee900 0x0008e200
0xff037a10 0x00005900 0x00ffe4ff 0x000fc400
0x020a7a10 0x00005800 0x07f7e0ff 0x000fe200
0xff027624 0x00005900 0x010e06ff 0x000fe200
0x12057810 0x00000700 0x07ffe0ff 0x000fe200
0x030e7a24 0x00005a00 0x078e02ff 0x000fe200
0x040b7a10 0x00005800 0x07f3e0ff 0x000fe200
0x020d7a24 0x00005a00 0x078e02ff 0x000fe200
0x050c7a10 0x00005800 0x07f5e0ff 0x000fe200
0xff047624 0x00005900 0x018e06ff 0x000fe400
0xff057624 0x00005900 0x008e06ff 0x000fe400
0x090f7a24 0x00005b00 0x078e020e 0x000fc400
0x09027a25 0x00005a00 0x078e00ff 0x000fc800
0x08117a24 0x00005b00 0x078e020d 0x000fe200
0x02187a11 0x00005c00 0x078210ff 0x000fe200
0xff0d7624 0x00005900 0x010e06ff 0x000fe200
0x030f7210 0x0000000f 0x07ffe0ff 0x000fe200
0x050e7a24 0x00005a00 0x078e02ff 0x000fe400
0x08087a25 0x00005a00 0x078e00ff 0x000fe200
0x02197a11 0x00005d00 0x008f140f 0x000fc600
0x04177a24 0x00005a00 0x078e02ff 0x000fe200
0x08167a11 0x00005c00 0x078410ff 0x000fe200
0x0d0d7a24 0x00005a00 0x078e02ff 0x000fe400
0x0b1d7a24 0x00005b00 0x078e020e 0x040fe200
0x18187381 0x00000000 0x001ee900 0x0000e200
0x0b047a25 0x00005a00 0x078e00ff 0x000fc800
0x0a217a24 0x00005b00 0x078e0217 0x000fe200
0x041c7a11 0x00005c00 0x078210ff 0x000fe200
0x09037824 0x00000001 0x078e0211 0x000fe400
0x0a0a7a25 0x00005a00 0x078e00ff 0x000fc600
0x08177a11 0x00005d00 0x010f1403 0x000fe200
0x0c117a24 0x00005b00 0x078e020d 0x000fe200
0x0a087a11 0x00005c00 0x078410ff 0x000fe200
0x0c0c7a25 0x00005a00 0x078e00ff 0x000fc800
0x050f7824 0x00000001 0x078e021d 0x000fe200
0x12057810 0x00000800 0x07ffe0ff 0x000fe200
0x0b097824 0x00000001 0x078e0221 0x000fe200
0x0c027a11 0x00005c00 0x078610ff 0x000fe200
0x0d037824 0x00000001 0x078e0211 0x000fe200
0x041d7a11 0x00005d00 0x008f140f 0x000fe200
0x16167381 0x00000000 0x001ee900 0x0000e200
0x050d7a10 0x00005800 0x07f3e0ff 0x000fe400
0x12047810 0x00000900 0x07ffe0ff 0x000fe400
0x0a097a11 0x00005d00 0x010f1409 0x000fc400
0x0c037a11 0x00005d00 0x018f1403 0x000fe200
0x1c1c7381 0x00000000 0x001ee900 0x000ee200
0x120a7810 0x00000b00 0x07ffe0ff 0x000fe400
0xff0c7a10 0x00005900 0x00ffe4ff 0x000fe400
0x04207a10 0x00005800 0x07f3e0ff 0x000fe200
0x08087381 0x00000000 0x001ee900 0x0000e200
0x12057810 0x00000a00 0x07ffe0ff 0x040fe400
0x120b7810 0x00000c00 0x07ffe0ff 0x000fe200
0xff047624 0x00005900 0x008e06ff 0x000fe200
0x0a247a10 0x00005800 0x07f7e0ff 0x000fe200
0x0c0a7a24 0x00005a00 0x078e02ff 0x000fe200
0x05227a10 0x00005800 0x07f5e0ff 0x000fe200
0x02027381 0x00000000 0x001ee900 0x0000e200
0x0b267a10 0x00005800 0x07f3e0ff 0x000fe200
0xff057624 0x00005900 0x018e06ff 0x000fc400
0x0d0f7a24 0x00005b00 0x078e020a 0x040fe400
0x0d0a7a25 0x00005a00 0x078e00ff 0x000fc800
0x040d7a24 0x00005a00 0x078e02ff 0x000fe400
0xff047624 0x00005900 0x008e06ff 0x000fe400
0x05057a24 0x00005a00 0x078e02ff 0x000fe400
0xff0c7624 0x00005900 0x010e06ff 0x000fe400
0x200d7a24 0x00005b00 0x078e020d 0x000fe400
0x04277a24 0x00005a00 0x078e02ff 0x000fe200
0x0a047a11 0x00005c00 0x078210ff 0x000fe200
0x24297a24 0x00005b00 0x078e0205 0x000fe200
0x0b057210 0x0000000f 0x07ffe0ff 0x000fe200
0x20207a25 0x00005a00 0x078e00ff 0x000fc600
0x0a057a11 0x00005d00 0x008f1405 0x000fe200
0x0c117a24 0x00005a00 0x078e02ff 0x000fe200
0x200c7a11 0x00005c00 0x078210ff 0x000fe200
0x210d7824 0x00000001 0x078e020d 0x000fe400
0x22117a24 0x00005b00 0x078e0211 0x040fe400
0x22227a25 0x00005a00 0x078e00ff 0x000fe200
0x200d7a11 0x00005d00 0x008f140d 0x000fe200
0x04047381 0x00000000 0x001ee900 0x0000e400
0x24247a25 0x00005a00 0x078e00ff 0x000fe200
0x12207810 0x00000d00 0x07ffe0ff 0x000fc400
0x220e7a11 0x00005c00 0x078410ff 0x000fe200
0x230f7824 0x00000001 0x078e0211 0x000fe200
0x240a7a11 0x00005c00 0x078610ff 0x000fe200
0x250b7824 0x00000001 0x078e0229 0x000fe200
0x12217810 0x00000e00 0x07ffe0ff 0x000fe200
0x262b7a24 0x00005b00 0x078e0227 0x000fe200
0x20207a10 0x00005800 0x07f3e0ff 0x000fe200
0x26267a25 0x00005a00 0x078e00ff 0x000fe200
0x220f7a11 0x00005d00 0x010f140f 0x000fe200
0x0c157381 0x00000000 0x001ee900 0x0108e200
0x240b7a11 0x00005d00 0x018f140b 0x000fc400
0x21247a10 0x00005800 0x07f5e0ff 0x000fe200
0xff1b7624 0x00005900 0x008e06ff 0x002fe200
0x12177810 0x00000f00 0x07ffe0ff 0x001fe400
0x26107a11 0x00005c00 0x078810ff 0x000fe200
0xff197624 0x00005900 0x010e06ff 0x000fe200
0x17177a10 0x00005800 0x07f3e0ff 0x000fe200
0x1b1b7a24 0x00005a00 0x078e02ff 0x000fe200
0x27117210 0x0000002b 0x07ffe0ff 0x000fe200
0x19197a24 0x00005a00 0x078e02ff 0x000fe200
0x0e0e7381 0x00000000 0x001ee900 0x0000e200
0x20097a24 0x00005b00 0x078e021b 0x000fe200
0x26117a11 0x00005d00 0x020f1411 0x000fe200
0x20207a25 0x00005a00 0x078e00ff 0x000fe200
0x0a037381 0x00000000 0x001ee900 0x0002e600
0xff057624 0x00005900 0x008e06ff 0x000fc400
0x24197a24 0x00005b00 0x078e0219 0x040fe200
0x10107381 0x00000000 0x001ee900 0x000ee200
0x24247a25 0x00005a00 0x078e00ff 0x000fe200
0x20227a11 0x00005c00 0x078210ff 0x000fe400
0x21097210 0x00000009 0x07ffe0ff 0x000fe200
0x051e7a24 0x00005a00 0x078e02ff 0x000fe200
0x240c7a11 0x00005c00 0x078410ff 0x010fe200
0x25057824 0x00000001 0x078e0219 0x000fe200
0x20237a11 0x00005d00 0x008f1409 0x000fe200
0x170f7a24 0x00005b00 0x078e021e 0x001fc400
0x17267a25 0x00005a00 0x078e00ff 0x000fe200
0x240d7a11 0x00005d00 0x010f1405 0x000fc600
0x27057824 0x00000001 0x078e020f 0x000fe200
0x260a7a11 0x00005c00 0x078210ff 0x042fe200
0x22227381 0x00000000 0x001ee900 0x000f2600
0x260b7a11 0x00005d00 0x008f1405 0x000fe200
0x0c0c7381 0x00000000 0x001ee900 0x000f2e00
0x0a0a7381 0x00000000 0x001ee900 0x000f2200
0x12127810 0x00001000 0x07ffe0ff 0x000fc800
0x1200720c 0x00000013 0x03f26270 0x000fe200
0x1f1f7220 0x00000006 0x00400000 0x024fc800
0x1f1f7220 0x0000001a 0x00400000 0x008fc800
0x1f1f7220 0x00000014 0x00400000 0x000fc800
0x1f1f7220 0x00000018 0x00400000 0x000fc800
0x1f1f7220 0x00000016 0x00400000 0x000fc800
0x1f1f7220 0x0000001c 0x00400000 0x000fc800
0x1f1f7220 0x00000008 0x00400000 0x000fc800
0x1f1f7220 0x00000002 0x00400000 0x000fc800
0x1f047220 0x00000004 0x00400000 0x000fc800
0x04157220 0x00000015 0x00400000 0x000fc800
0x150e7220 0x0000000e 0x00400000 0x000fc800
0x0e037220 0x00000003 0x00400000 0x000fc800
0x03037220 0x00000010 0x00400000 0x000fc800
0x03037220 0x00000022 0x00400000 0x010fc800
0x03037220 0x0000000c 0x00400000 0x000fc800
0x03067220 0x0000000a 0x00400000 0x000fe200
0x00009947 0xfffff4e0 0x0383ffff 0x000fea00
0x00027941 0x00000000 0x03800000 0x000fea00
0x12027a10 0x00006000 0x07ffe1ff 0x000fe200
0x02ff7355 0x00000000 0x00100000 0x000fe200
0x00027945 0x000005c0 0x03800000 0x000fe400
0x0200780c 0x00000400 0x03f24270 0x000fd800
0x00009947 0x00000590 0x03800000 0x000fea00
0x12027a10 0x00005800 0x07f1e0ff 0x040fe400
0x12047810 0x00000100 0x07ffe0ff 0x040fe400
0x12057810 0x00000200 0x07ffe0ff 0x000fe200
0xff037624 0x00005900 0x000e06ff 0x000fe200
0x040b7a10 0x00005800 0x07f3e0ff 0x000fe400
0x050c7a10 0x00005800 0x07f5e0ff 0x000fe200
0x03037a24 0x00005a00 0x078e02ff 0x000fe200
0xff0a7a10 0x00005900 0x00ffe4ff 0x000fc400
0x12087810 0x00000300 0x07ffe0ff 0x000fe200
0x020d7a24 0x00005b00 0x078e0203 0x000fe200
0x12097810 0x00000400 0x07ffe0ff 0x000fe200
0x02027a25 0x00005a00 0x078e00ff 0x000fe200
0x08107a10 0x00005800 0x07f3e0ff 0x000fe400
0x09097a10 0x00005800 0x07f7e0ff 0x000fe200
0x03057824 0x00000001 0x078e020d 0x000fe200
0x02047a11 0x00005c00 0x078010ff 0x040fe200
0xff037624 0x00005900 0x010e06ff 0x000fe200
0xff087a10 0x00005900 0x01ffe4ff 0x000fe200
0x09147a25 0x00005a00 0x078e00ff 0x000fe200
0x02057a11 0x00005d00 0x000f1405 0x000fc600
0x0a027a24 0x00005a00 0x078e02ff 0x000fe400
0x030d7a24 0x00005a00 0x078e02ff 0x000fe400
0x0b0f7a24 0x00005b00 0x078e0202 0x040fe400
0xff0a7624 0x00005900 0x008e06ff 0x000fe400
0x0b027a25 0x00005a00 0x078e00ff 0x000fc800
0x0a0b7a24 0x00005a00 0x078e02ff 0x000fe200
0x020a7a11 0x00005c00 0x078010ff 0x000fe200
0x0c137a24 0x00005b00 0x078e020d 0x000fe400
0x08087a24 0x00005a00 0x078e02ff 0x000fe400
0x03037824 0x00000001 0x078e020f 0x000fe400
0x0c0c7a25 0x00005a00 0x078e00ff 0x000fc800
0x10177a24 0x00005b00 0x078e020b 0x000fe200
0x020b7a11 0x00005d00 0x000f1403 0x000fe200
0x090f7a24 0x00005b00 0x078e0208 0x000fe200
0x0c0e7a11 0x00005c00 0x078010ff 0x000fe200
0x0d0d7824 0x00000001 0x078e0213 0x000fe200
0x14027a11 0x00005c00 0x078410ff 0x000fe200
0x10107a25 0x00005a00 0x078e00ff 0x000fe200
0x15037210 0x0000000f 0x07ffe0ff 0x000fe200
0x04137381 0x00000000 0x001ee900 0x0000a200
0x0c0f7a11 0x00005d00 0x000f140d 0x000fe200
0x11097824 0x00000001 0x078e0217 0x000fe200
0x120c7810 0x00000500 0x07ffe0ff 0x000fc400
0x10087a11 0x00005c00 0x078210ff 0x000fe400
0x120d7810 0x00000600 0x07ffe0ff 0x000fe400
0x0c157a10 0x00005800 0x07f1e0ff 0x000fe200
0x0e167381 0x00000000 0x001ee900 0x0002e200
0x10097a11 0x00005d00 0x008f1409 0x000fe400
0x0d0d7a10 0x00005800 0x07f3e0ff 0x000fe200
0xff107624 0x00005900 0x000e06ff 0x000fe200
0x120c7810 0x00000700 0x07ffe0ff 0x000fc400
0x14037a11 0x00005d00 0x010f1403 0x000fe200
0xff117624 0x00005900 0x008e06ff 0x000fe200
0x0a147381 0x00000000 0x001ee900 0x0008e200
0x10187a24 0x00005a00 0x078e02ff 0x000fe200
0x0c107a10 0x00005800 0x07f1e0ff 0x000fe200
0x110c7a24 0x00005a00 0x078e02ff 0x000fe200
0x08087381 0x00000000 0x001ee900 0x000ee200
0x15177a24 0x00005b00 0x078e0218 0x040fe400
0xff117624 0x00005900 0x000e06ff 0x000fe200
0x02037381 0x00000000 0x001ee900 0x000ee200
0x15047a25 0x00005a00 0x078e00ff 0x001fc800
0x0d157a24 0x00005b00 0x078e020c 0x040fe400
0x0d0c7a25 0x00005a00 0x078e00ff 0x000fe200
0x040a7a11 0x00005c00 0x078010ff 0x010fc600
0x11117a24 0x00005a00 0x078e02ff 0x000fe200
0x050b7210 0x00000017 0x07ffe0ff 0x000fe200
0x0d057824 0x00000001 0x078e0215 0x000fe200
0x0c0e7a11 0x00005c00 0x078210ff 0x002fe200
0x100d7a24 0x00005b00 0x078e0211 0x000fe200
0x040b7a11 0x00005d00 0x000f140b 0x000fe200
0x10107a25 0x00005a00 0x078e00ff 0x000fe200
0x0c0f7a11 0x00005d00 0x008f1405 0x000fc600
0x11057824 0x00000001 0x078e020d 0x000fe200
0x10047a11 0x00005c00 0x078010ff 0x040fe400
0x0a0a7381 0x00000000 0x001ee900 0x000f2400
0x10057a11 0x00005d00 0x000f1405 0x000fe400
0x0e0e7381 0x00000000 0x001ee900 0x000f2c00
0x04047381 0x00000000 0x001ee900 0x000f2200
0x0000781c 0x00000000 0x03f0e170 0x000fc400
0x12127810 0x00000800 0x07ffe0ff 0x000fe200
0x06137220 0x00000013 0x00400000 0x024fc800
0x13137220 0x00000014 0x00400000 0x008fc800
0x13137220 0x00000016 0x00400000 0x000fc800
0x13087220 0x00000008 0x00400000 0x000fc800
0x08037220 0x00000003 0x00400000 0x000fc800
0x03037220 0x0000000a 0x00400000 0x010fc800
0x03037220 0x0000000e 0x00400000 0x000fc800
0x03067220 0x00000004 0x00400000 0x000fc600
0x00027941 0x00000000 0x03800000 0x000fea00
0x12007a0c 0x00006000 0x00701670 0x000fd800
0x00008947 0x000002b0 0x03800000 0x000fea00
0x120b7a10 0x00005800 0x07f1e0ff 0x040fe400
0x12027810 0x00000100 0x07ffe0ff 0x040fe400
0x12037810 0x00000200 0x07ffe0ff 0x000fe200
0xff087624 0x00005900 0x000e06ff 0x000fe200
0x02097a10 0x00005800 0x07f1e0ff 0x000fe400
0x03057a10 0x00005800 0x07f3e0ff 0x000fe200
0x080c7a24 0x00005a00 0x078e02ff 0x000fe200
0x12047810 0x00000300 0x07ffe0ff 0x000fe200
0x0b027a25 0x00005a00 0x078e00ff 0x000fe200
0xff0a7a10 0x00005900 0x007fe4ff 0x000fc400
0x040e7a10 0x00005800 0x07f5e0ff 0x000fe200
0xff087624 0x00005900 0x008e06ff 0x000fe200
0x02047a11 0x00005c00 0x078010ff 0x000fe200
0x0b0b7a24 0x00005b00 0x078e020c 0x000fe400
0x0a0a7a24 0x00005a00 0x078e02ff 0x000fe400
0x08107a24 0x00005a00 0x078e02ff 0x000fe400
0xff0c7624 0x00005900 0x010e06ff 0x000fe400
0x03037824 0x00000001 0x078e020b 0x000fc400
0x090d7a24 0x00005b00 0x078e020a 0x040fe400
0x09087a25 0x00005a00 0x078e00ff 0x000fc800
0x050a7a25 0x00005a00 0x078e00ff 0x000fc800
0x050f7a24 0x00005b00 0x078e0210 0x000fe200
0x02057a11 0x00005d00 0x000f1403 0x000fe200
0x0c117a24 0x00005a00 0x078e02ff 0x000fe200
0x08027a11 0x00005c00 0x078010ff 0x000fe400
0x09037210 0x0000000d 0x07ffe0ff 0x000fe200
0x0b097824 0x00000001 0x078e020f 0x000fe200
0x0a0c7a11 0x00005c00 0x078210ff 0x000fe200
0x0e117a24 0x00005b00 0x078e0211 0x000fe200
0x08037a11 0x00005d00 0x000f1403 0x000fe200
0x0e0e7a25 0x00005a00 0x078e00ff 0x000fe200
0x0a0d7a11 0x00005d00 0x008f1409 0x000fe200
0x04057381 0x00000000 0x001ee900 0x000ea400
0x0f097824 0x00000001 0x078e0211 0x000fe200
0x0e087a11 0x00005c00 0x078010ff 0x000fc400
0x02037381 0x00000000 0x001ee900 0x000ee400
0x0e097a11 0x00005d00 0x000f1409 0x000fe400
0x0c0d7381 0x00000000 0x001ee900 0x000f2c00
0x08097381 0x00000000 0x001ee900 0x000f2200
0x06067220 0x00000005 0x00400000 0x024fc800
0x06067220 0x00000003 0x00400000 0x008fc800
0x06067220 0x0000000d 0x00400000 0x010fc800
0x06067220 0x00000009 0x00400000 0x000fc600
0x00017941 0x00000000 0x03800000 0x000fea00
0x0000780c 0x000000ff 0x03f04270 0x000fe200
0xff097224 0x000000ff 0x078e0006 0x020fd600
0x00000947 0x00000390 0x03800000 0x000fea00
0xff027819 0x0000001f 0x00011407 0x001fe200
0x00087919 0x00000000 0x00000000 0x000e2600
0x02027211 0x00000007 0x078f28ff 0x000fc800
0x02037812 0xffffffe0 0x078ec0ff 0x000fe400
0xff027819 0x00000005 0x00011402 0x000fe400
0x03047810 0x00000020 0x07ffe0ff 0x000fe400
0xff037212 0x00000003 0x078e33ff 0x000fe400
0x04007a0c 0x00006000 0x03f04270 0x000fe400
0x03037a10 0x00006000 0x07ffe0ff 0x000fc800
0x03037807 0x0000001f 0x00000000 0x000fe400
0x08067810 0x00000002 0x07ffe0ff 0x041fe400
0x0800720c 0x00000003 0x03f06270 0x040fe400
0x0800720c 0x000000ff 0x03f25270 0x000fe400
0x09047989 0x08200000 0x000e0003 0x000e2400
0x04047220 0x00000009 0x00400000 0x001fca00
0x04047208 0x00000009 0x04000000 0x000fe400
0x0600720c 0x00000003 0x03f04270 0x000fe400
0x08067810 0x00000004 0x07ffe0ff 0x000fc800
0x04057989 0x08400000 0x000e0003 0x000e2c00
0x04048220 0x00000005 0x00400000 0x001fe200
0x0600720c 0x00000003 0x03f04270 0x000fe400
0x08067810 0x00000008 0x07ffe0ff 0x000fca00
0x04057989 0x08800000 0x000e0003 0x000e2a00
0x04048220 0x00000005 0x00400000 0x001fe200
0x0600720c 0x00000003 0x03f04270 0x000fe400
0x08067810 0x00000010 0x07ffe0ff 0x000fca00
0x04057989 0x09000000 0x000e0003 0x000e2a00
0x04048220 0x00000005 0x00400000 0x001fe200
0x0600720c 0x00000003 0x03f04270 0x000fce00
0x04057989 0x0a000000 0x000e0003 0x000e2a00
0x04048220 0x00000005 0x00400000 0x001fe200
0x0700720c 0x000000ff 0x03f05270 0x000fe400
0x02059819 0x00000002 0x000006ff 0x000fe200
0xff027224 0x000000ff 0x078e0004 0x000fd000
0x05009388 0x00000802 0x00000800 0x000fe800
0x00007b1d 0x00000000 0x00000000 0x000fea00
0x00000947 0x00000390 0x03800000 0x000fea00
0xff037984 0x00000c00 0x00001800 0x000e2200
0x0000780c 0x00000020 0x03f04270 0x000fc400
0x0000780c 0x00000040 0x03f24270 0x040fe200
0xff047984 0x00001000 0x00001c00 0x000e6200
0x0000780c 0x00000060 0x03f44270 0x000fce00
0xff087984 0x00002000 0x00001a00 0x000ea200
0x02020220 0x00000003 0x00400000 0x001fe200
0x0000780c 0x00000080 0x03f04270 0x000fc600
0x02021220 0x00000004 0x00400000 0x002fe200
0x0000780c 0x000000a0 0x03f24270 0x000fc600
0x02022220 0x00000005 0x00400000 0x000fe200
0x0000780c 0x000000c0 0x03f44270 0x000fc800
0x02020220 0x00000006 0x00400000 0x000fe200
0x0000780c 0x000000e1 0x03f06270 0x000fc600
0x02021220 0x00000007 0x00400000 0x000fe400
0xff077224 0x000000ff 0x078e00ff 0x000fe400
0x02022220 0x00000008 0x00400000 0x004fca00
0x00008947 0x00000270 0x03800000 0x000fea00
0x02027220 0x00000009 0x00400000 0x000fe200
0x00007947 0x00000250 0x03800000 0x000fea00
0x00027919 0x00000000 0x00000000 0x001e2800
0x09007f89 0x08201f00 0x000e0000 0x000e6200
0x0200780c 0x0000001e 0x03f04270 0x041fe400
0x0200720c 0x000000ff 0x03f25270 0x000fd400
0x00098220 0x00000009 0x00400000 0x002fe200
0x0200780c 0x0000001d 0x03f04270 0x000fce00
0x09007f89 0x08401f00 0x000e0000 0x000e2a00
0x09098220 0x00000000 0x00400000 0x001fe200
0x0200780c 0x0000001b 0x03f04270 0x000fce00
0x09007f89 0x08801f00 0x000e0000 0x000e2a00
0x09098220 0x00000000 0x00400000 0x001fe200
0x0200780c 0x00000017 0x03f04270 0x000fce00
0x09007f89 0x09001f00 0x000e0000 0x000e2a00
0x09098220 0x00000000 0x00400000 0x001fe200
0x0200780c 0x0000000f 0x03f04270 0x000fe400
0xff029819 0x0000001f 0x00011407 0x000fc800
0x02029211 0x00000007 0x078f28ff 0x000fe200
0x09007f89 0x0a001f00 0x000e0000 0x000e2600
0xff029819 0x00000005 0x00011402 0x000fca00
0x02039824 0x00000004 0x078e00ff 0x000fe400
0x09098220 0x00000000 0x00400000 0x001fe200
0x0700720c 0x000000ff 0x03f05270 0x000fc800
0x00027202 0x00000009 0x00000f00 0x000fd000
0x03009388 0x00000802 0x00000800 0x000fe800
0x00007b1d 0x00000000 0x00000000 0x000fea00
0x00000947 0x000000b0 0x03800000 0x000fea00
0xff037984 0x00000c00 0x00001800 0x000e2800
0xff047984 0x00001000 0x00001c00 0x000e7000
0xff087984 0x00002000 0x00001a00 0x000ea200
0x02037220 0x00000003 0x00400000 0x001fc800
0x03047220 0x00000004 0x00400000 0x002fc800
0x04057220 0x00000005 0x00400000 0x000fc800
0x05067220 0x00000006 0x00400000 0x000fc800
0x06067220 0x00000007 0x00400000 0x000fe400
0xff077224 0x000000ff 0x078e00ff 0x000fe400
0x06067220 0x00000008 0x00400000 0x004fc800
0x06027220 0x00000009 0x00400000 0x000fc600
0x00007941 0x00000000 0x03800000 0x000fea00
0x0700720c 0x000000ff 0x03f05270 0x000fd800
0x0000094d 0x00000000 0x03800000 0x000fea00
0x02027a20 0x00006200 0x00400000 0x000fe200
0x00047ab9 0x00005e00 0x00000a00 0x000fce00
0xff007986 0x00000002 0x0c10e904 0x000fe200
0x0000794d 0x00000000 0x03800000 0x000fea00
0x00007919 0x00000000 0x00002100 0x000e2400
0x0000720c 0x000000ff 0x03f05270 0x001fd800
0x0000094d 0x00000000 0x03800000 0x000fea00
0xff007624 0x00006200 0x078e00ff 0x000fe200
0x00047ab9 0x00005e00 0x00000a00 0x000fce00
0xff007986 0x00000000 0x0c10e904 0x000fe200
0x0000794d 0x00000000 0x03800000 0x000fea00
0x00007947 0xfffffff0 0x0383ffff 0x000fc000
0x00007918 0x00000000 0x00000000 0x000fc000



.text._ZN3cub17CUB_200400_750_NS11EmptyKernelIvEEvv
bar = 0	reg = 4	lmem=0	smem=0
0x00017a02 0x00000a00 0x00000f00 0x000fc600
0x0000794d 0x00000000 0x03800000 0x000fea00
0x00007947 0xfffffff0 0x0383ffff 0x000fc000
0x00007918 0x00000000 0x00000000 0x000fc000
0x00007918 0x00000000 0x00000000 0x000fc000
0x00007918 0x00000000 0x00000000 0x000fc000
0x00007918 0x00000000 0x00000000 0x000fc000
0x00007918 0x00000000 0x00000000 0x000fc000


.section .debug_frame
decodeDebugFrame, frameBuf 0xffffffff, total_length 784
CIE length 36, cie_id -1
version 3
augmentation slen 1
augmentation 
code_align_factor slen 1
data_align_factor slen 1
 Debug Frame Common Information Entry
  length:                 36
  CIE_id :                -1
  version:                3
  augmentation:           
  code align factor:      4
  data align factor:      -4
  return address register 0xffffffff
  initial instructions: 19 bytes, ptr = 0x8080810c, frameBuf = 0xffffffff
  DW_CFA_def_cfa register R1, offset 0
  DW_CFA_same_value R255
  DW_CFA_same_value R1
  DW_CFA_nop
  DW_CFA_nop
  DW_CFA_nop
 Debug Frame Description Entry
  length:                 52
  CIE_pointer:            0
  initial_location:       0x0
  address_range:          0x3f80
  function:               _ZN3cub17CUB_200400_750_NS28DeviceReduceSingleTileKernelINS0_18DeviceReducePolicyIfyN6thrust20THRUST_200400_750_NS10multipliesIfEEE9Policy600EPfS9_iS6_ffN4cuda3std3__410__identityEEEvT0_T1_T2_T3_T4_T6_
  instructions: 28 bytes
  DW_CFA_advance_loc4 delta 4
  DW_CFA_advance_loc4 delta 8
  DW_CFA_def_cfa register R1, offset 0
  DW_CFA_advance_loc4 delta 4040
  DW_CFA_nop
  DW_CFA_nop
  DW_CFA_nop
  DW_CFA_nop
  DW_CFA_nop
  DW_CFA_nop
  DW_CFA_nop
CIE length 36, cie_id -1
version 3
augmentation slen 1
augmentation 
code_align_factor slen 1
data_align_factor slen 1
 Debug Frame Common Information Entry
  length:                 36
  CIE_id :                -1
  version:                3
  augmentation:           
  code align factor:      4
  data align factor:      -4
  return address register 0xffffffff
  initial instructions: 19 bytes, ptr = 0x8080810c, frameBuf = 0xffffffff
  DW_CFA_def_cfa register R1, offset 0
  DW_CFA_same_value R255
  DW_CFA_same_value R1
  DW_CFA_nop
  DW_CFA_nop
  DW_CFA_nop
 Debug Frame Description Entry
  length:                 52
  CIE_pointer:            112
  initial_location:       0x0
  address_range:          0x2d80
  function:               _ZN3cub17CUB_200400_750_NS18DeviceReduceKernelINS0_18DeviceReducePolicyIfyN6thrust20THRUST_200400_750_NS10multipliesIfEEE9Policy600ENS4_20permutation_iteratorINS4_6detail15normal_iteratorINS4_10device_ptrIfEEEENS4_18transform_iteratorIN13strided_rangeISE_E14stride_functorENS4_17counting_iteratorIlNS4_11use_defaultESK_SK_EESK_SK_EEEEyS6_fN4cuda3std3__410__identityEEEvT0_PT3_T1_NS0_13GridEvenShareISV_EET2_T4_
  instructions: 28 bytes
  DW_CFA_advance_loc4 delta 4
  DW_CFA_advance_loc4 delta 40
  DW_CFA_def_cfa register R1, offset 0
  DW_CFA_advance_loc4 delta 2852
  DW_CFA_nop
  DW_CFA_nop
  DW_CFA_nop
  DW_CFA_nop
  DW_CFA_nop
  DW_CFA_nop
  DW_CFA_nop
CIE length 36, cie_id -1
version 3
augmentation slen 1
augmentation 
code_align_factor slen 1
data_align_factor slen 1
 Debug Frame Common Information Entry
  length:                 36
  CIE_id :                -1
  version:                3
  augmentation:           
  code align factor:      4
  data align factor:      -4
  return address register 0xffffffff
  initial instructions: 19 bytes, ptr = 0x8080810c, frameBuf = 0xffffffff
  DW_CFA_def_cfa register R1, offset 0
  DW_CFA_same_value R255
  DW_CFA_same_value R1
  DW_CFA_nop
  DW_CFA_nop
  DW_CFA_nop
 Debug Frame Description Entry
  length:                 52
  CIE_pointer:            224
  initial_location:       0x0
  address_range:          0x2d00
  function:               _ZN3cub17CUB_200400_750_NS28DeviceReduceSingleTileKernelINS0_18DeviceReducePolicyIfyN6thrust20THRUST_200400_750_NS10multipliesIfEEE9Policy600ENS4_20permutation_iteratorINS4_6detail15normal_iteratorINS4_10device_ptrIfEEEENS4_18transform_iteratorIN13strided_rangeISE_E14stride_functorENS4_17counting_iteratorIlNS4_11use_defaultESK_SK_EESK_SK_EEEEPfyS6_ffN4cuda3std3__410__identityEEEvT0_T1_T2_T3_T4_T6_
  instructions: 28 bytes
  DW_CFA_advance_loc4 delta 4
  DW_CFA_advance_loc4 delta 12
  DW_CFA_def_cfa register R1, offset 0
  DW_CFA_advance_loc4 delta 2848
  DW_CFA_nop
  DW_CFA_nop
  DW_CFA_nop
  DW_CFA_nop
  DW_CFA_nop
  DW_CFA_nop
  DW_CFA_nop
CIE length 36, cie_id -1
version 3
augmentation slen 1
augmentation 
code_align_factor slen 1
data_align_factor slen 1
 Debug Frame Common Information Entry
  length:                 36
  CIE_id :                -1
  version:                3
  augmentation:           
  code align factor:      4
  data align factor:      -4
  return address register 0xffffffff
  initial instructions: 19 bytes, ptr = 0x8080810c, frameBuf = 0xffffffff
  DW_CFA_def_cfa register R1, offset 0
  DW_CFA_same_value R255
  DW_CFA_same_value R1
  DW_CFA_nop
  DW_CFA_nop
  DW_CFA_nop
 Debug Frame Description Entry
  length:                 52
  CIE_pointer:            336
  initial_location:       0x0
  address_range:          0x3f80
  function:               _ZN3cub17CUB_200400_750_NS28DeviceReduceSingleTileKernelINS0_18DeviceReducePolicyIfjN6thrust20THRUST_200400_750_NS10multipliesIfEEE9Policy600EPfS9_iS6_ffN4cuda3std3__410__identityEEEvT0_T1_T2_T3_T4_T6_
  instructions: 28 bytes
  DW_CFA_advance_loc4 delta 4
  DW_CFA_advance_loc4 delta 8
  DW_CFA_def_cfa register R1, offset 0
  DW_CFA_advance_loc4 delta 4040
  DW_CFA_nop
  DW_CFA_nop
  DW_CFA_nop
  DW_CFA_nop
  DW_CFA_nop
  DW_CFA_nop
  DW_CFA_nop
CIE length 36, cie_id -1
version 3
augmentation slen 1
augmentation 
code_align_factor slen 1
data_align_factor slen 1
 Debug Frame Common Information Entry
  length:                 36
  CIE_id :                -1
  version:                3
  augmentation:           
  code align factor:      4
  data align factor:      -4
  return address register 0xffffffff
  initial instructions: 19 bytes, ptr = 0x8080810c, frameBuf = 0xffffffff
  DW_CFA_def_cfa register R1, offset 0
  DW_CFA_same_value R255
  DW_CFA_same_value R1
  DW_CFA_nop
  DW_CFA_nop
  DW_CFA_nop
 Debug Frame Description Entry
  length:                 52
  CIE_pointer:            448
  initial_location:       0x0
  address_range:          0x4300
  function:               _ZN3cub17CUB_200400_750_NS18DeviceReduceKernelINS0_18DeviceReducePolicyIfjN6thrust20THRUST_200400_750_NS10multipliesIfEEE9Policy600ENS4_20permutation_iteratorINS4_6detail15normal_iteratorINS4_10device_ptrIfEEEENS4_18transform_iteratorIN13strided_rangeISE_E14stride_functorENS4_17counting_iteratorIlNS4_11use_defaultESK_SK_EESK_SK_EEEEjS6_fN4cuda3std3__410__identityEEEvT0_PT3_T1_NS0_13GridEvenShareISV_EET2_T4_
  instructions: 28 bytes
  DW_CFA_advance_loc4 delta 4
  DW_CFA_advance_loc4 delta 36
  DW_CFA_def_cfa register R1, offset 0
  DW_CFA_advance_loc4 delta 4220
  DW_CFA_nop
  DW_CFA_nop
  DW_CFA_nop
  DW_CFA_nop
  DW_CFA_nop
  DW_CFA_nop
  DW_CFA_nop
CIE length 36, cie_id -1
version 3
augmentation slen 1
augmentation 
code_align_factor slen 1
data_align_factor slen 1
 Debug Frame Common Information Entry
  length:                 36
  CIE_id :                -1
  version:                3
  augmentation:           
  code align factor:      4
  data align factor:      -4
  return address register 0xffffffff
  initial instructions: 19 bytes, ptr = 0x8080810c, frameBuf = 0xffffffff
  DW_CFA_def_cfa register R1, offset 0
  DW_CFA_same_value R255
  DW_CFA_same_value R1
  DW_CFA_nop
  DW_CFA_nop
  DW_CFA_nop
 Debug Frame Description Entry
  length:                 52
  CIE_pointer:            560
  initial_location:       0x0
  address_range:          0x4200
  function:               _ZN3cub17CUB_200400_750_NS28DeviceReduceSingleTileKernelINS0_18DeviceReducePolicyIfjN6thrust20THRUST_200400_750_NS10multipliesIfEEE9Policy600ENS4_20permutation_iteratorINS4_6detail15normal_iteratorINS4_10device_ptrIfEEEENS4_18transform_iteratorIN13strided_rangeISE_E14stride_functorENS4_17counting_iteratorIlNS4_11use_defaultESK_SK_EESK_SK_EEEEPfjS6_ffN4cuda3std3__410__identityEEEvT0_T1_T2_T3_T4_T6_
  instructions: 28 bytes
  DW_CFA_advance_loc4 delta 4
  DW_CFA_advance_loc4 delta 8
  DW_CFA_def_cfa register R1, offset 0
  DW_CFA_advance_loc4 delta 4200
  DW_CFA_nop
  DW_CFA_nop
  DW_CFA_nop
  DW_CFA_nop
  DW_CFA_nop
  DW_CFA_nop
  DW_CFA_nop
CIE length 36, cie_id -1
version 3
augmentation slen 1
augmentation 
code_align_factor slen 1
data_align_factor slen 1
 Debug Frame Common Information Entry
  length:                 36
  CIE_id :                -1
  version:                3
  augmentation:           
  code align factor:      4
  data align factor:      -4
  return address register 0xffffffff
  initial instructions: 19 bytes, ptr = 0x8080810c, frameBuf = 0xffffffff
  DW_CFA_def_cfa register R1, offset 0
  DW_CFA_same_value R255
  DW_CFA_same_value R1
  DW_CFA_nop
  DW_CFA_nop
  DW_CFA_nop
 Debug Frame Description Entry
  length:                 52
  CIE_pointer:            672
  initial_location:       0x0
  address_range:          0x80
  function:               _ZN3cub17CUB_200400_750_NS11EmptyKernelIvEEvv
  instructions: 28 bytes
  DW_CFA_advance_loc4 delta 4
  DW_CFA_advance_loc4 delta 4
  DW_CFA_def_cfa register R1, offset 0
  DW_CFA_advance_loc4 delta 1073741820
  DW_CFA_nop
  DW_CFA_nop
  DW_CFA_nop
  DW_CFA_nop
  DW_CFA_nop
  DW_CFA_nop
  DW_CFA_nop

.section .rel.debug_frame	REL
0x2e4    _ZN3cub17CUB_200400_750_NS11EmptyKernelIvEEvv    R_CUDA_64
0x274    _ZN3cub17CUB_200400_750_NS28DeviceReduceSingleTileKernelINS0_18DeviceReducePolicyIfjN6thrust20THRUST_200400_750_NS10multipliesIfEEE9Policy600ENS4_20permutation_iteratorINS4_6detail15normal_iteratorINS4_10device_ptrIfEEEENS4_18transform_iteratorIN13strided_rangeISE_E14stride_functorENS4_17counting_iteratorIlNS4_11use_defaultESK_SK_EESK_SK_EEEEPfjS6_ffN4cuda3std3__410__identityEEEvT0_T1_T2_T3_T4_T6_    R_CUDA_64
0x204    _ZN3cub17CUB_200400_750_NS18DeviceReduceKernelINS0_18DeviceReducePolicyIfjN6thrust20THRUST_200400_750_NS10multipliesIfEEE9Policy600ENS4_20permutation_iteratorINS4_6detail15normal_iteratorINS4_10device_ptrIfEEEENS4_18transform_iteratorIN13strided_rangeISE_E14stride_functorENS4_17counting_iteratorIlNS4_11use_defaultESK_SK_EESK_SK_EEEEjS6_fN4cuda3std3__410__identityEEEvT0_PT3_T1_NS0_13GridEvenShareISV_EET2_T4_    R_CUDA_64
0x194    _ZN3cub17CUB_200400_750_NS28DeviceReduceSingleTileKernelINS0_18DeviceReducePolicyIfjN6thrust20THRUST_200400_750_NS10multipliesIfEEE9Policy600EPfS9_iS6_ffN4cuda3std3__410__identityEEEvT0_T1_T2_T3_T4_T6_    R_CUDA_64
0x124    _ZN3cub17CUB_200400_750_NS28DeviceReduceSingleTileKernelINS0_18DeviceReducePolicyIfyN6thrust20THRUST_200400_750_NS10multipliesIfEEE9Policy600ENS4_20permutation_iteratorINS4_6detail15normal_iteratorINS4_10device_ptrIfEEEENS4_18transform_iteratorIN13strided_rangeISE_E14stride_functorENS4_17counting_iteratorIlNS4_11use_defaultESK_SK_EESK_SK_EEEEPfyS6_ffN4cuda3std3__410__identityEEEvT0_T1_T2_T3_T4_T6_    R_CUDA_64
0xb4    _ZN3cub17CUB_200400_750_NS18DeviceReduceKernelINS0_18DeviceReducePolicyIfyN6thrust20THRUST_200400_750_NS10multipliesIfEEE9Policy600ENS4_20permutation_iteratorINS4_6detail15normal_iteratorINS4_10device_ptrIfEEEENS4_18transform_iteratorIN13strided_rangeISE_E14stride_functorENS4_17counting_iteratorIlNS4_11use_defaultESK_SK_EESK_SK_EEEEyS6_fN4cuda3std3__410__identityEEEvT0_PT3_T1_NS0_13GridEvenShareISV_EET2_T4_    R_CUDA_64
0x44    _ZN3cub17CUB_200400_750_NS28DeviceReduceSingleTileKernelINS0_18DeviceReducePolicyIfyN6thrust20THRUST_200400_750_NS10multipliesIfEEE9Policy600EPfS9_iS6_ffN4cuda3std3__410__identityEEEvT0_T1_T2_T3_T4_T6_    R_CUDA_64

Fatbin ptx code:
================
arch = sm_75
code version = [8,5]
host = linux
compile_size = 64bit
compressed
ptxasOptions = 
