
Fatbin elf code:
================
arch = sm_75
code version = [1,7]
host = linux
compile_size = 64bit

64bit elf: type=2, abi=7, sm=75, toolkit=125, flags = 0x4b054b
Sections:
Index Offset   Size ES Align        Type        Flags Link     Info Name
    1     40     5d  0  1            STRTAB       0    0        0 .shstrtab
    2     9d     5d  0  1            STRTAB       0    0        0 .strtab
    3    100     48 18  8            SYMTAB       0    2        3 .symtab
    4    148     20  8  4    CUDA_CALLGRAPH       0    3        0 .nv.callgraph
    5    168     10  8  8    CUDA_RELOCINFO       0    0        0 .nv.rel.action

.section .strtab

.section .shstrtab

.section .symtab
 index           value           size      info    other  shndx    name  
   0               0               0        0        0      0     (null)
 0x1               0               0      0x3        0    0x4     .nv.callgraph
 0x2               0               0      0x3        0    0x5     .nv.rel.action


.nv.callgraph
 <0,-1>
 <0,-2>
 <0,-3>
 <0,-4>


.nv.rel.action
Header : Base Relocation : R_CUDA_CONST_FIELD22_37
Reloc type : Symbol Kind,Addend Shift,Source Position1,length1,Destination Position1,Source Position2,length2,Destination Position2
R_CUDA_CONST_FIELD22_37 : EIVALUE_SYM_KIND_ADDR,0,0,17,37,0,5,54

Fatbin elf code:
================
arch = sm_75
code version = [1,7]
host = linux
compile_size = 64bit

64bit elf: type=2, abi=7, sm=75, toolkit=125, flags = 0x4b054b
Sections:
Index Offset   Size ES Align        Type        Flags Link     Info Name
    1     40   402d  0  1            STRTAB       0    0        0 .shstrtab
    2   406d   53d7  0  1            STRTAB       0    0        0 .strtab
    3   9448    b88 18  8            SYMTAB       0    2       64 .symtab
    4   9fd0   1320  0  1          PROGBITS       0    0        0 .debug_frame
    5   b2f0    600  0  4         CUDA_INFO       0    3        0 .nv.info
    6   b8f0     64  0  4         CUDA_INFO      40    3       39 .nv.info._ZN3cub17CUB_200400_750_NS6detail8for_each13static_kernelINS2_12policy_hub_t12policy_350_tEmN6thrust20THRUST_200400_750_NS8cuda_cub20__uninitialized_fill7functorINS7_10device_ptrIiEEiEEEEvT0_T1_
    7   b954    3c8  0  4         CUDA_INFO      40    3       3a .nv.info._ZN3cub17CUB_200400_750_NS16DeviceScanKernelINS0_16DeviceScanPolicyIiN6thrust20THRUST_200400_750_NS4plusIvEEE9Policy900ENS4_6detail15normal_iteratorINS4_10device_ptrIiEEEESD_NS0_13ScanTileStateIiLb1EEES6_NS0_6detail10InputValueIiPiEEliEEvT0_T1_T2_iT3_T4_T5_
    8   bd1c    3c8  0  4         CUDA_INFO      40    3       3b .nv.info._ZN3cub17CUB_200400_750_NS16DeviceScanKernelINS0_16DeviceScanPolicyIiN6thrust20THRUST_200400_750_NS4plusIvEEE9Policy900ENS4_6detail15normal_iteratorINS4_10device_ptrIiEEEESD_NS0_13ScanTileStateIiLb1EEES6_NS0_6detail10InputValueIiPiEEiiEEvT0_T1_T2_iT3_T4_T5_
    9   c0e4     50  0  4         CUDA_INFO      40    3       3c .nv.info._ZN3cub17CUB_200400_750_NS20DeviceScanInitKernelINS0_13ScanTileStateIiLb1EEEEEvT_i
    a   c134   14bc  0  4         CUDA_INFO      40    3       3d .nv.info._ZN3cub17CUB_200400_750_NS29DeviceRadixSortOnesweepKernelINS0_21DeviceRadixSortPolicyIiijE9Policy900ELb0EiijiiNS0_6detail21identity_decomposer_tEEEvPT5_S8_PT3_PKS9_PT1_PKSD_PT2_PKSH_T4_iiT6_
    b   d5f0     a0  0  4         CUDA_INFO      40    3       3e .nv.info._ZN3cub17CUB_200400_750_NS33DeviceRadixSortExclusiveSumKernelINS0_21DeviceRadixSortPolicyIiijE9Policy900EjEEvPT0_
    c   d690     bc  0  4         CUDA_INFO      40    3       3f .nv.info._ZN3cub17CUB_200400_750_NS30DeviceRadixSortHistogramKernelINS0_21DeviceRadixSortPolicyIiijE9Policy900ELb0EijNS0_6detail21identity_decomposer_tEEEvPT2_PKT1_S7_iiT3_
    d   d74c    1b8  0  4         CUDA_INFO      40    3       40 .nv.info._ZN3cub17CUB_200400_750_NS30DeviceRadixSortDownsweepKernelINS0_21DeviceRadixSortPolicyIiijE9Policy900ELb1ELb0EiijNS0_6detail21identity_decomposer_tEEEvPKT2_PS7_PKT3_PSB_PT4_SF_iiNS0_13GridEvenShareISF_EET5_
    e   d904    edc  0  4         CUDA_INFO      40    3       41 .nv.info._ZN3cub17CUB_200400_750_NS30DeviceRadixSortDownsweepKernelINS0_21DeviceRadixSortPolicyIiijE9Policy900ELb0ELb0EiijNS0_6detail21identity_decomposer_tEEEvPKT2_PS7_PKT3_PSB_PT4_SF_iiNS0_13GridEvenShareISF_EET5_
    f   e7e0    17c  0  4         CUDA_INFO      40    3       42 .nv.info._ZN3cub17CUB_200400_750_NS23RadixSortScanBinsKernelINS0_21DeviceRadixSortPolicyIiijE9Policy900EjEEvPT0_i
   10   e95c     b8  0  4         CUDA_INFO      40    3       43 .nv.info._ZN3cub17CUB_200400_750_NS28DeviceRadixSortUpsweepKernelINS0_21DeviceRadixSortPolicyIiijE9Policy900ELb1ELb0EijNS0_6detail21identity_decomposer_tEEEvPKT2_PT3_SA_iiNS0_13GridEvenShareISA_EET4_
   11   ea14     b8  0  4         CUDA_INFO      40    3       44 .nv.info._ZN3cub17CUB_200400_750_NS28DeviceRadixSortUpsweepKernelINS0_21DeviceRadixSortPolicyIiijE9Policy900ELb0ELb0EijNS0_6detail21identity_decomposer_tEEEvPKT2_PT3_SA_iiNS0_13GridEvenShareISA_EET4_
   12   eacc     f8  0  4         CUDA_INFO      40    3       45 .nv.info._ZN3cub17CUB_200400_750_NS31DeviceRadixSortSingleTileKernelINS0_21DeviceRadixSortPolicyIiijE9Policy900ELb0EiijNS0_6detail21identity_decomposer_tEEEvPKT1_PS7_PKT2_PSB_T3_iiT4_
   13   ebc4     1c  0  4         CUDA_INFO      40    3       46 .nv.info._ZN3cub17CUB_200400_750_NS11EmptyKernelIvEEvv
   14   ebe0     c4  0  4         CUDA_INFO      40    3       47 .nv.info._Z14merge_suffixesPKiS0_PiS0_S0_iii
   15   eca4     84  0  4         CUDA_INFO      40    3       48 .nv.info._Z6Set_S0PiPKiS1_ii
   16   ed28     74  0  4         CUDA_INFO      40    3       49 .nv.info._Z9InitScan2PKiPiii
   17   ed9c     60  0  4         CUDA_INFO      40    3       4a .nv.info._Z26Compute_SA_From_UniqueRankPKiPii
   18   edfc     60  0  4         CUDA_INFO      40    3       4b .nv.info._Z18Store_unique_ranksPiPKii
   19   ee5c     80  0  4         CUDA_INFO      40    3       4c .nv.info._Z15Set_suffix_rankPiPKiS1_ii
   1a   eedc     7c  0  4         CUDA_INFO      40    3       4d .nv.info._Z8InitScanPKiS0_Pii
   1b   ef58     80  0  4         CUDA_INFO      40    3       4e .nv.info._Z7keybitsPiPKiS1_ii
   1c   efd8     50  0  4         CUDA_INFO      40    3       4f .nv.info._Z10Init_d_s12Pii
   1d   f028     20  8  4    CUDA_CALLGRAPH       0    3        0 .nv.callgraph
   1e   f048     10  8  8    CUDA_RELOCINFO       0    0        0 .nv.rel.action
   1f   f058    130 10  8               REL      40    3       21 .rel.nv.constant4
   20   f188    3b0 10  8               REL      40    3        4 .rel.debug_frame
   21   f538     98  0  8          PROGBITS       2    0        0 .nv.constant4
   22   f5d0    178  0  4          PROGBITS      42    0       39 .nv.constant0._ZN3cub17CUB_200400_750_NS6detail8for_each13static_kernelINS2_12policy_hub_t12policy_350_tEmN6thrust20THRUST_200400_750_NS8cuda_cub20__uninitialized_fill7functorINS7_10device_ptrIiEEiEEEEvT0_T1_
   23   f748    198  0  4          PROGBITS      42    0       3a .nv.constant0._ZN3cub17CUB_200400_750_NS16DeviceScanKernelINS0_16DeviceScanPolicyIiN6thrust20THRUST_200400_750_NS4plusIvEEE9Policy900ENS4_6detail15normal_iteratorINS4_10device_ptrIiEEEESD_NS0_13ScanTileStateIiLb1EEES6_NS0_6detail10InputValueIiPiEEliEEvT0_T1_T2_iT3_T4_T5_
   24   f8e0    194  0  4          PROGBITS      42    0       3b .nv.constant0._ZN3cub17CUB_200400_750_NS16DeviceScanKernelINS0_16DeviceScanPolicyIiN6thrust20THRUST_200400_750_NS4plusIvEEE9Policy900ENS4_6detail15normal_iteratorINS4_10device_ptrIiEEEESD_NS0_13ScanTileStateIiLb1EEES6_NS0_6detail10InputValueIiPiEEiiEEvT0_T1_T2_iT3_T4_T5_
   25   fa74    16c  0  4          PROGBITS      42    0       3c .nv.constant0._ZN3cub17CUB_200400_750_NS20DeviceScanInitKernelINS0_13ScanTileStateIiLb1EEEEEvT_i
   26   fbe0    1ad  0  4          PROGBITS      42    0       3d .nv.constant0._ZN3cub17CUB_200400_750_NS29DeviceRadixSortOnesweepKernelINS0_21DeviceRadixSortPolicyIiijE9Policy900ELb0EiijiiNS0_6detail21identity_decomposer_tEEEvPT5_S8_PT3_PKS9_PT1_PKSD_PT2_PKSH_T4_iiT6_
   27   fd90    168  0  4          PROGBITS      42    0       3e .nv.constant0._ZN3cub17CUB_200400_750_NS33DeviceRadixSortExclusiveSumKernelINS0_21DeviceRadixSortPolicyIiijE9Policy900EjEEvPT0_
   28   fef8    17d  0  4          PROGBITS      42    0       3f .nv.constant0._ZN3cub17CUB_200400_750_NS30DeviceRadixSortHistogramKernelINS0_21DeviceRadixSortPolicyIiijE9Policy900ELb0EijNS0_6detail21identity_decomposer_tEEEvPT2_PKT1_S7_iiT3_
   29  10078    1bd  0  4          PROGBITS      42    0       40 .nv.constant0._ZN3cub17CUB_200400_750_NS30DeviceRadixSortDownsweepKernelINS0_21DeviceRadixSortPolicyIiijE9Policy900ELb1ELb0EiijNS0_6detail21identity_decomposer_tEEEvPKT2_PS7_PKT3_PSB_PT4_SF_iiNS0_13GridEvenShareISF_EET5_
   2a  10238    1bd  0  4          PROGBITS      42    0       41 .nv.constant0._ZN3cub17CUB_200400_750_NS30DeviceRadixSortDownsweepKernelINS0_21DeviceRadixSortPolicyIiijE9Policy900ELb0ELb0EiijNS0_6detail21identity_decomposer_tEEEvPKT2_PS7_PKT3_PSB_PT4_SF_iiNS0_13GridEvenShareISF_EET5_
   2b  103f8    16c  0  4          PROGBITS      42    0       42 .nv.constant0._ZN3cub17CUB_200400_750_NS23RadixSortScanBinsKernelINS0_21DeviceRadixSortPolicyIiijE9Policy900EjEEvPT0_i
   2c  10564    1a5  0  4          PROGBITS      42    0       43 .nv.constant0._ZN3cub17CUB_200400_750_NS28DeviceRadixSortUpsweepKernelINS0_21DeviceRadixSortPolicyIiijE9Policy900ELb1ELb0EijNS0_6detail21identity_decomposer_tEEEvPKT2_PT3_SA_iiNS0_13GridEvenShareISA_EET4_
   2d  1070c    1a5  0  4          PROGBITS      42    0       44 .nv.constant0._ZN3cub17CUB_200400_750_NS28DeviceRadixSortUpsweepKernelINS0_21DeviceRadixSortPolicyIiijE9Policy900ELb0ELb0EijNS0_6detail21identity_decomposer_tEEEvPKT2_PT3_SA_iiNS0_13GridEvenShareISA_EET4_
   2e  108b4    18d  0  4          PROGBITS      42    0       45 .nv.constant0._ZN3cub17CUB_200400_750_NS31DeviceRadixSortSingleTileKernelINS0_21DeviceRadixSortPolicyIiijE9Policy900ELb0EiijNS0_6detail21identity_decomposer_tEEEvPKT1_PS7_PKT2_PSB_T3_iiT4_
   2f  10a44    160  0  4          PROGBITS      42    0       46 .nv.constant0._ZN3cub17CUB_200400_750_NS11EmptyKernelIvEEvv
   30  10ba4    194  0  4          PROGBITS      42    0       47 .nv.constant0._Z14merge_suffixesPKiS0_PiS0_S0_iii
   31  10d38    180  0  4          PROGBITS      42    0       48 .nv.constant0._Z6Set_S0PiPKiS1_ii
   32  10eb8    178  0  4          PROGBITS      42    0       49 .nv.constant0._Z9InitScan2PKiPiii
   33  11030    174  0  4          PROGBITS      42    0       4a .nv.constant0._Z26Compute_SA_From_UniqueRankPKiPii
   34  111a4    174  0  4          PROGBITS      42    0       4b .nv.constant0._Z18Store_unique_ranksPiPKii
   35  11318    180  0  4          PROGBITS      42    0       4c .nv.constant0._Z15Set_suffix_rankPiPKiS1_ii
   36  11498    17c  0  4          PROGBITS      42    0       4d .nv.constant0._Z8InitScanPKiS0_Pii
   37  11614    180  0  4          PROGBITS      42    0       4e .nv.constant0._Z7keybitsPiPKiS1_ii
   38  11794    16c  0  4          PROGBITS      42    0       4f .nv.constant0._Z10Init_d_s12Pii
   39  11900    200  0 80          PROGBITS       6    3  a000064 .text._ZN3cub17CUB_200400_750_NS6detail8for_each13static_kernelINS2_12policy_hub_t12policy_350_tEmN6thrust20THRUST_200400_750_NS8cuda_cub20__uninitialized_fill7functorINS7_10device_ptrIiEEiEEEEvT0_T1_
   3a  11b00   4600  0 80          PROGBITS  100006    3 37000065 .text._ZN3cub17CUB_200400_750_NS16DeviceScanKernelINS0_16DeviceScanPolicyIiN6thrust20THRUST_200400_750_NS4plusIvEEE9Policy900ENS4_6detail15normal_iteratorINS4_10device_ptrIiEEEESD_NS0_13ScanTileStateIiLb1EEES6_NS0_6detail10InputValueIiPiEEliEEvT0_T1_T2_iT3_T4_T5_
   3b  16100   4680  0 80          PROGBITS  100006    3 35000066 .text._ZN3cub17CUB_200400_750_NS16DeviceScanKernelINS0_16DeviceScanPolicyIiN6thrust20THRUST_200400_750_NS4plusIvEEE9Policy900ENS4_6detail15normal_iteratorINS4_10device_ptrIiEEEESD_NS0_13ScanTileStateIiLb1EEES6_NS0_6detail10InputValueIiPiEEiiEEvT0_T1_T2_iT3_T4_T5_
   3c  1a780    180  0 80          PROGBITS       6    3  a000067 .text._ZN3cub17CUB_200400_750_NS20DeviceScanInitKernelINS0_13ScanTileStateIiLb1EEEEEvT_i
   3d  1a900  16b00  0 80          PROGBITS  100006    3 c9000068 .text._ZN3cub17CUB_200400_750_NS29DeviceRadixSortOnesweepKernelINS0_21DeviceRadixSortPolicyIiijE9Policy900ELb0EiijiiNS0_6detail21identity_decomposer_tEEEvPT5_S8_PT3_PKS9_PT1_PKSD_PT2_PKSH_T4_iiT6_
   3e  31400    780  0 80          PROGBITS  100006    3 18000069 .text._ZN3cub17CUB_200400_750_NS33DeviceRadixSortExclusiveSumKernelINS0_21DeviceRadixSortPolicyIiijE9Policy900EjEEvPT0_
   3f  31b80   2880  0 80          PROGBITS  100006    3 3a00006a .text._ZN3cub17CUB_200400_750_NS30DeviceRadixSortHistogramKernelINS0_21DeviceRadixSortPolicyIiijE9Policy900ELb0EijNS0_6detail21identity_decomposer_tEEEvPT2_PKT1_S7_iiT3_
   40  34400  15c80  0 80          PROGBITS  100006    3 f200006b .text._ZN3cub17CUB_200400_750_NS30DeviceRadixSortDownsweepKernelINS0_21DeviceRadixSortPolicyIiijE9Policy900ELb1ELb0EiijNS0_6detail21identity_decomposer_tEEEvPKT2_PS7_PKT3_PSB_PT4_SF_iiNS0_13GridEvenShareISF_EET5_
   41  4a080   eb80  0 80          PROGBITS  100006    3 8000006c .text._ZN3cub17CUB_200400_750_NS30DeviceRadixSortDownsweepKernelINS0_21DeviceRadixSortPolicyIiijE9Policy900ELb0ELb0EiijNS0_6detail21identity_decomposer_tEEEvPKT2_PS7_PKT3_PSB_PT4_SF_iiNS0_13GridEvenShareISF_EET5_
   42  58c00   3200  0 80          PROGBITS  100006    3 4b00006d .text._ZN3cub17CUB_200400_750_NS23RadixSortScanBinsKernelINS0_21DeviceRadixSortPolicyIiijE9Policy900EjEEvPT0_i
   43  5be00   7200  0 80          PROGBITS  100006    3 4000006e .text._ZN3cub17CUB_200400_750_NS28DeviceRadixSortUpsweepKernelINS0_21DeviceRadixSortPolicyIiijE9Policy900ELb1ELb0EijNS0_6detail21identity_decomposer_tEEEvPKT2_PT3_SA_iiNS0_13GridEvenShareISA_EET4_
   44  63000   5c80  0 80          PROGBITS  100006    3 3800006f .text._ZN3cub17CUB_200400_750_NS28DeviceRadixSortUpsweepKernelINS0_21DeviceRadixSortPolicyIiijE9Policy900ELb0ELb0EijNS0_6detail21identity_decomposer_tEEEvPKT2_PT3_SA_iiNS0_13GridEvenShareISA_EET4_
   45  68c80   3780  0 80          PROGBITS  100006    3 80000070 .text._ZN3cub17CUB_200400_750_NS31DeviceRadixSortSingleTileKernelINS0_21DeviceRadixSortPolicyIiijE9Policy900ELb0EiijNS0_6detail21identity_decomposer_tEEEvPKT1_PS7_PKT2_PSB_T3_iiT4_
   46  6c400     80  0 80          PROGBITS       6    3  4000071 .text._ZN3cub17CUB_200400_750_NS11EmptyKernelIvEEvv
   47  6c480    d80  0 80          PROGBITS       6    3 1a000072 .text._Z14merge_suffixesPKiS0_PiS0_S0_iii
   48  6d200    180  0 80          PROGBITS       6    3  a000073 .text._Z6Set_S0PiPKiS1_ii
   49  6d380    180  0 80          PROGBITS       6    3  8000074 .text._Z9InitScan2PKiPiii
   4a  6d500    100  0 80          PROGBITS       6    3  a000075 .text._Z26Compute_SA_From_UniqueRankPKiPii
   4b  6d600    100  0 80          PROGBITS       6    3  a000076 .text._Z18Store_unique_ranksPiPKii
   4c  6d700    180  0 80          PROGBITS       6    3  e000077 .text._Z15Set_suffix_rankPiPKiS1_ii
   4d  6d880    280  0 80          PROGBITS       6    3  e000078 .text._Z8InitScanPKiS0_Pii
   4e  6db00    100  0 80          PROGBITS       6    3  a000079 .text._Z7keybitsPiPKiS1_ii
   4f  6dc00    100  0 80          PROGBITS       6    3  800007a .text._Z10Init_d_s12Pii
   50  6dd00     13  0  1            NOBITS       3    0        0 .nv.global
   51  6dd00   1e10  0 10            NOBITS      43    0       3a .nv.shared._ZN3cub17CUB_200400_750_NS16DeviceScanKernelINS0_16DeviceScanPolicyIiN6thrust20THRUST_200400_750_NS4plusIvEEE9Policy900ENS4_6detail15normal_iteratorINS4_10device_ptrIiEEEESD_NS0_13ScanTileStateIiLb1EEES6_NS0_6detail10InputValueIiPiEEliEEvT0_T1_T2_iT3_T4_T5_
   52  6dd00   1e10  0 10            NOBITS      43    0       3b .nv.shared._ZN3cub17CUB_200400_750_NS16DeviceScanKernelINS0_16DeviceScanPolicyIiN6thrust20THRUST_200400_750_NS4plusIvEEE9Policy900ENS4_6detail15normal_iteratorINS4_10device_ptrIiEEEESD_NS0_13ScanTileStateIiLb1EEES6_NS0_6detail10InputValueIiPiEEiiEEvT0_T1_T2_iT3_T4_T5_
   53  6dd00   bc00  0 10            NOBITS      43    0       3d .nv.shared._ZN3cub17CUB_200400_750_NS29DeviceRadixSortOnesweepKernelINS0_21DeviceRadixSortPolicyIiijE9Policy900ELb0EiijiiNS0_6detail21identity_decomposer_tEEEvPT5_S8_PT3_PKS9_PT1_PKSD_PT2_PKSH_T4_iiT6_
   54  6dd00    4a0  0 10            NOBITS      43    0       3e .nv.shared._ZN3cub17CUB_200400_750_NS33DeviceRadixSortExclusiveSumKernelINS0_21DeviceRadixSortPolicyIiijE9Policy900EjEEvPT0_
   55  6dd00   8000  0  4            NOBITS      43    0       3f .nv.shared._ZN3cub17CUB_200400_750_NS30DeviceRadixSortHistogramKernelINS0_21DeviceRadixSortPolicyIiijE9Policy900ELb0EijNS0_6detail21identity_decomposer_tEEEvPT2_PKT1_S7_iiT3_
   56  6dd00   bd00  0 10            NOBITS      43    0       40 .nv.shared._ZN3cub17CUB_200400_750_NS30DeviceRadixSortDownsweepKernelINS0_21DeviceRadixSortPolicyIiijE9Policy900ELb1ELb0EiijNS0_6detail21identity_decomposer_tEEEvPKT2_PS7_PKT3_PSB_PT4_SF_iiNS0_13GridEvenShareISF_EET5_
   57  6dd00   ba00  0 10            NOBITS      43    0       41 .nv.shared._ZN3cub17CUB_200400_750_NS30DeviceRadixSortDownsweepKernelINS0_21DeviceRadixSortPolicyIiijE9Policy900ELb0ELb0EiijNS0_6detail21identity_decomposer_tEEEvPKT2_PS7_PKT3_PSB_PT4_SF_iiNS0_13GridEvenShareISF_EET5_
   58  6dd00   b810  0 10            NOBITS      43    0       42 .nv.shared._ZN3cub17CUB_200400_750_NS23RadixSortScanBinsKernelINS0_21DeviceRadixSortPolicyIiijE9Policy900EjEEvPT0_i
   59  6dd00   4000  0 10            NOBITS      43    0       43 .nv.shared._ZN3cub17CUB_200400_750_NS28DeviceRadixSortUpsweepKernelINS0_21DeviceRadixSortPolicyIiijE9Policy900ELb1ELb0EijNS0_6detail21identity_decomposer_tEEEvPKT2_PT3_SA_iiNS0_13GridEvenShareISA_EET4_
   5a  6dd00   8000  0 10            NOBITS      43    0       44 .nv.shared._ZN3cub17CUB_200400_750_NS28DeviceRadixSortUpsweepKernelINS0_21DeviceRadixSortPolicyIiijE9Policy900ELb0ELb0EijNS0_6detail21identity_decomposer_tEEEvPKT2_PT3_SA_iiNS0_13GridEvenShareISA_EET4_
   5b  6dd00   8440  0 10            NOBITS      43    0       45 .nv.shared._ZN3cub17CUB_200400_750_NS31DeviceRadixSortSingleTileKernelINS0_21DeviceRadixSortPolicyIiijE9Policy900ELb0EiijNS0_6detail21identity_decomposer_tEEEvPKT1_PS7_PKT2_PSB_T3_iiT4_

.section .strtab

.section .shstrtab

.section .symtab
 index           value           size      info    other  shndx    name  
   0               0               0        0        0      0     (null)
 0x1               0               0      0x3        0   0x39     .text._ZN3cub17CUB_200400_750_NS6detail8for_each13static_kernelINS2_12policy_hub_t12policy_350_tEmN6thrust20THRUST_200400_750_NS8cuda_cub20__uninitialized_fill7functorINS7_10device_ptrIiEEiEEEEvT0_T1_
 0x2               0               0      0x3        0   0x50     .nv.global
 0x3             0x5             0x1      0x1        0   0x50     _ZN37_INTERNAL_c345ae34_7_main_cu_164f1af64cuda3std3__439_GLOBAL__N__c345ae34_7_main_cu_164f1af66ignoreE
 0x4               0               0      0x3        0   0x21     .nv.constant4
 0x5             0xa             0x1      0x1        0   0x50     _ZN37_INTERNAL_c345ae34_7_main_cu_164f1af64cuda3std3__48in_placeE
 0x6               0             0x1      0x1        0   0x50     _ZN37_INTERNAL_c345ae34_7_main_cu_164f1af64cuda3std6ranges3__45__cpo4swapE
 0x7            0x10             0x1      0x1        0   0x50     _ZN37_INTERNAL_c345ae34_7_main_cu_164f1af66thrust20THRUST_200400_750_NS6system6detail10sequential3seqE
 0x8             0x9             0x1      0x1        0   0x50     _ZN37_INTERNAL_c345ae34_7_main_cu_164f1af66thrust20THRUST_200400_750_NS6system3cpp3parE
 0x9             0xe             0x1      0x1        0   0x50     _ZN37_INTERNAL_c345ae34_7_main_cu_164f1af66thrust20THRUST_200400_750_NS8cuda_cub3parE
 0xa             0x4             0x1      0x1        0   0x50     _ZN37_INTERNAL_c345ae34_7_main_cu_164f1af66thrust20THRUST_200400_750_NS8cuda_cub10par_nosyncE
 0xb            0x12             0x1      0x1        0   0x50     _ZN37_INTERNAL_c345ae34_7_main_cu_164f1af66thrust20THRUST_200400_750_NS12placeholders2_1E
 0xc             0x7             0x1      0x1        0   0x50     _ZN37_INTERNAL_c345ae34_7_main_cu_164f1af66thrust20THRUST_200400_750_NS12placeholders2_2E
 0xd             0xc             0x1      0x1        0   0x50     _ZN37_INTERNAL_c345ae34_7_main_cu_164f1af66thrust20THRUST_200400_750_NS12placeholders2_3E
 0xe             0x2             0x1      0x1        0   0x50     _ZN37_INTERNAL_c345ae34_7_main_cu_164f1af66thrust20THRUST_200400_750_NS12placeholders2_4E
 0xf             0xf             0x1      0x1        0   0x50     _ZN37_INTERNAL_c345ae34_7_main_cu_164f1af66thrust20THRUST_200400_750_NS12placeholders2_5E
 0x10             0x8             0x1      0x1        0   0x50     _ZN37_INTERNAL_c345ae34_7_main_cu_164f1af66thrust20THRUST_200400_750_NS12placeholders2_6E
 0x11             0xd             0x1      0x1        0   0x50     _ZN37_INTERNAL_c345ae34_7_main_cu_164f1af66thrust20THRUST_200400_750_NS12placeholders2_7E
 0x12             0x3             0x1      0x1        0   0x50     _ZN37_INTERNAL_c345ae34_7_main_cu_164f1af66thrust20THRUST_200400_750_NS12placeholders2_8E
 0x13            0x11             0x1      0x1        0   0x50     _ZN37_INTERNAL_c345ae34_7_main_cu_164f1af66thrust20THRUST_200400_750_NS12placeholders2_9E
 0x14             0x6             0x1      0x1        0   0x50     _ZN37_INTERNAL_c345ae34_7_main_cu_164f1af66thrust20THRUST_200400_750_NS12placeholders3_10E
 0x15             0xb             0x1      0x1        0   0x50     _ZN37_INTERNAL_c345ae34_7_main_cu_164f1af66thrust20THRUST_200400_750_NS3seqE
 0x16             0x1             0x1      0x1        0   0x50     _ZN37_INTERNAL_c345ae34_7_main_cu_164f1af66thrust20THRUST_200400_750_NS6deviceE
 0x17               0               0      0x3        0   0x22     .nv.constant0._ZN3cub17CUB_200400_750_NS6detail8for_each13static_kernelINS2_12policy_hub_t12policy_350_tEmN6thrust20THRUST_200400_750_NS8cuda_cub20__uninitialized_fill7functorINS7_10device_ptrIiEEiEEEEvT0_T1_
 0x18               0               0      0x3        0   0x3a     .text._ZN3cub17CUB_200400_750_NS16DeviceScanKernelINS0_16DeviceScanPolicyIiN6thrust20THRUST_200400_750_NS4plusIvEEE9Policy900ENS4_6detail15normal_iteratorINS4_10device_ptrIiEEEESD_NS0_13ScanTileStateIiLb1EEES6_NS0_6detail10InputValueIiPiEEliEEvT0_T1_T2_iT3_T4_T5_
 0x19               0               0      0x3        0   0x51     .nv.shared._ZN3cub17CUB_200400_750_NS16DeviceScanKernelINS0_16DeviceScanPolicyIiN6thrust20THRUST_200400_750_NS4plusIvEEE9Policy900ENS4_6detail15normal_iteratorINS4_10device_ptrIiEEEESD_NS0_13ScanTileStateIiLb1EEES6_NS0_6detail10InputValueIiPiEEliEEvT0_T1_T2_iT3_T4_T5_
 0x1a          0x4420            0x40     0x22        0   0x3a     $__internal_0_$__cuda_sm70_shflsync_down
 0x1b          0x4460            0xa0     0x22        0   0x3a     $__internal_1_$__cuda_sm70_votesync_all
 0x1c          0x4500            0x70     0x22        0   0x3a     $__internal_2_$__cuda_sm70_votesync_any
 0x1d          0x4570            0x90     0x22        0   0x3a     $__internal_3_$__cuda_sm70_votesync_ballot
 0x1e               0               0      0x3        0   0x23     .nv.constant0._ZN3cub17CUB_200400_750_NS16DeviceScanKernelINS0_16DeviceScanPolicyIiN6thrust20THRUST_200400_750_NS4plusIvEEE9Policy900ENS4_6detail15normal_iteratorINS4_10device_ptrIiEEEESD_NS0_13ScanTileStateIiLb1EEES6_NS0_6detail10InputValueIiPiEEliEEvT0_T1_T2_iT3_T4_T5_
 0x1f               0               0      0x3        0   0x3b     .text._ZN3cub17CUB_200400_750_NS16DeviceScanKernelINS0_16DeviceScanPolicyIiN6thrust20THRUST_200400_750_NS4plusIvEEE9Policy900ENS4_6detail15normal_iteratorINS4_10device_ptrIiEEEESD_NS0_13ScanTileStateIiLb1EEES6_NS0_6detail10InputValueIiPiEEiiEEvT0_T1_T2_iT3_T4_T5_
 0x20               0               0      0x3        0   0x52     .nv.shared._ZN3cub17CUB_200400_750_NS16DeviceScanKernelINS0_16DeviceScanPolicyIiN6thrust20THRUST_200400_750_NS4plusIvEEE9Policy900ENS4_6detail15normal_iteratorINS4_10device_ptrIiEEEESD_NS0_13ScanTileStateIiLb1EEES6_NS0_6detail10InputValueIiPiEEiiEEvT0_T1_T2_iT3_T4_T5_
 0x21          0x4450            0x40     0x22        0   0x3b     $__internal_4_$__cuda_sm70_shflsync_down
 0x22          0x4490            0xa0     0x22        0   0x3b     $__internal_5_$__cuda_sm70_votesync_all
 0x23          0x4530            0x70     0x22        0   0x3b     $__internal_6_$__cuda_sm70_votesync_any
 0x24          0x45a0            0xe0     0x22        0   0x3b     $__internal_7_$__cuda_sm70_votesync_ballot
 0x25               0               0      0x3        0   0x24     .nv.constant0._ZN3cub17CUB_200400_750_NS16DeviceScanKernelINS0_16DeviceScanPolicyIiN6thrust20THRUST_200400_750_NS4plusIvEEE9Policy900ENS4_6detail15normal_iteratorINS4_10device_ptrIiEEEESD_NS0_13ScanTileStateIiLb1EEES6_NS0_6detail10InputValueIiPiEEiiEEvT0_T1_T2_iT3_T4_T5_
 0x26               0               0      0x3        0   0x3c     .text._ZN3cub17CUB_200400_750_NS20DeviceScanInitKernelINS0_13ScanTileStateIiLb1EEEEEvT_i
 0x27               0               0      0x3        0   0x25     .nv.constant0._ZN3cub17CUB_200400_750_NS20DeviceScanInitKernelINS0_13ScanTileStateIiLb1EEEEEvT_i
 0x28               0               0      0x3        0   0x3d     .text._ZN3cub17CUB_200400_750_NS29DeviceRadixSortOnesweepKernelINS0_21DeviceRadixSortPolicyIiijE9Policy900ELb0EiijiiNS0_6detail21identity_decomposer_tEEEvPT5_S8_PT3_PKS9_PT1_PKSD_PT2_PKSH_T4_iiT6_
 0x29               0               0      0x3        0   0x53     .nv.shared._ZN3cub17CUB_200400_750_NS29DeviceRadixSortOnesweepKernelINS0_21DeviceRadixSortPolicyIiijE9Policy900ELb0EiijiiNS0_6detail21identity_decomposer_tEEEvPT5_S8_PT3_PKS9_PT1_PKSD_PT2_PKSH_T4_iiT6_
 0x2a         0x16a30            0x50     0x22        0   0x3d     $__internal_8_$__cuda_sm70_shflsync_up_p
 0x2b         0x16a80            0x80     0x22        0   0x3d     $__internal_9_$__cuda_sm70_votesync_ballot
 0x2c               0               0      0x3        0   0x26     .nv.constant0._ZN3cub17CUB_200400_750_NS29DeviceRadixSortOnesweepKernelINS0_21DeviceRadixSortPolicyIiijE9Policy900ELb0EiijiiNS0_6detail21identity_decomposer_tEEEvPT5_S8_PT3_PKS9_PT1_PKSD_PT2_PKSH_T4_iiT6_
 0x2d               0               0      0x3        0   0x3e     .text._ZN3cub17CUB_200400_750_NS33DeviceRadixSortExclusiveSumKernelINS0_21DeviceRadixSortPolicyIiijE9Policy900EjEEvPT0_
 0x2e               0               0      0x3        0   0x54     .nv.shared._ZN3cub17CUB_200400_750_NS33DeviceRadixSortExclusiveSumKernelINS0_21DeviceRadixSortPolicyIiijE9Policy900EjEEvPT0_
 0x2f           0x6e0            0xa0     0x22        0   0x3e     $__internal_10_$__cuda_sm70_shflsync_up_p
 0x30               0               0      0x3        0   0x27     .nv.constant0._ZN3cub17CUB_200400_750_NS33DeviceRadixSortExclusiveSumKernelINS0_21DeviceRadixSortPolicyIiijE9Policy900EjEEvPT0_
 0x31               0               0      0x3        0   0x3f     .text._ZN3cub17CUB_200400_750_NS30DeviceRadixSortHistogramKernelINS0_21DeviceRadixSortPolicyIiijE9Policy900ELb0EijNS0_6detail21identity_decomposer_tEEEvPT2_PKT1_S7_iiT3_
 0x32               0               0      0x3        0   0x55     .nv.shared._ZN3cub17CUB_200400_750_NS30DeviceRadixSortHistogramKernelINS0_21DeviceRadixSortPolicyIiijE9Policy900ELb0EijNS0_6detail21identity_decomposer_tEEEvPT2_PKT1_S7_iiT3_
 0x33               0               0      0x3        0   0x28     .nv.constant0._ZN3cub17CUB_200400_750_NS30DeviceRadixSortHistogramKernelINS0_21DeviceRadixSortPolicyIiijE9Policy900ELb0EijNS0_6detail21identity_decomposer_tEEEvPT2_PKT1_S7_iiT3_
 0x34               0               0      0x3        0   0x40     .text._ZN3cub17CUB_200400_750_NS30DeviceRadixSortDownsweepKernelINS0_21DeviceRadixSortPolicyIiijE9Policy900ELb1ELb0EiijNS0_6detail21identity_decomposer_tEEEvPKT2_PS7_PKT3_PSB_PT4_SF_iiNS0_13GridEvenShareISF_EET5_
 0x35               0               0      0x3        0   0x56     .nv.shared._ZN3cub17CUB_200400_750_NS30DeviceRadixSortDownsweepKernelINS0_21DeviceRadixSortPolicyIiijE9Policy900ELb1ELb0EiijNS0_6detail21identity_decomposer_tEEEvPKT2_PS7_PKT3_PSB_PT4_SF_iiNS0_13GridEvenShareISF_EET5_
 0x36         0x15b90            0x50     0x22        0   0x40     $__internal_11_$__cuda_sm70_shflsync_idx
 0x37         0x15be0            0xa0     0x22        0   0x40     $__internal_12_$__cuda_sm70_shflsync_up_p
 0x38               0               0      0x3        0   0x29     .nv.constant0._ZN3cub17CUB_200400_750_NS30DeviceRadixSortDownsweepKernelINS0_21DeviceRadixSortPolicyIiijE9Policy900ELb1ELb0EiijNS0_6detail21identity_decomposer_tEEEvPKT2_PS7_PKT3_PSB_PT4_SF_iiNS0_13GridEvenShareISF_EET5_
 0x39               0               0      0x3        0   0x41     .text._ZN3cub17CUB_200400_750_NS30DeviceRadixSortDownsweepKernelINS0_21DeviceRadixSortPolicyIiijE9Policy900ELb0ELb0EiijNS0_6detail21identity_decomposer_tEEEvPKT2_PS7_PKT3_PSB_PT4_SF_iiNS0_13GridEvenShareISF_EET5_
 0x3a               0               0      0x3        0   0x57     .nv.shared._ZN3cub17CUB_200400_750_NS30DeviceRadixSortDownsweepKernelINS0_21DeviceRadixSortPolicyIiijE9Policy900ELb0ELb0EiijNS0_6detail21identity_decomposer_tEEEvPKT2_PS7_PKT3_PSB_PT4_SF_iiNS0_13GridEvenShareISF_EET5_
 0x3b          0xea90            0x40     0x22        0   0x41     $__internal_13_$__cuda_sm70_shflsync_idx
 0x3c          0xead0            0xb0     0x22        0   0x41     $__internal_14_$__cuda_sm70_votesync_ballot
 0x3d               0               0      0x3        0   0x2a     .nv.constant0._ZN3cub17CUB_200400_750_NS30DeviceRadixSortDownsweepKernelINS0_21DeviceRadixSortPolicyIiijE9Policy900ELb0ELb0EiijNS0_6detail21identity_decomposer_tEEEvPKT2_PS7_PKT3_PSB_PT4_SF_iiNS0_13GridEvenShareISF_EET5_
 0x3e               0               0      0x3        0   0x42     .text._ZN3cub17CUB_200400_750_NS23RadixSortScanBinsKernelINS0_21DeviceRadixSortPolicyIiijE9Policy900EjEEvPT0_i
 0x3f               0               0      0x3        0   0x58     .nv.shared._ZN3cub17CUB_200400_750_NS23RadixSortScanBinsKernelINS0_21DeviceRadixSortPolicyIiijE9Policy900EjEEvPT0_i
 0x40          0x3120            0x50     0x22        0   0x42     $__internal_15_$__cuda_sm70_shflsync_idx
 0x41          0x3170            0x50     0x22        0   0x42     $__internal_16_$__cuda_sm70_shflsync_up_p
 0x42          0x31c0            0x40     0x22        0   0x42     $__internal_17_$__cuda_sm70_warpsync
 0x43               0               0      0x3        0   0x2b     .nv.constant0._ZN3cub17CUB_200400_750_NS23RadixSortScanBinsKernelINS0_21DeviceRadixSortPolicyIiijE9Policy900EjEEvPT0_i
 0x44               0               0      0x3        0   0x43     .text._ZN3cub17CUB_200400_750_NS28DeviceRadixSortUpsweepKernelINS0_21DeviceRadixSortPolicyIiijE9Policy900ELb1ELb0EijNS0_6detail21identity_decomposer_tEEEvPKT2_PT3_SA_iiNS0_13GridEvenShareISA_EET4_
 0x45               0               0      0x3        0   0x59     .nv.shared._ZN3cub17CUB_200400_750_NS28DeviceRadixSortUpsweepKernelINS0_21DeviceRadixSortPolicyIiijE9Policy900ELb1ELb0EijNS0_6detail21identity_decomposer_tEEEvPKT2_PT3_SA_iiNS0_13GridEvenShareISA_EET4_
 0x46               0               0      0x3        0   0x2c     .nv.constant0._ZN3cub17CUB_200400_750_NS28DeviceRadixSortUpsweepKernelINS0_21DeviceRadixSortPolicyIiijE9Policy900ELb1ELb0EijNS0_6detail21identity_decomposer_tEEEvPKT2_PT3_SA_iiNS0_13GridEvenShareISA_EET4_
 0x47               0               0      0x3        0   0x44     .text._ZN3cub17CUB_200400_750_NS28DeviceRadixSortUpsweepKernelINS0_21DeviceRadixSortPolicyIiijE9Policy900ELb0ELb0EijNS0_6detail21identity_decomposer_tEEEvPKT2_PT3_SA_iiNS0_13GridEvenShareISA_EET4_
 0x48               0               0      0x3        0   0x5a     .nv.shared._ZN3cub17CUB_200400_750_NS28DeviceRadixSortUpsweepKernelINS0_21DeviceRadixSortPolicyIiijE9Policy900ELb0ELb0EijNS0_6detail21identity_decomposer_tEEEvPKT2_PT3_SA_iiNS0_13GridEvenShareISA_EET4_
 0x49               0               0      0x3        0   0x2d     .nv.constant0._ZN3cub17CUB_200400_750_NS28DeviceRadixSortUpsweepKernelINS0_21DeviceRadixSortPolicyIiijE9Policy900ELb0ELb0EijNS0_6detail21identity_decomposer_tEEEvPKT2_PT3_SA_iiNS0_13GridEvenShareISA_EET4_
 0x4a               0               0      0x3        0   0x45     .text._ZN3cub17CUB_200400_750_NS31DeviceRadixSortSingleTileKernelINS0_21DeviceRadixSortPolicyIiijE9Policy900ELb0EiijNS0_6detail21identity_decomposer_tEEEvPKT1_PS7_PKT2_PSB_T3_iiT4_
 0x4b               0               0      0x3        0   0x5b     .nv.shared._ZN3cub17CUB_200400_750_NS31DeviceRadixSortSingleTileKernelINS0_21DeviceRadixSortPolicyIiijE9Policy900ELb0EiijNS0_6detail21identity_decomposer_tEEEvPKT1_PS7_PKT2_PSB_T3_iiT4_
 0x4c               0               0      0x3        0   0x2e     .nv.constant0._ZN3cub17CUB_200400_750_NS31DeviceRadixSortSingleTileKernelINS0_21DeviceRadixSortPolicyIiijE9Policy900ELb0EiijNS0_6detail21identity_decomposer_tEEEvPKT1_PS7_PKT2_PSB_T3_iiT4_
 0x4d               0               0      0x3        0   0x46     .text._ZN3cub17CUB_200400_750_NS11EmptyKernelIvEEvv
 0x4e               0               0      0x3        0   0x2f     .nv.constant0._ZN3cub17CUB_200400_750_NS11EmptyKernelIvEEvv
 0x4f               0               0      0x3        0   0x47     .text._Z14merge_suffixesPKiS0_PiS0_S0_iii
 0x50               0               0      0x3        0   0x30     .nv.constant0._Z14merge_suffixesPKiS0_PiS0_S0_iii
 0x51               0               0      0x3        0   0x48     .text._Z6Set_S0PiPKiS1_ii
 0x52               0               0      0x3        0   0x31     .nv.constant0._Z6Set_S0PiPKiS1_ii
 0x53               0               0      0x3        0   0x49     .text._Z9InitScan2PKiPiii
 0x54               0               0      0x3        0   0x32     .nv.constant0._Z9InitScan2PKiPiii
 0x55               0               0      0x3        0   0x4a     .text._Z26Compute_SA_From_UniqueRankPKiPii
 0x56               0               0      0x3        0   0x33     .nv.constant0._Z26Compute_SA_From_UniqueRankPKiPii
 0x57               0               0      0x3        0   0x4b     .text._Z18Store_unique_ranksPiPKii
 0x58               0               0      0x3        0   0x34     .nv.constant0._Z18Store_unique_ranksPiPKii
 0x59               0               0      0x3        0   0x4c     .text._Z15Set_suffix_rankPiPKiS1_ii
 0x5a               0               0      0x3        0   0x35     .nv.constant0._Z15Set_suffix_rankPiPKiS1_ii
 0x5b               0               0      0x3        0   0x4d     .text._Z8InitScanPKiS0_Pii
 0x5c               0               0      0x3        0   0x36     .nv.constant0._Z8InitScanPKiS0_Pii
 0x5d               0               0      0x3        0   0x4e     .text._Z7keybitsPiPKiS1_ii
 0x5e               0               0      0x3        0   0x37     .nv.constant0._Z7keybitsPiPKiS1_ii
 0x5f               0               0      0x3        0   0x4f     .text._Z10Init_d_s12Pii
 0x60               0               0      0x3        0   0x38     .nv.constant0._Z10Init_d_s12Pii
 0x61               0               0      0x3        0    0x4     .debug_frame
 0x62               0               0      0x3        0   0x1d     .nv.callgraph
 0x63               0               0      0x3        0   0x1e     .nv.rel.action
 0x64               0           0x200     0x12     0x10   0x39     _ZN3cub17CUB_200400_750_NS6detail8for_each13static_kernelINS2_12policy_hub_t12policy_350_tEmN6thrust20THRUST_200400_750_NS8cuda_cub20__uninitialized_fill7functorINS7_10device_ptrIiEEiEEEEvT0_T1_
 0x65               0          0x4600     0x12     0x10   0x3a     _ZN3cub17CUB_200400_750_NS16DeviceScanKernelINS0_16DeviceScanPolicyIiN6thrust20THRUST_200400_750_NS4plusIvEEE9Policy900ENS4_6detail15normal_iteratorINS4_10device_ptrIiEEEESD_NS0_13ScanTileStateIiLb1EEES6_NS0_6detail10InputValueIiPiEEliEEvT0_T1_T2_iT3_T4_T5_
 0x66               0          0x4680     0x12     0x10   0x3b     _ZN3cub17CUB_200400_750_NS16DeviceScanKernelINS0_16DeviceScanPolicyIiN6thrust20THRUST_200400_750_NS4plusIvEEE9Policy900ENS4_6detail15normal_iteratorINS4_10device_ptrIiEEEESD_NS0_13ScanTileStateIiLb1EEES6_NS0_6detail10InputValueIiPiEEiiEEvT0_T1_T2_iT3_T4_T5_
 0x67               0           0x180     0x12     0x10   0x3c     _ZN3cub17CUB_200400_750_NS20DeviceScanInitKernelINS0_13ScanTileStateIiLb1EEEEEvT_i
 0x68               0         0x16b00     0x12     0x10   0x3d     _ZN3cub17CUB_200400_750_NS29DeviceRadixSortOnesweepKernelINS0_21DeviceRadixSortPolicyIiijE9Policy900ELb0EiijiiNS0_6detail21identity_decomposer_tEEEvPT5_S8_PT3_PKS9_PT1_PKSD_PT2_PKSH_T4_iiT6_
 0x69               0           0x780     0x12     0x10   0x3e     _ZN3cub17CUB_200400_750_NS33DeviceRadixSortExclusiveSumKernelINS0_21DeviceRadixSortPolicyIiijE9Policy900EjEEvPT0_
 0x6a               0          0x2880     0x12     0x10   0x3f     _ZN3cub17CUB_200400_750_NS30DeviceRadixSortHistogramKernelINS0_21DeviceRadixSortPolicyIiijE9Policy900ELb0EijNS0_6detail21identity_decomposer_tEEEvPT2_PKT1_S7_iiT3_
 0x6b               0         0x15c80     0x12     0x10   0x40     _ZN3cub17CUB_200400_750_NS30DeviceRadixSortDownsweepKernelINS0_21DeviceRadixSortPolicyIiijE9Policy900ELb1ELb0EiijNS0_6detail21identity_decomposer_tEEEvPKT2_PS7_PKT3_PSB_PT4_SF_iiNS0_13GridEvenShareISF_EET5_
 0x6c               0          0xeb80     0x12     0x10   0x41     _ZN3cub17CUB_200400_750_NS30DeviceRadixSortDownsweepKernelINS0_21DeviceRadixSortPolicyIiijE9Policy900ELb0ELb0EiijNS0_6detail21identity_decomposer_tEEEvPKT2_PS7_PKT3_PSB_PT4_SF_iiNS0_13GridEvenShareISF_EET5_
 0x6d               0          0x3200     0x12     0x10   0x42     _ZN3cub17CUB_200400_750_NS23RadixSortScanBinsKernelINS0_21DeviceRadixSortPolicyIiijE9Policy900EjEEvPT0_i
 0x6e               0          0x7200     0x12     0x10   0x43     _ZN3cub17CUB_200400_750_NS28DeviceRadixSortUpsweepKernelINS0_21DeviceRadixSortPolicyIiijE9Policy900ELb1ELb0EijNS0_6detail21identity_decomposer_tEEEvPKT2_PT3_SA_iiNS0_13GridEvenShareISA_EET4_
 0x6f               0          0x5c80     0x12     0x10   0x44     _ZN3cub17CUB_200400_750_NS28DeviceRadixSortUpsweepKernelINS0_21DeviceRadixSortPolicyIiijE9Policy900ELb0ELb0EijNS0_6detail21identity_decomposer_tEEEvPKT2_PT3_SA_iiNS0_13GridEvenShareISA_EET4_
 0x70               0          0x3780     0x12     0x10   0x45     _ZN3cub17CUB_200400_750_NS31DeviceRadixSortSingleTileKernelINS0_21DeviceRadixSortPolicyIiijE9Policy900ELb0EiijNS0_6detail21identity_decomposer_tEEEvPKT1_PS7_PKT2_PSB_T3_iiT4_
 0x71               0            0x80     0x12     0x10   0x46     _ZN3cub17CUB_200400_750_NS11EmptyKernelIvEEvv
 0x72               0           0xd80     0x12     0x10   0x47     _Z14merge_suffixesPKiS0_PiS0_S0_iii
 0x73               0           0x180     0x12     0x10   0x48     _Z6Set_S0PiPKiS1_ii
 0x74               0           0x180     0x12     0x10   0x49     _Z9InitScan2PKiPiii
 0x75               0           0x100     0x12     0x10   0x4a     _Z26Compute_SA_From_UniqueRankPKiPii
 0x76               0           0x100     0x12     0x10   0x4b     _Z18Store_unique_ranksPiPKii
 0x77               0           0x180     0x12     0x10   0x4c     _Z15Set_suffix_rankPiPKiS1_ii
 0x78               0           0x280     0x12     0x10   0x4d     _Z8InitScanPKiS0_Pii
 0x79               0           0x100     0x12     0x10   0x4e     _Z7keybitsPiPKiS1_ii
 0x7a               0           0x100     0x12     0x10   0x4f     _Z10Init_d_s12Pii


.nv.constant4
0x00000000 0x00000000 0x00000000 0x00000000
0x00000000 0x00000000 0x00000000 0x00000000
0x00000000 0x00000000 0x00000000 0x00000000
0x00000000 0x00000000 0x00000000 0x00000000
0x00000000 0x00000000 0x00000000 0x00000000
0x00000000 0x00000000 0x00000000 0x00000000
0x00000000 0x00000000 0x00000000 0x00000000
0x00000000 0x00000000 0x00000000 0x00000000
0x00000000 0x00000000 0x00000000 0x00000000
0x00000000 0x00000000 

.section .rel.nv.constant4	REL
0x90    _ZN37_INTERNAL_c345ae34_7_main_cu_164f1af66thrust20THRUST_200400_750_NS6deviceE    R_CUDA_64
0x88    _ZN37_INTERNAL_c345ae34_7_main_cu_164f1af66thrust20THRUST_200400_750_NS3seqE    R_CUDA_64
0x80    _ZN37_INTERNAL_c345ae34_7_main_cu_164f1af66thrust20THRUST_200400_750_NS12placeholders3_10E    R_CUDA_64
0x78    _ZN37_INTERNAL_c345ae34_7_main_cu_164f1af66thrust20THRUST_200400_750_NS12placeholders2_9E    R_CUDA_64
0x70    _ZN37_INTERNAL_c345ae34_7_main_cu_164f1af66thrust20THRUST_200400_750_NS12placeholders2_8E    R_CUDA_64
0x68    _ZN37_INTERNAL_c345ae34_7_main_cu_164f1af66thrust20THRUST_200400_750_NS12placeholders2_7E    R_CUDA_64
0x60    _ZN37_INTERNAL_c345ae34_7_main_cu_164f1af66thrust20THRUST_200400_750_NS12placeholders2_6E    R_CUDA_64
0x58    _ZN37_INTERNAL_c345ae34_7_main_cu_164f1af66thrust20THRUST_200400_750_NS12placeholders2_5E    R_CUDA_64
0x50    _ZN37_INTERNAL_c345ae34_7_main_cu_164f1af66thrust20THRUST_200400_750_NS12placeholders2_4E    R_CUDA_64
0x48    _ZN37_INTERNAL_c345ae34_7_main_cu_164f1af66thrust20THRUST_200400_750_NS12placeholders2_3E    R_CUDA_64
0x40    _ZN37_INTERNAL_c345ae34_7_main_cu_164f1af66thrust20THRUST_200400_750_NS12placeholders2_2E    R_CUDA_64
0x38    _ZN37_INTERNAL_c345ae34_7_main_cu_164f1af66thrust20THRUST_200400_750_NS12placeholders2_1E    R_CUDA_64
0x30    _ZN37_INTERNAL_c345ae34_7_main_cu_164f1af66thrust20THRUST_200400_750_NS8cuda_cub10par_nosyncE    R_CUDA_64
0x28    _ZN37_INTERNAL_c345ae34_7_main_cu_164f1af66thrust20THRUST_200400_750_NS8cuda_cub3parE    R_CUDA_64
0x20    _ZN37_INTERNAL_c345ae34_7_main_cu_164f1af66thrust20THRUST_200400_750_NS6system3cpp3parE    R_CUDA_64
0x18    _ZN37_INTERNAL_c345ae34_7_main_cu_164f1af66thrust20THRUST_200400_750_NS6system6detail10sequential3seqE    R_CUDA_64
0x10    _ZN37_INTERNAL_c345ae34_7_main_cu_164f1af64cuda3std6ranges3__45__cpo4swapE    R_CUDA_64
0x8    _ZN37_INTERNAL_c345ae34_7_main_cu_164f1af64cuda3std3__48in_placeE    R_CUDA_64
0x0    _ZN37_INTERNAL_c345ae34_7_main_cu_164f1af64cuda3std3__439_GLOBAL__N__c345ae34_7_main_cu_164f1af66ignoreE    R_CUDA_64


.nv.constant0._ZN3cub17CUB_200400_750_NS6detail8for_each13static_kernelINS2_12policy_hub_t12policy_350_tEmN6thrust20THRUST_200400_750_NS8cuda_cub20__uninitialized_fill7functorINS7_10device_ptrIiEEiEEEEvT0_T1_
0x00000000 0x00000000 0x00000000 0x00000000
0x00000000 0x00000000 0x00000000 0x00000000
0x00000000 0x00000000 0x00000000 0x00000000
0x00000000 0x00000000 0x00000000 0x00000000
0x00000000 0x00000000 0x00000000 0x00000000
0x00000000 0x00000000 0x00000000 0x00000000
0x00000000 0x00000000 0x00000000 0x00000000
0x00000000 0x00000000 0x00000000 0x00000000
0x00000000 0x00000000 0x00000000 0x00000000
0x00000000 0x00000000 0x00000000 0x00000000
0x00000000 0x00000000 0x00000000 0x00000000
0x00000000 0x00000000 0x00000000 0x00000000
0x00000000 0x00000000 0x00000000 0x00000000
0x00000000 0x00000000 0x00000000 0x00000000
0x00000000 0x00000000 0x00000000 0x00000000
0x00000000 0x00000000 0x00000000 0x00000000
0x00000000 0x00000000 0x00000000 0x00000000
0x00000000 0x00000000 0x00000000 0x00000000
0x00000000 0x00000000 0x00000000 0x00000000
0x00000000 0x00000000 0x00000000 0x00000000
0x00000000 0x00000000 0x00000000 0x00000000
0x00000000 0x00000000 0x00000000 0x00000000
0x00000000 0x00000000 0x00000000 0x00000000
0x00000000 0x00000000 


.nv.constant0._ZN3cub17CUB_200400_750_NS16DeviceScanKernelINS0_16DeviceScanPolicyIiN6thrust20THRUST_200400_750_NS4plusIvEEE9Policy900ENS4_6detail15normal_iteratorINS4_10device_ptrIiEEEESD_NS0_13ScanTileStateIiLb1EEES6_NS0_6detail10InputValueIiPiEEliEEvT0_T1_T2_iT3_T4_T5_
0x00000000 0x00000000 0x00000000 0x00000000
0x00000000 0x00000000 0x00000000 0x00000000
0x00000000 0x00000000 0x00000000 0x00000000
0x00000000 0x00000000 0x00000000 0x00000000
0x00000000 0x00000000 0x00000000 0x00000000
0x00000000 0x00000000 0x00000000 0x00000000
0x00000000 0x00000000 0x00000000 0x00000000
0x00000000 0x00000000 0x00000000 0x00000000
0x00000000 0x00000000 0x00000000 0x00000000
0x00000000 0x00000000 0x00000000 0x00000000
0x00000000 0x00000000 0x00000000 0x00000000
0x00000000 0x00000000 0x00000000 0x00000000
0x00000000 0x00000000 0x00000000 0x00000000
0x00000000 0x00000000 0x00000000 0x00000000
0x00000000 0x00000000 0x00000000 0x00000000
0x00000000 0x00000000 0x00000000 0x00000000
0x00000000 0x00000000 0x00000000 0x00000000
0x00000000 0x00000000 0x00000000 0x00000000
0x00000000 0x00000000 0x00000000 0x00000000
0x00000000 0x00000000 0x00000000 0x00000000
0x00000000 0x00000000 0x00000000 0x00000000
0x00000000 0x00000000 0x00000000 0x00000000
0x00000000 0x00000000 0x00000000 0x00000000
0x00000000 0x00000000 0x00000000 0x00000000
0x00000000 0x00000000 0x00000000 0x00000000
0x00000000 0x00000000 


.nv.constant0._ZN3cub17CUB_200400_750_NS16DeviceScanKernelINS0_16DeviceScanPolicyIiN6thrust20THRUST_200400_750_NS4plusIvEEE9Policy900ENS4_6detail15normal_iteratorINS4_10device_ptrIiEEEESD_NS0_13ScanTileStateIiLb1EEES6_NS0_6detail10InputValueIiPiEEiiEEvT0_T1_T2_iT3_T4_T5_
0x00000000 0x00000000 0x00000000 0x00000000
0x00000000 0x00000000 0x00000000 0x00000000
0x00000000 0x00000000 0x00000000 0x00000000
0x00000000 0x00000000 0x00000000 0x00000000
0x00000000 0x00000000 0x00000000 0x00000000
0x00000000 0x00000000 0x00000000 0x00000000
0x00000000 0x00000000 0x00000000 0x00000000
0x00000000 0x00000000 0x00000000 0x00000000
0x00000000 0x00000000 0x00000000 0x00000000
0x00000000 0x00000000 0x00000000 0x00000000
0x00000000 0x00000000 0x00000000 0x00000000
0x00000000 0x00000000 0x00000000 0x00000000
0x00000000 0x00000000 0x00000000 0x00000000
0x00000000 0x00000000 0x00000000 0x00000000
0x00000000 0x00000000 0x00000000 0x00000000
0x00000000 0x00000000 0x00000000 0x00000000
0x00000000 0x00000000 0x00000000 0x00000000
0x00000000 0x00000000 0x00000000 0x00000000
0x00000000 0x00000000 0x00000000 0x00000000
0x00000000 0x00000000 0x00000000 0x00000000
0x00000000 0x00000000 0x00000000 0x00000000
0x00000000 0x00000000 0x00000000 0x00000000
0x00000000 0x00000000 0x00000000 0x00000000
0x00000000 0x00000000 0x00000000 0x00000000
0x00000000 0x00000000 0x00000000 0x00000000
0x00000000 


.nv.constant0._ZN3cub17CUB_200400_750_NS20DeviceScanInitKernelINS0_13ScanTileStateIiLb1EEEEEvT_i
0x00000000 0x00000000 0x00000000 0x00000000
0x00000000 0x00000000 0x00000000 0x00000000
0x00000000 0x00000000 0x00000000 0x00000000
0x00000000 0x00000000 0x00000000 0x00000000
0x00000000 0x00000000 0x00000000 0x00000000
0x00000000 0x00000000 0x00000000 0x00000000
0x00000000 0x00000000 0x00000000 0x00000000
0x00000000 0x00000000 0x00000000 0x00000000
0x00000000 0x00000000 0x00000000 0x00000000
0x00000000 0x00000000 0x00000000 0x00000000
0x00000000 0x00000000 0x00000000 0x00000000
0x00000000 0x00000000 0x00000000 0x00000000
0x00000000 0x00000000 0x00000000 0x00000000
0x00000000 0x00000000 0x00000000 0x00000000
0x00000000 0x00000000 0x00000000 0x00000000
0x00000000 0x00000000 0x00000000 0x00000000
0x00000000 0x00000000 0x00000000 0x00000000
0x00000000 0x00000000 0x00000000 0x00000000
0x00000000 0x00000000 0x00000000 0x00000000
0x00000000 0x00000000 0x00000000 0x00000000
0x00000000 0x00000000 0x00000000 0x00000000
0x00000000 0x00000000 0x00000000 0x00000000
0x00000000 0x00000000 0x00000000 


.nv.constant0._ZN3cub17CUB_200400_750_NS29DeviceRadixSortOnesweepKernelINS0_21DeviceRadixSortPolicyIiijE9Policy900ELb0EiijiiNS0_6detail21identity_decomposer_tEEEvPT5_S8_PT3_PKS9_PT1_PKSD_PT2_PKSH_T4_iiT6_
0x00000000 0x00000000 0x00000000 0x00000000
0x00000000 0x00000000 0x00000000 0x00000000
0x00000000 0x00000000 0x00000000 0x00000000
0x00000000 0x00000000 0x00000000 0x00000000
0x00000000 0x00000000 0x00000000 0x00000000
0x00000000 0x00000000 0x00000000 0x00000000
0x00000000 0x00000000 0x00000000 0x00000000
0x00000000 0x00000000 0x00000000 0x00000000
0x00000000 0x00000000 0x00000000 0x00000000
0x00000000 0x00000000 0x00000000 0x00000000
0x00000000 0x00000000 0x00000000 0x00000000
0x00000000 0x00000000 0x00000000 0x00000000
0x00000000 0x00000000 0x00000000 0x00000000
0x00000000 0x00000000 0x00000000 0x00000000
0x00000000 0x00000000 0x00000000 0x00000000
0x00000000 0x00000000 0x00000000 0x00000000
0x00000000 0x00000000 0x00000000 0x00000000
0x00000000 0x00000000 0x00000000 0x00000000
0x00000000 0x00000000 0x00000000 0x00000000
0x00000000 0x00000000 0x00000000 0x00000000
0x00000000 0x00000000 0x00000000 0x00000000
0x00000000 0x00000000 0x00000000 0x00000000
0x00000000 0x00000000 0x00000000 0x00000000
0x00000000 0x00000000 0x00000000 0x00000000
0x00000000 0x00000000 0x00000000 0x00000000
0x00000000 0x00000000 0x00000000 0x00000000
0x00000000 0x00000000 0x00000000 0x00 


.nv.constant0._ZN3cub17CUB_200400_750_NS33DeviceRadixSortExclusiveSumKernelINS0_21DeviceRadixSortPolicyIiijE9Policy900EjEEvPT0_
0x00000000 0x00000000 0x00000000 0x00000000
0x00000000 0x00000000 0x00000000 0x00000000
0x00000000 0x00000000 0x00000000 0x00000000
0x00000000 0x00000000 0x00000000 0x00000000
0x00000000 0x00000000 0x00000000 0x00000000
0x00000000 0x00000000 0x00000000 0x00000000
0x00000000 0x00000000 0x00000000 0x00000000
0x00000000 0x00000000 0x00000000 0x00000000
0x00000000 0x00000000 0x00000000 0x00000000
0x00000000 0x00000000 0x00000000 0x00000000
0x00000000 0x00000000 0x00000000 0x00000000
0x00000000 0x00000000 0x00000000 0x00000000
0x00000000 0x00000000 0x00000000 0x00000000
0x00000000 0x00000000 0x00000000 0x00000000
0x00000000 0x00000000 0x00000000 0x00000000
0x00000000 0x00000000 0x00000000 0x00000000
0x00000000 0x00000000 0x00000000 0x00000000
0x00000000 0x00000000 0x00000000 0x00000000
0x00000000 0x00000000 0x00000000 0x00000000
0x00000000 0x00000000 0x00000000 0x00000000
0x00000000 0x00000000 0x00000000 0x00000000
0x00000000 0x00000000 0x00000000 0x00000000
0x00000000 0x00000000 


.nv.constant0._ZN3cub17CUB_200400_750_NS30DeviceRadixSortHistogramKernelINS0_21DeviceRadixSortPolicyIiijE9Policy900ELb0EijNS0_6detail21identity_decomposer_tEEEvPT2_PKT1_S7_iiT3_
0x00000000 0x00000000 0x00000000 0x00000000
0x00000000 0x00000000 0x00000000 0x00000000
0x00000000 0x00000000 0x00000000 0x00000000
0x00000000 0x00000000 0x00000000 0x00000000
0x00000000 0x00000000 0x00000000 0x00000000
0x00000000 0x00000000 0x00000000 0x00000000
0x00000000 0x00000000 0x00000000 0x00000000
0x00000000 0x00000000 0x00000000 0x00000000
0x00000000 0x00000000 0x00000000 0x00000000
0x00000000 0x00000000 0x00000000 0x00000000
0x00000000 0x00000000 0x00000000 0x00000000
0x00000000 0x00000000 0x00000000 0x00000000
0x00000000 0x00000000 0x00000000 0x00000000
0x00000000 0x00000000 0x00000000 0x00000000
0x00000000 0x00000000 0x00000000 0x00000000
0x00000000 0x00000000 0x00000000 0x00000000
0x00000000 0x00000000 0x00000000 0x00000000
0x00000000 0x00000000 0x00000000 0x00000000
0x00000000 0x00000000 0x00000000 0x00000000
0x00000000 0x00000000 0x00000000 0x00000000
0x00000000 0x00000000 0x00000000 0x00000000
0x00000000 0x00000000 0x00000000 0x00000000
0x00000000 0x00000000 0x00000000 0x00000000
0x00000000 0x00000000 0x00000000 0x00 


.nv.constant0._ZN3cub17CUB_200400_750_NS30DeviceRadixSortDownsweepKernelINS0_21DeviceRadixSortPolicyIiijE9Policy900ELb1ELb0EiijNS0_6detail21identity_decomposer_tEEEvPKT2_PS7_PKT3_PSB_PT4_SF_iiNS0_13GridEvenShareISF_EET5_
0x00000000 0x00000000 0x00000000 0x00000000
0x00000000 0x00000000 0x00000000 0x00000000
0x00000000 0x00000000 0x00000000 0x00000000
0x00000000 0x00000000 0x00000000 0x00000000
0x00000000 0x00000000 0x00000000 0x00000000
0x00000000 0x00000000 0x00000000 0x00000000
0x00000000 0x00000000 0x00000000 0x00000000
0x00000000 0x00000000 0x00000000 0x00000000
0x00000000 0x00000000 0x00000000 0x00000000
0x00000000 0x00000000 0x00000000 0x00000000
0x00000000 0x00000000 0x00000000 0x00000000
0x00000000 0x00000000 0x00000000 0x00000000
0x00000000 0x00000000 0x00000000 0x00000000
0x00000000 0x00000000 0x00000000 0x00000000
0x00000000 0x00000000 0x00000000 0x00000000
0x00000000 0x00000000 0x00000000 0x00000000
0x00000000 0x00000000 0x00000000 0x00000000
0x00000000 0x00000000 0x00000000 0x00000000
0x00000000 0x00000000 0x00000000 0x00000000
0x00000000 0x00000000 0x00000000 0x00000000
0x00000000 0x00000000 0x00000000 0x00000000
0x00000000 0x00000000 0x00000000 0x00000000
0x00000000 0x00000000 0x00000000 0x00000000
0x00000000 0x00000000 0x00000000 0x00000000
0x00000000 0x00000000 0x00000000 0x00000000
0x00000000 0x00000000 0x00000000 0x00000000
0x00000000 0x00000000 0x00000000 0x00000000
0x00000000 0x00000000 0x00000000 0x00 


.nv.constant0._ZN3cub17CUB_200400_750_NS30DeviceRadixSortDownsweepKernelINS0_21DeviceRadixSortPolicyIiijE9Policy900ELb0ELb0EiijNS0_6detail21identity_decomposer_tEEEvPKT2_PS7_PKT3_PSB_PT4_SF_iiNS0_13GridEvenShareISF_EET5_
0x00000000 0x00000000 0x00000000 0x00000000
0x00000000 0x00000000 0x00000000 0x00000000
0x00000000 0x00000000 0x00000000 0x00000000
0x00000000 0x00000000 0x00000000 0x00000000
0x00000000 0x00000000 0x00000000 0x00000000
0x00000000 0x00000000 0x00000000 0x00000000
0x00000000 0x00000000 0x00000000 0x00000000
0x00000000 0x00000000 0x00000000 0x00000000
0x00000000 0x00000000 0x00000000 0x00000000
0x00000000 0x00000000 0x00000000 0x00000000
0x00000000 0x00000000 0x00000000 0x00000000
0x00000000 0x00000000 0x00000000 0x00000000
0x00000000 0x00000000 0x00000000 0x00000000
0x00000000 0x00000000 0x00000000 0x00000000
0x00000000 0x00000000 0x00000000 0x00000000
0x00000000 0x00000000 0x00000000 0x00000000
0x00000000 0x00000000 0x00000000 0x00000000
0x00000000 0x00000000 0x00000000 0x00000000
0x00000000 0x00000000 0x00000000 0x00000000
0x00000000 0x00000000 0x00000000 0x00000000
0x00000000 0x00000000 0x00000000 0x00000000
0x00000000 0x00000000 0x00000000 0x00000000
0x00000000 0x00000000 0x00000000 0x00000000
0x00000000 0x00000000 0x00000000 0x00000000
0x00000000 0x00000000 0x00000000 0x00000000
0x00000000 0x00000000 0x00000000 0x00000000
0x00000000 0x00000000 0x00000000 0x00000000
0x00000000 0x00000000 0x00000000 0x00 


.nv.constant0._ZN3cub17CUB_200400_750_NS23RadixSortScanBinsKernelINS0_21DeviceRadixSortPolicyIiijE9Policy900EjEEvPT0_i
0x00000000 0x00000000 0x00000000 0x00000000
0x00000000 0x00000000 0x00000000 0x00000000
0x00000000 0x00000000 0x00000000 0x00000000
0x00000000 0x00000000 0x00000000 0x00000000
0x00000000 0x00000000 0x00000000 0x00000000
0x00000000 0x00000000 0x00000000 0x00000000
0x00000000 0x00000000 0x00000000 0x00000000
0x00000000 0x00000000 0x00000000 0x00000000
0x00000000 0x00000000 0x00000000 0x00000000
0x00000000 0x00000000 0x00000000 0x00000000
0x00000000 0x00000000 0x00000000 0x00000000
0x00000000 0x00000000 0x00000000 0x00000000
0x00000000 0x00000000 0x00000000 0x00000000
0x00000000 0x00000000 0x00000000 0x00000000
0x00000000 0x00000000 0x00000000 0x00000000
0x00000000 0x00000000 0x00000000 0x00000000
0x00000000 0x00000000 0x00000000 0x00000000
0x00000000 0x00000000 0x00000000 0x00000000
0x00000000 0x00000000 0x00000000 0x00000000
0x00000000 0x00000000 0x00000000 0x00000000
0x00000000 0x00000000 0x00000000 0x00000000
0x00000000 0x00000000 0x00000000 0x00000000
0x00000000 0x00000000 0x00000000 


.nv.constant0._ZN3cub17CUB_200400_750_NS28DeviceRadixSortUpsweepKernelINS0_21DeviceRadixSortPolicyIiijE9Policy900ELb1ELb0EijNS0_6detail21identity_decomposer_tEEEvPKT2_PT3_SA_iiNS0_13GridEvenShareISA_EET4_
0x00000000 0x00000000 0x00000000 0x00000000
0x00000000 0x00000000 0x00000000 0x00000000
0x00000000 0x00000000 0x00000000 0x00000000
0x00000000 0x00000000 0x00000000 0x00000000
0x00000000 0x00000000 0x00000000 0x00000000
0x00000000 0x00000000 0x00000000 0x00000000
0x00000000 0x00000000 0x00000000 0x00000000
0x00000000 0x00000000 0x00000000 0x00000000
0x00000000 0x00000000 0x00000000 0x00000000
0x00000000 0x00000000 0x00000000 0x00000000
0x00000000 0x00000000 0x00000000 0x00000000
0x00000000 0x00000000 0x00000000 0x00000000
0x00000000 0x00000000 0x00000000 0x00000000
0x00000000 0x00000000 0x00000000 0x00000000
0x00000000 0x00000000 0x00000000 0x00000000
0x00000000 0x00000000 0x00000000 0x00000000
0x00000000 0x00000000 0x00000000 0x00000000
0x00000000 0x00000000 0x00000000 0x00000000
0x00000000 0x00000000 0x00000000 0x00000000
0x00000000 0x00000000 0x00000000 0x00000000
0x00000000 0x00000000 0x00000000 0x00000000
0x00000000 0x00000000 0x00000000 0x00000000
0x00000000 0x00000000 0x00000000 0x00000000
0x00000000 0x00000000 0x00000000 0x00000000
0x00000000 0x00000000 0x00000000 0x00000000
0x00000000 0x00000000 0x00000000 0x00000000
0x00000000 0x00 


.nv.constant0._ZN3cub17CUB_200400_750_NS28DeviceRadixSortUpsweepKernelINS0_21DeviceRadixSortPolicyIiijE9Policy900ELb0ELb0EijNS0_6detail21identity_decomposer_tEEEvPKT2_PT3_SA_iiNS0_13GridEvenShareISA_EET4_
0x00000000 0x00000000 0x00000000 0x00000000
0x00000000 0x00000000 0x00000000 0x00000000
0x00000000 0x00000000 0x00000000 0x00000000
0x00000000 0x00000000 0x00000000 0x00000000
0x00000000 0x00000000 0x00000000 0x00000000
0x00000000 0x00000000 0x00000000 0x00000000
0x00000000 0x00000000 0x00000000 0x00000000
0x00000000 0x00000000 0x00000000 0x00000000
0x00000000 0x00000000 0x00000000 0x00000000
0x00000000 0x00000000 0x00000000 0x00000000
0x00000000 0x00000000 0x00000000 0x00000000
0x00000000 0x00000000 0x00000000 0x00000000
0x00000000 0x00000000 0x00000000 0x00000000
0x00000000 0x00000000 0x00000000 0x00000000
0x00000000 0x00000000 0x00000000 0x00000000
0x00000000 0x00000000 0x00000000 0x00000000
0x00000000 0x00000000 0x00000000 0x00000000
0x00000000 0x00000000 0x00000000 0x00000000
0x00000000 0x00000000 0x00000000 0x00000000
0x00000000 0x00000000 0x00000000 0x00000000
0x00000000 0x00000000 0x00000000 0x00000000
0x00000000 0x00000000 0x00000000 0x00000000
0x00000000 0x00000000 0x00000000 0x00000000
0x00000000 0x00000000 0x00000000 0x00000000
0x00000000 0x00000000 0x00000000 0x00000000
0x00000000 0x00000000 0x00000000 0x00000000
0x00000000 0x00 


.nv.constant0._ZN3cub17CUB_200400_750_NS31DeviceRadixSortSingleTileKernelINS0_21DeviceRadixSortPolicyIiijE9Policy900ELb0EiijNS0_6detail21identity_decomposer_tEEEvPKT1_PS7_PKT2_PSB_T3_iiT4_
0x00000000 0x00000000 0x00000000 0x00000000
0x00000000 0x00000000 0x00000000 0x00000000
0x00000000 0x00000000 0x00000000 0x00000000
0x00000000 0x00000000 0x00000000 0x00000000
0x00000000 0x00000000 0x00000000 0x00000000
0x00000000 0x00000000 0x00000000 0x00000000
0x00000000 0x00000000 0x00000000 0x00000000
0x00000000 0x00000000 0x00000000 0x00000000
0x00000000 0x00000000 0x00000000 0x00000000
0x00000000 0x00000000 0x00000000 0x00000000
0x00000000 0x00000000 0x00000000 0x00000000
0x00000000 0x00000000 0x00000000 0x00000000
0x00000000 0x00000000 0x00000000 0x00000000
0x00000000 0x00000000 0x00000000 0x00000000
0x00000000 0x00000000 0x00000000 0x00000000
0x00000000 0x00000000 0x00000000 0x00000000
0x00000000 0x00000000 0x00000000 0x00000000
0x00000000 0x00000000 0x00000000 0x00000000
0x00000000 0x00000000 0x00000000 0x00000000
0x00000000 0x00000000 0x00000000 0x00000000
0x00000000 0x00000000 0x00000000 0x00000000
0x00000000 0x00000000 0x00000000 0x00000000
0x00000000 0x00000000 0x00000000 0x00000000
0x00000000 0x00000000 0x00000000 0x00000000
0x00000000 0x00000000 0x00000000 0x00 


.nv.constant0._ZN3cub17CUB_200400_750_NS11EmptyKernelIvEEvv
0x00000000 0x00000000 0x00000000 0x00000000
0x00000000 0x00000000 0x00000000 0x00000000
0x00000000 0x00000000 0x00000000 0x00000000
0x00000000 0x00000000 0x00000000 0x00000000
0x00000000 0x00000000 0x00000000 0x00000000
0x00000000 0x00000000 0x00000000 0x00000000
0x00000000 0x00000000 0x00000000 0x00000000
0x00000000 0x00000000 0x00000000 0x00000000
0x00000000 0x00000000 0x00000000 0x00000000
0x00000000 0x00000000 0x00000000 0x00000000
0x00000000 0x00000000 0x00000000 0x00000000
0x00000000 0x00000000 0x00000000 0x00000000
0x00000000 0x00000000 0x00000000 0x00000000
0x00000000 0x00000000 0x00000000 0x00000000
0x00000000 0x00000000 0x00000000 0x00000000
0x00000000 0x00000000 0x00000000 0x00000000
0x00000000 0x00000000 0x00000000 0x00000000
0x00000000 0x00000000 0x00000000 0x00000000
0x00000000 0x00000000 0x00000000 0x00000000
0x00000000 0x00000000 0x00000000 0x00000000
0x00000000 0x00000000 0x00000000 0x00000000
0x00000000 0x00000000 0x00000000 0x00000000



.nv.constant0._Z14merge_suffixesPKiS0_PiS0_S0_iii
0x00000000 0x00000000 0x00000000 0x00000000
0x00000000 0x00000000 0x00000000 0x00000000
0x00000000 0x00000000 0x00000000 0x00000000
0x00000000 0x00000000 0x00000000 0x00000000
0x00000000 0x00000000 0x00000000 0x00000000
0x00000000 0x00000000 0x00000000 0x00000000
0x00000000 0x00000000 0x00000000 0x00000000
0x00000000 0x00000000 0x00000000 0x00000000
0x00000000 0x00000000 0x00000000 0x00000000
0x00000000 0x00000000 0x00000000 0x00000000
0x00000000 0x00000000 0x00000000 0x00000000
0x00000000 0x00000000 0x00000000 0x00000000
0x00000000 0x00000000 0x00000000 0x00000000
0x00000000 0x00000000 0x00000000 0x00000000
0x00000000 0x00000000 0x00000000 0x00000000
0x00000000 0x00000000 0x00000000 0x00000000
0x00000000 0x00000000 0x00000000 0x00000000
0x00000000 0x00000000 0x00000000 0x00000000
0x00000000 0x00000000 0x00000000 0x00000000
0x00000000 0x00000000 0x00000000 0x00000000
0x00000000 0x00000000 0x00000000 0x00000000
0x00000000 0x00000000 0x00000000 0x00000000
0x00000000 0x00000000 0x00000000 0x00000000
0x00000000 0x00000000 0x00000000 0x00000000
0x00000000 0x00000000 0x00000000 0x00000000
0x00000000 


.nv.constant0._Z6Set_S0PiPKiS1_ii
0x00000000 0x00000000 0x00000000 0x00000000
0x00000000 0x00000000 0x00000000 0x00000000
0x00000000 0x00000000 0x00000000 0x00000000
0x00000000 0x00000000 0x00000000 0x00000000
0x00000000 0x00000000 0x00000000 0x00000000
0x00000000 0x00000000 0x00000000 0x00000000
0x00000000 0x00000000 0x00000000 0x00000000
0x00000000 0x00000000 0x00000000 0x00000000
0x00000000 0x00000000 0x00000000 0x00000000
0x00000000 0x00000000 0x00000000 0x00000000
0x00000000 0x00000000 0x00000000 0x00000000
0x00000000 0x00000000 0x00000000 0x00000000
0x00000000 0x00000000 0x00000000 0x00000000
0x00000000 0x00000000 0x00000000 0x00000000
0x00000000 0x00000000 0x00000000 0x00000000
0x00000000 0x00000000 0x00000000 0x00000000
0x00000000 0x00000000 0x00000000 0x00000000
0x00000000 0x00000000 0x00000000 0x00000000
0x00000000 0x00000000 0x00000000 0x00000000
0x00000000 0x00000000 0x00000000 0x00000000
0x00000000 0x00000000 0x00000000 0x00000000
0x00000000 0x00000000 0x00000000 0x00000000
0x00000000 0x00000000 0x00000000 0x00000000
0x00000000 0x00000000 0x00000000 0x00000000



.nv.constant0._Z9InitScan2PKiPiii
0x00000000 0x00000000 0x00000000 0x00000000
0x00000000 0x00000000 0x00000000 0x00000000
0x00000000 0x00000000 0x00000000 0x00000000
0x00000000 0x00000000 0x00000000 0x00000000
0x00000000 0x00000000 0x00000000 0x00000000
0x00000000 0x00000000 0x00000000 0x00000000
0x00000000 0x00000000 0x00000000 0x00000000
0x00000000 0x00000000 0x00000000 0x00000000
0x00000000 0x00000000 0x00000000 0x00000000
0x00000000 0x00000000 0x00000000 0x00000000
0x00000000 0x00000000 0x00000000 0x00000000
0x00000000 0x00000000 0x00000000 0x00000000
0x00000000 0x00000000 0x00000000 0x00000000
0x00000000 0x00000000 0x00000000 0x00000000
0x00000000 0x00000000 0x00000000 0x00000000
0x00000000 0x00000000 0x00000000 0x00000000
0x00000000 0x00000000 0x00000000 0x00000000
0x00000000 0x00000000 0x00000000 0x00000000
0x00000000 0x00000000 0x00000000 0x00000000
0x00000000 0x00000000 0x00000000 0x00000000
0x00000000 0x00000000 0x00000000 0x00000000
0x00000000 0x00000000 0x00000000 0x00000000
0x00000000 0x00000000 0x00000000 0x00000000
0x00000000 0x00000000 


.nv.constant0._Z26Compute_SA_From_UniqueRankPKiPii
0x00000000 0x00000000 0x00000000 0x00000000
0x00000000 0x00000000 0x00000000 0x00000000
0x00000000 0x00000000 0x00000000 0x00000000
0x00000000 0x00000000 0x00000000 0x00000000
0x00000000 0x00000000 0x00000000 0x00000000
0x00000000 0x00000000 0x00000000 0x00000000
0x00000000 0x00000000 0x00000000 0x00000000
0x00000000 0x00000000 0x00000000 0x00000000
0x00000000 0x00000000 0x00000000 0x00000000
0x00000000 0x00000000 0x00000000 0x00000000
0x00000000 0x00000000 0x00000000 0x00000000
0x00000000 0x00000000 0x00000000 0x00000000
0x00000000 0x00000000 0x00000000 0x00000000
0x00000000 0x00000000 0x00000000 0x00000000
0x00000000 0x00000000 0x00000000 0x00000000
0x00000000 0x00000000 0x00000000 0x00000000
0x00000000 0x00000000 0x00000000 0x00000000
0x00000000 0x00000000 0x00000000 0x00000000
0x00000000 0x00000000 0x00000000 0x00000000
0x00000000 0x00000000 0x00000000 0x00000000
0x00000000 0x00000000 0x00000000 0x00000000
0x00000000 0x00000000 0x00000000 0x00000000
0x00000000 0x00000000 0x00000000 0x00000000
0x00000000 


.nv.constant0._Z18Store_unique_ranksPiPKii
0x00000000 0x00000000 0x00000000 0x00000000
0x00000000 0x00000000 0x00000000 0x00000000
0x00000000 0x00000000 0x00000000 0x00000000
0x00000000 0x00000000 0x00000000 0x00000000
0x00000000 0x00000000 0x00000000 0x00000000
0x00000000 0x00000000 0x00000000 0x00000000
0x00000000 0x00000000 0x00000000 0x00000000
0x00000000 0x00000000 0x00000000 0x00000000
0x00000000 0x00000000 0x00000000 0x00000000
0x00000000 0x00000000 0x00000000 0x00000000
0x00000000 0x00000000 0x00000000 0x00000000
0x00000000 0x00000000 0x00000000 0x00000000
0x00000000 0x00000000 0x00000000 0x00000000
0x00000000 0x00000000 0x00000000 0x00000000
0x00000000 0x00000000 0x00000000 0x00000000
0x00000000 0x00000000 0x00000000 0x00000000
0x00000000 0x00000000 0x00000000 0x00000000
0x00000000 0x00000000 0x00000000 0x00000000
0x00000000 0x00000000 0x00000000 0x00000000
0x00000000 0x00000000 0x00000000 0x00000000
0x00000000 0x00000000 0x00000000 0x00000000
0x00000000 0x00000000 0x00000000 0x00000000
0x00000000 0x00000000 0x00000000 0x00000000
0x00000000 


.nv.constant0._Z15Set_suffix_rankPiPKiS1_ii
0x00000000 0x00000000 0x00000000 0x00000000
0x00000000 0x00000000 0x00000000 0x00000000
0x00000000 0x00000000 0x00000000 0x00000000
0x00000000 0x00000000 0x00000000 0x00000000
0x00000000 0x00000000 0x00000000 0x00000000
0x00000000 0x00000000 0x00000000 0x00000000
0x00000000 0x00000000 0x00000000 0x00000000
0x00000000 0x00000000 0x00000000 0x00000000
0x00000000 0x00000000 0x00000000 0x00000000
0x00000000 0x00000000 0x00000000 0x00000000
0x00000000 0x00000000 0x00000000 0x00000000
0x00000000 0x00000000 0x00000000 0x00000000
0x00000000 0x00000000 0x00000000 0x00000000
0x00000000 0x00000000 0x00000000 0x00000000
0x00000000 0x00000000 0x00000000 0x00000000
0x00000000 0x00000000 0x00000000 0x00000000
0x00000000 0x00000000 0x00000000 0x00000000
0x00000000 0x00000000 0x00000000 0x00000000
0x00000000 0x00000000 0x00000000 0x00000000
0x00000000 0x00000000 0x00000000 0x00000000
0x00000000 0x00000000 0x00000000 0x00000000
0x00000000 0x00000000 0x00000000 0x00000000
0x00000000 0x00000000 0x00000000 0x00000000
0x00000000 0x00000000 0x00000000 0x00000000



.nv.constant0._Z8InitScanPKiS0_Pii
0x00000000 0x00000000 0x00000000 0x00000000
0x00000000 0x00000000 0x00000000 0x00000000
0x00000000 0x00000000 0x00000000 0x00000000
0x00000000 0x00000000 0x00000000 0x00000000
0x00000000 0x00000000 0x00000000 0x00000000
0x00000000 0x00000000 0x00000000 0x00000000
0x00000000 0x00000000 0x00000000 0x00000000
0x00000000 0x00000000 0x00000000 0x00000000
0x00000000 0x00000000 0x00000000 0x00000000
0x00000000 0x00000000 0x00000000 0x00000000
0x00000000 0x00000000 0x00000000 0x00000000
0x00000000 0x00000000 0x00000000 0x00000000
0x00000000 0x00000000 0x00000000 0x00000000
0x00000000 0x00000000 0x00000000 0x00000000
0x00000000 0x00000000 0x00000000 0x00000000
0x00000000 0x00000000 0x00000000 0x00000000
0x00000000 0x00000000 0x00000000 0x00000000
0x00000000 0x00000000 0x00000000 0x00000000
0x00000000 0x00000000 0x00000000 0x00000000
0x00000000 0x00000000 0x00000000 0x00000000
0x00000000 0x00000000 0x00000000 0x00000000
0x00000000 0x00000000 0x00000000 0x00000000
0x00000000 0x00000000 0x00000000 0x00000000
0x00000000 0x00000000 0x00000000 


.nv.constant0._Z7keybitsPiPKiS1_ii
0x00000000 0x00000000 0x00000000 0x00000000
0x00000000 0x00000000 0x00000000 0x00000000
0x00000000 0x00000000 0x00000000 0x00000000
0x00000000 0x00000000 0x00000000 0x00000000
0x00000000 0x00000000 0x00000000 0x00000000
0x00000000 0x00000000 0x00000000 0x00000000
0x00000000 0x00000000 0x00000000 0x00000000
0x00000000 0x00000000 0x00000000 0x00000000
0x00000000 0x00000000 0x00000000 0x00000000
0x00000000 0x00000000 0x00000000 0x00000000
0x00000000 0x00000000 0x00000000 0x00000000
0x00000000 0x00000000 0x00000000 0x00000000
0x00000000 0x00000000 0x00000000 0x00000000
0x00000000 0x00000000 0x00000000 0x00000000
0x00000000 0x00000000 0x00000000 0x00000000
0x00000000 0x00000000 0x00000000 0x00000000
0x00000000 0x00000000 0x00000000 0x00000000
0x00000000 0x00000000 0x00000000 0x00000000
0x00000000 0x00000000 0x00000000 0x00000000
0x00000000 0x00000000 0x00000000 0x00000000
0x00000000 0x00000000 0x00000000 0x00000000
0x00000000 0x00000000 0x00000000 0x00000000
0x00000000 0x00000000 0x00000000 0x00000000
0x00000000 0x00000000 0x00000000 0x00000000



.nv.constant0._Z10Init_d_s12Pii
0x00000000 0x00000000 0x00000000 0x00000000
0x00000000 0x00000000 0x00000000 0x00000000
0x00000000 0x00000000 0x00000000 0x00000000
0x00000000 0x00000000 0x00000000 0x00000000
0x00000000 0x00000000 0x00000000 0x00000000
0x00000000 0x00000000 0x00000000 0x00000000
0x00000000 0x00000000 0x00000000 0x00000000
0x00000000 0x00000000 0x00000000 0x00000000
0x00000000 0x00000000 0x00000000 0x00000000
0x00000000 0x00000000 0x00000000 0x00000000
0x00000000 0x00000000 0x00000000 0x00000000
0x00000000 0x00000000 0x00000000 0x00000000
0x00000000 0x00000000 0x00000000 0x00000000
0x00000000 0x00000000 0x00000000 0x00000000
0x00000000 0x00000000 0x00000000 0x00000000
0x00000000 0x00000000 0x00000000 0x00000000
0x00000000 0x00000000 0x00000000 0x00000000
0x00000000 0x00000000 0x00000000 0x00000000
0x00000000 0x00000000 0x00000000 0x00000000
0x00000000 0x00000000 0x00000000 0x00000000
0x00000000 0x00000000 0x00000000 0x00000000
0x00000000 0x00000000 0x00000000 0x00000000
0x00000000 0x00000000 0x00000000 


.nv.shared._ZN3cub17CUB_200400_750_NS16DeviceScanKernelINS0_16DeviceScanPolicyIiN6thrust20THRUST_200400_750_NS4plusIvEEE9Policy900ENS4_6detail15normal_iteratorINS4_10device_ptrIiEEEESD_NS0_13ScanTileStateIiLb1EEES6_NS0_6detail10InputValueIiPiEEliEEvT0_T1_T2_iT3_T4_T5_
   No data to be dumped. 


.nv.shared._ZN3cub17CUB_200400_750_NS16DeviceScanKernelINS0_16DeviceScanPolicyIiN6thrust20THRUST_200400_750_NS4plusIvEEE9Policy900ENS4_6detail15normal_iteratorINS4_10device_ptrIiEEEESD_NS0_13ScanTileStateIiLb1EEES6_NS0_6detail10InputValueIiPiEEiiEEvT0_T1_T2_iT3_T4_T5_
   No data to be dumped. 


.nv.shared._ZN3cub17CUB_200400_750_NS29DeviceRadixSortOnesweepKernelINS0_21DeviceRadixSortPolicyIiijE9Policy900ELb0EiijiiNS0_6detail21identity_decomposer_tEEEvPT5_S8_PT3_PKS9_PT1_PKSD_PT2_PKSH_T4_iiT6_
   No data to be dumped. 


.nv.shared._ZN3cub17CUB_200400_750_NS33DeviceRadixSortExclusiveSumKernelINS0_21DeviceRadixSortPolicyIiijE9Policy900EjEEvPT0_
   No data to be dumped. 


.nv.shared._ZN3cub17CUB_200400_750_NS30DeviceRadixSortHistogramKernelINS0_21DeviceRadixSortPolicyIiijE9Policy900ELb0EijNS0_6detail21identity_decomposer_tEEEvPT2_PKT1_S7_iiT3_
   No data to be dumped. 


.nv.shared._ZN3cub17CUB_200400_750_NS30DeviceRadixSortDownsweepKernelINS0_21DeviceRadixSortPolicyIiijE9Policy900ELb1ELb0EiijNS0_6detail21identity_decomposer_tEEEvPKT2_PS7_PKT3_PSB_PT4_SF_iiNS0_13GridEvenShareISF_EET5_
   No data to be dumped. 


.nv.shared._ZN3cub17CUB_200400_750_NS30DeviceRadixSortDownsweepKernelINS0_21DeviceRadixSortPolicyIiijE9Policy900ELb0ELb0EiijNS0_6detail21identity_decomposer_tEEEvPKT2_PS7_PKT3_PSB_PT4_SF_iiNS0_13GridEvenShareISF_EET5_
   No data to be dumped. 


.nv.shared._ZN3cub17CUB_200400_750_NS23RadixSortScanBinsKernelINS0_21DeviceRadixSortPolicyIiijE9Policy900EjEEvPT0_i
   No data to be dumped. 


.nv.shared._ZN3cub17CUB_200400_750_NS28DeviceRadixSortUpsweepKernelINS0_21DeviceRadixSortPolicyIiijE9Policy900ELb1ELb0EijNS0_6detail21identity_decomposer_tEEEvPKT2_PT3_SA_iiNS0_13GridEvenShareISA_EET4_
   No data to be dumped. 


.nv.shared._ZN3cub17CUB_200400_750_NS28DeviceRadixSortUpsweepKernelINS0_21DeviceRadixSortPolicyIiijE9Policy900ELb0ELb0EijNS0_6detail21identity_decomposer_tEEEvPKT2_PT3_SA_iiNS0_13GridEvenShareISA_EET4_
   No data to be dumped. 


.nv.shared._ZN3cub17CUB_200400_750_NS31DeviceRadixSortSingleTileKernelINS0_21DeviceRadixSortPolicyIiijE9Policy900ELb0EiijNS0_6detail21identity_decomposer_tEEEvPKT1_PS7_PKT2_PSB_T3_iiT4_
   No data to be dumped. 


.nv.info
	<0x1>
	Attribute:	EIATTR_REGCOUNT
	Format:	EIFMT_SVAL
	Value:	function: _Z10Init_d_s12Pii(0x7a)	register count: 8
	<0x2>
	Attribute:	EIATTR_MIN_STACK_SIZE
	Format:	EIFMT_SVAL
	Value:	function: _Z10Init_d_s12Pii(0x7a)	min stack size: 0x0
	<0x3>
	Attribute:	EIATTR_FRAME_SIZE
	Format:	EIFMT_SVAL
	Value:	function: _Z10Init_d_s12Pii(0x7a)	frame size: 0x0
	<0x4>
	Attribute:	EIATTR_REGCOUNT
	Format:	EIFMT_SVAL
	Value:	function: _Z7keybitsPiPKiS1_ii(0x79)	register count: 10
	<0x5>
	Attribute:	EIATTR_MIN_STACK_SIZE
	Format:	EIFMT_SVAL
	Value:	function: _Z7keybitsPiPKiS1_ii(0x79)	min stack size: 0x0
	<0x6>
	Attribute:	EIATTR_FRAME_SIZE
	Format:	EIFMT_SVAL
	Value:	function: _Z7keybitsPiPKiS1_ii(0x79)	frame size: 0x0
	<0x7>
	Attribute:	EIATTR_REGCOUNT
	Format:	EIFMT_SVAL
	Value:	function: _Z8InitScanPKiS0_Pii(0x78)	register count: 14
	<0x8>
	Attribute:	EIATTR_MIN_STACK_SIZE
	Format:	EIFMT_SVAL
	Value:	function: _Z8InitScanPKiS0_Pii(0x78)	min stack size: 0x0
	<0x9>
	Attribute:	EIATTR_FRAME_SIZE
	Format:	EIFMT_SVAL
	Value:	function: _Z8InitScanPKiS0_Pii(0x78)	frame size: 0x0
	<0x10>
	Attribute:	EIATTR_REGCOUNT
	Format:	EIFMT_SVAL
	Value:	function: _Z15Set_suffix_rankPiPKiS1_ii(0x77)	register count: 14
	<0x11>
	Attribute:	EIATTR_MIN_STACK_SIZE
	Format:	EIFMT_SVAL
	Value:	function: _Z15Set_suffix_rankPiPKiS1_ii(0x77)	min stack size: 0x0
	<0x12>
	Attribute:	EIATTR_FRAME_SIZE
	Format:	EIFMT_SVAL
	Value:	function: _Z15Set_suffix_rankPiPKiS1_ii(0x77)	frame size: 0x0
	<0x13>
	Attribute:	EIATTR_REGCOUNT
	Format:	EIFMT_SVAL
	Value:	function: _Z18Store_unique_ranksPiPKii(0x76)	register count: 10
	<0x14>
	Attribute:	EIATTR_MIN_STACK_SIZE
	Format:	EIFMT_SVAL
	Value:	function: _Z18Store_unique_ranksPiPKii(0x76)	min stack size: 0x0
	<0x15>
	Attribute:	EIATTR_FRAME_SIZE
	Format:	EIFMT_SVAL
	Value:	function: _Z18Store_unique_ranksPiPKii(0x76)	frame size: 0x0
	<0x16>
	Attribute:	EIATTR_REGCOUNT
	Format:	EIFMT_SVAL
	Value:	function: _Z26Compute_SA_From_UniqueRankPKiPii(0x75)	register count: 10
	<0x17>
	Attribute:	EIATTR_MIN_STACK_SIZE
	Format:	EIFMT_SVAL
	Value:	function: _Z26Compute_SA_From_UniqueRankPKiPii(0x75)	min stack size: 0x0
	<0x18>
	Attribute:	EIATTR_FRAME_SIZE
	Format:	EIFMT_SVAL
	Value:	function: _Z26Compute_SA_From_UniqueRankPKiPii(0x75)	frame size: 0x0
	<0x19>
	Attribute:	EIATTR_REGCOUNT
	Format:	EIFMT_SVAL
	Value:	function: _Z9InitScan2PKiPiii(0x74)	register count: 8
	<0x20>
	Attribute:	EIATTR_MIN_STACK_SIZE
	Format:	EIFMT_SVAL
	Value:	function: _Z9InitScan2PKiPiii(0x74)	min stack size: 0x0
	<0x21>
	Attribute:	EIATTR_FRAME_SIZE
	Format:	EIFMT_SVAL
	Value:	function: _Z9InitScan2PKiPiii(0x74)	frame size: 0x0
	<0x22>
	Attribute:	EIATTR_REGCOUNT
	Format:	EIFMT_SVAL
	Value:	function: _Z6Set_S0PiPKiS1_ii(0x73)	register count: 10
	<0x23>
	Attribute:	EIATTR_MIN_STACK_SIZE
	Format:	EIFMT_SVAL
	Value:	function: _Z6Set_S0PiPKiS1_ii(0x73)	min stack size: 0x0
	<0x24>
	Attribute:	EIATTR_FRAME_SIZE
	Format:	EIFMT_SVAL
	Value:	function: _Z6Set_S0PiPKiS1_ii(0x73)	frame size: 0x0
	<0x25>
	Attribute:	EIATTR_REGCOUNT
	Format:	EIFMT_SVAL
	Value:	function: _Z14merge_suffixesPKiS0_PiS0_S0_iii(0x72)	register count: 26
	<0x26>
	Attribute:	EIATTR_MIN_STACK_SIZE
	Format:	EIFMT_SVAL
	Value:	function: _Z14merge_suffixesPKiS0_PiS0_S0_iii(0x72)	min stack size: 0x0
	<0x27>
	Attribute:	EIATTR_FRAME_SIZE
	Format:	EIFMT_SVAL
	Value:	function: _Z14merge_suffixesPKiS0_PiS0_S0_iii(0x72)	frame size: 0x0
	<0x28>
	Attribute:	EIATTR_REGCOUNT
	Format:	EIFMT_SVAL
	Value:	function: _ZN3cub17CUB_200400_750_NS11EmptyKernelIvEEvv(0x71)	register count: 4
	<0x29>
	Attribute:	EIATTR_MIN_STACK_SIZE
	Format:	EIFMT_SVAL
	Value:	function: _ZN3cub17CUB_200400_750_NS11EmptyKernelIvEEvv(0x71)	min stack size: 0x0
	<0x30>
	Attribute:	EIATTR_FRAME_SIZE
	Format:	EIFMT_SVAL
	Value:	function: _ZN3cub17CUB_200400_750_NS11EmptyKernelIvEEvv(0x71)	frame size: 0x0
	<0x31>
	Attribute:	EIATTR_REGCOUNT
	Format:	EIFMT_SVAL
	Value:	function: _ZN3cub17CUB_200400_750_NS31DeviceRadixSortSingleTileKernelINS0_21DeviceRadixSortPolicyIiijE9Policy900ELb0EiijNS0_6detail21identity_decomposer_tEEEvPKT1_PS7_PKT2_PSB_T3_iiT4_(0x70)	register count: 128
	<0x32>
	Attribute:	EIATTR_MIN_STACK_SIZE
	Format:	EIFMT_SVAL
	Value:	function: _ZN3cub17CUB_200400_750_NS31DeviceRadixSortSingleTileKernelINS0_21DeviceRadixSortPolicyIiijE9Policy900ELb0EiijNS0_6detail21identity_decomposer_tEEEvPKT1_PS7_PKT2_PSB_T3_iiT4_(0x70)	min stack size: 0x0
	<0x33>
	Attribute:	EIATTR_FRAME_SIZE
	Format:	EIFMT_SVAL
	Value:	function: _ZN3cub17CUB_200400_750_NS31DeviceRadixSortSingleTileKernelINS0_21DeviceRadixSortPolicyIiijE9Policy900ELb0EiijNS0_6detail21identity_decomposer_tEEEvPKT1_PS7_PKT2_PSB_T3_iiT4_(0x70)	frame size: 0x0
	<0x34>
	Attribute:	EIATTR_REGCOUNT
	Format:	EIFMT_SVAL
	Value:	function: _ZN3cub17CUB_200400_750_NS28DeviceRadixSortUpsweepKernelINS0_21DeviceRadixSortPolicyIiijE9Policy900ELb0ELb0EijNS0_6detail21identity_decomposer_tEEEvPKT2_PT3_SA_iiNS0_13GridEvenShareISA_EET4_(0x6f)	register count: 56
	<0x35>
	Attribute:	EIATTR_MIN_STACK_SIZE
	Format:	EIFMT_SVAL
	Value:	function: _ZN3cub17CUB_200400_750_NS28DeviceRadixSortUpsweepKernelINS0_21DeviceRadixSortPolicyIiijE9Policy900ELb0ELb0EijNS0_6detail21identity_decomposer_tEEEvPKT2_PT3_SA_iiNS0_13GridEvenShareISA_EET4_(0x6f)	min stack size: 0x0
	<0x36>
	Attribute:	EIATTR_FRAME_SIZE
	Format:	EIFMT_SVAL
	Value:	function: _ZN3cub17CUB_200400_750_NS28DeviceRadixSortUpsweepKernelINS0_21DeviceRadixSortPolicyIiijE9Policy900ELb0ELb0EijNS0_6detail21identity_decomposer_tEEEvPKT2_PT3_SA_iiNS0_13GridEvenShareISA_EET4_(0x6f)	frame size: 0x0
	<0x37>
	Attribute:	EIATTR_REGCOUNT
	Format:	EIFMT_SVAL
	Value:	function: _ZN3cub17CUB_200400_750_NS28DeviceRadixSortUpsweepKernelINS0_21DeviceRadixSortPolicyIiijE9Policy900ELb1ELb0EijNS0_6detail21identity_decomposer_tEEEvPKT2_PT3_SA_iiNS0_13GridEvenShareISA_EET4_(0x6e)	register count: 64
	<0x38>
	Attribute:	EIATTR_MIN_STACK_SIZE
	Format:	EIFMT_SVAL
	Value:	function: _ZN3cub17CUB_200400_750_NS28DeviceRadixSortUpsweepKernelINS0_21DeviceRadixSortPolicyIiijE9Policy900ELb1ELb0EijNS0_6detail21identity_decomposer_tEEEvPKT2_PT3_SA_iiNS0_13GridEvenShareISA_EET4_(0x6e)	min stack size: 0x0
	<0x39>
	Attribute:	EIATTR_FRAME_SIZE
	Format:	EIFMT_SVAL
	Value:	function: _ZN3cub17CUB_200400_750_NS28DeviceRadixSortUpsweepKernelINS0_21DeviceRadixSortPolicyIiijE9Policy900ELb1ELb0EijNS0_6detail21identity_decomposer_tEEEvPKT2_PT3_SA_iiNS0_13GridEvenShareISA_EET4_(0x6e)	frame size: 0x0
	<0x40>
	Attribute:	EIATTR_REGCOUNT
	Format:	EIFMT_SVAL
	Value:	function: _ZN3cub17CUB_200400_750_NS23RadixSortScanBinsKernelINS0_21DeviceRadixSortPolicyIiijE9Policy900EjEEvPT0_i(0x6d)	register count: 75
	<0x41>
	Attribute:	EIATTR_MIN_STACK_SIZE
	Format:	EIFMT_SVAL
	Value:	function: $__internal_17_$__cuda_sm70_warpsync(0x42)	min stack size: 0x0
	<0x42>
	Attribute:	EIATTR_FRAME_SIZE
	Format:	EIFMT_SVAL
	Value:	function: $__internal_17_$__cuda_sm70_warpsync(0x42)	frame size: 0x0
	<0x43>
	Attribute:	EIATTR_MIN_STACK_SIZE
	Format:	EIFMT_SVAL
	Value:	function: $__internal_16_$__cuda_sm70_shflsync_up_p(0x41)	min stack size: 0x0
	<0x44>
	Attribute:	EIATTR_FRAME_SIZE
	Format:	EIFMT_SVAL
	Value:	function: $__internal_16_$__cuda_sm70_shflsync_up_p(0x41)	frame size: 0x0
	<0x45>
	Attribute:	EIATTR_MIN_STACK_SIZE
	Format:	EIFMT_SVAL
	Value:	function: $__internal_15_$__cuda_sm70_shflsync_idx(0x40)	min stack size: 0x0
	<0x46>
	Attribute:	EIATTR_FRAME_SIZE
	Format:	EIFMT_SVAL
	Value:	function: $__internal_15_$__cuda_sm70_shflsync_idx(0x40)	frame size: 0x0
	<0x47>
	Attribute:	EIATTR_MIN_STACK_SIZE
	Format:	EIFMT_SVAL
	Value:	function: _ZN3cub17CUB_200400_750_NS23RadixSortScanBinsKernelINS0_21DeviceRadixSortPolicyIiijE9Policy900EjEEvPT0_i(0x6d)	min stack size: 0x0
	<0x48>
	Attribute:	EIATTR_FRAME_SIZE
	Format:	EIFMT_SVAL
	Value:	function: _ZN3cub17CUB_200400_750_NS23RadixSortScanBinsKernelINS0_21DeviceRadixSortPolicyIiijE9Policy900EjEEvPT0_i(0x6d)	frame size: 0x0
	<0x49>
	Attribute:	EIATTR_REGCOUNT
	Format:	EIFMT_SVAL
	Value:	function: _ZN3cub17CUB_200400_750_NS30DeviceRadixSortDownsweepKernelINS0_21DeviceRadixSortPolicyIiijE9Policy900ELb0ELb0EiijNS0_6detail21identity_decomposer_tEEEvPKT2_PS7_PKT3_PSB_PT4_SF_iiNS0_13GridEvenShareISF_EET5_(0x6c)	register count: 128
	<0x50>
	Attribute:	EIATTR_MIN_STACK_SIZE
	Format:	EIFMT_SVAL
	Value:	function: $__internal_14_$__cuda_sm70_votesync_ballot(0x3c)	min stack size: 0x0
	<0x51>
	Attribute:	EIATTR_FRAME_SIZE
	Format:	EIFMT_SVAL
	Value:	function: $__internal_14_$__cuda_sm70_votesync_ballot(0x3c)	frame size: 0x0
	<0x52>
	Attribute:	EIATTR_MIN_STACK_SIZE
	Format:	EIFMT_SVAL
	Value:	function: $__internal_13_$__cuda_sm70_shflsync_idx(0x3b)	min stack size: 0x0
	<0x53>
	Attribute:	EIATTR_FRAME_SIZE
	Format:	EIFMT_SVAL
	Value:	function: $__internal_13_$__cuda_sm70_shflsync_idx(0x3b)	frame size: 0x0
	<0x54>
	Attribute:	EIATTR_MIN_STACK_SIZE
	Format:	EIFMT_SVAL
	Value:	function: _ZN3cub17CUB_200400_750_NS30DeviceRadixSortDownsweepKernelINS0_21DeviceRadixSortPolicyIiijE9Policy900ELb0ELb0EiijNS0_6detail21identity_decomposer_tEEEvPKT2_PS7_PKT3_PSB_PT4_SF_iiNS0_13GridEvenShareISF_EET5_(0x6c)	min stack size: 0x28
	<0x55>
	Attribute:	EIATTR_FRAME_SIZE
	Format:	EIFMT_SVAL
	Value:	function: _ZN3cub17CUB_200400_750_NS30DeviceRadixSortDownsweepKernelINS0_21DeviceRadixSortPolicyIiijE9Policy900ELb0ELb0EiijNS0_6detail21identity_decomposer_tEEEvPKT2_PS7_PKT3_PSB_PT4_SF_iiNS0_13GridEvenShareISF_EET5_(0x6c)	frame size: 0x28
	<0x56>
	Attribute:	EIATTR_REGCOUNT
	Format:	EIFMT_SVAL
	Value:	function: _ZN3cub17CUB_200400_750_NS30DeviceRadixSortDownsweepKernelINS0_21DeviceRadixSortPolicyIiijE9Policy900ELb1ELb0EiijNS0_6detail21identity_decomposer_tEEEvPKT2_PS7_PKT3_PSB_PT4_SF_iiNS0_13GridEvenShareISF_EET5_(0x6b)	register count: 242
	<0x57>
	Attribute:	EIATTR_MIN_STACK_SIZE
	Format:	EIFMT_SVAL
	Value:	function: $__internal_12_$__cuda_sm70_shflsync_up_p(0x37)	min stack size: 0x0
	<0x58>
	Attribute:	EIATTR_FRAME_SIZE
	Format:	EIFMT_SVAL
	Value:	function: $__internal_12_$__cuda_sm70_shflsync_up_p(0x37)	frame size: 0x0
	<0x59>
	Attribute:	EIATTR_MIN_STACK_SIZE
	Format:	EIFMT_SVAL
	Value:	function: $__internal_11_$__cuda_sm70_shflsync_idx(0x36)	min stack size: 0x0
	<0x60>
	Attribute:	EIATTR_FRAME_SIZE
	Format:	EIFMT_SVAL
	Value:	function: $__internal_11_$__cuda_sm70_shflsync_idx(0x36)	frame size: 0x0
	<0x61>
	Attribute:	EIATTR_MIN_STACK_SIZE
	Format:	EIFMT_SVAL
	Value:	function: _ZN3cub17CUB_200400_750_NS30DeviceRadixSortDownsweepKernelINS0_21DeviceRadixSortPolicyIiijE9Policy900ELb1ELb0EiijNS0_6detail21identity_decomposer_tEEEvPKT2_PS7_PKT3_PSB_PT4_SF_iiNS0_13GridEvenShareISF_EET5_(0x6b)	min stack size: 0x0
	<0x62>
	Attribute:	EIATTR_FRAME_SIZE
	Format:	EIFMT_SVAL
	Value:	function: _ZN3cub17CUB_200400_750_NS30DeviceRadixSortDownsweepKernelINS0_21DeviceRadixSortPolicyIiijE9Policy900ELb1ELb0EiijNS0_6detail21identity_decomposer_tEEEvPKT2_PS7_PKT3_PSB_PT4_SF_iiNS0_13GridEvenShareISF_EET5_(0x6b)	frame size: 0x0
	<0x63>
	Attribute:	EIATTR_REGCOUNT
	Format:	EIFMT_SVAL
	Value:	function: _ZN3cub17CUB_200400_750_NS30DeviceRadixSortHistogramKernelINS0_21DeviceRadixSortPolicyIiijE9Policy900ELb0EijNS0_6detail21identity_decomposer_tEEEvPT2_PKT1_S7_iiT3_(0x6a)	register count: 58
	<0x64>
	Attribute:	EIATTR_MIN_STACK_SIZE
	Format:	EIFMT_SVAL
	Value:	function: _ZN3cub17CUB_200400_750_NS30DeviceRadixSortHistogramKernelINS0_21DeviceRadixSortPolicyIiijE9Policy900ELb0EijNS0_6detail21identity_decomposer_tEEEvPT2_PKT1_S7_iiT3_(0x6a)	min stack size: 0x0
	<0x65>
	Attribute:	EIATTR_FRAME_SIZE
	Format:	EIFMT_SVAL
	Value:	function: _ZN3cub17CUB_200400_750_NS30DeviceRadixSortHistogramKernelINS0_21DeviceRadixSortPolicyIiijE9Policy900ELb0EijNS0_6detail21identity_decomposer_tEEEvPT2_PKT1_S7_iiT3_(0x6a)	frame size: 0x0
	<0x66>
	Attribute:	EIATTR_REGCOUNT
	Format:	EIFMT_SVAL
	Value:	function: _ZN3cub17CUB_200400_750_NS33DeviceRadixSortExclusiveSumKernelINS0_21DeviceRadixSortPolicyIiijE9Policy900EjEEvPT0_(0x69)	register count: 24
	<0x67>
	Attribute:	EIATTR_MIN_STACK_SIZE
	Format:	EIFMT_SVAL
	Value:	function: $__internal_10_$__cuda_sm70_shflsync_up_p(0x2f)	min stack size: 0x0
	<0x68>
	Attribute:	EIATTR_FRAME_SIZE
	Format:	EIFMT_SVAL
	Value:	function: $__internal_10_$__cuda_sm70_shflsync_up_p(0x2f)	frame size: 0x0
	<0x69>
	Attribute:	EIATTR_MIN_STACK_SIZE
	Format:	EIFMT_SVAL
	Value:	function: _ZN3cub17CUB_200400_750_NS33DeviceRadixSortExclusiveSumKernelINS0_21DeviceRadixSortPolicyIiijE9Policy900EjEEvPT0_(0x69)	min stack size: 0x0
	<0x70>
	Attribute:	EIATTR_FRAME_SIZE
	Format:	EIFMT_SVAL
	Value:	function: _ZN3cub17CUB_200400_750_NS33DeviceRadixSortExclusiveSumKernelINS0_21DeviceRadixSortPolicyIiijE9Policy900EjEEvPT0_(0x69)	frame size: 0x0
	<0x71>
	Attribute:	EIATTR_REGCOUNT
	Format:	EIFMT_SVAL
	Value:	function: _ZN3cub17CUB_200400_750_NS29DeviceRadixSortOnesweepKernelINS0_21DeviceRadixSortPolicyIiijE9Policy900ELb0EiijiiNS0_6detail21identity_decomposer_tEEEvPT5_S8_PT3_PKS9_PT1_PKSD_PT2_PKSH_T4_iiT6_(0x68)	register count: 201
	<0x72>
	Attribute:	EIATTR_MIN_STACK_SIZE
	Format:	EIFMT_SVAL
	Value:	function: $__internal_9_$__cuda_sm70_votesync_ballot(0x2b)	min stack size: 0x0
	<0x73>
	Attribute:	EIATTR_FRAME_SIZE
	Format:	EIFMT_SVAL
	Value:	function: $__internal_9_$__cuda_sm70_votesync_ballot(0x2b)	frame size: 0x0
	<0x74>
	Attribute:	EIATTR_MIN_STACK_SIZE
	Format:	EIFMT_SVAL
	Value:	function: $__internal_8_$__cuda_sm70_shflsync_up_p(0x2a)	min stack size: 0x0
	<0x75>
	Attribute:	EIATTR_FRAME_SIZE
	Format:	EIFMT_SVAL
	Value:	function: $__internal_8_$__cuda_sm70_shflsync_up_p(0x2a)	frame size: 0x0
	<0x76>
	Attribute:	EIATTR_MIN_STACK_SIZE
	Format:	EIFMT_SVAL
	Value:	function: _ZN3cub17CUB_200400_750_NS29DeviceRadixSortOnesweepKernelINS0_21DeviceRadixSortPolicyIiijE9Policy900ELb0EiijiiNS0_6detail21identity_decomposer_tEEEvPT5_S8_PT3_PKS9_PT1_PKSD_PT2_PKSH_T4_iiT6_(0x68)	min stack size: 0x0
	<0x77>
	Attribute:	EIATTR_FRAME_SIZE
	Format:	EIFMT_SVAL
	Value:	function: _ZN3cub17CUB_200400_750_NS29DeviceRadixSortOnesweepKernelINS0_21DeviceRadixSortPolicyIiijE9Policy900ELb0EiijiiNS0_6detail21identity_decomposer_tEEEvPT5_S8_PT3_PKS9_PT1_PKSD_PT2_PKSH_T4_iiT6_(0x68)	frame size: 0x0
	<0x78>
	Attribute:	EIATTR_REGCOUNT
	Format:	EIFMT_SVAL
	Value:	function: _ZN3cub17CUB_200400_750_NS20DeviceScanInitKernelINS0_13ScanTileStateIiLb1EEEEEvT_i(0x67)	register count: 10
	<0x79>
	Attribute:	EIATTR_MIN_STACK_SIZE
	Format:	EIFMT_SVAL
	Value:	function: _ZN3cub17CUB_200400_750_NS20DeviceScanInitKernelINS0_13ScanTileStateIiLb1EEEEEvT_i(0x67)	min stack size: 0x0
	<0x80>
	Attribute:	EIATTR_FRAME_SIZE
	Format:	EIFMT_SVAL
	Value:	function: _ZN3cub17CUB_200400_750_NS20DeviceScanInitKernelINS0_13ScanTileStateIiLb1EEEEEvT_i(0x67)	frame size: 0x0
	<0x81>
	Attribute:	EIATTR_REGCOUNT
	Format:	EIFMT_SVAL
	Value:	function: _ZN3cub17CUB_200400_750_NS16DeviceScanKernelINS0_16DeviceScanPolicyIiN6thrust20THRUST_200400_750_NS4plusIvEEE9Policy900ENS4_6detail15normal_iteratorINS4_10device_ptrIiEEEESD_NS0_13ScanTileStateIiLb1EEES6_NS0_6detail10InputValueIiPiEEiiEEvT0_T1_T2_iT3_T4_T5_(0x66)	register count: 53
	<0x82>
	Attribute:	EIATTR_MIN_STACK_SIZE
	Format:	EIFMT_SVAL
	Value:	function: $__internal_7_$__cuda_sm70_votesync_ballot(0x24)	min stack size: 0x0
	<0x83>
	Attribute:	EIATTR_FRAME_SIZE
	Format:	EIFMT_SVAL
	Value:	function: $__internal_7_$__cuda_sm70_votesync_ballot(0x24)	frame size: 0x0
	<0x84>
	Attribute:	EIATTR_MIN_STACK_SIZE
	Format:	EIFMT_SVAL
	Value:	function: $__internal_6_$__cuda_sm70_votesync_any(0x23)	min stack size: 0x0
	<0x85>
	Attribute:	EIATTR_FRAME_SIZE
	Format:	EIFMT_SVAL
	Value:	function: $__internal_6_$__cuda_sm70_votesync_any(0x23)	frame size: 0x0
	<0x86>
	Attribute:	EIATTR_MIN_STACK_SIZE
	Format:	EIFMT_SVAL
	Value:	function: $__internal_5_$__cuda_sm70_votesync_all(0x22)	min stack size: 0x0
	<0x87>
	Attribute:	EIATTR_FRAME_SIZE
	Format:	EIFMT_SVAL
	Value:	function: $__internal_5_$__cuda_sm70_votesync_all(0x22)	frame size: 0x0
	<0x88>
	Attribute:	EIATTR_MIN_STACK_SIZE
	Format:	EIFMT_SVAL
	Value:	function: $__internal_4_$__cuda_sm70_shflsync_down(0x21)	min stack size: 0x0
	<0x89>
	Attribute:	EIATTR_FRAME_SIZE
	Format:	EIFMT_SVAL
	Value:	function: $__internal_4_$__cuda_sm70_shflsync_down(0x21)	frame size: 0x0
	<0x90>
	Attribute:	EIATTR_MIN_STACK_SIZE
	Format:	EIFMT_SVAL
	Value:	function: _ZN3cub17CUB_200400_750_NS16DeviceScanKernelINS0_16DeviceScanPolicyIiN6thrust20THRUST_200400_750_NS4plusIvEEE9Policy900ENS4_6detail15normal_iteratorINS4_10device_ptrIiEEEESD_NS0_13ScanTileStateIiLb1EEES6_NS0_6detail10InputValueIiPiEEiiEEvT0_T1_T2_iT3_T4_T5_(0x66)	min stack size: 0x0
	<0x91>
	Attribute:	EIATTR_FRAME_SIZE
	Format:	EIFMT_SVAL
	Value:	function: _ZN3cub17CUB_200400_750_NS16DeviceScanKernelINS0_16DeviceScanPolicyIiN6thrust20THRUST_200400_750_NS4plusIvEEE9Policy900ENS4_6detail15normal_iteratorINS4_10device_ptrIiEEEESD_NS0_13ScanTileStateIiLb1EEES6_NS0_6detail10InputValueIiPiEEiiEEvT0_T1_T2_iT3_T4_T5_(0x66)	frame size: 0x0
	<0x92>
	Attribute:	EIATTR_REGCOUNT
	Format:	EIFMT_SVAL
	Value:	function: _ZN3cub17CUB_200400_750_NS16DeviceScanKernelINS0_16DeviceScanPolicyIiN6thrust20THRUST_200400_750_NS4plusIvEEE9Policy900ENS4_6detail15normal_iteratorINS4_10device_ptrIiEEEESD_NS0_13ScanTileStateIiLb1EEES6_NS0_6detail10InputValueIiPiEEliEEvT0_T1_T2_iT3_T4_T5_(0x65)	register count: 55
	<0x93>
	Attribute:	EIATTR_MIN_STACK_SIZE
	Format:	EIFMT_SVAL
	Value:	function: $__internal_3_$__cuda_sm70_votesync_ballot(0x1d)	min stack size: 0x0
	<0x94>
	Attribute:	EIATTR_FRAME_SIZE
	Format:	EIFMT_SVAL
	Value:	function: $__internal_3_$__cuda_sm70_votesync_ballot(0x1d)	frame size: 0x0
	<0x95>
	Attribute:	EIATTR_MIN_STACK_SIZE
	Format:	EIFMT_SVAL
	Value:	function: $__internal_2_$__cuda_sm70_votesync_any(0x1c)	min stack size: 0x0
	<0x96>
	Attribute:	EIATTR_FRAME_SIZE
	Format:	EIFMT_SVAL
	Value:	function: $__internal_2_$__cuda_sm70_votesync_any(0x1c)	frame size: 0x0
	<0x97>
	Attribute:	EIATTR_MIN_STACK_SIZE
	Format:	EIFMT_SVAL
	Value:	function: $__internal_1_$__cuda_sm70_votesync_all(0x1b)	min stack size: 0x0
	<0x98>
	Attribute:	EIATTR_FRAME_SIZE
	Format:	EIFMT_SVAL
	Value:	function: $__internal_1_$__cuda_sm70_votesync_all(0x1b)	frame size: 0x0
	<0x99>
	Attribute:	EIATTR_MIN_STACK_SIZE
	Format:	EIFMT_SVAL
	Value:	function: $__internal_0_$__cuda_sm70_shflsync_down(0x1a)	min stack size: 0x0
	<0x100>
	Attribute:	EIATTR_FRAME_SIZE
	Format:	EIFMT_SVAL
	Value:	function: $__internal_0_$__cuda_sm70_shflsync_down(0x1a)	frame size: 0x0
	<0x101>
	Attribute:	EIATTR_MIN_STACK_SIZE
	Format:	EIFMT_SVAL
	Value:	function: _ZN3cub17CUB_200400_750_NS16DeviceScanKernelINS0_16DeviceScanPolicyIiN6thrust20THRUST_200400_750_NS4plusIvEEE9Policy900ENS4_6detail15normal_iteratorINS4_10device_ptrIiEEEESD_NS0_13ScanTileStateIiLb1EEES6_NS0_6detail10InputValueIiPiEEliEEvT0_T1_T2_iT3_T4_T5_(0x65)	min stack size: 0x0
	<0x102>
	Attribute:	EIATTR_FRAME_SIZE
	Format:	EIFMT_SVAL
	Value:	function: _ZN3cub17CUB_200400_750_NS16DeviceScanKernelINS0_16DeviceScanPolicyIiN6thrust20THRUST_200400_750_NS4plusIvEEE9Policy900ENS4_6detail15normal_iteratorINS4_10device_ptrIiEEEESD_NS0_13ScanTileStateIiLb1EEES6_NS0_6detail10InputValueIiPiEEliEEvT0_T1_T2_iT3_T4_T5_(0x65)	frame size: 0x0
	<0x103>
	Attribute:	EIATTR_REGCOUNT
	Format:	EIFMT_SVAL
	Value:	function: _ZN3cub17CUB_200400_750_NS6detail8for_each13static_kernelINS2_12policy_hub_t12policy_350_tEmN6thrust20THRUST_200400_750_NS8cuda_cub20__uninitialized_fill7functorINS7_10device_ptrIiEEiEEEEvT0_T1_(0x64)	register count: 10
	<0x104>
	Attribute:	EIATTR_MIN_STACK_SIZE
	Format:	EIFMT_SVAL
	Value:	function: _ZN3cub17CUB_200400_750_NS6detail8for_each13static_kernelINS2_12policy_hub_t12policy_350_tEmN6thrust20THRUST_200400_750_NS8cuda_cub20__uninitialized_fill7functorINS7_10device_ptrIiEEiEEEEvT0_T1_(0x64)	min stack size: 0x0
	<0x105>
	Attribute:	EIATTR_FRAME_SIZE
	Format:	EIFMT_SVAL
	Value:	function: _ZN3cub17CUB_200400_750_NS6detail8for_each13static_kernelINS2_12policy_hub_t12policy_350_tEmN6thrust20THRUST_200400_750_NS8cuda_cub20__uninitialized_fill7functorINS7_10device_ptrIiEEiEEEEvT0_T1_(0x64)	frame size: 0x0
	<0x106>
	Attribute:	EIATTR_MIN_STACK_SIZE
	Format:	EIFMT_SVAL
	Value:	function: _ZN3cub17CUB_200400_750_NS6detail8for_each13static_kernelINS2_12policy_hub_t12policy_350_tEmN6thrust20THRUST_200400_750_NS8cuda_cub20__uninitialized_fill7functorINS7_10device_ptrIiEEiEEEEvT0_T1_(0x64)	min stack size: 0x0
	<0x107>
	Attribute:	EIATTR_MIN_STACK_SIZE
	Format:	EIFMT_SVAL
	Value:	function: _ZN3cub17CUB_200400_750_NS16DeviceScanKernelINS0_16DeviceScanPolicyIiN6thrust20THRUST_200400_750_NS4plusIvEEE9Policy900ENS4_6detail15normal_iteratorINS4_10device_ptrIiEEEESD_NS0_13ScanTileStateIiLb1EEES6_NS0_6detail10InputValueIiPiEEliEEvT0_T1_T2_iT3_T4_T5_(0x65)	min stack size: 0x0
	<0x108>
	Attribute:	EIATTR_MIN_STACK_SIZE
	Format:	EIFMT_SVAL
	Value:	function: _ZN3cub17CUB_200400_750_NS16DeviceScanKernelINS0_16DeviceScanPolicyIiN6thrust20THRUST_200400_750_NS4plusIvEEE9Policy900ENS4_6detail15normal_iteratorINS4_10device_ptrIiEEEESD_NS0_13ScanTileStateIiLb1EEES6_NS0_6detail10InputValueIiPiEEiiEEvT0_T1_T2_iT3_T4_T5_(0x66)	min stack size: 0x0
	<0x109>
	Attribute:	EIATTR_MIN_STACK_SIZE
	Format:	EIFMT_SVAL
	Value:	function: _ZN3cub17CUB_200400_750_NS20DeviceScanInitKernelINS0_13ScanTileStateIiLb1EEEEEvT_i(0x67)	min stack size: 0x0
	<0x110>
	Attribute:	EIATTR_MIN_STACK_SIZE
	Format:	EIFMT_SVAL
	Value:	function: _ZN3cub17CUB_200400_750_NS29DeviceRadixSortOnesweepKernelINS0_21DeviceRadixSortPolicyIiijE9Policy900ELb0EiijiiNS0_6detail21identity_decomposer_tEEEvPT5_S8_PT3_PKS9_PT1_PKSD_PT2_PKSH_T4_iiT6_(0x68)	min stack size: 0x0
	<0x111>
	Attribute:	EIATTR_MIN_STACK_SIZE
	Format:	EIFMT_SVAL
	Value:	function: _ZN3cub17CUB_200400_750_NS33DeviceRadixSortExclusiveSumKernelINS0_21DeviceRadixSortPolicyIiijE9Policy900EjEEvPT0_(0x69)	min stack size: 0x0
	<0x112>
	Attribute:	EIATTR_MIN_STACK_SIZE
	Format:	EIFMT_SVAL
	Value:	function: _ZN3cub17CUB_200400_750_NS30DeviceRadixSortHistogramKernelINS0_21DeviceRadixSortPolicyIiijE9Policy900ELb0EijNS0_6detail21identity_decomposer_tEEEvPT2_PKT1_S7_iiT3_(0x6a)	min stack size: 0x0
	<0x113>
	Attribute:	EIATTR_MIN_STACK_SIZE
	Format:	EIFMT_SVAL
	Value:	function: _ZN3cub17CUB_200400_750_NS30DeviceRadixSortDownsweepKernelINS0_21DeviceRadixSortPolicyIiijE9Policy900ELb1ELb0EiijNS0_6detail21identity_decomposer_tEEEvPKT2_PS7_PKT3_PSB_PT4_SF_iiNS0_13GridEvenShareISF_EET5_(0x6b)	min stack size: 0x0
	<0x114>
	Attribute:	EIATTR_MIN_STACK_SIZE
	Format:	EIFMT_SVAL
	Value:	function: _ZN3cub17CUB_200400_750_NS30DeviceRadixSortDownsweepKernelINS0_21DeviceRadixSortPolicyIiijE9Policy900ELb0ELb0EiijNS0_6detail21identity_decomposer_tEEEvPKT2_PS7_PKT3_PSB_PT4_SF_iiNS0_13GridEvenShareISF_EET5_(0x6c)	min stack size: 0x28
	<0x115>
	Attribute:	EIATTR_MIN_STACK_SIZE
	Format:	EIFMT_SVAL
	Value:	function: _ZN3cub17CUB_200400_750_NS23RadixSortScanBinsKernelINS0_21DeviceRadixSortPolicyIiijE9Policy900EjEEvPT0_i(0x6d)	min stack size: 0x0
	<0x116>
	Attribute:	EIATTR_MIN_STACK_SIZE
	Format:	EIFMT_SVAL
	Value:	function: _ZN3cub17CUB_200400_750_NS28DeviceRadixSortUpsweepKernelINS0_21DeviceRadixSortPolicyIiijE9Policy900ELb1ELb0EijNS0_6detail21identity_decomposer_tEEEvPKT2_PT3_SA_iiNS0_13GridEvenShareISA_EET4_(0x6e)	min stack size: 0x0
	<0x117>
	Attribute:	EIATTR_MIN_STACK_SIZE
	Format:	EIFMT_SVAL
	Value:	function: _ZN3cub17CUB_200400_750_NS28DeviceRadixSortUpsweepKernelINS0_21DeviceRadixSortPolicyIiijE9Policy900ELb0ELb0EijNS0_6detail21identity_decomposer_tEEEvPKT2_PT3_SA_iiNS0_13GridEvenShareISA_EET4_(0x6f)	min stack size: 0x0
	<0x118>
	Attribute:	EIATTR_MIN_STACK_SIZE
	Format:	EIFMT_SVAL
	Value:	function: _ZN3cub17CUB_200400_750_NS31DeviceRadixSortSingleTileKernelINS0_21DeviceRadixSortPolicyIiijE9Policy900ELb0EiijNS0_6detail21identity_decomposer_tEEEvPKT1_PS7_PKT2_PSB_T3_iiT4_(0x70)	min stack size: 0x0
	<0x119>
	Attribute:	EIATTR_MIN_STACK_SIZE
	Format:	EIFMT_SVAL
	Value:	function: _ZN3cub17CUB_200400_750_NS11EmptyKernelIvEEvv(0x71)	min stack size: 0x0
	<0x120>
	Attribute:	EIATTR_MIN_STACK_SIZE
	Format:	EIFMT_SVAL
	Value:	function: _Z14merge_suffixesPKiS0_PiS0_S0_iii(0x72)	min stack size: 0x0
	<0x121>
	Attribute:	EIATTR_MIN_STACK_SIZE
	Format:	EIFMT_SVAL
	Value:	function: _Z6Set_S0PiPKiS1_ii(0x73)	min stack size: 0x0
	<0x122>
	Attribute:	EIATTR_MIN_STACK_SIZE
	Format:	EIFMT_SVAL
	Value:	function: _Z9InitScan2PKiPiii(0x74)	min stack size: 0x0
	<0x123>
	Attribute:	EIATTR_MIN_STACK_SIZE
	Format:	EIFMT_SVAL
	Value:	function: _Z26Compute_SA_From_UniqueRankPKiPii(0x75)	min stack size: 0x0
	<0x124>
	Attribute:	EIATTR_MIN_STACK_SIZE
	Format:	EIFMT_SVAL
	Value:	function: _Z18Store_unique_ranksPiPKii(0x76)	min stack size: 0x0
	<0x125>
	Attribute:	EIATTR_MIN_STACK_SIZE
	Format:	EIFMT_SVAL
	Value:	function: _Z15Set_suffix_rankPiPKiS1_ii(0x77)	min stack size: 0x0
	<0x126>
	Attribute:	EIATTR_MIN_STACK_SIZE
	Format:	EIFMT_SVAL
	Value:	function: _Z8InitScanPKiS0_Pii(0x78)	min stack size: 0x0
	<0x127>
	Attribute:	EIATTR_MIN_STACK_SIZE
	Format:	EIFMT_SVAL
	Value:	function: _Z7keybitsPiPKiS1_ii(0x79)	min stack size: 0x0
	<0x128>
	Attribute:	EIATTR_MIN_STACK_SIZE
	Format:	EIFMT_SVAL
	Value:	function: _Z10Init_d_s12Pii(0x7a)	min stack size: 0x0


.nv.info._ZN3cub17CUB_200400_750_NS6detail8for_each13static_kernelINS2_12policy_hub_t12policy_350_tEmN6thrust20THRUST_200400_750_NS8cuda_cub20__uninitialized_fill7functorINS7_10device_ptrIiEEiEEEEvT0_T1_
	<0x1>
	Attribute:	EIATTR_SW_WAR
	Format:	EIFMT_SVAL
	Value:	0x1 
	<0x2>
	Attribute:	EIATTR_CUDA_API_VERSION
	Format:	EIFMT_SVAL
	Value:	0x7d 
	<0x3>
	Attribute:	EIATTR_PARAM_CBANK
	Format:	EIFMT_SVAL
	Value:	0x17 0x180160 
	<0x4>
	Attribute:	EIATTR_CBANK_PARAM_SIZE
	Format:	EIFMT_HVAL
	Value:	0x18
	<0x5>
	Attribute:	EIATTR_KPARAM_INFO
	Format:	EIFMT_SVAL
	Value:	Index : 0x0	Ordinal : 0x1	Offset  : 0x8	Size    : 0x10
		Pointee's logAlignment : 0x0	Space : 0x0	cbank : 0x1f	Parameter Space : CBANK	
	<0x6>
	Attribute:	EIATTR_KPARAM_INFO
	Format:	EIFMT_SVAL
	Value:	Index : 0x0	Ordinal : 0x0	Offset  : 0x0	Size    : 0x8
		Pointee's logAlignment : 0x0	Space : 0x0	cbank : 0x1f	Parameter Space : CBANK	
	<0x7>
	Attribute:	EIATTR_MAXREG_COUNT
	Format:	EIFMT_HVAL
	Value:	0xff
	<0x8>
	Attribute:	EIATTR_EXIT_INSTR_OFFSETS
	Format:	EIFMT_SVAL
	Value:	0x150 0x180 0x1c0 
	<0x9>
	Attribute:	EIATTR_MAX_THREADS
	Format:	EIFMT_SVAL
	Value:	0x100 0x1 0x1 


.nv.info._ZN3cub17CUB_200400_750_NS16DeviceScanKernelINS0_16DeviceScanPolicyIiN6thrust20THRUST_200400_750_NS4plusIvEEE9Policy900ENS4_6detail15normal_iteratorINS4_10device_ptrIiEEEESD_NS0_13ScanTileStateIiLb1EEES6_NS0_6detail10InputValueIiPiEEliEEvT0_T1_T2_iT3_T4_T5_
	<0x1>
	Attribute:	EIATTR_SW_WAR
	Format:	EIFMT_SVAL
	Value:	0x1 
	<0x2>
	Attribute:	EIATTR_CUDA_API_VERSION
	Format:	EIFMT_SVAL
	Value:	0x7d 
	<0x3>
	Attribute:	EIATTR_PARAM_CBANK
	Format:	EIFMT_SVAL
	Value:	0x1e 0x380160 
	<0x4>
	Attribute:	EIATTR_CBANK_PARAM_SIZE
	Format:	EIFMT_HVAL
	Value:	0x38
	<0x5>
	Attribute:	EIATTR_KPARAM_INFO
	Format:	EIFMT_SVAL
	Value:	Index : 0x0	Ordinal : 0x6	Offset  : 0x30	Size    : 0x8
		Pointee's logAlignment : 0x0	Space : 0x0	cbank : 0x1f	Parameter Space : CBANK	
	<0x6>
	Attribute:	EIATTR_KPARAM_INFO
	Format:	EIFMT_SVAL
	Value:	Index : 0x0	Ordinal : 0x5	Offset  : 0x20	Size    : 0x10
		Pointee's logAlignment : 0x0	Space : 0x0	cbank : 0x1f	Parameter Space : CBANK	
	<0x7>
	Attribute:	EIATTR_KPARAM_INFO
	Format:	EIFMT_SVAL
	Value:	Index : 0x0	Ordinal : 0x4	Offset  : 0x1c	Size    : 0x1
		Pointee's logAlignment : 0x0	Space : 0x0	cbank : 0x1f	Parameter Space : CBANK	
	<0x8>
	Attribute:	EIATTR_KPARAM_INFO
	Format:	EIFMT_SVAL
	Value:	Index : 0x0	Ordinal : 0x3	Offset  : 0x18	Size    : 0x4
		Pointee's logAlignment : 0x0	Space : 0x0	cbank : 0x1f	Parameter Space : CBANK	
	<0x9>
	Attribute:	EIATTR_KPARAM_INFO
	Format:	EIFMT_SVAL
	Value:	Index : 0x0	Ordinal : 0x2	Offset  : 0x10	Size    : 0x8
		Pointee's logAlignment : 0x0	Space : 0x0	cbank : 0x1f	Parameter Space : CBANK	
	<0x10>
	Attribute:	EIATTR_KPARAM_INFO
	Format:	EIFMT_SVAL
	Value:	Index : 0x0	Ordinal : 0x1	Offset  : 0x8	Size    : 0x8
		Pointee's logAlignment : 0x0	Space : 0x0	cbank : 0x1f	Parameter Space : CBANK	
	<0x11>
	Attribute:	EIATTR_KPARAM_INFO
	Format:	EIFMT_SVAL
	Value:	Index : 0x0	Ordinal : 0x0	Offset  : 0x0	Size    : 0x8
		Pointee's logAlignment : 0x0	Space : 0x0	cbank : 0x1f	Parameter Space : CBANK	
	<0x12>
	Attribute:	EIATTR_MAXREG_COUNT
	Format:	EIFMT_HVAL
	Value:	0xff
	<0x13>
	Attribute:	EIATTR_UNUSED_LOAD_BYTE_OFFSET
	Format:	EIFMT_SVAL
	Value:	0x1700 0xfff 
	<0x14>
	Attribute:	EIATTR_INT_WARP_WIDE_INSTR_OFFSETS
	Format:	EIFMT_SVAL
	Value:	0xca0 0xcc0 0x10c0 0x10e0 0x12e0 0x1300 0x2610 0x2630 0x2a30 0x2a50 0x2c50 0x2c70 
	<0x15>
	Attribute:	EIATTR_COOP_GROUP_MASK_REGIDS
	Format:	EIFMT_SVAL
	Value:	0xffffffff 0xffffffff 0xffffffff 0xffffffff 0xffffffff 0xffffffff 0xffffffff 0xffffffff 0xffffffff 0xffffffff 0xffffffff 0xffffffff 0xffffffff 0xffffffff 0xffffffff 0xffffffff 0xffffffff 0xffffffff 0xffffffff 0xffffffff 0xffffffff 0xffffffff 0xffffffff 0xffffffff 0xffffffff 0xffffffff 0xffffffff 0xffffffff 0xffffffff 0xffffffff 0xffffffff 0xffffffff 0xffffffff 0xffffffff 0xffffffff 0xffffffff 0xffffffff 0xffffffff 0xffffffff 0xffffffff 0xffffffff 0xffffffff 0xffffffff 0xffffffff 0xffffffff 0xffffffff 0xffffffff 0xffffffff 0xffffffff 0xffffffff 0xffffffff 0xffffffff 0xffffffff 0xffffffff 0xffffffff 0xffffffff 0xffffffff 0xffffffff 0xffffffff 0xffffffff 0xffffffff 0xffffffff 0xffffffff 0xffffffff 0xffffffff 0xffffffff 0xffffffff 0xffffffff 0xffffffff 0xffffffff 0xffffffff 0xffffffff 0xffffffff 0xffffffff 0xffffffff 0xffffffff 0xffffffff 0xffffffff 0xffffffff 0xffffffff 0xffffffff 0xffffffff 0xffffffff 0xffffffff 0xffffffff 0xffffffff 0xffffffff 0xffffffff 
	<0x16>
	Attribute:	EIATTR_COOP_GROUP_INSTR_OFFSETS
	Format:	EIFMT_SVAL
	Value:	0x6a0 0x830 0x8a0 0x8e0 0x920 0x960 0x9e0 0xc10 0xd50 0xde0 0xe20 0xe60 0xea0 0xed0 0xf60 0x1030 0x1150 0x11b0 0x11f0 0x1230 0x1270 0x12a0 0x1550 0x15c0 0x1600 0x1660 0x16a0 0x1720 0x19e0 0x2020 0x21b0 0x2210 0x2250 0x2290 0x22d0 0x2350 0x2580 0x26c0 0x2740 0x2780 0x27d0 0x2810 0x2840 0x28d0 0x29a0 0x2ac0 0x2b20 0x2b60 0x2ba0 0x2be0 0x2c10 0x2ec0 0x2f30 0x2f70 0x2fb0 0x2ff0 0x3070 0x3380 0x35b0 0x3610 0x36b0 0x3730 0x37c0 0x3850 0x38f0 0x3940 0x39a0 0x3a00 0x3a90 0x3b10 0x3b90 0x3c10 0x3ca0 0x3cf0 0x3d50 0x3e00 0x3e80 0x3f10 0x3fb0 0x4040 0x4090 0x40f0 0x4150 0x41f0 0x4270 0x42f0 0x4380 0x4400 
	<0x17>
	Attribute:	EIATTR_EXIT_INSTR_OFFSETS
	Format:	EIFMT_SVAL
	Value:	0x120 0x1d20 0x1d40 0x3570 
	<0x18>
	Attribute:	EIATTR_MAX_THREADS
	Format:	EIFMT_SVAL
	Value:	0x80 0x1 0x1 
	<0x19>
	Attribute:	EIATTR_CRS_STACK_SIZE
	Format:	EIFMT_SVAL
	Value:	0x0 


.nv.info._ZN3cub17CUB_200400_750_NS16DeviceScanKernelINS0_16DeviceScanPolicyIiN6thrust20THRUST_200400_750_NS4plusIvEEE9Policy900ENS4_6detail15normal_iteratorINS4_10device_ptrIiEEEESD_NS0_13ScanTileStateIiLb1EEES6_NS0_6detail10InputValueIiPiEEiiEEvT0_T1_T2_iT3_T4_T5_
	<0x1>
	Attribute:	EIATTR_SW_WAR
	Format:	EIFMT_SVAL
	Value:	0x1 
	<0x2>
	Attribute:	EIATTR_CUDA_API_VERSION
	Format:	EIFMT_SVAL
	Value:	0x7d 
	<0x3>
	Attribute:	EIATTR_PARAM_CBANK
	Format:	EIFMT_SVAL
	Value:	0x25 0x340160 
	<0x4>
	Attribute:	EIATTR_CBANK_PARAM_SIZE
	Format:	EIFMT_HVAL
	Value:	0x34
	<0x5>
	Attribute:	EIATTR_KPARAM_INFO
	Format:	EIFMT_SVAL
	Value:	Index : 0x0	Ordinal : 0x6	Offset  : 0x30	Size    : 0x4
		Pointee's logAlignment : 0x0	Space : 0x0	cbank : 0x1f	Parameter Space : CBANK	
	<0x6>
	Attribute:	EIATTR_KPARAM_INFO
	Format:	EIFMT_SVAL
	Value:	Index : 0x0	Ordinal : 0x5	Offset  : 0x20	Size    : 0x10
		Pointee's logAlignment : 0x0	Space : 0x0	cbank : 0x1f	Parameter Space : CBANK	
	<0x7>
	Attribute:	EIATTR_KPARAM_INFO
	Format:	EIFMT_SVAL
	Value:	Index : 0x0	Ordinal : 0x4	Offset  : 0x1c	Size    : 0x1
		Pointee's logAlignment : 0x0	Space : 0x0	cbank : 0x1f	Parameter Space : CBANK	
	<0x8>
	Attribute:	EIATTR_KPARAM_INFO
	Format:	EIFMT_SVAL
	Value:	Index : 0x0	Ordinal : 0x3	Offset  : 0x18	Size    : 0x4
		Pointee's logAlignment : 0x0	Space : 0x0	cbank : 0x1f	Parameter Space : CBANK	
	<0x9>
	Attribute:	EIATTR_KPARAM_INFO
	Format:	EIFMT_SVAL
	Value:	Index : 0x0	Ordinal : 0x2	Offset  : 0x10	Size    : 0x8
		Pointee's logAlignment : 0x0	Space : 0x0	cbank : 0x1f	Parameter Space : CBANK	
	<0x10>
	Attribute:	EIATTR_KPARAM_INFO
	Format:	EIFMT_SVAL
	Value:	Index : 0x0	Ordinal : 0x1	Offset  : 0x8	Size    : 0x8
		Pointee's logAlignment : 0x0	Space : 0x0	cbank : 0x1f	Parameter Space : CBANK	
	<0x11>
	Attribute:	EIATTR_KPARAM_INFO
	Format:	EIFMT_SVAL
	Value:	Index : 0x0	Ordinal : 0x0	Offset  : 0x0	Size    : 0x8
		Pointee's logAlignment : 0x0	Space : 0x0	cbank : 0x1f	Parameter Space : CBANK	
	<0x12>
	Attribute:	EIATTR_MAXREG_COUNT
	Format:	EIFMT_HVAL
	Value:	0xff
	<0x13>
	Attribute:	EIATTR_UNUSED_LOAD_BYTE_OFFSET
	Format:	EIFMT_SVAL
	Value:	0x1730 0xfff 
	<0x14>
	Attribute:	EIATTR_INT_WARP_WIDE_INSTR_OFFSETS
	Format:	EIFMT_SVAL
	Value:	0xc60 0xc80 0x1080 0x10a0 0x12a0 0x12c0 0x2640 0x2660 0x2a60 0x2a80 0x2c80 0x2ca0 
	<0x15>
	Attribute:	EIATTR_COOP_GROUP_MASK_REGIDS
	Format:	EIFMT_SVAL
	Value:	0xffffffff 0xffffffff 0xffffffff 0xffffffff 0xffffffff 0xffffffff 0xffffffff 0xffffffff 0xffffffff 0xffffffff 0xffffffff 0xffffffff 0xffffffff 0xffffffff 0xffffffff 0xffffffff 0xffffffff 0xffffffff 0xffffffff 0xffffffff 0xffffffff 0xffffffff 0xffffffff 0xffffffff 0xffffffff 0xffffffff 0xffffffff 0xffffffff 0xffffffff 0xffffffff 0xffffffff 0xffffffff 0xffffffff 0xffffffff 0xffffffff 0xffffffff 0xffffffff 0xffffffff 0xffffffff 0xffffffff 0xffffffff 0xffffffff 0xffffffff 0xffffffff 0xffffffff 0xffffffff 0xffffffff 0xffffffff 0xffffffff 0xffffffff 0xffffffff 0xffffffff 0xffffffff 0xffffffff 0xffffffff 0xffffffff 0xffffffff 0xffffffff 0xffffffff 0xffffffff 0xffffffff 0xffffffff 0xffffffff 0xffffffff 0xffffffff 0xffffffff 0xffffffff 0xffffffff 0xffffffff 0xffffffff 0xffffffff 0xffffffff 0xffffffff 0xffffffff 0xffffffff 0xffffffff 0xffffffff 0xffffffff 0xffffffff 0xffffffff 0xffffffff 0xffffffff 0xffffffff 0xffffffff 0xffffffff 0xffffffff 0xffffffff 0xffffffff 
	<0x16>
	Attribute:	EIATTR_COOP_GROUP_INSTR_OFFSETS
	Format:	EIFMT_SVAL
	Value:	0x660 0x7f0 0x860 0x8a0 0x8e0 0x920 0x9a0 0xbd0 0xd10 0xda0 0xde0 0xe20 0xe60 0xe90 0xf20 0xff0 0x1110 0x1170 0x11b0 0x11f0 0x1230 0x1260 0x1580 0x15f0 0x1630 0x1690 0x16d0 0x1750 0x1a00 0x2050 0x21e0 0x2240 0x2280 0x22c0 0x2300 0x2380 0x25b0 0x26f0 0x2770 0x27b0 0x2800 0x2840 0x2870 0x2900 0x29d0 0x2af0 0x2b50 0x2b90 0x2bd0 0x2c10 0x2c40 0x2ef0 0x2f60 0x2fa0 0x2fe0 0x3020 0x30a0 0x33b0 0x35e0 0x3640 0x36e0 0x3760 0x37f0 0x3880 0x3920 0x3970 0x39d0 0x3a30 0x3ac0 0x3b40 0x3bc0 0x3c40 0x3cd0 0x3d20 0x3d80 0x3e30 0x3eb0 0x3f40 0x3fe0 0x4070 0x40c0 0x4120 0x4180 0x4220 0x42a0 0x4320 0x43b0 0x4430 
	<0x17>
	Attribute:	EIATTR_EXIT_INSTR_OFFSETS
	Format:	EIFMT_SVAL
	Value:	0xe0 0x1d40 0x1d60 0x35a0 
	<0x18>
	Attribute:	EIATTR_MAX_THREADS
	Format:	EIFMT_SVAL
	Value:	0x80 0x1 0x1 
	<0x19>
	Attribute:	EIATTR_CRS_STACK_SIZE
	Format:	EIFMT_SVAL
	Value:	0x0 


.nv.info._ZN3cub17CUB_200400_750_NS20DeviceScanInitKernelINS0_13ScanTileStateIiLb1EEEEEvT_i
	<0x1>
	Attribute:	EIATTR_SW_WAR
	Format:	EIFMT_SVAL
	Value:	0x1 
	<0x2>
	Attribute:	EIATTR_CUDA_API_VERSION
	Format:	EIFMT_SVAL
	Value:	0x7d 
	<0x3>
	Attribute:	EIATTR_PARAM_CBANK
	Format:	EIFMT_SVAL
	Value:	0x27 0xc0160 
	<0x4>
	Attribute:	EIATTR_CBANK_PARAM_SIZE
	Format:	EIFMT_HVAL
	Value:	0xc
	<0x5>
	Attribute:	EIATTR_KPARAM_INFO
	Format:	EIFMT_SVAL
	Value:	Index : 0x0	Ordinal : 0x1	Offset  : 0x8	Size    : 0x4
		Pointee's logAlignment : 0x0	Space : 0x0	cbank : 0x1f	Parameter Space : CBANK	
	<0x6>
	Attribute:	EIATTR_KPARAM_INFO
	Format:	EIFMT_SVAL
	Value:	Index : 0x0	Ordinal : 0x0	Offset  : 0x0	Size    : 0x8
		Pointee's logAlignment : 0x0	Space : 0x0	cbank : 0x1f	Parameter Space : CBANK	
	<0x7>
	Attribute:	EIATTR_MAXREG_COUNT
	Format:	EIFMT_HVAL
	Value:	0xff
	<0x8>
	Attribute:	EIATTR_EXIT_INSTR_OFFSETS
	Format:	EIFMT_SVAL
	Value:	0xd0 0x110 


.nv.info._ZN3cub17CUB_200400_750_NS29DeviceRadixSortOnesweepKernelINS0_21DeviceRadixSortPolicyIiijE9Policy900ELb0EiijiiNS0_6detail21identity_decomposer_tEEEvPT5_S8_PT3_PKS9_PT1_PKSD_PT2_PKSH_T4_iiT6_
	<0x1>
	Attribute:	EIATTR_SW_WAR
	Format:	EIFMT_SVAL
	Value:	0x1 
	<0x2>
	Attribute:	EIATTR_CUDA_API_VERSION
	Format:	EIFMT_SVAL
	Value:	0x7d 
	<0x3>
	Attribute:	EIATTR_PARAM_CBANK
	Format:	EIFMT_SVAL
	Value:	0x2c 0x4d0160 
	<0x4>
	Attribute:	EIATTR_CBANK_PARAM_SIZE
	Format:	EIFMT_HVAL
	Value:	0x4d
	<0x5>
	Attribute:	EIATTR_KPARAM_INFO
	Format:	EIFMT_SVAL
	Value:	Index : 0x0	Ordinal : 0xb	Offset  : 0x4c	Size    : 0x1
		Pointee's logAlignment : 0x0	Space : 0x0	cbank : 0x1f	Parameter Space : CBANK	
	<0x6>
	Attribute:	EIATTR_KPARAM_INFO
	Format:	EIFMT_SVAL
	Value:	Index : 0x0	Ordinal : 0xa	Offset  : 0x48	Size    : 0x4
		Pointee's logAlignment : 0x0	Space : 0x0	cbank : 0x1f	Parameter Space : CBANK	
	<0x7>
	Attribute:	EIATTR_KPARAM_INFO
	Format:	EIFMT_SVAL
	Value:	Index : 0x0	Ordinal : 0x9	Offset  : 0x44	Size    : 0x4
		Pointee's logAlignment : 0x0	Space : 0x0	cbank : 0x1f	Parameter Space : CBANK	
	<0x8>
	Attribute:	EIATTR_KPARAM_INFO
	Format:	EIFMT_SVAL
	Value:	Index : 0x0	Ordinal : 0x8	Offset  : 0x40	Size    : 0x4
		Pointee's logAlignment : 0x0	Space : 0x0	cbank : 0x1f	Parameter Space : CBANK	
	<0x9>
	Attribute:	EIATTR_KPARAM_INFO
	Format:	EIFMT_SVAL
	Value:	Index : 0x0	Ordinal : 0x7	Offset  : 0x38	Size    : 0x8
		Pointee's logAlignment : 0x0	Space : 0x0	cbank : 0x1f	Parameter Space : CBANK	
	<0x10>
	Attribute:	EIATTR_KPARAM_INFO
	Format:	EIFMT_SVAL
	Value:	Index : 0x0	Ordinal : 0x6	Offset  : 0x30	Size    : 0x8
		Pointee's logAlignment : 0x0	Space : 0x0	cbank : 0x1f	Parameter Space : CBANK	
	<0x11>
	Attribute:	EIATTR_KPARAM_INFO
	Format:	EIFMT_SVAL
	Value:	Index : 0x0	Ordinal : 0x5	Offset  : 0x28	Size    : 0x8
		Pointee's logAlignment : 0x0	Space : 0x0	cbank : 0x1f	Parameter Space : CBANK	
	<0x12>
	Attribute:	EIATTR_KPARAM_INFO
	Format:	EIFMT_SVAL
	Value:	Index : 0x0	Ordinal : 0x4	Offset  : 0x20	Size    : 0x8
		Pointee's logAlignment : 0x0	Space : 0x0	cbank : 0x1f	Parameter Space : CBANK	
	<0x13>
	Attribute:	EIATTR_KPARAM_INFO
	Format:	EIFMT_SVAL
	Value:	Index : 0x0	Ordinal : 0x3	Offset  : 0x18	Size    : 0x8
		Pointee's logAlignment : 0x0	Space : 0x0	cbank : 0x1f	Parameter Space : CBANK	
	<0x14>
	Attribute:	EIATTR_KPARAM_INFO
	Format:	EIFMT_SVAL
	Value:	Index : 0x0	Ordinal : 0x2	Offset  : 0x10	Size    : 0x8
		Pointee's logAlignment : 0x0	Space : 0x0	cbank : 0x1f	Parameter Space : CBANK	
	<0x15>
	Attribute:	EIATTR_KPARAM_INFO
	Format:	EIFMT_SVAL
	Value:	Index : 0x0	Ordinal : 0x1	Offset  : 0x8	Size    : 0x8
		Pointee's logAlignment : 0x0	Space : 0x0	cbank : 0x1f	Parameter Space : CBANK	
	<0x16>
	Attribute:	EIATTR_KPARAM_INFO
	Format:	EIFMT_SVAL
	Value:	Index : 0x0	Ordinal : 0x0	Offset  : 0x0	Size    : 0x8
		Pointee's logAlignment : 0x0	Space : 0x0	cbank : 0x1f	Parameter Space : CBANK	
	<0x17>
	Attribute:	EIATTR_MAXREG_COUNT
	Format:	EIFMT_HVAL
	Value:	0xff
	<0x18>
	Attribute:	EIATTR_UNUSED_LOAD_BYTE_OFFSET
	Format:	EIFMT_SVAL
	Value:	0x52a0 0xfff 
	<0x19>
	Attribute:	EIATTR_INT_WARP_WIDE_INSTR_OFFSETS
	Format:	EIFMT_SVAL
	Value:	0x2a80 0x2aa0 0x2ba0 0x2bc0 0xd2b0 0xd2d0 0xd3d0 0xd3f0 
	<0x20>
	Attribute:	EIATTR_COOP_GROUP_MASK_REGIDS
	Format:	EIFMT_SVAL
	Value:	0xffffffff 0xffffffff 0x500000c 0xffffffff 0xffffffff 0xffffffff 0xffffffff 0xffffffff 0xffffffff 0xffffffff 0xffffffff 0xffffffff 0xffffffff 0xffffffff 0xffffffff 0xffffffff 0xffffffff 0xffffffff 0xffffffff 0xffffffff 0xffffffff 0xffffffff 0xffffffff 0xffffffff 0xffffffff 0xffffffff 0xffffffff 0xffffffff 0xffffffff 0xffffffff 0xffffffff 0xffffffff 0xffffffff 0xffffffff 0xffffffff 0xffffffff 0xffffffff 0xffffffff 0xffffffff 0xffffffff 0xffffffff 0xffffffff 0xffffffff 0xffffffff 0xffffffff 0xffffffff 0xffffffff 0xffffffff 0xffffffff 0xffffffff 0xffffffff 0xffffffff 0xffffffff 0xffffffff 0xffffffff 0xffffffff 0xffffffff 0xffffffff 0xffffffff 0xffffffff 0xffffffff 0xffffffff 0xffffffff 0xffffffff 0xffffffff 0xffffffff 0xffffffff 0xffffffff 0xffffffff 0xffffffff 0xffffffff 0xffffffff 0xffffffff 0xffffffff 0xffffffff 0xffffffff 0xffffffff 0xffffffff 0xffffffff 0xffffffff 0xffffffff 0xffffffff 0xffffffff 0xffffffff 0xffffffff 0xffffffff 0xffffffff 0xffffffff 0xffffffff 0xffffffff 0xffffffff 0xffffffff 0xffffffff 0xffffffff 0xffffffff 0xffffffff 0xffffffff 0xffffffff 0xffffffff 0xffffffff 0xffffffff 0xffffffff 0xffffffff 0xffffffff 0xffffffff 0xffffffff 0xffffffff 0xffffffff 0xffffffff 0xffffffff 0xffffffff 0xffffffff 0xffffffff 0xffffffff 0xffffffff 0xffffffff 0xffffffff 0xffffffff 0xffffffff 0xffffffff 0xffffffff 0xffffffff 0xffffffff 0xffffffff 0xffffffff 0xffffffff 0xffffffff 0xffffffff 0xffffffff 0xffffffff 0xffffffff 0xffffffff 0xffffffff 0xffffffff 0xffffffff 0xffffffff 0xffffffff 0xffffffff 0xffffffff 0xffffffff 0xffffffff 0xffffffff 0xffffffff 0xffffffff 0xffffffff 0xffffffff 0xffffffff 0xffffffff 0xffffffff 0xffffffff 0xffffffff 0xffffffff 0xffffffff 0xffffffff 0xffffffff 0xffffffff 0xffffffff 0xffffffff 0xffffffff 0xffffffff 0xffffffff 0xffffffff 0xffffffff 0xffffffff 0xffffffff 0xffffffff 0xffffffff 0xffffffff 0xffffffff 0xffffffff 0xffffffff 0xffffffff 0xffffffff 0xffffffff 0xffffffff 0xffffffff 0xffffffff 0xffffffff 0xffffffff 0xffffffff 0xffffffff 0xffffffff 0xffffffff 0xffffffff 0xffffffff 0xffffffff 0xffffffff 0xffffffff 0xffffffff 0xffffffff 0xffffffff 0xffffffff 0xffffffff 0xffffffff 0xffffffff 0xffffffff 0xffffffff 0xffffffff 0xffffffff 0xffffffff 0xffffffff 0xffffffff 0xffffffff 0xffffffff 0xffffffff 0xffffffff 0xffffffff 0xffffffff 0xffffffff 0xffffffff 0xffffffff 0xffffffff 0xffffffff 0xffffffff 0xffffffff 0xffffffff 0xffffffff 0xffffffff 0xffffffff 0xffffffff 0xffffffff 0xffffffff 0xffffffff 0xffffffff 0xffffffff 0xffffffff 0xffffffff 0xffffffff 0xffffffff 0xffffffff 0xffffffff 0xffffffff 0xffffffff 0xffffffff 0xffffffff 0xffffffff 0xffffffff 0xffffffff 0xffffffff 0xffffffff 0xffffffff 0xffffffff 0xffffffff 0xffffffff 0xffffffff 0xffffffff 0xffffffff 0xffffffff 0xffffffff 0xffffffff 0xffffffff 0xffffffff 0xffffffff 0xffffffff 0xffffffff 0xffffffff 0xffffffff 0xffffffff 0xffffffff 0xffffffff 0xffffffff 0xffffffff 0xffffffff 0xffffffff 0xffffffff 0xffffffff 0xffffffff 0xffffffff 0xffffffff 0xffffffff 0xffffffff 0xffffffff 0xffffffff 0xffffffff 0xffffffff 0xffffffff 0xffffffff 0xffffffff 0xffffffff 0xffffffff 0xffffffff 0xffffffff 0xffffffff 0xffffffff 0xffffffff 0xffffffff 0xffffffff 0xffffffff 0xffffffff 0xffffffff 0xffffffff 0xffffffff 0xffffffff 0xffffffff 0xffffffff 0xffffffff 0xffffffff 0xffffffff 0xffffffff 0xffffffff 0xffffffff 0xffffffff 0xffffffff 0xffffffff 0xffffffff 0xffffffff 0xffffffff 0xffffffff 0xffffffff 0xffffffff 0xffffffff 0xffffffff 0xffffffff 0xffffffff 0xffffffff 0xffffffff 0xffffffff 0xffffffff 0xffffffff 0xffffffff 0xffffffff 0xffffffff 0xffffffff 0xffffffff 0xffffffff 0xffffffff 0xffffffff 0xffffffff 0xffffffff 0xffffffff 0xffffffff 0xffffffff 0xffffffff 0xffffffff 0xffffffff 0xffffffff 0xffffffff 0xffffffff 0xffffffff 0xffffffff 0xffffffff 0xffffffff 0xffffffff 0xffffffff 0xffffffff 0xffffffff 0xffffffff 0xffffffff 0xffffffff 0xffffffff 0xffffffff 0xffffffff 0xffffffff 0xffffffff 0xffffffff 0xffffffff 0xffffffff 0xffffffff 0xffffffff 0xffffffff 0xffffffff 0xffffffff 0xffffffff 0xffffffff 0xffffffff 0xffffffff 0xffffffff 0xffffffff 0xffffffff 0xffffffff 0xffffffff 0xffffffff 0xffffffff 0xffffffff 0xffffffff 0xffffffff 0xffffffff 0xffffffff 0xffffffff 0xffffffff 0xffffffff 0xffffffff 0xffffffff 0xffffffff 0xffffffff 0xffffffff 0xffffffff 0xffffffff 0xffffffff 0xffffffff 0xffffffff 0xffffffff 0xffffffff 0xffffffff 0xffffffff 0xffffffff 0xffffffff 0xffffffff 0xffffffff 0xffffffff 0xffffffff 0xffffffff 0xffffffff 0xffffffff 0xffffffff 0xffffffff 0xffffffff 0xffffffff 0xffffffff 0xffffffff 0xffffffff 0xffffffff 0xffffffff 0xffffffff 0xffffffff 0xffffffff 0xffffffff 0xffffffff 0xffffffff 0xffffffff 0xffffffff 0xffffffff 0x5000026 0xffffffff 0xffffffff 0xffffffff 0xffffffff 0xffffffff 0xffffffff 0xffffffff 0xffffffff 0xffffffff 0xffffffff 0xffffffff 0xffffffff 0xffffffff 0xffffffff 0xffffffff 0xffffffff 0xffffffff 0xffffffff 0xffffffff 0xffffffff 0xffffffff 0xffffffff 0xffffffff 0xffffffff 0xffffffff 0xffffffff 0xffffffff 0xffffffff 0xffffffff 0xffffffff 0xffffffff 0xffffffff 0xffffffff 0xffffffff 0xffffffff 0xffffffff 0xffffffff 0xffffffff 0xffffffff 0xffffffff 0xffffffff 0xffffffff 0xffffffff 0xffffffff 0xffffffff 0xffffffff 0xffffffff 0xffffffff 0xffffffff 0xffffffff 0xffffffff 0xffffffff 0xffffffff 0xffffffff 0xffffffff 0xffffffff 0xffffffff 0xffffffff 0xffffffff 0xffffffff 0xffffffff 0xffffffff 0xffffffff 0xffffffff 0xffffffff 0xffffffff 0xffffffff 0xffffffff 0xffffffff 0xffffffff 0xffffffff 0xffffffff 0xffffffff 0xffffffff 0xffffffff 0xffffffff 0xffffffff 0xffffffff 0xffffffff 0xffffffff 0xffffffff 0xffffffff 0xffffffff 0xffffffff 0xffffffff 0xffffffff 0xffffffff 0xffffffff 0xffffffff 0xffffffff 0xffffffff 0xffffffff 0xffffffff 0xffffffff 0xffffffff 0xffffffff 0xffffffff 0xffffffff 0xffffffff 0xffffffff 0xffffffff 0xffffffff 0xffffffff 0xffffffff 0xffffffff 0xffffffff 0xffffffff 0xffffffff 0xffffffff 0xffffffff 0xffffffff 0xffffffff 0xffffffff 0xffffffff 0xffffffff 0xffffffff 0xffffffff 0xffffffff 0xffffffff 0xffffffff 0xffffffff 0xffffffff 0xffffffff 0xffffffff 0xffffffff 0xffffffff 0xffffffff 0xffffffff 0xffffffff 0xffffffff 0xffffffff 0xffffffff 0xffffffff 0xffffffff 0xffffffff 0xffffffff 0xffffffff 0xffffffff 0xffffffff 0xffffffff 0xffffffff 0xffffffff 0xffffffff 0xffffffff 0xffffffff 0xffffffff 0xffffffff 0xffffffff 0xffffffff 0xffffffff 0xffffffff 0xffffffff 0xffffffff 0xffffffff 0xffffffff 0xffffffff 0xffffffff 0xffffffff 0xffffffff 0xffffffff 0xffffffff 0xffffffff 0xffffffff 0xffffffff 0xffffffff 0xffffffff 0xffffffff 0xffffffff 0xffffffff 0xffffffff 0xffffffff 0xffffffff 0xffffffff 0xffffffff 0xffffffff 0xffffffff 0xffffffff 0xffffffff 0xffffffff 0xffffffff 0xffffffff 0xffffffff 0xffffffff 0xffffffff 0xffffffff 0xffffffff 0xffffffff 0xffffffff 0xffffffff 0xffffffff 0xffffffff 0xffffffff 0xffffffff 0xffffffff 0xffffffff 0xffffffff 0xffffffff 0xffffffff 0xffffffff 
	<0x21>
	Attribute:	EIATTR_COOP_GROUP_INSTR_OFFSETS
	Format:	EIFMT_SVAL
	Value:	0x1360 0x24b0 0x2b30 0x5130 0x5150 0x5170 0x5190 0x51b0 0x55b0 0x55e0 0x55f0 0x5610 0x5640 0x56a0 0x56c0 0x5700 0x5840 0x5860 0x5870 0x5890 0x58d0 0x58f0 0x5940 0x5960 0x5980 0x5aa0 0x5ae0 0x5af0 0x5b10 0x5b50 0x5b70 0x5bc0 0x5be0 0x5c20 0x5d30 0x5d50 0x5d60 0x5d80 0x5dc0 0x5de0 0x5e30 0x5e50 0x5e90 0x5fa0 0x5fd0 0x5fe0 0x6000 0x6040 0x6060 0x60b0 0x60d0 0x6110 0x6220 0x6240 0x6250 0x6280 0x62b0 0x62e0 0x6310 0x6350 0x6360 0x6490 0x64d0 0x64e0 0x6500 0x6540 0x6560 0x65b0 0x65d0 0x6610 0x6720 0x6740 0x6750 0x6770 0x67b0 0x67d0 0x6820 0x6840 0x6880 0x6990 0x69d0 0x69e0 0x6a00 0x6a40 0x6a60 0x6ab0 0x6ad0 0x6b10 0x6c20 0x6c40 0x6c50 0x6c70 0x6cb0 0x6cd0 0x6d20 0x6d40 0x6d80 0x6e90 0x6ed0 0x6ee0 0x6f00 0x6f40 0x6f60 0x6fb0 0x6fd0 0x7010 0x7120 0x7140 0x7150 0x7170 0x71b0 0x71d0 0x7220 0x7240 0x7280 0x7390 0x73d0 0x73e0 0x7400 0x7440 0x7460 0x74b0 0x74d0 0x7510 0x7620 0x7640 0x7650 0x7670 0x76b0 0x76d0 0x7720 0x7740 0x7780 0x7890 0x78c0 0x78d0 0x78f0 0x7930 0x7950 0x79a0 0x79c0 0x7a00 0x7b20 0x7b40 0x7b50 0x7b80 0x7bb0 0x7be0 0x7c10 0x7c50 0x7c60 0x7d90 0x7db0 0x7dc0 0x7df0 0x7e20 0x7e50 0x7e80 0x7ec0 0x7ed0 0x8020 0x8040 0x8050 0x8080 0x80b0 0x80e0 0x8110 0x8150 0x8160 0x8290 0x82b0 0x82c0 0x82f0 0x8320 0x8350 0x8380 0x83c0 0x83d0 0x8520 0x8540 0x8550 0x8580 0x85b0 0x85e0 0x8610 0x8650 0x8660 0x8790 0x87c0 0x87d0 0x8800 0x8830 0x8860 0x8890 0x88d0 0x88e0 0x8a20 0x8a40 0x8a50 0x8a80 0x8ab0 0x8ae0 0x8b10 0x8b50 0x8b60 0x8c90 0x8cc0 0x8cd0 0x8cf0 0x8d30 0x8d50 0x8da0 0x8dc0 0x8e00 0x8f20 0x8f40 0x8f50 0x8f80 0x8fb0 0x8fe0 0x9010 0x9050 0x9060 0x9190 0x91d0 0x91e0 0x9200 0x9240 0x9260 0x92b0 0x92d0 0x9310 0x9420 0x9440 0x9450 0x9470 0x94b0 0x94d0 0x9520 0x9540 0x9580 0x9690 0x96d0 0x96e0 0x9700 0x9740 0x9760 0x97b0 0x97d0 0x9810 0x9920 0x9940 0x9950 0x9970 0x99b0 0x99d0 0x9a20 0x9a40 0x9a80 0x9b90 0x9bd0 0x9be0 0x9c00 0x9c40 0x9c60 0x9cb0 0x9cd0 0x9d10 0x9e20 0x9e40 0x9e50 0x9e70 0x9eb0 0x9ed0 0x9f20 0x9f40 0x9f80 0xa090 0xa0d0 0xa0e0 0xa100 0xa140 0xa160 0xa1b0 0xa1d0 0xa210 0xa320 0xa340 0xa350 0xa370 0xa3b0 0xa3d0 0xa420 0xa440 0xa480 0xa590 0xa5d0 0xa5e0 0xa600 0xa640 0xa660 0xa6b0 0xa6d0 0xa710 0xa820 0xa840 0xa850 0xa870 0xa8b0 0xa8d0 0xa920 0xa940 0xa980 0xaa90 0xaad0 0xaae0 0xab00 0xab40 0xab60 0xabb0 0xabd0 0xac10 0xad20 0xad40 0xad50 0xad70 0xadb0 0xadd0 0xae20 0xae40 0xae80 0xaf90 0xafd0 0xafe0 0xb000 0xb040 0xb060 0xb0b0 0xb0d0 0xb110 0xb220 0xb240 0xb250 0xb270 0xb2b0 0xb2d0 0xb320 0xb340 0xb380 0xb490 0xb4c0 0xb4d0 0xb500 0xb530 0xb560 0xb590 0xb5d0 0xb5e0 0xb720 0xb740 0xb750 0xb770 0xb7b0 0xb7d0 0xb820 0xb840 0xb880 0xb990 0xb9d0 0xb9e0 0xba00 0xba40 0xba60 0xbab0 0xbad0 0xbb10 0xbc20 0xbc40 0xbc50 0xbc70 0xbcb0 0xbcd0 0xbd20 0xbd40 0xbd80 0xbeb0 0xbec0 0xbed0 0xbef0 0xbf30 0xbf50 0xbfa0 0xbfc0 0xbfe0 0xc130 0xc140 0xc160 0xc1a0 0xc1c0 0xc210 0xc230 0xc270 0xc2f0 0xc3c0 0xc3d0 0xc400 0xc430 0xc460 0xc490 0xc4d0 0xc4e0 0xc5a0 0xc660 0xc670 0xc680 0xc6a0 0xc6e0 0xc700 0xc750 0xc770 0xc790 0xc8e0 0xd360 0xd680 0xd740 0xd810 0xd920 0xdaa0 0xdb80 0xdc60 0xdd40 0xde20 0xdf10 0xe020 0xe1a0 0xe280 0xe360 0xe440 0xe520 0xe610 0xe720 0xe8a0 0xe980 0xea60 0xeb40 0xec20 0xed10 0xee20 0xefa0 0xf080 0xf160 0xf240 0xf320 0xf410 0xf520 0xf6a0 0xf780 0xf860 0xf940 0xfa20 0xfb10 0xfc20 0xfda0 0xfe80 0xff60 0x10040 0x10120 0x10200 0x102d0 0x10370 0x10400 0x10490 0x10520 0x105b0 0x10640 0x106d0 0x10760 0x107f0 0x10880 0x10910 0x109a0 0x10a30 0x10ac0 0x10b50 0x10be0 0x10c70 0x10d00 0x10d90 0x10e20 0x10eb0 0x10f40 0x10fd0 0x11060 0x110f0 0x11180 0x11210 0x112a0 0x11330 0x113c0 0x11450 0x114e0 0x11570 0x11600 0x11690 0x11720 0x117b0 0x11840 0x118d0 0x11960 0x119f0 0x11a80 0x11b10 0x11ba0 0x11c30 0x11cc0 0x13880 0x13900 0x13970 0x13a00 0x13a90 0x13b20 0x13bb0 0x13c40 0x13cd0 0x13d60 0x13df0 0x13e80 0x13f10 0x13fa0 0x14030 0x140c0 0x14150 0x141e0 0x14270 0x14300 0x14390 0x14420 0x144b0 0x14540 0x145d0 0x14660 0x146f0 0x14780 0x14810 0x148a0 0x14930 0x149c0 0x14a50 0x14ae0 0x14b70 0x14c00 0x14c90 0x14d20 0x14db0 0x14e40 0x14ed0 0x14f60 0x14ff0 0x15090 0x15110 0x15190 0x15220 0x15280 0x152e0 0x15340 0x153a0 0x15400 0x15460 0x154c0 0x15520 0x15580 0x155e0 0x15640 0x156a0 0x15700 0x15760 0x157c0 0x15820 0x15880 0x158e0 0x15940 0x159a0 0x15a00 0x15a60 0x15ac0 0x15b20 0x15b80 0x15be0 0x15c40 0x15ca0 0x15d00 0x15d60 0x15dc0 0x15e20 0x15e80 0x15ee0 0x15f40 0x15fa0 0x16000 0x16060 0x160c0 0x16120 0x16180 0x161e0 0x16240 0x162a0 0x16300 0x16350 0x163d0 0x16450 0x164d0 0x16550 0x165d0 0x16630 0x166a0 0x16720 0x167a0 0x16820 0x168a0 0x16920 0x169a0 0x16a00 
	<0x22>
	Attribute:	EIATTR_EXIT_INSTR_OFFSETS
	Format:	EIFMT_SVAL
	Value:	0x4e00 0x4e20 0x5110 0x151a0 0x16310 
	<0x23>
	Attribute:	EIATTR_MAX_THREADS
	Format:	EIFMT_SVAL
	Value:	0x100 0x1 0x1 
	<0x24>
	Attribute:	EIATTR_CRS_STACK_SIZE
	Format:	EIFMT_SVAL
	Value:	0x0 


.nv.info._ZN3cub17CUB_200400_750_NS33DeviceRadixSortExclusiveSumKernelINS0_21DeviceRadixSortPolicyIiijE9Policy900EjEEvPT0_
	<0x1>
	Attribute:	EIATTR_SW_WAR
	Format:	EIFMT_SVAL
	Value:	0x1 
	<0x2>
	Attribute:	EIATTR_CUDA_API_VERSION
	Format:	EIFMT_SVAL
	Value:	0x7d 
	<0x3>
	Attribute:	EIATTR_PARAM_CBANK
	Format:	EIFMT_SVAL
	Value:	0x30 0x80160 
	<0x4>
	Attribute:	EIATTR_CBANK_PARAM_SIZE
	Format:	EIFMT_HVAL
	Value:	0x8
	<0x5>
	Attribute:	EIATTR_KPARAM_INFO
	Format:	EIFMT_SVAL
	Value:	Index : 0x0	Ordinal : 0x0	Offset  : 0x0	Size    : 0x8
		Pointee's logAlignment : 0x0	Space : 0x0	cbank : 0x1f	Parameter Space : CBANK	
	<0x6>
	Attribute:	EIATTR_MAXREG_COUNT
	Format:	EIFMT_HVAL
	Value:	0xff
	<0x7>
	Attribute:	EIATTR_COOP_GROUP_MASK_REGIDS
	Format:	EIFMT_SVAL
	Value:	0xffffffff 0xffffffff 0xffffffff 0xffffffff 0xffffffff 0xffffffff 0xffffffff 0xffffffff 0xffffffff 0xffffffff 
	<0x8>
	Attribute:	EIATTR_COOP_GROUP_INSTR_OFFSETS
	Format:	EIFMT_SVAL
	Value:	0x1f0 0x210 0x230 0x250 0x270 0x4b0 0x530 0x5b0 0x630 0x6b0 
	<0x9>
	Attribute:	EIATTR_EXIT_INSTR_OFFSETS
	Format:	EIFMT_SVAL
	Value:	0x420 0x450 
	<0x10>
	Attribute:	EIATTR_CRS_STACK_SIZE
	Format:	EIFMT_SVAL
	Value:	0x0 


.nv.info._ZN3cub17CUB_200400_750_NS30DeviceRadixSortHistogramKernelINS0_21DeviceRadixSortPolicyIiijE9Policy900ELb0EijNS0_6detail21identity_decomposer_tEEEvPT2_PKT1_S7_iiT3_
	<0x1>
	Attribute:	EIATTR_SW_WAR
	Format:	EIFMT_SVAL
	Value:	0x1 
	<0x2>
	Attribute:	EIATTR_CUDA_API_VERSION
	Format:	EIFMT_SVAL
	Value:	0x7d 
	<0x3>
	Attribute:	EIATTR_PARAM_CBANK
	Format:	EIFMT_SVAL
	Value:	0x33 0x1d0160 
	<0x4>
	Attribute:	EIATTR_CBANK_PARAM_SIZE
	Format:	EIFMT_HVAL
	Value:	0x1d
	<0x5>
	Attribute:	EIATTR_KPARAM_INFO
	Format:	EIFMT_SVAL
	Value:	Index : 0x0	Ordinal : 0x5	Offset  : 0x1c	Size    : 0x1
		Pointee's logAlignment : 0x0	Space : 0x0	cbank : 0x1f	Parameter Space : CBANK	
	<0x6>
	Attribute:	EIATTR_KPARAM_INFO
	Format:	EIFMT_SVAL
	Value:	Index : 0x0	Ordinal : 0x4	Offset  : 0x18	Size    : 0x4
		Pointee's logAlignment : 0x0	Space : 0x0	cbank : 0x1f	Parameter Space : CBANK	
	<0x7>
	Attribute:	EIATTR_KPARAM_INFO
	Format:	EIFMT_SVAL
	Value:	Index : 0x0	Ordinal : 0x3	Offset  : 0x14	Size    : 0x4
		Pointee's logAlignment : 0x0	Space : 0x0	cbank : 0x1f	Parameter Space : CBANK	
	<0x8>
	Attribute:	EIATTR_KPARAM_INFO
	Format:	EIFMT_SVAL
	Value:	Index : 0x0	Ordinal : 0x2	Offset  : 0x10	Size    : 0x4
		Pointee's logAlignment : 0x0	Space : 0x0	cbank : 0x1f	Parameter Space : CBANK	
	<0x9>
	Attribute:	EIATTR_KPARAM_INFO
	Format:	EIFMT_SVAL
	Value:	Index : 0x0	Ordinal : 0x1	Offset  : 0x8	Size    : 0x8
		Pointee's logAlignment : 0x0	Space : 0x0	cbank : 0x1f	Parameter Space : CBANK	
	<0x10>
	Attribute:	EIATTR_KPARAM_INFO
	Format:	EIFMT_SVAL
	Value:	Index : 0x0	Ordinal : 0x0	Offset  : 0x0	Size    : 0x8
		Pointee's logAlignment : 0x0	Space : 0x0	cbank : 0x1f	Parameter Space : CBANK	
	<0x11>
	Attribute:	EIATTR_MAXREG_COUNT
	Format:	EIFMT_HVAL
	Value:	0xff
	<0x12>
	Attribute:	EIATTR_INT_WARP_WIDE_INSTR_OFFSETS
	Format:	EIFMT_SVAL
	Value:	0x23a0 0x23c0 0x2770 0x2790 
	<0x13>
	Attribute:	EIATTR_EXIT_INSTR_OFFSETS
	Format:	EIFMT_SVAL
	Value:	0x70 0x2810 
	<0x14>
	Attribute:	EIATTR_MAX_THREADS
	Format:	EIFMT_SVAL
	Value:	0x100 0x1 0x1 
	<0x15>
	Attribute:	EIATTR_CRS_STACK_SIZE
	Format:	EIFMT_SVAL
	Value:	0x0 


.nv.info._ZN3cub17CUB_200400_750_NS30DeviceRadixSortDownsweepKernelINS0_21DeviceRadixSortPolicyIiijE9Policy900ELb1ELb0EiijNS0_6detail21identity_decomposer_tEEEvPKT2_PS7_PKT3_PSB_PT4_SF_iiNS0_13GridEvenShareISF_EET5_
	<0x1>
	Attribute:	EIATTR_SW_WAR
	Format:	EIFMT_SVAL
	Value:	0x1 
	<0x2>
	Attribute:	EIATTR_CUDA_API_VERSION
	Format:	EIFMT_SVAL
	Value:	0x7d 
	<0x3>
	Attribute:	EIATTR_PARAM_CBANK
	Format:	EIFMT_SVAL
	Value:	0x38 0x5d0160 
	<0x4>
	Attribute:	EIATTR_CBANK_PARAM_SIZE
	Format:	EIFMT_HVAL
	Value:	0x5d
	<0x5>
	Attribute:	EIATTR_KPARAM_INFO
	Format:	EIFMT_SVAL
	Value:	Index : 0x0	Ordinal : 0x9	Offset  : 0x5c	Size    : 0x1
		Pointee's logAlignment : 0x0	Space : 0x0	cbank : 0x1f	Parameter Space : CBANK	
	<0x6>
	Attribute:	EIATTR_KPARAM_INFO
	Format:	EIFMT_SVAL
	Value:	Index : 0x0	Ordinal : 0x8	Offset  : 0x34	Size    : 0x28
		Pointee's logAlignment : 0x0	Space : 0x0	cbank : 0x1f	Parameter Space : CBANK	
	<0x7>
	Attribute:	EIATTR_KPARAM_INFO
	Format:	EIFMT_SVAL
	Value:	Index : 0x0	Ordinal : 0x7	Offset  : 0x30	Size    : 0x4
		Pointee's logAlignment : 0x0	Space : 0x0	cbank : 0x1f	Parameter Space : CBANK	
	<0x8>
	Attribute:	EIATTR_KPARAM_INFO
	Format:	EIFMT_SVAL
	Value:	Index : 0x0	Ordinal : 0x6	Offset  : 0x2c	Size    : 0x4
		Pointee's logAlignment : 0x0	Space : 0x0	cbank : 0x1f	Parameter Space : CBANK	
	<0x9>
	Attribute:	EIATTR_KPARAM_INFO
	Format:	EIFMT_SVAL
	Value:	Index : 0x0	Ordinal : 0x5	Offset  : 0x28	Size    : 0x4
		Pointee's logAlignment : 0x0	Space : 0x0	cbank : 0x1f	Parameter Space : CBANK	
	<0x10>
	Attribute:	EIATTR_KPARAM_INFO
	Format:	EIFMT_SVAL
	Value:	Index : 0x0	Ordinal : 0x4	Offset  : 0x20	Size    : 0x8
		Pointee's logAlignment : 0x0	Space : 0x0	cbank : 0x1f	Parameter Space : CBANK	
	<0x11>
	Attribute:	EIATTR_KPARAM_INFO
	Format:	EIFMT_SVAL
	Value:	Index : 0x0	Ordinal : 0x3	Offset  : 0x18	Size    : 0x8
		Pointee's logAlignment : 0x0	Space : 0x0	cbank : 0x1f	Parameter Space : CBANK	
	<0x12>
	Attribute:	EIATTR_KPARAM_INFO
	Format:	EIFMT_SVAL
	Value:	Index : 0x0	Ordinal : 0x2	Offset  : 0x10	Size    : 0x8
		Pointee's logAlignment : 0x0	Space : 0x0	cbank : 0x1f	Parameter Space : CBANK	
	<0x13>
	Attribute:	EIATTR_KPARAM_INFO
	Format:	EIFMT_SVAL
	Value:	Index : 0x0	Ordinal : 0x1	Offset  : 0x8	Size    : 0x8
		Pointee's logAlignment : 0x0	Space : 0x0	cbank : 0x1f	Parameter Space : CBANK	
	<0x14>
	Attribute:	EIATTR_KPARAM_INFO
	Format:	EIFMT_SVAL
	Value:	Index : 0x0	Ordinal : 0x0	Offset  : 0x0	Size    : 0x8
		Pointee's logAlignment : 0x0	Space : 0x0	cbank : 0x1f	Parameter Space : CBANK	
	<0x15>
	Attribute:	EIATTR_MAXREG_COUNT
	Format:	EIFMT_HVAL
	Value:	0xff
	<0x16>
	Attribute:	EIATTR_COOP_GROUP_MASK_REGIDS
	Format:	EIFMT_SVAL
	Value:	0xffffffff 0xffffffff 0xffffffff 0xffffffff 0xffffffff 0xffffffff 0xffffffff 0xffffffff 0xffffffff 0xffffffff 0xffffffff 0xffffffff 0xffffffff 0xffffffff 0xffffffff 0xffffffff 0xffffffff 0xffffffff 0xffffffff 0xffffffff 0xffffffff 0xffffffff 0xffffffff 
	<0x17>
	Attribute:	EIATTR_COOP_GROUP_INSTR_OFFSETS
	Format:	EIFMT_SVAL
	Value:	0x7040 0x7060 0x7080 0x70a0 0x70d0 0xb6d0 0xf4d0 0xf4f0 0xf510 0xf530 0xf560 0x10480 0x15620 0x156b0 0x15740 0x157d0 0x15860 0x158b0 0x15920 0x159b0 0x15a40 0x15ad0 0x15b60 
	<0x18>
	Attribute:	EIATTR_EXIT_INSTR_OFFSETS
	Format:	EIFMT_SVAL
	Value:	0x2550 0x3ab0 0x3ad0 0xb6b0 0x15560 0x155c0 
	<0x19>
	Attribute:	EIATTR_MAX_THREADS
	Format:	EIFMT_SVAL
	Value:	0x100 0x1 0x1 
	<0x20>
	Attribute:	EIATTR_CRS_STACK_SIZE
	Format:	EIFMT_SVAL
	Value:	0x0 


.nv.info._ZN3cub17CUB_200400_750_NS30DeviceRadixSortDownsweepKernelINS0_21DeviceRadixSortPolicyIiijE9Policy900ELb0ELb0EiijNS0_6detail21identity_decomposer_tEEEvPKT2_PS7_PKT3_PSB_PT4_SF_iiNS0_13GridEvenShareISF_EET5_
	<0x1>
	Attribute:	EIATTR_SW_WAR
	Format:	EIFMT_SVAL
	Value:	0x1 
	<0x2>
	Attribute:	EIATTR_CUDA_API_VERSION
	Format:	EIFMT_SVAL
	Value:	0x7d 
	<0x3>
	Attribute:	EIATTR_PARAM_CBANK
	Format:	EIFMT_SVAL
	Value:	0x3d 0x5d0160 
	<0x4>
	Attribute:	EIATTR_CBANK_PARAM_SIZE
	Format:	EIFMT_HVAL
	Value:	0x5d
	<0x5>
	Attribute:	EIATTR_KPARAM_INFO
	Format:	EIFMT_SVAL
	Value:	Index : 0x0	Ordinal : 0x9	Offset  : 0x5c	Size    : 0x1
		Pointee's logAlignment : 0x0	Space : 0x0	cbank : 0x1f	Parameter Space : CBANK	
	<0x6>
	Attribute:	EIATTR_KPARAM_INFO
	Format:	EIFMT_SVAL
	Value:	Index : 0x0	Ordinal : 0x8	Offset  : 0x34	Size    : 0x28
		Pointee's logAlignment : 0x0	Space : 0x0	cbank : 0x1f	Parameter Space : CBANK	
	<0x7>
	Attribute:	EIATTR_KPARAM_INFO
	Format:	EIFMT_SVAL
	Value:	Index : 0x0	Ordinal : 0x7	Offset  : 0x30	Size    : 0x4
		Pointee's logAlignment : 0x0	Space : 0x0	cbank : 0x1f	Parameter Space : CBANK	
	<0x8>
	Attribute:	EIATTR_KPARAM_INFO
	Format:	EIFMT_SVAL
	Value:	Index : 0x0	Ordinal : 0x6	Offset  : 0x2c	Size    : 0x4
		Pointee's logAlignment : 0x0	Space : 0x0	cbank : 0x1f	Parameter Space : CBANK	
	<0x9>
	Attribute:	EIATTR_KPARAM_INFO
	Format:	EIFMT_SVAL
	Value:	Index : 0x0	Ordinal : 0x5	Offset  : 0x28	Size    : 0x4
		Pointee's logAlignment : 0x0	Space : 0x0	cbank : 0x1f	Parameter Space : CBANK	
	<0x10>
	Attribute:	EIATTR_KPARAM_INFO
	Format:	EIFMT_SVAL
	Value:	Index : 0x0	Ordinal : 0x4	Offset  : 0x20	Size    : 0x8
		Pointee's logAlignment : 0x0	Space : 0x0	cbank : 0x1f	Parameter Space : CBANK	
	<0x11>
	Attribute:	EIATTR_KPARAM_INFO
	Format:	EIFMT_SVAL
	Value:	Index : 0x0	Ordinal : 0x3	Offset  : 0x18	Size    : 0x8
		Pointee's logAlignment : 0x0	Space : 0x0	cbank : 0x1f	Parameter Space : CBANK	
	<0x12>
	Attribute:	EIATTR_KPARAM_INFO
	Format:	EIFMT_SVAL
	Value:	Index : 0x0	Ordinal : 0x2	Offset  : 0x10	Size    : 0x8
		Pointee's logAlignment : 0x0	Space : 0x0	cbank : 0x1f	Parameter Space : CBANK	
	<0x13>
	Attribute:	EIATTR_KPARAM_INFO
	Format:	EIFMT_SVAL
	Value:	Index : 0x0	Ordinal : 0x1	Offset  : 0x8	Size    : 0x8
		Pointee's logAlignment : 0x0	Space : 0x0	cbank : 0x1f	Parameter Space : CBANK	
	<0x14>
	Attribute:	EIATTR_KPARAM_INFO
	Format:	EIFMT_SVAL
	Value:	Index : 0x0	Ordinal : 0x0	Offset  : 0x0	Size    : 0x8
		Pointee's logAlignment : 0x0	Space : 0x0	cbank : 0x1f	Parameter Space : CBANK	
	<0x15>
	Attribute:	EIATTR_MAXREG_COUNT
	Format:	EIFMT_HVAL
	Value:	0x80
	<0x16>
	Attribute:	EIATTR_UNUSED_LOAD_BYTE_OFFSET
	Format:	EIFMT_SVAL
	Value:	0x57a0 0xfff 0xb520 0xfff 
	<0x17>
	Attribute:	EIATTR_COOP_GROUP_MASK_REGIDS
	Format:	EIFMT_SVAL
	Value:	0xffffffff 0xffffffff 0xffffffff 0xffffffff 0xffffffff 0xffffffff 0xffffffff 0xffffffff 0xffffffff 0xffffffff 0xffffffff 0xffffffff 0xffffffff 0xffffffff 0xffffffff 0xffffffff 0xffffffff 0xffffffff 0xffffffff 0xffffffff 0xffffffff 0xffffffff 0xffffffff 0xffffffff 0xffffffff 0xffffffff 0xffffffff 0xffffffff 0xffffffff 0xffffffff 0xffffffff 0xffffffff 0xffffffff 0xffffffff 0xffffffff 0xffffffff 0xffffffff 0xffffffff 0xffffffff 0xffffffff 0xffffffff 0xffffffff 0xffffffff 0xffffffff 0xffffffff 0xffffffff 0xffffffff 0xffffffff 0xffffffff 0xffffffff 0xffffffff 0xffffffff 0xffffffff 0xffffffff 0xffffffff 0xffffffff 0xffffffff 0xffffffff 0xffffffff 0xffffffff 0xffffffff 0xffffffff 0xffffffff 0xffffffff 0xffffffff 0xffffffff 0xffffffff 0xffffffff 0xffffffff 0xffffffff 0xffffffff 0xffffffff 0xffffffff 0xffffffff 0xffffffff 0xffffffff 0xffffffff 0xffffffff 0xffffffff 0xffffffff 0xffffffff 0xffffffff 0xffffffff 0xffffffff 0xffffffff 0xffffffff 0xffffffff 0xffffffff 0xffffffff 0xffffffff 0xffffffff 0xffffffff 0xffffffff 0xffffffff 0xffffffff 0xffffffff 0xffffffff 0xffffffff 0xffffffff 0xffffffff 0xffffffff 0xffffffff 0xffffffff 0xffffffff 0xffffffff 0xffffffff 0xffffffff 0xffffffff 0xffffffff 0xffffffff 0xffffffff 0xffffffff 0xffffffff 0xffffffff 0xffffffff 0xffffffff 0xffffffff 0xffffffff 0xffffffff 0xffffffff 0xffffffff 0xffffffff 0xffffffff 0xffffffff 0xffffffff 0xffffffff 0xffffffff 0xffffffff 0xffffffff 0xffffffff 0xffffffff 0xffffffff 0xffffffff 0xffffffff 0xffffffff 0xffffffff 0xffffffff 0xffffffff 0xffffffff 0xffffffff 0xffffffff 0xffffffff 0xffffffff 0xffffffff 0xffffffff 0xffffffff 0xffffffff 0xffffffff 0xffffffff 0xffffffff 0xffffffff 0xffffffff 0xffffffff 0xffffffff 0xffffffff 0xffffffff 0xffffffff 0xffffffff 0xffffffff 0xffffffff 0xffffffff 0xffffffff 0xffffffff 0xffffffff 0xffffffff 0xffffffff 0xffffffff 0xffffffff 0xffffffff 0xffffffff 0xffffffff 0xffffffff 0xffffffff 0xffffffff 0xffffffff 0xffffffff 0xffffffff 0xffffffff 0xffffffff 0xffffffff 0xffffffff 0xffffffff 0xffffffff 0xffffffff 0xffffffff 0xffffffff 0xffffffff 0xffffffff 0xffffffff 0xffffffff 0xffffffff 0xffffffff 0xffffffff 0xffffffff 0xffffffff 0xffffffff 0xffffffff 0xffffffff 0xffffffff 0xffffffff 0xffffffff 0xffffffff 0xffffffff 0xffffffff 0xffffffff 0xffffffff 0xffffffff 0xffffffff 0xffffffff 0xffffffff 0xffffffff 0xffffffff 0xffffffff 0xffffffff 0xffffffff 0xffffffff 0xffffffff 0xffffffff 0xffffffff 0xffffffff 0xffffffff 0xffffffff 0xffffffff 0xffffffff 0xffffffff 0xffffffff 0xffffffff 0xffffffff 0xffffffff 0xffffffff 0xffffffff 0xffffffff 0xffffffff 0xffffffff 0xffffffff 0xffffffff 0xffffffff 0xffffffff 0xffffffff 0xffffffff 0xffffffff 0xffffffff 0xffffffff 0xffffffff 0xffffffff 0xffffffff 0xffffffff 0xffffffff 0xffffffff 0xffffffff 0xffffffff 0xffffffff 0xffffffff 0xffffffff 0xffffffff 0xffffffff 0xffffffff 0xffffffff 0xffffffff 0xffffffff 0xffffffff 0xffffffff 0xffffffff 0xffffffff 0xffffffff 0xffffffff 0xffffffff 0xffffffff 0xffffffff 0xffffffff 0xffffffff 0xffffffff 0xffffffff 0xffffffff 0xffffffff 0xffffffff 0xffffffff 0xffffffff 0xffffffff 0xffffffff 0xffffffff 0xffffffff 0xffffffff 0xffffffff 0xffffffff 0xffffffff 0xffffffff 0xffffffff 0xffffffff 0xffffffff 0xffffffff 0xffffffff 0xffffffff 0xffffffff 0xffffffff 0xffffffff 0xffffffff 0xffffffff 0xffffffff 0xffffffff 0xffffffff 0xffffffff 0xffffffff 0xffffffff 0xffffffff 0xffffffff 0xffffffff 0xffffffff 0xffffffff 0xffffffff 0xffffffff 0xffffffff 0xffffffff 0xffffffff 0xffffffff 0xffffffff 0xffffffff 0xffffffff 0xffffffff 0xffffffff 0xffffffff 0xffffffff 0xffffffff 0xffffffff 0xffffffff 0xffffffff 0xffffffff 0xffffffff 0xffffffff 0xffffffff 0xffffffff 0xffffffff 0xffffffff 0xffffffff 0xffffffff 0xffffffff 0xffffffff 0xffffffff 0xffffffff 0xffffffff 0xffffffff 0xffffffff 0xffffffff 0xffffffff 0xffffffff 0xffffffff 0xffffffff 0xffffffff 0xffffffff 0xffffffff 0xffffffff 0xffffffff 0xffffffff 0xffffffff 0xffffffff 0xffffffff 0xffffffff 0xffffffff 0xffffffff 0xffffffff 0xffffffff 0xffffffff 0xffffffff 0xffffffff 0xffffffff 0xffffffff 0xffffffff 0xffffffff 0xffffffff 0xffffffff 0xffffffff 0xffffffff 0xffffffff 0xffffffff 0xffffffff 0xffffffff 0xffffffff 0xffffffff 0xffffffff 0xffffffff 0xffffffff 0xffffffff 0xffffffff 0xffffffff 0xffffffff 0xffffffff 0xffffffff 0xffffffff 0xffffffff 0xffffffff 0xffffffff 0xffffffff 0xffffffff 0xffffffff 0xffffffff 0xffffffff 0xffffffff 0xffffffff 0xffffffff 0xffffffff 0xffffffff 0xffffffff 0xffffffff 0xffffffff 0xffffffff 0xffffffff 0xffffffff 0xffffffff 0xffffffff 0xffffffff 0xffffffff 0xffffffff 0xffffffff 0xffffffff 0xffffffff 0xffffffff 0xffffffff 0xffffffff 0xffffffff 0xffffffff 0xffffffff 0xffffffff 0xffffffff 0xffffffff 0xffffffff 0xffffffff 0xffffffff 0xffffffff 0xffffffff 0xffffffff 0xffffffff 0xffffffff 0xffffffff 0xffffffff 0xffffffff 0xffffffff 0xffffffff 0xffffffff 0xffffffff 0xffffffff 0xffffffff 
	<0x18>
	Attribute:	EIATTR_COOP_GROUP_INSTR_OFFSETS
	Format:	EIFMT_SVAL
	Value:	0x23d0 0x2400 0x2410 0x2460 0x24a0 0x24c0 0x2500 0x2670 0x2680 0x2690 0x26a0 0x26b0 0x26c0 0x26d0 0x27b0 0x27c0 0x27d0 0x27e0 0x27f0 0x2800 0x2810 0x28f0 0x2900 0x2910 0x2920 0x2930 0x2940 0x2950 0x2a30 0x2a40 0x2a50 0x2a60 0x2a70 0x2a80 0x2a90 0x2b80 0x2b90 0x2ba0 0x2bb0 0x2bc0 0x2bd0 0x2be0 0x2cc0 0x2cd0 0x2d00 0x2d10 0x2d20 0x2d40 0x2df0 0x2e30 0x2e70 0x2ed0 0x2ee0 0x2f10 0x2f20 0x2f30 0x2f40 0x3010 0x3020 0x3060 0x30b0 0x3100 0x3130 0x3150 0x3160 0x3180 0x3210 0x3220 0x3260 0x32c0 0x32d0 0x3300 0x3310 0x3320 0x3340 0x3440 0x3450 0x3490 0x34e0 0x34f0 0x3520 0x3530 0x3540 0x3560 0x3640 0x3650 0x3690 0x3700 0x3710 0x3740 0x3750 0x3760 0x3780 0x3860 0x3870 0x38b0 0x3900 0x3950 0x3980 0x3990 0x39a0 0x39b0 0x3a60 0x3a70 0x3ab0 0x3b10 0x3b80 0x3ba0 0x3bb0 0x3bc0 0x3c90 0x3ca0 0x3cc0 0x3cd0 0x3d70 0x3db0 0x3dc0 0x3dd0 0x3df0 0x3e00 0x3ee0 0x3ef0 0x3f30 0x3f90 0x3fd0 0x3fe0 0x3ff0 0x4010 0x4020 0x40f0 0x4100 0x4140 0x4190 0x4230 0x4240 0x4250 0x4300 0x4330 0x4360 0x4440 0x44c0 0x44d0 0x4510 0x4570 0x4580 0x45b0 0x45c0 0x45d0 0x45f0 0x4600 0x46d0 0x4710 0x4770 0x4780 0x47b0 0x47c0 0x47d0 0x47f0 0x4800 0x48d0 0x4900 0x4a90 0x4ad0 0x4b20 0x4b30 0x4b60 0x4b70 0x4b80 0x4c10 0x4c20 0x4c40 0x4c70 0x4d40 0x4d70 0x4d90 0x4da0 0x4dd0 0x4de0 0x4df0 0x4e10 0x4e20 0x4ee0 0x4f50 0x4f60 0x4fc0 0x4fd0 0x4ff0 0x5000 0x50b0 0x50e0 0x5150 0x5160 0x5180 0x5190 0x5220 0x5230 0x5270 0x52b0 0x52f0 0x5340 0x5370 0x53a0 0x53f0 0x5430 0x5450 0x54b0 0x54d0 0x5560 0x5580 0x55a0 0x55c0 0x55f0 0x7660 0x7f60 0x7f90 0x7fa0 0x7ff0 0x8030 0x8050 0x80a0 0x8270 0x8280 0x82a0 0x82b0 0x82d0 0x82e0 0x82f0 0x83e0 0x83f0 0x8400 0x8410 0x8420 0x8430 0x8440 0x8530 0x8540 0x8550 0x8560 0x8570 0x8580 0x8590 0x8680 0x8690 0x86d0 0x86e0 0x86f0 0x8700 0x8710 0x8800 0x8810 0x8840 0x8850 0x8860 0x8870 0x88f0 0x8930 0x89c0 0x89d0 0x89f0 0x8a20 0x8a30 0x8a40 0x8a50 0x8b40 0x8b50 0x8b90 0x8be0 0x8bf0 0x8c20 0x8c30 0x8c40 0x8c50 0x8d10 0x8d20 0x8d60 0x8db0 0x8dc0 0x8df0 0x8e00 0x8e10 0x8ea0 0x8ee0 0x8ef0 0x8f30 0x8f80 0x8fe0 0x8ff0 0x9000 0x9020 0x9070 0x90b0 0x90c0 0x9130 0x9160 0x91d0 0x91e0 0x9200 0x9210 0x9220 0x92a0 0x92b0 0x92f0 0x9380 0x93d0 0x93f0 0x9420 0x9430 0x9480 0x94c0 0x94d0 0x9510 0x95a0 0x9610 0x9640 0x9650 0x9660 0x9670 0x9680 0x96e0 0x9760 0x97a0 0x9820 0x9840 0x9850 0x9860 0x9870 0x98e0 0x98f0 0x9930 0x99c0 0x9a30 0x9a60 0x9a70 0x9a80 0x9b00 0x9b10 0x9b40 0x9b70 0x9c00 0x9c50 0x9c70 0x9d30 0x9d40 0x9d70 0x9db0 0x9f00 0x9f30 0x9f60 0x9f70 0xa000 0xa010 0xa040 0xa050 0xa060 0xa0e0 0xa100 0xa130 0xa1a0 0xa1b0 0xa250 0xa280 0xa310 0xa320 0xa330 0xa340 0xa3f0 0xa400 0xa420 0xa470 0xa530 0xa540 0xa570 0xa5e0 0xa5f0 0xa610 0xa640 0xa6c0 0xa710 0xa740 0xa750 0xa7c0 0xa7d0 0xa800 0xa810 0xa820 0xa8e0 0xa8f0 0xa910 0xa950 0xa9b0 0xa9c0 0xa9f0 0xaa00 0xaa10 0xaa80 0xaab0 0xab10 0xab50 0xab80 0xabe0 0xac10 0xac20 0xac30 0xac40 0xac50 0xac60 0xac70 0xad60 0xadc0 0xae10 0xae70 0xaea0 0xaee0 0xaf20 0xaf60 0xaf90 0xafd0 0xaff0 0xb060 0xb080 0xb110 0xb130 0xb150 0xb170 0xb1a0 0xcec0 0xe3e0 0xe450 0xe4d0 0xe550 0xe5d0 0xe650 0xe6d0 0xe710 0xe760 0xe7d0 0xe850 0xe8d0 0xe950 0xe9d0 0xea60 
	<0x19>
	Attribute:	EIATTR_EXIT_INSTR_OFFSETS
	Format:	EIFMT_SVAL
	Value:	0x1460 0x1ea0 0x1ec0 0x7640 0xe340 0xe3a0 
	<0x20>
	Attribute:	EIATTR_MAX_THREADS
	Format:	EIFMT_SVAL
	Value:	0x200 0x1 0x1 
	<0x21>
	Attribute:	EIATTR_CRS_STACK_SIZE
	Format:	EIFMT_SVAL
	Value:	0x0 


.nv.info._ZN3cub17CUB_200400_750_NS23RadixSortScanBinsKernelINS0_21DeviceRadixSortPolicyIiijE9Policy900EjEEvPT0_i
	<0x1>
	Attribute:	EIATTR_SW_WAR
	Format:	EIFMT_SVAL
	Value:	0x1 
	<0x2>
	Attribute:	EIATTR_CUDA_API_VERSION
	Format:	EIFMT_SVAL
	Value:	0x7d 
	<0x3>
	Attribute:	EIATTR_PARAM_CBANK
	Format:	EIFMT_SVAL
	Value:	0x43 0xc0160 
	<0x4>
	Attribute:	EIATTR_CBANK_PARAM_SIZE
	Format:	EIFMT_HVAL
	Value:	0xc
	<0x5>
	Attribute:	EIATTR_KPARAM_INFO
	Format:	EIFMT_SVAL
	Value:	Index : 0x0	Ordinal : 0x1	Offset  : 0x8	Size    : 0x4
		Pointee's logAlignment : 0x0	Space : 0x0	cbank : 0x1f	Parameter Space : CBANK	
	<0x6>
	Attribute:	EIATTR_KPARAM_INFO
	Format:	EIFMT_SVAL
	Value:	Index : 0x0	Ordinal : 0x0	Offset  : 0x0	Size    : 0x8
		Pointee's logAlignment : 0x0	Space : 0x0	cbank : 0x1f	Parameter Space : CBANK	
	<0x7>
	Attribute:	EIATTR_MAXREG_COUNT
	Format:	EIFMT_HVAL
	Value:	0x80
	<0x8>
	Attribute:	EIATTR_COOP_GROUP_MASK_REGIDS
	Format:	EIFMT_SVAL
	Value:	0xffffffff 0xffffffff 0xffffffff 0xffffffff 0xffffffff 0xffffffff 0xffffffff 0xffffffff 0xffffffff 0xffffffff 0xffffffff 0xffffffff 0xffffffff 0xffffffff 0xffffffff 0xffffffff 0xffffffff 0xffffffff 0xffffffff 0xffffffff 0xffffffff 0xffffffff 0xffffffff 0xffffffff 0xffffffff 0xffffffff 0xffffffff 0xffffffff 0xffffffff 0xffffffff 0xffffffff 0xffffffff 0xffffffff 
	<0x9>
	Attribute:	EIATTR_COOP_GROUP_INSTR_OFFSETS
	Format:	EIFMT_SVAL
	Value:	0x470 0x890 0x8b0 0x8d0 0x8f0 0x910 0x930 0x950 0xeb0 0xec0 0x1a00 0x1e20 0x1e40 0x1e60 0x1e80 0x1eb0 0x1f30 0x1f60 0x2520 0x2550 0x2aa0 0x2b30 0x2bc0 0x2c50 0x2ce0 0x2d70 0x2df0 0x2e70 0x2ef0 0x2f70 0x2ff0 0x3070 0x30f0 
	<0x10>
	Attribute:	EIATTR_EXIT_INSTR_OFFSETS
	Format:	EIFMT_SVAL
	Value:	0x11f0 0x2a20 0x2a40 
	<0x11>
	Attribute:	EIATTR_MAX_THREADS
	Format:	EIFMT_SVAL
	Value:	0x200 0x1 0x1 
	<0x12>
	Attribute:	EIATTR_CRS_STACK_SIZE
	Format:	EIFMT_SVAL
	Value:	0x0 


.nv.info._ZN3cub17CUB_200400_750_NS28DeviceRadixSortUpsweepKernelINS0_21DeviceRadixSortPolicyIiijE9Policy900ELb1ELb0EijNS0_6detail21identity_decomposer_tEEEvPKT2_PT3_SA_iiNS0_13GridEvenShareISA_EET4_
	<0x1>
	Attribute:	EIATTR_SW_WAR
	Format:	EIFMT_SVAL
	Value:	0x1 
	<0x2>
	Attribute:	EIATTR_CUDA_API_VERSION
	Format:	EIFMT_SVAL
	Value:	0x7d 
	<0x3>
	Attribute:	EIATTR_PARAM_CBANK
	Format:	EIFMT_SVAL
	Value:	0x46 0x450160 
	<0x4>
	Attribute:	EIATTR_CBANK_PARAM_SIZE
	Format:	EIFMT_HVAL
	Value:	0x45
	<0x5>
	Attribute:	EIATTR_KPARAM_INFO
	Format:	EIFMT_SVAL
	Value:	Index : 0x0	Ordinal : 0x6	Offset  : 0x44	Size    : 0x1
		Pointee's logAlignment : 0x0	Space : 0x0	cbank : 0x1f	Parameter Space : CBANK	
	<0x6>
	Attribute:	EIATTR_KPARAM_INFO
	Format:	EIFMT_SVAL
	Value:	Index : 0x0	Ordinal : 0x5	Offset  : 0x1c	Size    : 0x28
		Pointee's logAlignment : 0x0	Space : 0x0	cbank : 0x1f	Parameter Space : CBANK	
	<0x7>
	Attribute:	EIATTR_KPARAM_INFO
	Format:	EIFMT_SVAL
	Value:	Index : 0x0	Ordinal : 0x4	Offset  : 0x18	Size    : 0x4
		Pointee's logAlignment : 0x0	Space : 0x0	cbank : 0x1f	Parameter Space : CBANK	
	<0x8>
	Attribute:	EIATTR_KPARAM_INFO
	Format:	EIFMT_SVAL
	Value:	Index : 0x0	Ordinal : 0x3	Offset  : 0x14	Size    : 0x4
		Pointee's logAlignment : 0x0	Space : 0x0	cbank : 0x1f	Parameter Space : CBANK	
	<0x9>
	Attribute:	EIATTR_KPARAM_INFO
	Format:	EIFMT_SVAL
	Value:	Index : 0x0	Ordinal : 0x2	Offset  : 0x10	Size    : 0x4
		Pointee's logAlignment : 0x0	Space : 0x0	cbank : 0x1f	Parameter Space : CBANK	
	<0x10>
	Attribute:	EIATTR_KPARAM_INFO
	Format:	EIFMT_SVAL
	Value:	Index : 0x0	Ordinal : 0x1	Offset  : 0x8	Size    : 0x8
		Pointee's logAlignment : 0x0	Space : 0x0	cbank : 0x1f	Parameter Space : CBANK	
	<0x11>
	Attribute:	EIATTR_KPARAM_INFO
	Format:	EIFMT_SVAL
	Value:	Index : 0x0	Ordinal : 0x0	Offset  : 0x0	Size    : 0x8
		Pointee's logAlignment : 0x0	Space : 0x0	cbank : 0x1f	Parameter Space : CBANK	
	<0x12>
	Attribute:	EIATTR_MAXREG_COUNT
	Format:	EIFMT_HVAL
	Value:	0xff
	<0x13>
	Attribute:	EIATTR_EXIT_INSTR_OFFSETS
	Format:	EIFMT_SVAL
	Value:	0x6e60 0x71c0 
	<0x14>
	Attribute:	EIATTR_MAX_THREADS
	Format:	EIFMT_SVAL
	Value:	0x100 0x1 0x1 
	<0x15>
	Attribute:	EIATTR_CRS_STACK_SIZE
	Format:	EIFMT_SVAL
	Value:	0x0 


.nv.info._ZN3cub17CUB_200400_750_NS28DeviceRadixSortUpsweepKernelINS0_21DeviceRadixSortPolicyIiijE9Policy900ELb0ELb0EijNS0_6detail21identity_decomposer_tEEEvPKT2_PT3_SA_iiNS0_13GridEvenShareISA_EET4_
	<0x1>
	Attribute:	EIATTR_SW_WAR
	Format:	EIFMT_SVAL
	Value:	0x1 
	<0x2>
	Attribute:	EIATTR_CUDA_API_VERSION
	Format:	EIFMT_SVAL
	Value:	0x7d 
	<0x3>
	Attribute:	EIATTR_PARAM_CBANK
	Format:	EIFMT_SVAL
	Value:	0x49 0x450160 
	<0x4>
	Attribute:	EIATTR_CBANK_PARAM_SIZE
	Format:	EIFMT_HVAL
	Value:	0x45
	<0x5>
	Attribute:	EIATTR_KPARAM_INFO
	Format:	EIFMT_SVAL
	Value:	Index : 0x0	Ordinal : 0x6	Offset  : 0x44	Size    : 0x1
		Pointee's logAlignment : 0x0	Space : 0x0	cbank : 0x1f	Parameter Space : CBANK	
	<0x6>
	Attribute:	EIATTR_KPARAM_INFO
	Format:	EIFMT_SVAL
	Value:	Index : 0x0	Ordinal : 0x5	Offset  : 0x1c	Size    : 0x28
		Pointee's logAlignment : 0x0	Space : 0x0	cbank : 0x1f	Parameter Space : CBANK	
	<0x7>
	Attribute:	EIATTR_KPARAM_INFO
	Format:	EIFMT_SVAL
	Value:	Index : 0x0	Ordinal : 0x4	Offset  : 0x18	Size    : 0x4
		Pointee's logAlignment : 0x0	Space : 0x0	cbank : 0x1f	Parameter Space : CBANK	
	<0x8>
	Attribute:	EIATTR_KPARAM_INFO
	Format:	EIFMT_SVAL
	Value:	Index : 0x0	Ordinal : 0x3	Offset  : 0x14	Size    : 0x4
		Pointee's logAlignment : 0x0	Space : 0x0	cbank : 0x1f	Parameter Space : CBANK	
	<0x9>
	Attribute:	EIATTR_KPARAM_INFO
	Format:	EIFMT_SVAL
	Value:	Index : 0x0	Ordinal : 0x2	Offset  : 0x10	Size    : 0x4
		Pointee's logAlignment : 0x0	Space : 0x0	cbank : 0x1f	Parameter Space : CBANK	
	<0x10>
	Attribute:	EIATTR_KPARAM_INFO
	Format:	EIFMT_SVAL
	Value:	Index : 0x0	Ordinal : 0x1	Offset  : 0x8	Size    : 0x8
		Pointee's logAlignment : 0x0	Space : 0x0	cbank : 0x1f	Parameter Space : CBANK	
	<0x11>
	Attribute:	EIATTR_KPARAM_INFO
	Format:	EIFMT_SVAL
	Value:	Index : 0x0	Ordinal : 0x0	Offset  : 0x0	Size    : 0x8
		Pointee's logAlignment : 0x0	Space : 0x0	cbank : 0x1f	Parameter Space : CBANK	
	<0x12>
	Attribute:	EIATTR_MAXREG_COUNT
	Format:	EIFMT_HVAL
	Value:	0xff
	<0x13>
	Attribute:	EIATTR_EXIT_INSTR_OFFSETS
	Format:	EIFMT_SVAL
	Value:	0x58d0 0x5c20 
	<0x14>
	Attribute:	EIATTR_MAX_THREADS
	Format:	EIFMT_SVAL
	Value:	0x100 0x1 0x1 
	<0x15>
	Attribute:	EIATTR_CRS_STACK_SIZE
	Format:	EIFMT_SVAL
	Value:	0x0 


.nv.info._ZN3cub17CUB_200400_750_NS31DeviceRadixSortSingleTileKernelINS0_21DeviceRadixSortPolicyIiijE9Policy900ELb0EiijNS0_6detail21identity_decomposer_tEEEvPKT1_PS7_PKT2_PSB_T3_iiT4_
	<0x1>
	Attribute:	EIATTR_SW_WAR
	Format:	EIFMT_SVAL
	Value:	0x1 
	<0x2>
	Attribute:	EIATTR_CUDA_API_VERSION
	Format:	EIFMT_SVAL
	Value:	0x7d 
	<0x3>
	Attribute:	EIATTR_PARAM_CBANK
	Format:	EIFMT_SVAL
	Value:	0x4c 0x2d0160 
	<0x4>
	Attribute:	EIATTR_CBANK_PARAM_SIZE
	Format:	EIFMT_HVAL
	Value:	0x2d
	<0x5>
	Attribute:	EIATTR_KPARAM_INFO
	Format:	EIFMT_SVAL
	Value:	Index : 0x0	Ordinal : 0x7	Offset  : 0x2c	Size    : 0x1
		Pointee's logAlignment : 0x0	Space : 0x0	cbank : 0x1f	Parameter Space : CBANK	
	<0x6>
	Attribute:	EIATTR_KPARAM_INFO
	Format:	EIFMT_SVAL
	Value:	Index : 0x0	Ordinal : 0x6	Offset  : 0x28	Size    : 0x4
		Pointee's logAlignment : 0x0	Space : 0x0	cbank : 0x1f	Parameter Space : CBANK	
	<0x7>
	Attribute:	EIATTR_KPARAM_INFO
	Format:	EIFMT_SVAL
	Value:	Index : 0x0	Ordinal : 0x5	Offset  : 0x24	Size    : 0x4
		Pointee's logAlignment : 0x0	Space : 0x0	cbank : 0x1f	Parameter Space : CBANK	
	<0x8>
	Attribute:	EIATTR_KPARAM_INFO
	Format:	EIFMT_SVAL
	Value:	Index : 0x0	Ordinal : 0x4	Offset  : 0x20	Size    : 0x4
		Pointee's logAlignment : 0x0	Space : 0x0	cbank : 0x1f	Parameter Space : CBANK	
	<0x9>
	Attribute:	EIATTR_KPARAM_INFO
	Format:	EIFMT_SVAL
	Value:	Index : 0x0	Ordinal : 0x3	Offset  : 0x18	Size    : 0x8
		Pointee's logAlignment : 0x0	Space : 0x0	cbank : 0x1f	Parameter Space : CBANK	
	<0x10>
	Attribute:	EIATTR_KPARAM_INFO
	Format:	EIFMT_SVAL
	Value:	Index : 0x0	Ordinal : 0x2	Offset  : 0x10	Size    : 0x8
		Pointee's logAlignment : 0x0	Space : 0x0	cbank : 0x1f	Parameter Space : CBANK	
	<0x11>
	Attribute:	EIATTR_KPARAM_INFO
	Format:	EIFMT_SVAL
	Value:	Index : 0x0	Ordinal : 0x1	Offset  : 0x8	Size    : 0x8
		Pointee's logAlignment : 0x0	Space : 0x0	cbank : 0x1f	Parameter Space : CBANK	
	<0x12>
	Attribute:	EIATTR_KPARAM_INFO
	Format:	EIFMT_SVAL
	Value:	Index : 0x0	Ordinal : 0x0	Offset  : 0x0	Size    : 0x8
		Pointee's logAlignment : 0x0	Space : 0x0	cbank : 0x1f	Parameter Space : CBANK	
	<0x13>
	Attribute:	EIATTR_MAXREG_COUNT
	Format:	EIFMT_HVAL
	Value:	0xff
	<0x14>
	Attribute:	EIATTR_COOP_GROUP_MASK_REGIDS
	Format:	EIFMT_SVAL
	Value:	0xffffffff 0xffffffff 0xffffffff 0xffffffff 0xffffffff 
	<0x15>
	Attribute:	EIATTR_COOP_GROUP_INSTR_OFFSETS
	Format:	EIFMT_SVAL
	Value:	0x1d00 0x1d20 0x1d40 0x1d60 0x1d90 
	<0x16>
	Attribute:	EIATTR_EXIT_INSTR_OFFSETS
	Format:	EIFMT_SVAL
	Value:	0x36c0 0x3710 
	<0x17>
	Attribute:	EIATTR_MAX_THREADS
	Format:	EIFMT_SVAL
	Value:	0x100 0x1 0x1 
	<0x18>
	Attribute:	EIATTR_CRS_STACK_SIZE
	Format:	EIFMT_SVAL
	Value:	0x0 


.nv.info._ZN3cub17CUB_200400_750_NS11EmptyKernelIvEEvv
	<0x1>
	Attribute:	EIATTR_SW_WAR
	Format:	EIFMT_SVAL
	Value:	0x1 
	<0x2>
	Attribute:	EIATTR_CUDA_API_VERSION
	Format:	EIFMT_SVAL
	Value:	0x7d 
	<0x3>
	Attribute:	EIATTR_MAXREG_COUNT
	Format:	EIFMT_HVAL
	Value:	0xff
	<0x4>
	Attribute:	EIATTR_EXIT_INSTR_OFFSETS
	Format:	EIFMT_SVAL
	Value:	0x10 


.nv.info._Z14merge_suffixesPKiS0_PiS0_S0_iii
	<0x1>
	Attribute:	EIATTR_SW_WAR
	Format:	EIFMT_SVAL
	Value:	0x1 
	<0x2>
	Attribute:	EIATTR_CUDA_API_VERSION
	Format:	EIFMT_SVAL
	Value:	0x7d 
	<0x3>
	Attribute:	EIATTR_PARAM_CBANK
	Format:	EIFMT_SVAL
	Value:	0x50 0x340160 
	<0x4>
	Attribute:	EIATTR_CBANK_PARAM_SIZE
	Format:	EIFMT_HVAL
	Value:	0x34
	<0x5>
	Attribute:	EIATTR_KPARAM_INFO
	Format:	EIFMT_SVAL
	Value:	Index : 0x0	Ordinal : 0x7	Offset  : 0x30	Size    : 0x4
		Pointee's logAlignment : 0x0	Space : 0x0	cbank : 0x1f	Parameter Space : CBANK	
	<0x6>
	Attribute:	EIATTR_KPARAM_INFO
	Format:	EIFMT_SVAL
	Value:	Index : 0x0	Ordinal : 0x6	Offset  : 0x2c	Size    : 0x4
		Pointee's logAlignment : 0x0	Space : 0x0	cbank : 0x1f	Parameter Space : CBANK	
	<0x7>
	Attribute:	EIATTR_KPARAM_INFO
	Format:	EIFMT_SVAL
	Value:	Index : 0x0	Ordinal : 0x5	Offset  : 0x28	Size    : 0x4
		Pointee's logAlignment : 0x0	Space : 0x0	cbank : 0x1f	Parameter Space : CBANK	
	<0x8>
	Attribute:	EIATTR_KPARAM_INFO
	Format:	EIFMT_SVAL
	Value:	Index : 0x0	Ordinal : 0x4	Offset  : 0x20	Size    : 0x8
		Pointee's logAlignment : 0x0	Space : 0x0	cbank : 0x1f	Parameter Space : CBANK	
	<0x9>
	Attribute:	EIATTR_KPARAM_INFO
	Format:	EIFMT_SVAL
	Value:	Index : 0x0	Ordinal : 0x3	Offset  : 0x18	Size    : 0x8
		Pointee's logAlignment : 0x0	Space : 0x0	cbank : 0x1f	Parameter Space : CBANK	
	<0x10>
	Attribute:	EIATTR_KPARAM_INFO
	Format:	EIFMT_SVAL
	Value:	Index : 0x0	Ordinal : 0x2	Offset  : 0x10	Size    : 0x8
		Pointee's logAlignment : 0x0	Space : 0x0	cbank : 0x1f	Parameter Space : CBANK	
	<0x11>
	Attribute:	EIATTR_KPARAM_INFO
	Format:	EIFMT_SVAL
	Value:	Index : 0x0	Ordinal : 0x1	Offset  : 0x8	Size    : 0x8
		Pointee's logAlignment : 0x0	Space : 0x0	cbank : 0x1f	Parameter Space : CBANK	
	<0x12>
	Attribute:	EIATTR_KPARAM_INFO
	Format:	EIFMT_SVAL
	Value:	Index : 0x0	Ordinal : 0x0	Offset  : 0x0	Size    : 0x8
		Pointee's logAlignment : 0x0	Space : 0x0	cbank : 0x1f	Parameter Space : CBANK	
	<0x13>
	Attribute:	EIATTR_MAXREG_COUNT
	Format:	EIFMT_HVAL
	Value:	0xff
	<0x14>
	Attribute:	EIATTR_EXIT_INSTR_OFFSETS
	Format:	EIFMT_SVAL
	Value:	0x70 0xd0 0x510 0x7a0 0xd30 
	<0x15>
	Attribute:	EIATTR_CRS_STACK_SIZE
	Format:	EIFMT_SVAL
	Value:	0x0 


.nv.info._Z6Set_S0PiPKiS1_ii
	<0x1>
	Attribute:	EIATTR_SW_WAR
	Format:	EIFMT_SVAL
	Value:	0x1 
	<0x2>
	Attribute:	EIATTR_CUDA_API_VERSION
	Format:	EIFMT_SVAL
	Value:	0x7d 
	<0x3>
	Attribute:	EIATTR_PARAM_CBANK
	Format:	EIFMT_SVAL
	Value:	0x52 0x200160 
	<0x4>
	Attribute:	EIATTR_CBANK_PARAM_SIZE
	Format:	EIFMT_HVAL
	Value:	0x20
	<0x5>
	Attribute:	EIATTR_KPARAM_INFO
	Format:	EIFMT_SVAL
	Value:	Index : 0x0	Ordinal : 0x4	Offset  : 0x1c	Size    : 0x4
		Pointee's logAlignment : 0x0	Space : 0x0	cbank : 0x1f	Parameter Space : CBANK	
	<0x6>
	Attribute:	EIATTR_KPARAM_INFO
	Format:	EIFMT_SVAL
	Value:	Index : 0x0	Ordinal : 0x3	Offset  : 0x18	Size    : 0x4
		Pointee's logAlignment : 0x0	Space : 0x0	cbank : 0x1f	Parameter Space : CBANK	
	<0x7>
	Attribute:	EIATTR_KPARAM_INFO
	Format:	EIFMT_SVAL
	Value:	Index : 0x0	Ordinal : 0x2	Offset  : 0x10	Size    : 0x8
		Pointee's logAlignment : 0x0	Space : 0x0	cbank : 0x1f	Parameter Space : CBANK	
	<0x8>
	Attribute:	EIATTR_KPARAM_INFO
	Format:	EIFMT_SVAL
	Value:	Index : 0x0	Ordinal : 0x1	Offset  : 0x8	Size    : 0x8
		Pointee's logAlignment : 0x0	Space : 0x0	cbank : 0x1f	Parameter Space : CBANK	
	<0x9>
	Attribute:	EIATTR_KPARAM_INFO
	Format:	EIFMT_SVAL
	Value:	Index : 0x0	Ordinal : 0x0	Offset  : 0x0	Size    : 0x8
		Pointee's logAlignment : 0x0	Space : 0x0	cbank : 0x1f	Parameter Space : CBANK	
	<0x10>
	Attribute:	EIATTR_MAXREG_COUNT
	Format:	EIFMT_HVAL
	Value:	0xff
	<0x11>
	Attribute:	EIATTR_EXIT_INSTR_OFFSETS
	Format:	EIFMT_SVAL
	Value:	0x50 0xa0 0x120 


.nv.info._Z9InitScan2PKiPiii
	<0x1>
	Attribute:	EIATTR_SW_WAR
	Format:	EIFMT_SVAL
	Value:	0x1 
	<0x2>
	Attribute:	EIATTR_CUDA_API_VERSION
	Format:	EIFMT_SVAL
	Value:	0x7d 
	<0x3>
	Attribute:	EIATTR_PARAM_CBANK
	Format:	EIFMT_SVAL
	Value:	0x54 0x180160 
	<0x4>
	Attribute:	EIATTR_CBANK_PARAM_SIZE
	Format:	EIFMT_HVAL
	Value:	0x18
	<0x5>
	Attribute:	EIATTR_KPARAM_INFO
	Format:	EIFMT_SVAL
	Value:	Index : 0x0	Ordinal : 0x3	Offset  : 0x14	Size    : 0x4
		Pointee's logAlignment : 0x0	Space : 0x0	cbank : 0x1f	Parameter Space : CBANK	
	<0x6>
	Attribute:	EIATTR_KPARAM_INFO
	Format:	EIFMT_SVAL
	Value:	Index : 0x0	Ordinal : 0x2	Offset  : 0x10	Size    : 0x4
		Pointee's logAlignment : 0x0	Space : 0x0	cbank : 0x1f	Parameter Space : CBANK	
	<0x7>
	Attribute:	EIATTR_KPARAM_INFO
	Format:	EIFMT_SVAL
	Value:	Index : 0x0	Ordinal : 0x1	Offset  : 0x8	Size    : 0x8
		Pointee's logAlignment : 0x0	Space : 0x0	cbank : 0x1f	Parameter Space : CBANK	
	<0x8>
	Attribute:	EIATTR_KPARAM_INFO
	Format:	EIFMT_SVAL
	Value:	Index : 0x0	Ordinal : 0x0	Offset  : 0x0	Size    : 0x8
		Pointee's logAlignment : 0x0	Space : 0x0	cbank : 0x1f	Parameter Space : CBANK	
	<0x9>
	Attribute:	EIATTR_MAXREG_COUNT
	Format:	EIFMT_HVAL
	Value:	0xff
	<0x10>
	Attribute:	EIATTR_EXIT_INSTR_OFFSETS
	Format:	EIFMT_SVAL
	Value:	0x50 0xc0 0xf0 


.nv.info._Z26Compute_SA_From_UniqueRankPKiPii
	<0x1>
	Attribute:	EIATTR_SW_WAR
	Format:	EIFMT_SVAL
	Value:	0x1 
	<0x2>
	Attribute:	EIATTR_CUDA_API_VERSION
	Format:	EIFMT_SVAL
	Value:	0x7d 
	<0x3>
	Attribute:	EIATTR_PARAM_CBANK
	Format:	EIFMT_SVAL
	Value:	0x56 0x140160 
	<0x4>
	Attribute:	EIATTR_CBANK_PARAM_SIZE
	Format:	EIFMT_HVAL
	Value:	0x14
	<0x5>
	Attribute:	EIATTR_KPARAM_INFO
	Format:	EIFMT_SVAL
	Value:	Index : 0x0	Ordinal : 0x2	Offset  : 0x10	Size    : 0x4
		Pointee's logAlignment : 0x0	Space : 0x0	cbank : 0x1f	Parameter Space : CBANK	
	<0x6>
	Attribute:	EIATTR_KPARAM_INFO
	Format:	EIFMT_SVAL
	Value:	Index : 0x0	Ordinal : 0x1	Offset  : 0x8	Size    : 0x8
		Pointee's logAlignment : 0x0	Space : 0x0	cbank : 0x1f	Parameter Space : CBANK	
	<0x7>
	Attribute:	EIATTR_KPARAM_INFO
	Format:	EIFMT_SVAL
	Value:	Index : 0x0	Ordinal : 0x0	Offset  : 0x0	Size    : 0x8
		Pointee's logAlignment : 0x0	Space : 0x0	cbank : 0x1f	Parameter Space : CBANK	
	<0x8>
	Attribute:	EIATTR_MAXREG_COUNT
	Format:	EIFMT_HVAL
	Value:	0xff
	<0x9>
	Attribute:	EIATTR_EXIT_INSTR_OFFSETS
	Format:	EIFMT_SVAL
	Value:	0x50 0xc0 


.nv.info._Z18Store_unique_ranksPiPKii
	<0x1>
	Attribute:	EIATTR_SW_WAR
	Format:	EIFMT_SVAL
	Value:	0x1 
	<0x2>
	Attribute:	EIATTR_CUDA_API_VERSION
	Format:	EIFMT_SVAL
	Value:	0x7d 
	<0x3>
	Attribute:	EIATTR_PARAM_CBANK
	Format:	EIFMT_SVAL
	Value:	0x58 0x140160 
	<0x4>
	Attribute:	EIATTR_CBANK_PARAM_SIZE
	Format:	EIFMT_HVAL
	Value:	0x14
	<0x5>
	Attribute:	EIATTR_KPARAM_INFO
	Format:	EIFMT_SVAL
	Value:	Index : 0x0	Ordinal : 0x2	Offset  : 0x10	Size    : 0x4
		Pointee's logAlignment : 0x0	Space : 0x0	cbank : 0x1f	Parameter Space : CBANK	
	<0x6>
	Attribute:	EIATTR_KPARAM_INFO
	Format:	EIFMT_SVAL
	Value:	Index : 0x0	Ordinal : 0x1	Offset  : 0x8	Size    : 0x8
		Pointee's logAlignment : 0x0	Space : 0x0	cbank : 0x1f	Parameter Space : CBANK	
	<0x7>
	Attribute:	EIATTR_KPARAM_INFO
	Format:	EIFMT_SVAL
	Value:	Index : 0x0	Ordinal : 0x0	Offset  : 0x0	Size    : 0x8
		Pointee's logAlignment : 0x0	Space : 0x0	cbank : 0x1f	Parameter Space : CBANK	
	<0x8>
	Attribute:	EIATTR_MAXREG_COUNT
	Format:	EIFMT_HVAL
	Value:	0xff
	<0x9>
	Attribute:	EIATTR_EXIT_INSTR_OFFSETS
	Format:	EIFMT_SVAL
	Value:	0x50 0xc0 


.nv.info._Z15Set_suffix_rankPiPKiS1_ii
	<0x1>
	Attribute:	EIATTR_SW_WAR
	Format:	EIFMT_SVAL
	Value:	0x1 
	<0x2>
	Attribute:	EIATTR_CUDA_API_VERSION
	Format:	EIFMT_SVAL
	Value:	0x7d 
	<0x3>
	Attribute:	EIATTR_PARAM_CBANK
	Format:	EIFMT_SVAL
	Value:	0x5a 0x200160 
	<0x4>
	Attribute:	EIATTR_CBANK_PARAM_SIZE
	Format:	EIFMT_HVAL
	Value:	0x20
	<0x5>
	Attribute:	EIATTR_KPARAM_INFO
	Format:	EIFMT_SVAL
	Value:	Index : 0x0	Ordinal : 0x4	Offset  : 0x1c	Size    : 0x4
		Pointee's logAlignment : 0x0	Space : 0x0	cbank : 0x1f	Parameter Space : CBANK	
	<0x6>
	Attribute:	EIATTR_KPARAM_INFO
	Format:	EIFMT_SVAL
	Value:	Index : 0x0	Ordinal : 0x3	Offset  : 0x18	Size    : 0x4
		Pointee's logAlignment : 0x0	Space : 0x0	cbank : 0x1f	Parameter Space : CBANK	
	<0x7>
	Attribute:	EIATTR_KPARAM_INFO
	Format:	EIFMT_SVAL
	Value:	Index : 0x0	Ordinal : 0x2	Offset  : 0x10	Size    : 0x8
		Pointee's logAlignment : 0x0	Space : 0x0	cbank : 0x1f	Parameter Space : CBANK	
	<0x8>
	Attribute:	EIATTR_KPARAM_INFO
	Format:	EIFMT_SVAL
	Value:	Index : 0x0	Ordinal : 0x1	Offset  : 0x8	Size    : 0x8
		Pointee's logAlignment : 0x0	Space : 0x0	cbank : 0x1f	Parameter Space : CBANK	
	<0x9>
	Attribute:	EIATTR_KPARAM_INFO
	Format:	EIFMT_SVAL
	Value:	Index : 0x0	Ordinal : 0x0	Offset  : 0x0	Size    : 0x8
		Pointee's logAlignment : 0x0	Space : 0x0	cbank : 0x1f	Parameter Space : CBANK	
	<0x10>
	Attribute:	EIATTR_MAXREG_COUNT
	Format:	EIFMT_HVAL
	Value:	0xff
	<0x11>
	Attribute:	EIATTR_EXIT_INSTR_OFFSETS
	Format:	EIFMT_SVAL
	Value:	0x50 0x130 


.nv.info._Z8InitScanPKiS0_Pii
	<0x1>
	Attribute:	EIATTR_SW_WAR
	Format:	EIFMT_SVAL
	Value:	0x1 
	<0x2>
	Attribute:	EIATTR_CUDA_API_VERSION
	Format:	EIFMT_SVAL
	Value:	0x7d 
	<0x3>
	Attribute:	EIATTR_PARAM_CBANK
	Format:	EIFMT_SVAL
	Value:	0x5c 0x1c0160 
	<0x4>
	Attribute:	EIATTR_CBANK_PARAM_SIZE
	Format:	EIFMT_HVAL
	Value:	0x1c
	<0x5>
	Attribute:	EIATTR_KPARAM_INFO
	Format:	EIFMT_SVAL
	Value:	Index : 0x0	Ordinal : 0x3	Offset  : 0x18	Size    : 0x4
		Pointee's logAlignment : 0x0	Space : 0x0	cbank : 0x1f	Parameter Space : CBANK	
	<0x6>
	Attribute:	EIATTR_KPARAM_INFO
	Format:	EIFMT_SVAL
	Value:	Index : 0x0	Ordinal : 0x2	Offset  : 0x10	Size    : 0x8
		Pointee's logAlignment : 0x0	Space : 0x0	cbank : 0x1f	Parameter Space : CBANK	
	<0x7>
	Attribute:	EIATTR_KPARAM_INFO
	Format:	EIFMT_SVAL
	Value:	Index : 0x0	Ordinal : 0x1	Offset  : 0x8	Size    : 0x8
		Pointee's logAlignment : 0x0	Space : 0x0	cbank : 0x1f	Parameter Space : CBANK	
	<0x8>
	Attribute:	EIATTR_KPARAM_INFO
	Format:	EIFMT_SVAL
	Value:	Index : 0x0	Ordinal : 0x0	Offset  : 0x0	Size    : 0x8
		Pointee's logAlignment : 0x0	Space : 0x0	cbank : 0x1f	Parameter Space : CBANK	
	<0x9>
	Attribute:	EIATTR_MAXREG_COUNT
	Format:	EIFMT_HVAL
	Value:	0xff
	<0x10>
	Attribute:	EIATTR_EXIT_INSTR_OFFSETS
	Format:	EIFMT_SVAL
	Value:	0x50 0x200 0x220 
	<0x11>
	Attribute:	EIATTR_CRS_STACK_SIZE
	Format:	EIFMT_SVAL
	Value:	0x0 


.nv.info._Z7keybitsPiPKiS1_ii
	<0x1>
	Attribute:	EIATTR_SW_WAR
	Format:	EIFMT_SVAL
	Value:	0x1 
	<0x2>
	Attribute:	EIATTR_CUDA_API_VERSION
	Format:	EIFMT_SVAL
	Value:	0x7d 
	<0x3>
	Attribute:	EIATTR_PARAM_CBANK
	Format:	EIFMT_SVAL
	Value:	0x5e 0x200160 
	<0x4>
	Attribute:	EIATTR_CBANK_PARAM_SIZE
	Format:	EIFMT_HVAL
	Value:	0x20
	<0x5>
	Attribute:	EIATTR_KPARAM_INFO
	Format:	EIFMT_SVAL
	Value:	Index : 0x0	Ordinal : 0x4	Offset  : 0x1c	Size    : 0x4
		Pointee's logAlignment : 0x0	Space : 0x0	cbank : 0x1f	Parameter Space : CBANK	
	<0x6>
	Attribute:	EIATTR_KPARAM_INFO
	Format:	EIFMT_SVAL
	Value:	Index : 0x0	Ordinal : 0x3	Offset  : 0x18	Size    : 0x4
		Pointee's logAlignment : 0x0	Space : 0x0	cbank : 0x1f	Parameter Space : CBANK	
	<0x7>
	Attribute:	EIATTR_KPARAM_INFO
	Format:	EIFMT_SVAL
	Value:	Index : 0x0	Ordinal : 0x2	Offset  : 0x10	Size    : 0x8
		Pointee's logAlignment : 0x0	Space : 0x0	cbank : 0x1f	Parameter Space : CBANK	
	<0x8>
	Attribute:	EIATTR_KPARAM_INFO
	Format:	EIFMT_SVAL
	Value:	Index : 0x0	Ordinal : 0x1	Offset  : 0x8	Size    : 0x8
		Pointee's logAlignment : 0x0	Space : 0x0	cbank : 0x1f	Parameter Space : CBANK	
	<0x9>
	Attribute:	EIATTR_KPARAM_INFO
	Format:	EIFMT_SVAL
	Value:	Index : 0x0	Ordinal : 0x0	Offset  : 0x0	Size    : 0x8
		Pointee's logAlignment : 0x0	Space : 0x0	cbank : 0x1f	Parameter Space : CBANK	
	<0x10>
	Attribute:	EIATTR_MAXREG_COUNT
	Format:	EIFMT_HVAL
	Value:	0xff
	<0x11>
	Attribute:	EIATTR_EXIT_INSTR_OFFSETS
	Format:	EIFMT_SVAL
	Value:	0x50 0xe0 


.nv.info._Z10Init_d_s12Pii
	<0x1>
	Attribute:	EIATTR_SW_WAR
	Format:	EIFMT_SVAL
	Value:	0x1 
	<0x2>
	Attribute:	EIATTR_CUDA_API_VERSION
	Format:	EIFMT_SVAL
	Value:	0x7d 
	<0x3>
	Attribute:	EIATTR_PARAM_CBANK
	Format:	EIFMT_SVAL
	Value:	0x60 0xc0160 
	<0x4>
	Attribute:	EIATTR_CBANK_PARAM_SIZE
	Format:	EIFMT_HVAL
	Value:	0xc
	<0x5>
	Attribute:	EIATTR_KPARAM_INFO
	Format:	EIFMT_SVAL
	Value:	Index : 0x0	Ordinal : 0x1	Offset  : 0x8	Size    : 0x4
		Pointee's logAlignment : 0x0	Space : 0x0	cbank : 0x1f	Parameter Space : CBANK	
	<0x6>
	Attribute:	EIATTR_KPARAM_INFO
	Format:	EIFMT_SVAL
	Value:	Index : 0x0	Ordinal : 0x0	Offset  : 0x0	Size    : 0x8
		Pointee's logAlignment : 0x0	Space : 0x0	cbank : 0x1f	Parameter Space : CBANK	
	<0x7>
	Attribute:	EIATTR_MAXREG_COUNT
	Format:	EIFMT_HVAL
	Value:	0xff
	<0x8>
	Attribute:	EIATTR_EXIT_INSTR_OFFSETS
	Format:	EIFMT_SVAL
	Value:	0x50 0xc0 


.nv.callgraph
 <0,-1>
 <0,-2>
 <0,-3>
 <0,-4>


.nv.rel.action
Header : Base Relocation : R_CUDA_CONST_FIELD22_37
Reloc type : Symbol Kind,Addend Shift,Source Position1,length1,Destination Position1,Source Position2,length2,Destination Position2
R_CUDA_CONST_FIELD22_37 : EIVALUE_SYM_KIND_ADDR,0,0,17,37,0,5,54


.text._ZN3cub17CUB_200400_750_NS6detail8for_each13static_kernelINS2_12policy_hub_t12policy_350_tEmN6thrust20THRUST_200400_750_NS8cuda_cub20__uninitialized_fill7functorINS7_10device_ptrIiEEiEEEEvT0_T1_
bar = 0	reg = 10	lmem=0	smem=0
0xff017624 0x00000a00 0x078e00ff 0x000fe400
0x00027919 0x00000000 0x00002500 0x000e2800
0x00057919 0x00000000 0x00002100 0x000e6200
0x02027825 0x00000200 0x078e00ff 0x001fca00
0x02047a10 0x00005800 0x07f3e1ff 0x040fe400
0x02007210 0x00000005 0x07f5e0ff 0x002fe400
0x0400780c 0x000001ff 0x03f04070 0x000fe400
0x03067a10 0x00005900 0x00ffe5ff 0x000fe200
0xff037224 0x000000ff 0x010e0603 0x000fe200
0x00027a11 0x00005a00 0x078210ff 0x000fe400
0x0600720c 0x000000ff 0x03f04100 0x000fc400
0x00037a11 0x00005b00 0x008f1403 0x000fd400
0x00000947 0x000000c0 0x03800000 0x000fea00
0x0400720c 0x00000005 0x03f04070 0x000fe400
0xff067819 0x0000001f 0x00011404 0x000fe400
0x05007810 0x00000100 0x07ffe0ff 0x000fe400
0x0600720c 0x000000ff 0x03f04100 0x000fd800
0xff070624 0x00005c00 0x078e00ff 0x000fd000
0x02000386 0x00000007 0x0010e900 0x0001e200
0x0400720c 0x00000000 0x03f04070 0x000fc800
0x0600720c 0x000000ff 0x03f04100 0x000fd800
0x0000894d 0x00000000 0x03800000 0x000fea00
0xff057624 0x00005c00 0x078e00ff 0x001fd000
0x02007386 0x00040005 0x0010e900 0x000fe200
0x0000794d 0x00000000 0x03800000 0x000fea00
0xff057624 0x00005c00 0x078e00ff 0x000fd000
0x02007386 0x00000005 0x0010e900 0x000fe800
0x02007386 0x00040005 0x0010e900 0x000fe200
0x0000794d 0x00000000 0x03800000 0x000fea00
0x00007947 0xfffffff0 0x0383ffff 0x000fc000
0x00007918 0x00000000 0x00000000 0x000fc000
0x00007918 0x00000000 0x00000000 0x000fc000



.text._ZN3cub17CUB_200400_750_NS16DeviceScanKernelINS0_16DeviceScanPolicyIiN6thrust20THRUST_200400_750_NS4plusIvEEE9Policy900ENS4_6detail15normal_iteratorINS4_10device_ptrIiEEEESD_NS0_13ScanTileStateIiLb1EEES6_NS0_6detail10InputValueIiPiEEliEEvT0_T1_T2_iT3_T4_T5_
bar = 1	reg = 55	lmem=0	smem=7696
0xff017624 0x00000a00 0x078e00ff 0x000fe400
0x00047ab9 0x00006000 0x00000000 0x000fe400
0xff007c0c 0x00000004 0x0bf25270 0x000fd800
0xff021624 0x00006200 0x078e00ff 0x000fe400
0xff031624 0x00006300 0x078e00ff 0x000fd000
0x021e1381 0x00000000 0x001ee900 0x00016800
0x002e7919 0x00000000 0x00002500 0x000e6400
0x2e2e7a10 0x00005e00 0x07ffe0ff 0x002fc800
0xff257819 0x0000001f 0x0001142e 0x000fe200
0x2e307825 0x00000780 0x078e02ff 0x000fca00
0x300d7a10 0x00006400 0x07f5e1ff 0x000fc800
0x0d00780c 0x00000780 0x03f04070 0x000fe400
0x31007a10 0x00006500 0x017fe5ff 0x000fc800
0x0000720c 0x000000ff 0x03f04300 0x000fe200
0xff1e9624 0x00006200 0x078e00ff 0x000fd600
0x00000947 0x00001c50 0x03800000 0x000fea00
0x0d00780c 0x00000001 0x03f06070 0x001fc800
0x0000720c 0x000000ff 0x03f06300 0x000fd800
0x0000894d 0x00000000 0x03800000 0x000fea00
0xff057424 0x00001e00 0x078e00ff 0x000fc800
0x2e047625 0x00005800 0x078e0205 0x000fd000
0x04117381 0x00000000 0x001ee900 0x0000a800
0x001f7919 0x00000000 0x00002100 0x000e6400
0x1f007812 0x0000001f 0x078ec0ff 0x042fe400
0x1f037812 0xffffffe0 0x078ec0ff 0x000fca00
0x03007824 0x0000000f 0x078e0200 0x000fc800
0x000e7825 0x00000004 0x078e0204 0x040fe200
0x0000720c 0x0000000d 0x03f66270 0x040fe400
0x002c7810 0x00000020 0x07ffe0ff 0x040fe400
0x002b7810 0x00000040 0x07ffe0ff 0x040fe400
0x002a7810 0x00000060 0x07ffe0ff 0x040fe400
0x00027810 0x00000080 0x07ffe0ff 0x040fe400
0x00037810 0x000000a0 0x07ffe0ff 0x000fc400
0x00047810 0x000000c0 0x07ffe0ff 0x041fe400
0x00057810 0x000000e0 0x07ffe0ff 0x000fe400
0x2c00720c 0x0000000d 0x03f86270 0x080fe400
0x2b00720c 0x0000000d 0x03fa6270 0x080fe400
0x2a00720c 0x0000000d 0x03fc6270 0x080fe400
0x0200720c 0x0000000d 0x03f06270 0x000fc400
0x0300720c 0x0000000d 0x03f26270 0x080fe400
0x0400720c 0x0000000d 0x03f46270 0x000fe400
0x00067810 0x00000100 0x07ffe0ff 0x040fe400
0x00077810 0x00000120 0x07ffe0ff 0x040fe400
0x00087810 0x00000140 0x07ffe0ff 0x040fe400
0x00097810 0x00000160 0x07ffe0ff 0x000fc400
0x000a7810 0x00000180 0x07ffe0ff 0x040fe400
0x000b7810 0x000001a0 0x07ffe0ff 0x040fe400
0x000c7810 0x000001c0 0x07ffe0ff 0x000fe200
0xff107224 0x000000ff 0x078e0011 0x004fe400
0x0e11b381 0x00000000 0x001ee900 0x000ea200
0x0500720c 0x0000000d 0x03f66270 0x000fe200
0xff127224 0x000000ff 0x078e0010 0x100fe400
0xff137224 0x000000ff 0x078e0010 0x000fc400
0xff147224 0x000000ff 0x078e0010 0x100fe400
0xff157224 0x000000ff 0x078e0010 0x100fe400
0xff167224 0x000000ff 0x078e0010 0x100fe200
0x0e12c381 0x00008000 0x001ee900 0x000ee200
0xff177224 0x000000ff 0x078e0010 0x100fe400
0xff187224 0x000000ff 0x078e0010 0x000fe200
0x0e13d381 0x00010000 0x001ee900 0x000f2200
0x0600720c 0x0000000d 0x03f86270 0x000fc400
0x0700720c 0x0000000d 0x03fa6270 0x080fe200
0x0e14e381 0x00018000 0x001ee900 0x000f2200
0x0800720c 0x0000000d 0x03fc6270 0x000fc600
0x0e158381 0x00020000 0x001ee900 0x000f2200
0x0900720c 0x0000000d 0x03f06270 0x000fc600
0x0e169381 0x00028000 0x001ee900 0x000f2200
0x0a00720c 0x0000000d 0x03f26270 0x000fc600
0x0e17a381 0x00030000 0x001ee900 0x000f2200
0x0b00720c 0x0000000d 0x03f46270 0x000fc600
0x0e18b381 0x00038000 0x001ee900 0x000f2200
0x0c00720c 0x0000000d 0x03f66270 0x000fe200
0xff197224 0x000000ff 0x078e0010 0x100fe400
0xff1a7224 0x000000ff 0x078e0010 0x100fe400
0xff1b7224 0x000000ff 0x078e0010 0x100fe400
0xff1c7224 0x000000ff 0x078e0010 0x100fe400
0xff1d7224 0x000000ff 0x078e0010 0x100fe200
0x0e19c381 0x00040000 0x001ee900 0x000f2200
0xff227224 0x000000ff 0x078e0010 0x000fc600
0x0e1ad381 0x00048000 0x001ee900 0x000f2800
0x0e1be381 0x00050000 0x001ee900 0x000f2800
0x0e1c8381 0x00058000 0x001ee900 0x000f2800
0x0e1d9381 0x00060000 0x001ee900 0x000f2800
0x0e22a381 0x00068000 0x001ee900 0x000f2800
0x0e10b381 0x00070000 0x001ee900 0x000f2800
0x00207919 0x00000000 0x00000000 0x000e2200
0xff217819 0x00000005 0x0001161f 0x000fca00
0x210d7824 0x000001e0 0x078e02ff 0x000fc800
0x0d237824 0x00000001 0x078e0220 0x001fe200
0x2e00720c 0x000000ff 0x03f05270 0x000fce00
0x23007388 0x00000011 0x00004800 0x0041e400
0x20117824 0x0000000f 0x078e020d 0x001fe400
0x23007388 0x00008012 0x00004800 0x008fe800
0x23007388 0x00010013 0x00004800 0x010fe800
0x23007388 0x00018014 0x00004800 0x000fe800
0x23007388 0x00020015 0x00004800 0x000fe800
0x23007388 0x00028016 0x00004800 0x000fe800
0x23007388 0x00030017 0x00004800 0x000fe800
0x23007388 0x00038018 0x00004800 0x000fe800
0x23007388 0x00040019 0x00004800 0x000fe800
0x23007388 0x0004801a 0x00004800 0x000fe800
0x23007388 0x0005001b 0x00004800 0x000fe800
0x23007388 0x0005801c 0x00004800 0x000fe800
0x23007388 0x0006001d 0x00004800 0x000fe800
0x23007388 0x00068022 0x00004800 0x000fe800
0x23007388 0x00070010 0x00004800 0x000fe200
0x00007918 0x00000000 0x00000000 0x000fca00
0x110e7984 0x00000000 0x00005800 0x000fe800
0x110f7984 0x00000400 0x00005800 0x000fe800
0x11147984 0x00000800 0x00005800 0x000e2800
0x11157984 0x00000c00 0x00005800 0x000fe800
0x11167984 0x00001000 0x00005800 0x000e6800
0x11177984 0x00001400 0x00005800 0x000fe800
0x11187984 0x00001800 0x00005800 0x000ea800
0x11197984 0x00001c00 0x00005800 0x000fe800
0x111a7984 0x00002000 0x00005800 0x000ee800
0x111b7984 0x00002400 0x00005800 0x000fe800
0x111c7984 0x00002800 0x00005800 0x000f2800
0x111d7984 0x00002c00 0x00005800 0x000fe800
0x11227984 0x00003000 0x00005800 0x000f2800
0x11237984 0x00003400 0x00005800 0x000fe800
0x11107984 0x00003800 0x00005800 0x000f2200
0x14127210 0x0000000f 0x07ffe00e 0x001fc800
0x16127210 0x00000015 0x07ffe012 0x002fc800
0x18127210 0x00000017 0x07ffe012 0x004fc800
0x1a127210 0x00000019 0x07ffe012 0x008fc800
0x1c127210 0x0000001b 0x07ffe012 0x010fc800
0x22127210 0x0000001d 0x07ffe012 0x000fc800
0x10107210 0x00000023 0x07ffe012 0x000fe200
0x00007b1d 0x00000000 0x00000000 0x000fea00
0x00008947 0x00000d20 0x03800000 0x000fea00
0x10117989 0x04200000 0x000e00ff 0x000e2200
0x2000780c 0x00000001 0x03f06270 0x040fe400
0x2000780c 0x0000001f 0x03f25270 0x000fd800
0x21279824 0x00000004 0x078e00ff 0x000fe200
0x11117207 0x000000ff 0x00000000 0x001fe400
0x2000780c 0x00000002 0x03f06270 0x000fc600
0x10117824 0x00000001 0x078e0211 0x000fd000
0x11127989 0x04400000 0x000e00ff 0x000e2400
0x12127207 0x000000ff 0x00000000 0x001fe400
0x2000780c 0x00000004 0x03f06270 0x000fc600
0x11127824 0x00000001 0x078e0212 0x000fd000
0x12137989 0x04800000 0x000e00ff 0x000e2400
0x13137207 0x000000ff 0x00000000 0x001fe400
0x2000780c 0x00000008 0x03f06270 0x000fc600
0x12137824 0x00000001 0x078e0213 0x000fd000
0x13107989 0x05000000 0x000e00ff 0x000e2400
0x10107207 0x000000ff 0x00000000 0x001fe400
0x2000780c 0x00000010 0x03f06270 0x000fc600
0x131e7824 0x00000001 0x078e0210 0x020fd000
0x1e107989 0x06000000 0x000e00ff 0x000e2400
0x10117207 0x000000ff 0x00000000 0x001fe400
0x2100780c 0x00000002 0x03f05270 0x000fc600
0x1e247824 0x00000001 0x078e0211 0x000fd000
0x27009388 0x00001024 0x00000800 0x000fe800
0x00007b1d 0x00000000 0x00000000 0x000fea00
0xff107984 0x00001000 0x00001c00 0x000e2200
0x2000720c 0x000000ff 0x03f25270 0x000fce00
0x24257989 0x04200000 0x000e00ff 0x000e6200
0x10117824 0x00000001 0x078e0211 0x001fc800
0x11127824 0x00000001 0x078e0212 0x040fe200
0x11107207 0x00000010 0x04000000 0x000fe400
0x25117207 0x000000ff 0x00800000 0x002fe200
0x13137824 0x00000001 0x078e0212 0x000fe200
0x2100780c 0x00000003 0x03f05270 0x040fe400
0x2100720c 0x000000ff 0x03f25270 0x040fe400
0x12107207 0x00000010 0x04000000 0x000fe400
0x2100720c 0x000000ff 0x03f05270 0x000fc600
0x101e7824 0x00000001 0x078e0211 0x000fca00
0x25247207 0x0000001e 0x04000000 0x000fe200
0x00001947 0x00000970 0x03800000 0x000fea00
0x1f00720c 0x000000ff 0x03f05270 0x000fe200
0xff1e7624 0x00000300 0x078e00ff 0x000fe200
0xff1f7212 0x0000001f 0x078e33ff 0x000fd400
0xff118424 0x00000008 0x078e00ff 0x000fe200
0xff008388 0x00000c13 0x00000800 0x000fe200
0xff128424 0x00000064 0x078e00ff 0x000fe400
0x2e108625 0x00005c00 0x078e0211 0x000fd000
0x10008385 0x00000100 0x00114b12 0x0001e200
0x1e00780c 0x000001f4 0x03f06070 0x000fe200
0x2e127824 0x00000001 0x078e021f 0x001fd600
0x00008947 0x00000030 0x03800000 0x000fea00
0x0000795d 0x000001c2 0x03a00000 0x000fe200
0x00007946 0x00000000 0x03800000 0x000fe200
0x00007947 0x00000010 0x03800000 0x000fea00
0x00007992 0x00000000 0x00000000 0x000fea00
0xff217424 0x00000008 0x078e00ff 0x000fc800
0x12207625 0x00005c00 0x078e0221 0x000fd000
0x20107980 0x00000100 0x00114b00 0x00016200
0x00ff7355 0x00000000 0x00100000 0x000fe200
0x00007945 0x00000120 0x03800000 0x000fe400
0x1000780c 0x00000063 0x03f25270 0x020fe200
0x00007947 0x00002972 0x03800000 0x000ff600
0x001e7806 0x00000000 0x048e0100 0x000fc800
0x1e00720c 0x000000ff 0x03f25070 0x000fd800
0x00009947 0x000000c0 0x03800000 0x000fea00
0x00008947 0x00000030 0x03800000 0x000fea00
0x0000795d 0x0000015e 0x03a00000 0x000fe200
0x00007946 0x00000000 0x03800000 0x000fe200
0x00007947 0x00000010 0x03800000 0x000fea00
0x00007992 0x00000000 0x00000000 0x000fea00
0x20107980 0x00000100 0x00114b00 0x00036400
0x001e7806 0x00000000 0x038e0100 0x000fe200
0x00007946 0x00000000 0x03800000 0x000fe200
0x00047886 0x00000000 0x038e0100 0x000fe400
0x1eff7c12 0x00000004 0x0f820cff 0x000fd800
0x00009947 0xffffff01 0x0383ffff 0x023fea00
0x00007947 0xffffffa0 0x0383ffff 0x000fea00
0x00007941 0x00000000 0x03800000 0x000fea00
0x002d7919 0x00000000 0x00000000 0x000e6200
0x1000780c 0x00000065 0x03f25270 0x000fe200
0x00007947 0x000028a2 0x03800000 0x000ff400
0x00327919 0x00000000 0x00003c00 0x000ea200
0x001f7806 0x00000000 0x048e0100 0x000fe400
0x2d267810 0x00000002 0x07ffe0ff 0x042fe400
0x2d277810 0x00000004 0x07ffe0ff 0x040fe400
0x2d287810 0x00000008 0x07ffe0ff 0x000fe400
0x1f1f7812 0x80000000 0x078eec32 0x004fcc00
0x001f7301 0x0000001f 0x00000000 0x000e7000
0x00347300 0x0000001f 0x000e0000 0x002e6400
0x34347810 0x0000001f 0x07ffe1ff 0x002fc800
0x2d00720c 0x00000034 0x03f26270 0x000fc800
0x111e7989 0x08200000 0x000e0034 0x000e6400
0x1e1e7207 0x000000ff 0x04800000 0x002fe400
0x2600720c 0x00000034 0x03f24270 0x000fc600
0x1e217824 0x00000001 0x078e0211 0x001fd000
0x211e7989 0x08400000 0x000e0034 0x000e2400
0x1e1e7207 0x000000ff 0x04800000 0x001fe400
0x2700720c 0x00000034 0x03f24270 0x000fc600
0x21257824 0x00000001 0x078e021e 0x000fd000
0x251e7989 0x08800000 0x000e0034 0x000e2400
0x1e1e7207 0x000000ff 0x04800000 0x001fe400
0x2800720c 0x00000034 0x03f24270 0x000fc600
0x25117824 0x00000001 0x078e021e 0x000fd000
0x111e7989 0x09000000 0x000e0034 0x000e2400
0x1e1e7207 0x000000ff 0x04800000 0x001fca00
0x11297824 0x00000001 0x078e021e 0x000fd000
0x29207989 0x0a000000 0x000e0034 0x00006400
0x2d2f7810 0x00000010 0x07ffe0ff 0x000fe200
0x00ff7355 0x00000000 0x00100000 0x000fe200
0x00007945 0x00000440 0x03800000 0x000fe400
0x2f00720c 0x00000034 0x03f24270 0x000fc800
0x20207207 0x000000ff 0x04800000 0x002fca00
0x20257824 0x00000001 0x078e0229 0x000fe400
0x1000780c 0x00000065 0x03f25270 0x000fe200
0x00007947 0x000029b2 0x03800000 0x000ff600
0x00107806 0x00000000 0x008e0100 0x000fe200
0x00047886 0x00000000 0x038e0100 0x000fc600
0x10107c12 0x00000004 0x0f8ec0ff 0x000fc800
0x10007c0c 0x00000004 0x0bf22070 0x000fd800
0x00009947 0x00000390 0x03800000 0x000fea00
0x12127810 0xffffffe0 0x07ffe0ff 0x000fe200
0xff217424 0x00000008 0x078e00ff 0x000fc800
0x12207625 0x00005c00 0x078e0221 0x000fd000
0x20107980 0x00000100 0x00114b00 0x00036200
0x01ff7355 0x00000000 0x00100000 0x000fe200
0x00017945 0x00000120 0x03800000 0x000fe400
0x1000780c 0x00000063 0x03f25270 0x020fe200
0x00007947 0x00002942 0x03800000 0x000ff600
0x001e7806 0x00000000 0x048e0100 0x000fc800
0x1e00720c 0x000000ff 0x03f25070 0x000fd800
0x00009947 0x000000c0 0x03800000 0x000fea00
0x00008947 0x00000030 0x03800000 0x000fea00
0x0000795d 0x0000015e 0x03a00000 0x000fe200
0x00007946 0x00000000 0x03800000 0x000fe200
0x00007947 0x00000010 0x03800000 0x000fea00
0x00007992 0x00000000 0x00000000 0x000fea00
0x20107980 0x00000100 0x00114b00 0x00056400
0x001e7806 0x00000000 0x038e0100 0x000fe200
0x00007946 0x00000000 0x03800000 0x000fe200
0x00047886 0x00000000 0x038e0100 0x000fe400
0x1eff7c12 0x00000004 0x0f820cff 0x000fd800
0x00009947 0xffffff01 0x0383ffff 0x027fea00
0x00007947 0xffffffa0 0x0383ffff 0x000fea00
0x00017941 0x00000000 0x03800000 0x000fea00
0x1000780c 0x00000065 0x03f25270 0x000fe200
0x00007947 0x00002882 0x03800000 0x000ff600
0x001f7806 0x00000000 0x048e0100 0x000fc800
0x1f1f7812 0x80000000 0x078eec32 0x000fcc00
0x001f7301 0x0000001f 0x00000000 0x000eb000
0x00347300 0x0000001f 0x000e0000 0x005e2400
0x34347810 0x0000001f 0x07ffe1ff 0x001fc800
0x2d00720c 0x00000034 0x03f26270 0x000fc800
0x111e7989 0x08200000 0x000e0034 0x000e2400
0x1e1e7207 0x000000ff 0x04800000 0x001fe400
0x2600720c 0x00000034 0x03f24270 0x000fc600
0x1e217824 0x00000001 0x078e0211 0x002fd000
0x211e7989 0x08400000 0x000e0034 0x000e2400
0x1e1e7207 0x000000ff 0x04800000 0x001fe400
0x2700720c 0x00000034 0x03f24270 0x000fc600
0x21297824 0x00000001 0x078e021e 0x000fd000
0x291e7989 0x08800000 0x000e0034 0x000e2400
0x1e1e7207 0x000000ff 0x04800000 0x001fe400
0x2800720c 0x00000034 0x03f24270 0x000fc600
0x29117824 0x00000001 0x078e021e 0x000fd000
0x111e7989 0x09000000 0x000e0034 0x000e2400
0x1e1e7207 0x000000ff 0x04800000 0x001fca00
0x11337824 0x00000001 0x078e021e 0x000fd000
0x33207989 0x0a000000 0x000e0034 0x00006400
0x2f00720c 0x00000034 0x03f24270 0x000fc800
0x20207207 0x000000ff 0x04800000 0x002fc800
0x33257210 0x00000020 0x07ffe025 0x000fe400
0x00117806 0x00000000 0x038e0100 0x000fe200
0x00007946 0x00000000 0x03800000 0x000fe200
0x00047886 0x00000000 0x038e0100 0x000fe400
0x11ff7c12 0x00000004 0x0f820cff 0x000fd800
0x00009947 0xfffffc11 0x0383ffff 0x001fea00
0x00007947 0xffffffa0 0x0383ffff 0x000fea00
0x00007941 0x00000000 0x03800000 0x000fea00
0x001f7919 0x00000000 0x00002100 0x000e6200
0x2d00720c 0x000000ff 0x03f05270 0x000fe200
0xff1e7224 0x000000ff 0x078e0024 0x000fd600
0xff1e8224 0x000000ff 0x078e0025 0x000fe200
0x1f00720c 0x000000ff 0x03f25270 0x002fd800
0xff119424 0x00000008 0x078e00ff 0x000fe400
0x13139824 0x00000001 0x078e0225 0x000fe400
0xff129424 0x00000065 0x078e00ff 0x000fe400
0x2e109625 0x00005c00 0x078e0211 0x000fd000
0x10009385 0x00000100 0x00114b12 0x0003e800
0xff009388 0x00000813 0x00000800 0x0003e800
0xff009388 0x00000425 0x00000800 0x0003e800
0xff008388 0x00002425 0x00000800 0x0003e400
0x00007948 0xffffffff 0x03800000 0x000fe800
0x00007b1d 0x00000000 0x00000000 0x000fea00
0xff107984 0x00002400 0x00001800 0x002e6200
0x1f00720c 0x000000ff 0x03f05270 0x000fc800
0x10117207 0x000000ff 0x00000000 0x002fca00
0x11117824 0x00000001 0x078e021e 0x000fc800
0x0e0e7824 0x00000001 0x078e0211 0x000fc800
0x0f0f7824 0x00000001 0x078e020e 0x000fc800
0x14147824 0x00000001 0x078e020f 0x000fc800
0x15157824 0x00000001 0x078e0214 0x000fc800
0x16167824 0x00000001 0x078e0215 0x000fc800
0x17177824 0x00000001 0x078e0216 0x000fc800
0x18187824 0x00000001 0x078e0217 0x000fc800
0x19197824 0x00000001 0x078e0218 0x000fc800
0x1a1a7824 0x00000001 0x078e0219 0x000fc800
0x1b1b7824 0x00000001 0x078e021a 0x000fc800
0x1c1c7824 0x00000001 0x078e021b 0x000fc800
0x1d1d7824 0x00000001 0x078e021c 0x000fe200
0x00007947 0x00000310 0x03800000 0x000fea00
0x10117989 0x04200000 0x000e00ff 0x000e2200
0x2000780c 0x00000001 0x03f06270 0x040fe400
0x2000780c 0x0000001f 0x03f25270 0x040fe400
0x2000720c 0x000000ff 0x03f45270 0x040fe400
0x11117207 0x000000ff 0x00000000 0x001fe400
0x2000780c 0x00000002 0x03f06270 0x000fc600
0x10117824 0x00000001 0x078e0211 0x000fd000
0x11127989 0x04400000 0x000e00ff 0x000e2400
0x12127207 0x000000ff 0x00000000 0x001fe400
0x2000780c 0x00000004 0x03f06270 0x000fc600
0x11127824 0x00000001 0x078e0212 0x000fd000
0x12137989 0x04800000 0x000e00ff 0x000e2400
0x13137207 0x000000ff 0x00000000 0x001fe400
0x2000780c 0x00000008 0x03f06270 0x000fc600
0x12137824 0x00000001 0x078e0213 0x000fe200
0xff129819 0x00000003 0x0001161f 0x000fc800
0x12289812 0x1ffffffc 0x078ec0ff 0x000fc600
0x13107989 0x05000000 0x000e00ff 0x000e2400
0x10107207 0x000000ff 0x00000000 0x001fe400
0x2000780c 0x00000010 0x03f06270 0x000fc600
0x13247824 0x00000001 0x078e0210 0x000fd000
0x24107989 0x06000000 0x000e00ff 0x000e2400
0x10117207 0x000000ff 0x00000000 0x001fe400
0x2100780c 0x00000002 0x03f05270 0x000fc600
0x24257824 0x00000001 0x078e0211 0x000fd000
0x28009388 0x00001025 0x00000800 0x000fe800
0x00007b1d 0x00000000 0x00000000 0x000fea00
0xff107984 0x00001000 0x00001c00 0x000fe200
0x2100780c 0x00000003 0x03f25270 0x000fce00
0x25267989 0x04200000 0x000e00ff 0x000e2400
0x26267207 0x000000ff 0x01000000 0x001fe200
0x10117824 0x00000001 0x078e0211 0x000fca00
0x11107207 0x00000010 0x04000000 0x000fe400
0x2100720c 0x000000ff 0x03f05270 0x000fc600
0x12109824 0x00000001 0x078e0211 0x000fca00
0x10117207 0x000000ff 0x00000000 0x000fc800
0x26117210 0x0000001e 0x07ffe011 0x020fca00
0x0e0e7824 0x00000001 0x078e0211 0x000fc800
0x0f0f7824 0x00000001 0x078e020e 0x000fc800
0x14147824 0x00000001 0x078e020f 0x000fc800
0x15157824 0x00000001 0x078e0214 0x000fc800
0x16167824 0x00000001 0x078e0215 0x000fc800
0x17177824 0x00000001 0x078e0216 0x000fc800
0x18187824 0x00000001 0x078e0217 0x000fc800
0x19197824 0x00000001 0x078e0218 0x000fc800
0x1a1a7824 0x00000001 0x078e0219 0x000fc800
0x1b1b7824 0x00000001 0x078e021a 0x000fc800
0x1c1c7824 0x00000001 0x078e021b 0x000fc800
0x1d1d7824 0x00000001 0x078e021c 0x000fe400
0x00107919 0x00000000 0x00000000 0x000e6800
0x00007b1d 0x00000000 0x00000000 0x000fea00
0x1f00720c 0x000000ff 0x03f05270 0x000fe200
0x22227824 0x00000001 0x078e021d 0x000fc800
0x23237824 0x00000001 0x078e0222 0x000fe400
0x10127824 0x0000000f 0x078e020d 0x002fe400
0x0d107824 0x00000001 0x078e0210 0x000fc600
0xff0d8424 0xfffff880 0x078e00ff 0x000fc800
0x2e2e8624 0x00006400 0x078e020d 0x000fe200
0x12007388 0x00000011 0x00004800 0x000fe800
0x12007388 0x0000040e 0x00004800 0x000fe800
0x12007388 0x0000080f 0x00004800 0x000fe800
0x12007388 0x00000c14 0x00004800 0x000fe800
0x12007388 0x00001015 0x00004800 0x000fe800
0x12007388 0x00001416 0x00004800 0x000fe800
0x12007388 0x00001817 0x00004800 0x000fe800
0x12007388 0x00001c18 0x00004800 0x000fe800
0x12007388 0x00002019 0x00004800 0x000fe800
0x12007388 0x0000241a 0x00004800 0x000fe800
0x12007388 0x0000281b 0x00004800 0x000fe800
0x12007388 0x00002c1c 0x00004800 0x000fe800
0x12007388 0x0000301d 0x00004800 0x000fe800
0x12007388 0x00003422 0x00004800 0x000fe800
0x12007388 0x00003823 0x00004800 0x000fe200
0x00007918 0x00000000 0x00000000 0x000fca00
0x100d7984 0x00000000 0x00005800 0x000fe800
0x10117984 0x00008000 0x00005800 0x000fe800
0x10137984 0x00010000 0x00005800 0x000fe800
0x10157984 0x00018000 0x00005800 0x000fe800
0x10177984 0x00020000 0x00005800 0x000fe800
0x10197984 0x00028000 0x00005800 0x000fe800
0x101b7984 0x00030000 0x00005800 0x000fe800
0x101d7984 0x00038000 0x00005800 0x000fe800
0x101f7984 0x00040000 0x00005800 0x000fe800
0x10217984 0x00048000 0x00005800 0x000fe800
0x10237984 0x00050000 0x00005800 0x000fe800
0x10257984 0x00058000 0x00005800 0x000fe800
0x10277984 0x00060000 0x00005800 0x000fe800
0x10297984 0x00068000 0x00005800 0x001fe800
0x102d7984 0x00070000 0x00005800 0x000fe800
0xff008388 0x001e002e 0x00000800 0x000fe800
0x00007b1d 0x00000000 0x00000000 0x000fea00
0xff2f7984 0x001e0000 0x00001800 0x000e2200
0x300f7210 0x00000000 0x07f1e0ff 0x000fc800
0x00307211 0x00000031 0x000f0eff 0x000fe400
0x0f0e7a11 0x00005a00 0x078010ff 0x000fc800
0x0f0f7a11 0x00005b00 0x000f1430 0x000fe400
0x0000720c 0x0000002f 0x03f66270 0x081fe400
0x2c00720c 0x0000002f 0x03f86270 0x080fe400
0x2b00720c 0x0000002f 0x03fa6270 0x080fe400
0x2a00720c 0x0000002f 0x03fc6270 0x080fe400
0x0200720c 0x0000002f 0x03f06270 0x000fc400
0x0300720c 0x0000002f 0x03f26270 0x080fe400
0x0400720c 0x0000002f 0x03f46270 0x080fe200
0x0e00b386 0x0000000d 0x0010e900 0x0001e200
0x0500720c 0x0000002f 0x03f66270 0x000fc600
0x0e00c386 0x00008011 0x0010e900 0x0001e200
0x0600720c 0x0000002f 0x03f86270 0x000fc600
0x0e00d386 0x00010013 0x0010e900 0x0001e200
0x0700720c 0x0000002f 0x03fa6270 0x000fc600
0x0e00e386 0x00018015 0x0010e900 0x0001e200
0x0800720c 0x0000002f 0x03fc6270 0x000fc600
0x0e008386 0x00020017 0x0010e900 0x0001e200
0x0900720c 0x0000002f 0x03f06270 0x000fc600
0x0e009386 0x00028019 0x0010e900 0x0001e200
0x0a00720c 0x0000002f 0x03f26270 0x000fc600
0x0e00a386 0x0003001b 0x0010e900 0x0001e200
0x0b00720c 0x0000002f 0x03f46270 0x000fc600
0x0e00b386 0x0003801d 0x0010e900 0x0001e200
0x0c00720c 0x0000002f 0x03f66270 0x000fc600
0x0e00c386 0x0004001f 0x0010e900 0x0001e800
0x0e00d386 0x00048021 0x0010e900 0x0001e800
0x0e00e386 0x00050023 0x0010e900 0x0001e800
0x0e008386 0x00058025 0x0010e900 0x0001e800
0x0e009386 0x00060027 0x0010e900 0x0001e800
0x0e00a386 0x00068029 0x0010e900 0x0001e200
0x0000394d 0x00000000 0x03800000 0x000fea00
0x0e007386 0x0007002d 0x0010e900 0x000fe200
0x0000794d 0x00000000 0x03800000 0x000fea00
0x00247919 0x00000000 0x00002100 0x001e2200
0x00047ab9 0x00005800 0x00000a00 0x000fe200
0x24007812 0x0000001f 0x078ec0ff 0x001fc400
0x24037812 0xffffffe0 0x078ec0ff 0x000fca00
0x03037824 0x0000000f 0x078e0200 0x000fca00
0x30007210 0x00000003 0x07f1e0ff 0x000fc800
0x03037211 0x00000031 0x000f0eff 0x000fe200
0x000a7824 0x00000004 0x078e00ff 0x000fc600
0x000b7819 0x00000002 0x00010203 0x000fd000
0x0a027981 0x00000004 0x0c1ee900 0x000ea800
0x0a037981 0x00008004 0x0c1ee900 0x000ee800
0x0a047981 0x00010004 0x0c1ee900 0x000f2800
0x0a057981 0x00018004 0x0c1ee900 0x000f2800
0x0a067981 0x00020004 0x0c1ee900 0x000f2800
0x0a077981 0x00028004 0x0c1ee900 0x000f2800
0x0a087981 0x00030004 0x0c1ee900 0x000f2800
0x0a097981 0x00038004 0x0c1ee900 0x000f2800
0x0a0c7981 0x00040004 0x0c1ee900 0x000f2800
0x0a0d7981 0x00048004 0x0c1ee900 0x000f2800
0x0a0e7981 0x00050004 0x0c1ee900 0x000f2800
0x0a0f7981 0x00058004 0x0c1ee900 0x000f2800
0x0a127981 0x00060004 0x0c1ee900 0x000f2800
0x0a137981 0x00068004 0x0c1ee900 0x000f2800
0x0a147981 0x00070004 0x0c1ee900 0x000f2200
0xff107819 0x00000005 0x00011624 0x000fc400
0x2e00720c 0x000000ff 0x03f05270 0x000fe200
0x00117919 0x00000000 0x00000000 0x000e2400
0x10007824 0x000001e0 0x078e02ff 0x000fc800
0x00157824 0x00000001 0x078e0211 0x001fe400
0x11187824 0x0000000f 0x078e0200 0x000fcc00
0x15007388 0x00000002 0x00004800 0x004fe800
0x15007388 0x00008003 0x00004800 0x008fe800
0x15007388 0x00010004 0x00004800 0x010fe800
0x15007388 0x00018005 0x00004800 0x000fe800
0x15007388 0x00020006 0x00004800 0x000fe800
0x15007388 0x00028007 0x00004800 0x000fe800
0x15007388 0x00030008 0x00004800 0x000fe800
0x15007388 0x00038009 0x00004800 0x000fe800
0x15007388 0x0004000c 0x00004800 0x000fe800
0x15007388 0x0004800d 0x00004800 0x000fe800
0x15007388 0x0005000e 0x00004800 0x000fe800
0x15007388 0x0005800f 0x00004800 0x000fe800
0x15007388 0x00060012 0x00004800 0x000fe800
0x15007388 0x00068013 0x00004800 0x000fe800
0x15007388 0x00070014 0x00004800 0x000fe200
0x00007918 0x00000000 0x00000000 0x000fca00
0x18027984 0x00000000 0x00005800 0x000fe800
0x18037984 0x00000400 0x00005800 0x000fe800
0x18047984 0x00000800 0x00005800 0x000e2800
0x18057984 0x00000c00 0x00005800 0x000fe800
0x18067984 0x00001000 0x00005800 0x000e6800
0x18077984 0x00001400 0x00005800 0x000fe800
0x18087984 0x00001800 0x00005800 0x000ea800
0x18097984 0x00001c00 0x00005800 0x000fe800
0x18127984 0x00002000 0x00005800 0x000ee800
0x18137984 0x00002400 0x00005800 0x000fe800
0x18147984 0x00002800 0x00005800 0x000f2800
0x18157984 0x00002c00 0x00005800 0x000fe800
0x18167984 0x00003000 0x00005800 0x000f2200
0x040d7210 0x00000003 0x07ffe002 0x001fc600
0x18177984 0x00003400 0x00005800 0x000fe800
0x180c7984 0x00003800 0x00005800 0x000e2200
0x060d7210 0x00000005 0x07ffe00d 0x002fc800
0x080d7210 0x00000007 0x07ffe00d 0x004fc800
0x120d7210 0x00000009 0x07ffe00d 0x008fc800
0x140d7210 0x00000013 0x07ffe00d 0x010fc800
0x160d7210 0x00000015 0x07ffe00d 0x000fc800
0x0c0c7210 0x00000017 0x07ffe00d 0x001fe200
0x00007b1d 0x00000000 0x00000000 0x000fea00
0x00008947 0x00000d10 0x03800000 0x000fea00
0x0c0d7989 0x04200000 0x000e00ff 0x000e2200
0x1100780c 0x00000001 0x03f06270 0x040fe400
0x1100780c 0x0000001f 0x03f25270 0x000fe400
0x0d0d7207 0x000000ff 0x00000000 0x001fc400
0x1100780c 0x00000002 0x03f06270 0x000fc600
0x0c0d7824 0x00000001 0x078e020d 0x000fd000
0x0d0e7989 0x04400000 0x000e00ff 0x000e2400
0x0e0e7207 0x000000ff 0x00000000 0x001fe400
0x1100780c 0x00000004 0x03f06270 0x000fc600
0x0d0e7824 0x00000001 0x078e020e 0x000fd000
0x0e0f7989 0x04800000 0x000e00ff 0x000e2400
0x0f0f7207 0x000000ff 0x00000000 0x001fe400
0x1100780c 0x00000008 0x03f06270 0x000fc600
0x0e0f7824 0x00000001 0x078e020f 0x000fd000
0x0f0c7989 0x05000000 0x000e00ff 0x000e2400
0x0c0c7207 0x000000ff 0x00000000 0x001fe400
0x1100780c 0x00000010 0x03f06270 0x000fc600
0x0f187824 0x00000001 0x078e020c 0x000fd000
0x180c7989 0x06000000 0x000e00ff 0x000e2400
0x0c0d7207 0x000000ff 0x00000000 0x001fe400
0x1000780c 0x00000002 0x03f05270 0x000fc600
0x18197824 0x00000001 0x078e020d 0x000fd000
0x10009388 0x00001019 0x00004800 0x000fe800
0x00007b1d 0x00000000 0x00000000 0x000fea00
0xff0c7984 0x00001000 0x00001c00 0x000fe200
0x1100720c 0x000000ff 0x03f25270 0x000fce00
0x191a7989 0x04200000 0x000e00ff 0x000e2400
0x1a117207 0x000000ff 0x00800000 0x001fe400
0x1000720c 0x000000ff 0x03f25270 0x000fe200
0x0c0d7824 0x00000001 0x078e020d 0x000fca00
0x0d0c7207 0x0000000c 0x04000000 0x040fe200
0x0d0d7824 0x00000001 0x078e020e 0x000fe200
0x1000780c 0x00000003 0x03f05270 0x000fc800
0x0d0c7207 0x0000000c 0x04000000 0x000fe200
0x0f0d7824 0x00000001 0x078e020d 0x000fe200
0x1000720c 0x000000ff 0x03f05270 0x000fc600
0x0c117824 0x00000001 0x078e0211 0x000fca00
0x1a187207 0x00000011 0x04800000 0x000fc800
0x00000947 0x00000950 0x03800000 0x000fea00
0x2400720c 0x000000ff 0x03f05270 0x000fe200
0xff107624 0x00000300 0x078e00ff 0x000fe200
0xff117212 0x00000024 0x078e33ff 0x000fd400
0x2e0e8a11 0x00005c00 0x078218ff 0x040fe200
0xff0c8424 0x00000064 0x078e00ff 0x000fe200
0xff008388 0x00000c0d 0x00000800 0x000fe400
0x2e0f8a11 0x00005d00 0x008f1c25 0x000fd000
0x1000780c 0x000001f4 0x03f26070 0x000fe200
0x0e008385 0x00000100 0x00114b0c 0x0001e400
0x2e0c7824 0x00000001 0x078e0211 0x001fd200
0x00009947 0x00000030 0x03800000 0x000fea00
0x0000795d 0x000001c2 0x03a00000 0x000fe200
0x00007946 0x00000000 0x03800000 0x000fe200
0x00007947 0x00000010 0x03800000 0x000fea00
0x00007992 0x00000000 0x00000000 0x000fea00
0xff117424 0x00000008 0x078e00ff 0x000fc800
0x0c107625 0x00005c00 0x078e0211 0x000fd000
0x100e7980 0x00000100 0x00114b00 0x00016200
0x00ff7355 0x00000000 0x00100000 0x000fe200
0x00007945 0x00000120 0x03800000 0x000fe400
0x0e00780c 0x00000063 0x03f45270 0x020fe200
0x00007947 0x00001742 0x03800000 0x000ff600
0x00197806 0x00000000 0x050e0100 0x000fc800
0x1900720c 0x000000ff 0x03f45070 0x000fd800
0x0000a947 0x000000c0 0x03800000 0x000fea00
0x00009947 0x00000030 0x03800000 0x000fea00
0x0000795d 0x0000015e 0x03a00000 0x000fe200
0x00007946 0x00000000 0x03800000 0x000fe200
0x00007947 0x00000010 0x03800000 0x000fea00
0x00007992 0x00000000 0x00000000 0x000fea00
0x100e7980 0x00000100 0x00114b00 0x00036400
0x00197806 0x00000000 0x038e0100 0x000fe200
0x00007946 0x00000000 0x03800000 0x000fe200
0x00047886 0x00000000 0x038e0100 0x000fe400
0x19ff7c12 0x00000004 0x0f840cff 0x000fd800
0x0000a947 0xffffff01 0x0383ffff 0x023fea00
0x00007947 0xffffffa0 0x0383ffff 0x000fea00
0x00007941 0x00000000 0x03800000 0x000fea00
0x001d7919 0x00000000 0x00000000 0x000e6200
0x0e00780c 0x00000065 0x03f45270 0x000fe200
0x00007947 0x00001672 0x03800000 0x000ff400
0x00237919 0x00000000 0x00003c00 0x000ea200
0x00107806 0x00000000 0x050e0100 0x001fe400
0x1d197810 0x00000002 0x07ffe0ff 0x042fe400
0x1d1b7810 0x00000008 0x07ffe0ff 0x000fe400
0x10107812 0x80000000 0x078eec23 0x004fcc00
0x00107301 0x00000010 0x00000000 0x000e3000
0x00117300 0x00000010 0x000e0000 0x001e2400
0x111c7810 0x0000001f 0x07ffe1ff 0x001fc800
0x1d00720c 0x0000001c 0x03f46270 0x000fc800
0x0f117989 0x08200000 0x000e001c 0x000e2400
0x111a7207 0x000000ff 0x05000000 0x001fe400
0x1900720c 0x0000001c 0x03f44270 0x000fc600
0x1a117824 0x00000001 0x078e020f 0x000fd000
0x111a7989 0x08400000 0x000e001c 0x000e2400
0x1a1a7207 0x000000ff 0x05000000 0x001fca00
0x111f7824 0x00000001 0x078e021a 0x000fe200
0x1d1a7810 0x00000004 0x07ffe0ff 0x000fc800
0x1a00720c 0x0000001c 0x03f44270 0x000fc600
0x1f107989 0x08800000 0x000e001c 0x000e2400
0x10107207 0x000000ff 0x05000000 0x001fe400
0x1b00720c 0x0000001c 0x03f44270 0x000fc600
0x1f0f7824 0x00000001 0x078e0210 0x000fd000
0x0f107989 0x09000000 0x000e001c 0x000e2400
0x10107207 0x000000ff 0x05000000 0x001fca00
0x0f117824 0x00000001 0x078e0210 0x000fd000
0x11207989 0x0a000000 0x000e001c 0x00006400
0x1d227810 0x00000010 0x07ffe0ff 0x000fe200
0x00ff7355 0x00000000 0x00100000 0x000fe200
0x00007945 0x00000440 0x03800000 0x000fe400
0x2200720c 0x0000001c 0x03f44270 0x000fc800
0x20207207 0x000000ff 0x05000000 0x002fca00
0x201c7824 0x00000001 0x078e0211 0x001fe400
0x0e00780c 0x00000065 0x03f45270 0x000fe200
0x00007947 0x00001792 0x03800000 0x000ff600
0x000e7806 0x00000000 0x010e0100 0x000fe200
0x00047886 0x00000000 0x038e0100 0x000fc600
0x0e0e7c12 0x00000004 0x0f8ec0ff 0x000fc800
0x0e007c0c 0x00000004 0x0bf42070 0x000fd800
0x0000a947 0x00000390 0x03800000 0x000fea00
0x0c0c7810 0xffffffe0 0x07ffe0ff 0x000fe200
0xff117424 0x00000008 0x078e00ff 0x000fc800
0x0c107625 0x00005c00 0x078e0211 0x000fd000
0x100e7980 0x00000100 0x00114b00 0x00016200
0x01ff7355 0x00000000 0x00100000 0x000fe200
0x00017945 0x00000120 0x03800000 0x000fe400
0x0e00780c 0x00000063 0x03f45270 0x020fe200
0x00007947 0x00001722 0x03800000 0x000ff600
0x001e7806 0x00000000 0x050e0100 0x000fc800
0x1e00720c 0x000000ff 0x03f45070 0x000fd800
0x0000a947 0x000000c0 0x03800000 0x000fea00
0x00009947 0x00000030 0x03800000 0x000fea00
0x0000795d 0x0000015e 0x03a00000 0x000fe200
0x00007946 0x00000000 0x03800000 0x000fe200
0x00007947 0x00000010 0x03800000 0x000fea00
0x00007992 0x00000000 0x00000000 0x000fea00
0x100e7980 0x00000100 0x00114b00 0x00036400
0x001e7806 0x00000000 0x038e0100 0x000fe200
0x00007946 0x00000000 0x03800000 0x000fe200
0x00047886 0x00000000 0x038e0100 0x000fe400
0x1eff7c12 0x00000004 0x0f840cff 0x000fd800
0x0000a947 0xffffff01 0x0383ffff 0x023fea00
0x00007947 0xffffffa0 0x0383ffff 0x000fea00
0x00017941 0x00000000 0x03800000 0x000fea00
0x0e00780c 0x00000065 0x03f45270 0x000fe200
0x00007947 0x00001662 0x03800000 0x000ff600
0x00107806 0x00000000 0x050e0100 0x001fc800
0x10117812 0x80000000 0x078eec23 0x000fcc00
0x00117301 0x00000011 0x00000000 0x000e3000
0x00107300 0x00000011 0x000e0000 0x001e2400
0x10107810 0x0000001f 0x07ffe1ff 0x001fc800
0x1d00720c 0x00000010 0x03f46270 0x000fc800
0x0f1e7989 0x08200000 0x000e0010 0x000e2400
0x1e1e7207 0x000000ff 0x05000000 0x001fe400
0x1900720c 0x00000010 0x03f44270 0x000fc600
0x1e1f7824 0x00000001 0x078e020f 0x000fd000
0x1f1e7989 0x08400000 0x000e0010 0x000e2400
0x1e1e7207 0x000000ff 0x05000000 0x001fe400
0x1a00720c 0x00000010 0x03f44270 0x000fc600
0x1f217824 0x00000001 0x078e021e 0x000fd000
0x211e7989 0x08800000 0x000e0010 0x000e2400
0x1e1e7207 0x000000ff 0x05000000 0x001fe400
0x1b00720c 0x00000010 0x03f44270 0x000fc600
0x210f7824 0x00000001 0x078e021e 0x000fd000
0x0f117989 0x09000000 0x000e0010 0x000e2400
0x111e7207 0x000000ff 0x05000000 0x001fca00
0x0f117824 0x00000001 0x078e021e 0x000fd000
0x11207989 0x0a000000 0x000e0010 0x00006400
0x2200720c 0x00000010 0x03f44270 0x000fc800
0x20207207 0x000000ff 0x05000000 0x002fc800
0x111c7210 0x00000020 0x07ffe01c 0x000fe400
0x000f7806 0x00000000 0x038e0100 0x000fe200
0x00007946 0x00000000 0x03800000 0x000fe200
0x00047886 0x00000000 0x038e0100 0x000fe400
0x0fff7c12 0x00000004 0x0f840cff 0x000fd800
0x0000a947 0xfffffc11 0x0383ffff 0x001fea00
0x00007947 0xffffffa0 0x0383ffff 0x000fea00
0x00007941 0x00000000 0x03800000 0x000fea00
0x2e0c8a11 0x00005c00 0x078218ff 0x040fe200
0x0d0f8824 0x00000001 0x078e021c 0x000fe200
0x1d00720c 0x000000ff 0x03f45270 0x000fe200
0xff0e8424 0x00000065 0x078e00ff 0x000fe200
0x2e0d8a11 0x00005d00 0x008f1c25 0x000fe200
0xff117224 0x000000ff 0x078e0018 0x000fce00
0x0c008385 0x00000100 0x00114b0e 0x0001e400
0xff11a224 0x000000ff 0x078e001c 0x000fe400
0xff008388 0x0000080f 0x00000800 0x0001e800
0xff008388 0x0000041c 0x00000800 0x0001e800
0xff00a388 0x0000241c 0x00000800 0x0001e400
0x00007948 0xffffffff 0x03800000 0x000fe800
0x00007b1d 0x00000000 0x00000000 0x000fea00
0xff0c7984 0x00002400 0x00001800 0x001e2200
0x2400720c 0x000000ff 0x03f05270 0x000fc800
0x0c0c7207 0x000000ff 0x00000000 0x001fca00
0x0c117824 0x00000001 0x078e0211 0x000fc800
0x020c7824 0x00000001 0x078e0211 0x000fc800
0x03197824 0x00000001 0x078e020c 0x000fc800
0x04047824 0x00000001 0x078e0219 0x000fc800
0x05057824 0x00000001 0x078e0204 0x000fc800
0x06067824 0x00000001 0x078e0205 0x000fc800
0x07077824 0x00000001 0x078e0206 0x000fc800
0x08087824 0x00000001 0x078e0207 0x000fc800
0x09097824 0x00000001 0x078e0208 0x000fc800
0x12127824 0x00000001 0x078e0209 0x000fc800
0x13137824 0x00000001 0x078e0212 0x000fc800
0x14147824 0x00000001 0x078e0213 0x000fc800
0x15157824 0x00000001 0x078e0214 0x000fc800
0x16167824 0x00000001 0x078e0215 0x000fc800
0x17177824 0x00000001 0x078e0216 0x000fe200
0x00007947 0x00000380 0x03800000 0x000fea00
0x0c0d7989 0x04200000 0x000e00ff 0x000e2200
0x1100780c 0x00000001 0x03f06270 0x040fe400
0x1100780c 0x0000001f 0x03f25270 0x040fe400
0x1100720c 0x000000ff 0x03f45270 0x000fe400
0x0d0d7207 0x000000ff 0x00000000 0x001fe400
0x1100780c 0x00000002 0x03f06270 0x000fc600
0x0c0d7824 0x00000001 0x078e020d 0x000fd000
0x0d0e7989 0x04400000 0x000e00ff 0x000e2400
0x0e0e7207 0x000000ff 0x00000000 0x001fe400
0x1100780c 0x00000004 0x03f06270 0x000fc600
0x0d0e7824 0x00000001 0x078e020e 0x000fd000
0x0e0f7989 0x04800000 0x000e00ff 0x000e2400
0x0f0f7207 0x000000ff 0x00000000 0x001fe400
0x1100780c 0x00000008 0x03f06270 0x000fc600
0x0e0f7824 0x00000001 0x078e020f 0x000fd000
0x0f0c7989 0x05000000 0x000e00ff 0x000e2400
0x0c0c7207 0x000000ff 0x00000000 0x001fe400
0x1100780c 0x00000010 0x03f06270 0x000fc600
0x0f187824 0x00000001 0x078e020c 0x000fd000
0x180c7989 0x06000000 0x000e00ff 0x000e2400
0x0c0d7207 0x000000ff 0x00000000 0x001fe400
0x1000780c 0x00000002 0x03f05270 0x000fc600
0x18197824 0x00000001 0x078e020d 0x000fd000
0x10009388 0x00001019 0x00004800 0x000fe800
0x00007b1d 0x00000000 0x00000000 0x000fea00
0xff0c7984 0x00001000 0x00001c00 0x000fe200
0x1000720c 0x000000ff 0x03f25270 0x000fce00
0x191a7989 0x04200000 0x000e00ff 0x000e2400
0x1a1a7207 0x000000ff 0x01000000 0x001fe200
0x0c0d7824 0x00000001 0x078e020d 0x000fca00
0x0d0c7207 0x0000000c 0x04000000 0x040fe200
0x0d0d7824 0x00000001 0x078e020e 0x000fe200
0x1000780c 0x00000003 0x03f05270 0x000fc800
0x0d0c7207 0x0000000c 0x04000000 0x040fe400
0x2400720c 0x000000ff 0x03f05270 0x000fe400
0x0c117207 0x000000ff 0x00800000 0x000fe400
0x0d0f7210 0x0000000f 0x07ffe01e 0x020fe400
0x1a117210 0x0000001e 0x07ffe011 0x000fca00
0x020c7824 0x00000001 0x078e0211 0x000fe400
0xff028624 0x00005c00 0x078e00ff 0x000fe400
0x03197824 0x00000001 0x078e020c 0x000fe400
0xff038624 0x00005d00 0x078e00ff 0x000fe400
0x04047824 0x00000001 0x078e0219 0x000fe400
0xff0e8424 0x00000065 0x078e00ff 0x000fc400
0x05057824 0x00000001 0x078e0204 0x000fc800
0x06067824 0x00000001 0x078e0205 0x000fe400
0x02008385 0x00000100 0x00114b0e 0x0001e400
0x07077824 0x00000001 0x078e0206 0x000fc800
0x08087824 0x00000001 0x078e0207 0x000fc800
0x09097824 0x00000001 0x078e0208 0x000fc800
0x12127824 0x00000001 0x078e0209 0x000fc800
0x13137824 0x00000001 0x078e0212 0x000fc800
0x14147824 0x00000001 0x078e0213 0x000fc800
0x15157824 0x00000001 0x078e0214 0x000fc800
0x16167824 0x00000001 0x078e0215 0x000fc800
0x17177824 0x00000001 0x078e0216 0x000fe400
0x00037919 0x00000000 0x00000000 0x001e2200
0x00047ab9 0x00005a00 0x00000a00 0x000fc600
0x00007b1d 0x00000000 0x00000000 0x000fea00
0x03027824 0x0000000f 0x078e0200 0x001fe400
0x00007824 0x00000001 0x078e0203 0x000fcc00
0x02007388 0x00000011 0x00004800 0x000fe800
0x02007388 0x0000040c 0x00004800 0x000fe800
0x02007388 0x00000819 0x00004800 0x000fe800
0x02007388 0x00000c04 0x00004800 0x000fe800
0x02007388 0x00001005 0x00004800 0x000fe800
0x02007388 0x00001406 0x00004800 0x000fe800
0x02007388 0x00001807 0x00004800 0x000fe800
0x02007388 0x00001c08 0x00004800 0x000fe800
0x02007388 0x00002009 0x00004800 0x000fe800
0x02007388 0x00002412 0x00004800 0x000fe800
0x02007388 0x00002813 0x00004800 0x000fe800
0x02007388 0x00002c14 0x00004800 0x000fe800
0x02007388 0x00003015 0x00004800 0x000fe800
0x02007388 0x00003416 0x00004800 0x000fe800
0x02007388 0x00003817 0x00004800 0x000fe200
0x00007918 0x00000000 0x00000000 0x000fca00
0x00037984 0x00000000 0x00005800 0x000e2800
0x00057984 0x00008000 0x00005800 0x000e6800
0x00077984 0x00010000 0x00005800 0x000ea800
0x00097984 0x00018000 0x00005800 0x000ee800
0x000d7984 0x00020000 0x00005800 0x000f2800
0x000f7984 0x00028000 0x00005800 0x000e2800
0x00117984 0x00030000 0x00005800 0x000e6800
0x00137984 0x00038000 0x00005800 0x000ea800
0x00157984 0x00040000 0x00005800 0x000ee800
0x00177984 0x00048000 0x00005800 0x000f2800
0x00197984 0x00050000 0x00005800 0x000f2800
0x001b7984 0x00058000 0x00005800 0x000f2800
0x001d7984 0x00060000 0x00005800 0x000f2800
0x001f7984 0x00068000 0x00005800 0x000f2800
0x00217984 0x00070000 0x00005800 0x000f2800
0x0a007986 0x00000003 0x0c10e904 0x001fe800
0x0a007986 0x00008005 0x0c10e904 0x002fe800
0x0a007986 0x00010007 0x0c10e904 0x004fe800
0x0a007986 0x00018009 0x0c10e904 0x008fe800
0x0a007986 0x0002000d 0x0c10e904 0x010fe800
0x0a007986 0x0002800f 0x0c10e904 0x000fe800
0x0a007986 0x00030011 0x0c10e904 0x000fe800
0x0a007986 0x00038013 0x0c10e904 0x000fe800
0x0a007986 0x00040015 0x0c10e904 0x000fe800
0x0a007986 0x00048017 0x0c10e904 0x000fe800
0x0a007986 0x00050019 0x0c10e904 0x000fe800
0x0a007986 0x0005801b 0x0c10e904 0x000fe800
0x0a007986 0x0006001d 0x0c10e904 0x000fe800
0x0a007986 0x0006801f 0x0c10e904 0x000fe800
0x0a007986 0x00070021 0x0c10e904 0x000fe200
0x0000794d 0x00000000 0x03800000 0x000fea00
0xff297807 0x00000001 0x00800000 0x000fe200
0xff1f7424 0xffffffff 0x078e00ff 0x000fe200
0x001e7802 0x000035c0 0x00000f00 0x000fc600
0x00007944 0x00000f40 0x03c00000 0x001fea00
0x2900780c 0x00000001 0x03f22070 0x000fe200
0x00007947 0xffffd650 0x0383ffff 0x000ff600
0xff1f7807 0x00000001 0x00800000 0x000fe200
0xff217424 0xffffffff 0x078e00ff 0x001fe200
0x001e7802 0x00003620 0x00000f00 0x000fc600
0x00007944 0x00000f50 0x03c00000 0x002fea00
0x00327919 0x00000000 0x00003c00 0x000e2200
0xff217424 0xffffffff 0x078e00ff 0x000fe200
0x201e7812 0x80000000 0x078eec32 0x001fe200
0xff207424 0x00000001 0x078e00ff 0x000fca00
0x001e7301 0x0000001e 0x00000000 0x000e3000
0x00347300 0x0000001e 0x000e0000 0x00106400
0x001e7802 0x000036c0 0x00000f00 0x001fc400
0x34347810 0x0000001f 0x07ffe1ff 0x002fca00
0xff1f7224 0x000000ff 0x078e0034 0x000fc600
0x00007944 0x00000d60 0x03c00000 0x000fea00
0x2d00720c 0x00000034 0x03f26270 0x000fe200
0xff1f7224 0x000000ff 0x078e0034 0x000fe200
0x001e7802 0x00003740 0x00000f00 0x000fe200
0xff217424 0xffffffff 0x078e00ff 0x000fe200
0x20207207 0x000000ff 0x04800000 0x002fca00
0x20117824 0x00000001 0x078e0211 0x000fe400
0xff207424 0x00000002 0x078e00ff 0x000fc600
0x00007944 0x00000ce0 0x03c00000 0x000fea00
0x2d267810 0x00000002 0x07ffe0ff 0x000fe200
0xff1f7224 0x000000ff 0x078e0034 0x000fe200
0x001e7802 0x000037d0 0x00000f00 0x000fe200
0xff217424 0xffffffff 0x078e00ff 0x000fe200
0x2600720c 0x00000034 0x03f24270 0x000fc800
0x20207207 0x000000ff 0x04800000 0x002fca00
0x11117824 0x00000001 0x078e0220 0x000fe400
0xff207424 0x00000004 0x078e00ff 0x000fc600
0x00007944 0x00000c50 0x03c00000 0x000fea00
0x2d277810 0x00000004 0x07ffe0ff 0x000fe200
0xff1f7224 0x000000ff 0x078e0034 0x000fe200
0x001e7802 0x00003860 0x00000f00 0x000fe200
0xff217424 0xffffffff 0x078e00ff 0x000fe200
0x2700720c 0x00000034 0x03f24270 0x000fc800
0x20207207 0x000000ff 0x04800000 0x002fca00
0x11117824 0x00000001 0x078e0220 0x000fe400
0xff207424 0x00000008 0x078e00ff 0x000fc600
0x00007944 0x00000bc0 0x03c00000 0x000fea00
0x2d287810 0x00000008 0x07ffe0ff 0x000fe200
0xff1f7224 0x000000ff 0x078e0034 0x000fe200
0x001e7802 0x00003900 0x00000f00 0x000fe200
0xff217424 0xffffffff 0x078e00ff 0x000fe200
0x2800720c 0x00000034 0x03f24270 0x000fc800
0x20207207 0x000000ff 0x04800000 0x002fca00
0x11297824 0x00000001 0x078e0220 0x000fe400
0xff207424 0x00000010 0x078e00ff 0x000fe400
0xff117224 0x000000ff 0x078e0029 0x000fc600
0x00007944 0x00000b20 0x03c00000 0x000fea00
0x00007947 0xffffd5d0 0x0383ffff 0x000fea00
0xff117807 0x00000001 0x04800000 0x000fe200
0xff1f7424 0xffffffff 0x078e00ff 0x000fe200
0x00107802 0x00003950 0x00000f00 0x000fc600
0x00007944 0x00000b10 0x03c00000 0x001fea00
0x1e00780c 0x00000001 0x03f22070 0x000fe200
0x00007947 0xffffd630 0x0383ffff 0x000ff600
0xff297807 0x00000001 0x00800000 0x001fe200
0xff1f7424 0xffffffff 0x078e00ff 0x000fe200
0x001e7802 0x000039b0 0x00000f00 0x000fc600
0x00007944 0x00000b50 0x03c00000 0x002fea00
0x2900780c 0x00000001 0x03f22070 0x000fe200
0x00007947 0xffffd680 0x0383ffff 0x000ff600
0xff1f7807 0x00000001 0x00800000 0x000fe200
0xff217424 0xffffffff 0x078e00ff 0x002fe200
0x001e7802 0x00003a10 0x00000f00 0x000fc600
0x00007944 0x00000b60 0x03c00000 0x001fea00
0x201e7812 0x80000000 0x078eec32 0x000fe200
0xff207424 0x00000001 0x078e00ff 0x000fc400
0xff217424 0xffffffff 0x078e00ff 0x000fc600
0x001e7301 0x0000001e 0x00000000 0x000e3000
0x00347300 0x0000001e 0x000e0000 0x00106400
0x001e7802 0x00003aa0 0x00000f00 0x001fc400
0x34347810 0x0000001f 0x07ffe1ff 0x002fca00
0xff1f7224 0x000000ff 0x078e0034 0x000fc600
0x00007944 0x00000980 0x03c00000 0x000fea00
0x2d00720c 0x00000034 0x03f26270 0x000fe200
0xff1f7224 0x000000ff 0x078e0034 0x000fe200
0x001e7802 0x00003b20 0x00000f00 0x000fe200
0xff217424 0xffffffff 0x078e00ff 0x000fe200
0x20207207 0x000000ff 0x04800000 0x002fca00
0x20117824 0x00000001 0x078e0211 0x000fe400
0xff207424 0x00000002 0x078e00ff 0x000fc600
0x00007944 0x00000900 0x03c00000 0x000fea00
0x2600720c 0x00000034 0x03f24270 0x000fe200
0xff1f7224 0x000000ff 0x078e0034 0x000fe200
0x001e7802 0x00003ba0 0x00000f00 0x000fe200
0xff217424 0xffffffff 0x078e00ff 0x000fe200
0x20207207 0x000000ff 0x04800000 0x002fca00
0x11117824 0x00000001 0x078e0220 0x000fe400
0xff207424 0x00000004 0x078e00ff 0x000fc600
0x00007944 0x00000880 0x03c00000 0x000fea00
0x2700720c 0x00000034 0x03f24270 0x000fe200
0xff1f7224 0x000000ff 0x078e0034 0x000fe200
0x001e7802 0x00003c20 0x00000f00 0x000fe200
0xff217424 0xffffffff 0x078e00ff 0x000fe200
0x20207207 0x000000ff 0x04800000 0x002fca00
0x11117824 0x00000001 0x078e0220 0x000fe400
0xff207424 0x00000008 0x078e00ff 0x000fc600
0x00007944 0x00000800 0x03c00000 0x000fea00
0x2800720c 0x00000034 0x03f24270 0x000fe200
0xff1f7224 0x000000ff 0x078e0034 0x000fe200
0x001e7802 0x00003cb0 0x00000f00 0x000fe200
0xff217424 0xffffffff 0x078e00ff 0x000fe200
0x20207207 0x000000ff 0x04800000 0x002fca00
0x11337824 0x00000001 0x078e0220 0x000fe400
0xff207424 0x00000010 0x078e00ff 0x000fe400
0xff117224 0x000000ff 0x078e0033 0x000fc600
0x00007944 0x00000770 0x03c00000 0x000fea00
0x00007947 0xffffd5f0 0x0383ffff 0x000fea00
0xff297807 0x00000001 0x01000000 0x000fe200
0xff1f7424 0xffffffff 0x078e00ff 0x000fe200
0x001e7802 0x00003d00 0x00000f00 0x000fc600
0x00007944 0x00000800 0x03c00000 0x001fea00
0x2900780c 0x00000001 0x03f42070 0x000fe200
0x00007947 0xffffe880 0x0383ffff 0x000ff600
0xff1f7807 0x00000001 0x01000000 0x000fe200
0xff217424 0xffffffff 0x078e00ff 0x000fe200
0x001e7802 0x00003d60 0x00000f00 0x000fc600
0x00007944 0x00000810 0x03c00000 0x003fea00
0x00237919 0x00000000 0x00003c00 0x000e2200
0xff117224 0x000000ff 0x078e000f 0x000fe200
0x001e7802 0x00003e10 0x00000f00 0x000fe200
0xff217424 0xffffffff 0x078e00ff 0x000fe200
0x20107812 0x80000000 0x078eec23 0x001fe200
0xff207424 0x00000001 0x078e00ff 0x000fca00
0x00107301 0x00000010 0x00000000 0x000e3000
0x001c7300 0x00000010 0x000e0000 0x001e2400
0x1c1c7810 0x0000001f 0x07ffe1ff 0x001fca00
0xff1f7224 0x000000ff 0x078e001c 0x000fc600
0x00007944 0x00000610 0x03c00000 0x000fea00
0x1d00720c 0x0000001c 0x03f46270 0x000fe200
0xff1f7224 0x000000ff 0x078e001c 0x000fe200
0x001e7802 0x00003e90 0x00000f00 0x000fe200
0xff217424 0xffffffff 0x078e00ff 0x000fe200
0x20207207 0x000000ff 0x05000000 0x002fca00
0x20117824 0x00000001 0x078e020f 0x000fe400
0xff207424 0x00000002 0x078e00ff 0x000fc600
0x00007944 0x00000590 0x03c00000 0x000fea00
0x1d197810 0x00000002 0x07ffe0ff 0x000fe200
0xff1f7224 0x000000ff 0x078e001c 0x000fe200
0x001e7802 0x00003f20 0x00000f00 0x000fe200
0xff217424 0xffffffff 0x078e00ff 0x000fe200
0x1900720c 0x0000001c 0x03f44270 0x000fc800
0x20207207 0x000000ff 0x05000000 0x002fca00
0x11117824 0x00000001 0x078e0220 0x000fe400
0xff207424 0x00000004 0x078e00ff 0x000fc600
0x00007944 0x00000500 0x03c00000 0x000fea00
0x1d1a7810 0x00000004 0x07ffe0ff 0x000fe200
0xff1f7224 0x000000ff 0x078e001c 0x000fe200
0x001e7802 0x00003fc0 0x00000f00 0x000fe200
0xff217424 0xffffffff 0x078e00ff 0x000fe200
0x1a00720c 0x0000001c 0x03f44270 0x000fc800
0x20207207 0x000000ff 0x05000000 0x002fca00
0x11107824 0x00000001 0x078e0220 0x000fe400
0xff207424 0x00000008 0x078e00ff 0x000fe400
0xff117224 0x000000ff 0x078e0010 0x000fc600
0x00007944 0x00000460 0x03c00000 0x000fea00
0x1d1b7810 0x00000008 0x07ffe0ff 0x000fe200
0xff1f7224 0x000000ff 0x078e001c 0x000fe200
0x001e7802 0x00004050 0x00000f00 0x000fe200
0xff217424 0xffffffff 0x078e00ff 0x000fe200
0x1b00720c 0x0000001c 0x03f44270 0x000fc800
0x20117207 0x000000ff 0x05000000 0x002fe200
0xff207424 0x00000010 0x078e00ff 0x000fc800
0x10117824 0x00000001 0x078e0211 0x000fc600
0x00007944 0x000003d0 0x03c00000 0x000fea00
0x00007947 0xffffe7f0 0x0383ffff 0x000fea00
0xff117807 0x00000001 0x05000000 0x000fe200
0xff1f7424 0xffffffff 0x078e00ff 0x000fe200
0x00107802 0x000040a0 0x00000f00 0x000fc600
0x00007944 0x000003c0 0x03c00000 0x000fea00
0x1e00780c 0x00000001 0x03f42070 0x000fe200
0x00007947 0xffffe850 0x0383ffff 0x000ff600
0xff297807 0x00000001 0x01000000 0x000fe200
0xff1f7424 0xffffffff 0x078e00ff 0x000fe200
0x001e7802 0x00004100 0x00000f00 0x000fc600
0x00007944 0x00000400 0x03c00000 0x001fea00
0x2900780c 0x00000001 0x03f42070 0x000fe200
0x00007947 0xffffe8a0 0x0383ffff 0x000ff600
0xff1f7807 0x00000001 0x01000000 0x000fe200
0xff217424 0xffffffff 0x078e00ff 0x000fe200
0x001e7802 0x00004160 0x00000f00 0x000fc600
0x00007944 0x00000410 0x03c00000 0x001fea00
0x201e7812 0x80000000 0x078eec23 0x000fe200
0xff117224 0x000000ff 0x078e000f 0x000fe400
0xff207424 0x00000001 0x078e00ff 0x000fc400
0xff217424 0xffffffff 0x078e00ff 0x000fe200
0x001e7301 0x0000001e 0x00000000 0x000e3000
0x00107300 0x0000001e 0x000e0000 0x00106400
0x001e7802 0x00004200 0x00000f00 0x001fc400
0x10107810 0x0000001f 0x07ffe1ff 0x002fca00
0xff1f7224 0x000000ff 0x078e0010 0x000fc600
0x00007944 0x00000220 0x03c00000 0x000fea00
0x1d00720c 0x00000010 0x03f46270 0x000fe200
0xff1f7224 0x000000ff 0x078e0010 0x000fe200
0x001e7802 0x00004280 0x00000f00 0x000fe200
0xff217424 0xffffffff 0x078e00ff 0x000fe200
0x20207207 0x000000ff 0x05000000 0x002fca00
0x20117824 0x00000001 0x078e020f 0x000fe400
0xff207424 0x00000002 0x078e00ff 0x000fc600
0x00007944 0x000001a0 0x03c00000 0x000fea00
0x1900720c 0x00000010 0x03f44270 0x000fe200
0xff1f7224 0x000000ff 0x078e0010 0x000fe200
0x001e7802 0x00004300 0x00000f00 0x000fe200
0xff217424 0xffffffff 0x078e00ff 0x000fe200
0x20207207 0x000000ff 0x05000000 0x002fca00
0x11117824 0x00000001 0x078e0220 0x000fe400
0xff207424 0x00000004 0x078e00ff 0x000fc600
0x00007944 0x00000120 0x03c00000 0x000fea00
0x1a00720c 0x00000010 0x03f44270 0x000fe200
0xff1f7224 0x000000ff 0x078e0010 0x000fe200
0x001e7802 0x00004390 0x00000f00 0x000fe200
0xff217424 0xffffffff 0x078e00ff 0x000fe200
0x20207207 0x000000ff 0x05000000 0x002fca00
0x11267824 0x00000001 0x078e0220 0x000fe400
0xff207424 0x00000008 0x078e00ff 0x000fe400
0xff117224 0x000000ff 0x078e0026 0x000fc600
0x00007944 0x00000090 0x03c00000 0x000fea00
0x1b00720c 0x00000010 0x03f44270 0x000fe200
0xff1f7224 0x000000ff 0x078e0010 0x000fe200
0x001e7802 0x00004410 0x00000f00 0x000fe200
0xff217424 0xffffffff 0x078e00ff 0x000fe200
0x20117207 0x000000ff 0x05000000 0x002fe200
0xff207424 0x00000010 0x078e00ff 0x000fc800
0x26117824 0x00000001 0x078e0211 0x000fc600
0x00007944 0x00000010 0x03c00000 0x000fea00
0x00007947 0xffffe800 0x0383ffff 0x000fea00
0x00007348 0x00000021 0x03800000 0x000fe800
0x11207389 0x08000020 0x000e001f 0x00006400
0xff1f7424 0x00000000 0x078e00ff 0x001fcc00
0x1e007950 0xffffbba0 0x03c3ffff 0x000fea00
0x1100780c 0x00000001 0x03f45070 0x000fe200
0x00007348 0x0000001f 0x03800000 0x000fe800
0x00047886 0x00000000 0x038e0100 0x000fe400
0x1f117c12 0x00000004 0x0f8ec0ff 0x000fca00
0x001e7806 0x00000000 0x050e0100 0x000fc800
0x1e1e7212 0x00000011 0x078ec0ff 0x000fc800
0x1e00720c 0x00000011 0x03f45070 0x000fe200
0xff117424 0x00000000 0x078e00ff 0x000fc600
0xff1e7807 0x00000001 0x01000000 0x000fc600
0x10007950 0xffffbb00 0x03c3ffff 0x000fea00
0x2900780c 0x00000001 0x03f45070 0x000fe200
0x00007348 0x0000001f 0x03800000 0x000ff600
0x00297806 0x00000000 0x050e0100 0x000fc800
0x29ff7212 0x0000001f 0x0784c0ff 0x000fe200
0xff1f7424 0x00000000 0x078e00ff 0x000fc600
0xff297807 0x00000001 0x05000000 0x000fc600
0x1e007950 0xffffba90 0x03c3ffff 0x000fea00
0x1f00780c 0x00000001 0x03f45070 0x000fe200
0xff1f7424 0x00000000 0x078e00ff 0x000fe200
0x00007348 0x00000021 0x03800000 0x000ff400
0x00207806 0x00000000 0x050e0100 0x000fc800
0x20207212 0x00000021 0x078ec0ff 0x000fe200
0x1e007950 0xffffba30 0x03c3ffff 0x000fee00
0x00007947 0xfffffff0 0x0383ffff 0x000fc000
0x00007918 0x00000000 0x00000000 0x000fc000
0x00007918 0x00000000 0x00000000 0x000fc000



.text._ZN3cub17CUB_200400_750_NS16DeviceScanKernelINS0_16DeviceScanPolicyIiN6thrust20THRUST_200400_750_NS4plusIvEEE9Policy900ENS4_6detail15normal_iteratorINS4_10device_ptrIiEEEESD_NS0_13ScanTileStateIiLb1EEES6_NS0_6detail10InputValueIiPiEEiiEEvT0_T1_T2_iT3_T4_T5_
bar = 1	reg = 53	lmem=0	smem=7696
0xff017624 0x00000a00 0x078e00ff 0x000fe400
0x00047ab9 0x00006000 0x00000000 0x000fe400
0xff007c0c 0x00000004 0x0bf05270 0x000fd800
0xff040624 0x00006200 0x078e00ff 0x000fe400
0xff050624 0x00006300 0x078e00ff 0x000fd000
0x041e0381 0x00000000 0x001ee900 0x00016800
0x00257919 0x00000000 0x00002500 0x000e6400
0x25257a10 0x00005e00 0x07ffe0ff 0x002fca00
0x25007824 0x00000780 0x078e02ff 0x000fca00
0x00027a10 0x00006400 0x07ffe1ff 0x000fc800
0x0200780c 0x00000780 0x03f24270 0x000fe200
0xff1e8624 0x00006200 0x078e00ff 0x000fd600
0x00001947 0x00001ca0 0x03800000 0x000fea00
0x0200780c 0x00000001 0x03f06270 0x001fd800
0x0000894d 0x00000000 0x03800000 0x000fea00
0xff057424 0x00000004 0x078e00ff 0x000fc800
0x00047625 0x00005800 0x078e0205 0x000fd000
0x04117381 0x00000000 0x001ee900 0x0000a800
0x001f7919 0x00000000 0x00002100 0x000e6400
0x1f037812 0x0000001f 0x078ec0ff 0x042fe400
0x1f067812 0xffffffe0 0x078ec0ff 0x000fca00
0x06037824 0x0000000f 0x078e0203 0x000fc800
0x030e7825 0x00000004 0x078e0204 0x040fe200
0x0300720c 0x00000002 0x03f66270 0x040fe400
0x032e7810 0x00000020 0x07ffe0ff 0x040fe400
0x032d7810 0x00000040 0x07ffe0ff 0x040fe400
0x032c7810 0x00000060 0x07ffe0ff 0x040fe400
0x032b7810 0x00000080 0x07ffe0ff 0x040fe400
0x032a7810 0x000000a0 0x07ffe0ff 0x000fc400
0x03047810 0x000000c0 0x07ffe0ff 0x041fe400
0x03057810 0x000000e0 0x07ffe0ff 0x000fe400
0x2e00720c 0x00000002 0x03f86270 0x080fe400
0x2d00720c 0x00000002 0x03fa6270 0x080fe400
0x2c00720c 0x00000002 0x03fc6270 0x080fe400
0x2b00720c 0x00000002 0x03f06270 0x000fc400
0x2a00720c 0x00000002 0x03f26270 0x080fe400
0x0400720c 0x00000002 0x03f46270 0x000fe400
0x03067810 0x00000100 0x07ffe0ff 0x040fe400
0x03077810 0x00000120 0x07ffe0ff 0x040fe400
0x03087810 0x00000140 0x07ffe0ff 0x040fe400
0x03097810 0x00000160 0x07ffe0ff 0x000fc400
0x030a7810 0x00000180 0x07ffe0ff 0x040fe400
0x030b7810 0x000001a0 0x07ffe0ff 0x040fe400
0x030c7810 0x000001c0 0x07ffe0ff 0x000fe200
0xff107224 0x000000ff 0x078e0011 0x004fe400
0x0e11b381 0x00000000 0x001ee900 0x000ea200
0x0500720c 0x00000002 0x03f66270 0x000fe200
0xff127224 0x000000ff 0x078e0010 0x100fe400
0xff137224 0x000000ff 0x078e0010 0x000fc400
0xff147224 0x000000ff 0x078e0010 0x100fe400
0xff157224 0x000000ff 0x078e0010 0x100fe400
0xff167224 0x000000ff 0x078e0010 0x100fe200
0x0e12c381 0x00008000 0x001ee900 0x000ee200
0xff177224 0x000000ff 0x078e0010 0x100fe400
0xff187224 0x000000ff 0x078e0010 0x000fe200
0x0e13d381 0x00010000 0x001ee900 0x000f2200
0x0600720c 0x00000002 0x03f86270 0x000fc400
0x0700720c 0x00000002 0x03fa6270 0x080fe200
0x0e14e381 0x00018000 0x001ee900 0x000f2200
0x0800720c 0x00000002 0x03fc6270 0x000fc600
0x0e158381 0x00020000 0x001ee900 0x000f2200
0x0900720c 0x00000002 0x03f06270 0x000fc600
0x0e169381 0x00028000 0x001ee900 0x000f2200
0x0a00720c 0x00000002 0x03f26270 0x000fc600
0x0e17a381 0x00030000 0x001ee900 0x000f2200
0x0b00720c 0x00000002 0x03f46270 0x000fc600
0x0e18b381 0x00038000 0x001ee900 0x000f2200
0x0c00720c 0x00000002 0x03f66270 0x000fe200
0xff197224 0x000000ff 0x078e0010 0x100fe400
0xff1a7224 0x000000ff 0x078e0010 0x100fe400
0xff1b7224 0x000000ff 0x078e0010 0x100fe400
0xff1c7224 0x000000ff 0x078e0010 0x100fe400
0xff1d7224 0x000000ff 0x078e0010 0x100fe200
0x0e19c381 0x00040000 0x001ee900 0x000f2200
0xff227224 0x000000ff 0x078e0010 0x000fc600
0x0e1ad381 0x00048000 0x001ee900 0x000f2800
0x0e1be381 0x00050000 0x001ee900 0x000f2800
0x0e1c8381 0x00058000 0x001ee900 0x000f2800
0x0e1d9381 0x00060000 0x001ee900 0x000f2800
0x0e22a381 0x00068000 0x001ee900 0x000f2800
0x0e10b381 0x00070000 0x001ee900 0x000f2800
0x00207919 0x00000000 0x00000000 0x000e2200
0xff217819 0x00000005 0x0001161f 0x000fca00
0x210d7824 0x000001e0 0x078e02ff 0x000fc800
0x0d237824 0x00000001 0x078e0220 0x001fe200
0x2500720c 0x000000ff 0x03f05270 0x000fce00
0x23007388 0x00000011 0x00004800 0x0041e400
0x20117824 0x0000000f 0x078e020d 0x001fe400
0x23007388 0x00008012 0x00004800 0x008fe800
0x23007388 0x00010013 0x00004800 0x010fe800
0x23007388 0x00018014 0x00004800 0x000fe800
0x23007388 0x00020015 0x00004800 0x000fe800
0x23007388 0x00028016 0x00004800 0x000fe800
0x23007388 0x00030017 0x00004800 0x000fe800
0x23007388 0x00038018 0x00004800 0x000fe800
0x23007388 0x00040019 0x00004800 0x000fe800
0x23007388 0x0004801a 0x00004800 0x000fe800
0x23007388 0x0005001b 0x00004800 0x000fe800
0x23007388 0x0005801c 0x00004800 0x000fe800
0x23007388 0x0006001d 0x00004800 0x000fe800
0x23007388 0x00068022 0x00004800 0x000fe800
0x23007388 0x00070010 0x00004800 0x000fe200
0x00007918 0x00000000 0x00000000 0x000fca00
0x110e7984 0x00000000 0x00005800 0x000fe800
0x110f7984 0x00000400 0x00005800 0x000fe800
0x11147984 0x00000800 0x00005800 0x000e2800
0x11157984 0x00000c00 0x00005800 0x000fe800
0x11167984 0x00001000 0x00005800 0x000e6800
0x11177984 0x00001400 0x00005800 0x000fe800
0x11187984 0x00001800 0x00005800 0x000ea800
0x11197984 0x00001c00 0x00005800 0x000fe800
0x111a7984 0x00002000 0x00005800 0x000ee800
0x111b7984 0x00002400 0x00005800 0x000fe800
0x111c7984 0x00002800 0x00005800 0x000f2800
0x111d7984 0x00002c00 0x00005800 0x000fe800
0x11227984 0x00003000 0x00005800 0x000f2800
0x11237984 0x00003400 0x00005800 0x000fe800
0x11107984 0x00003800 0x00005800 0x000f2200
0x14127210 0x0000000f 0x07ffe00e 0x001fc800
0x16127210 0x00000015 0x07ffe012 0x002fc800
0x18127210 0x00000017 0x07ffe012 0x004fc800
0x1a127210 0x00000019 0x07ffe012 0x008fc800
0x1c127210 0x0000001b 0x07ffe012 0x010fc800
0x22127210 0x0000001d 0x07ffe012 0x000fc800
0x10107210 0x00000023 0x07ffe012 0x000fe200
0x00007b1d 0x00000000 0x00000000 0x000fea00
0x00008947 0x00000d90 0x03800000 0x000fea00
0x10117989 0x04200000 0x000e00ff 0x000e2200
0x2000780c 0x00000001 0x03f06270 0x040fe400
0x2000780c 0x0000001f 0x03f25270 0x000fd800
0x21279824 0x00000004 0x078e00ff 0x000fe200
0x11117207 0x000000ff 0x00000000 0x001fe400
0x2000780c 0x00000002 0x03f06270 0x000fc600
0x10117824 0x00000001 0x078e0211 0x000fd000
0x11127989 0x04400000 0x000e00ff 0x000e2400
0x12127207 0x000000ff 0x00000000 0x001fe400
0x2000780c 0x00000004 0x03f06270 0x000fc600
0x11127824 0x00000001 0x078e0212 0x000fd000
0x12137989 0x04800000 0x000e00ff 0x000e2400
0x13137207 0x000000ff 0x00000000 0x001fe400
0x2000780c 0x00000008 0x03f06270 0x000fc600
0x12137824 0x00000001 0x078e0213 0x000fd000
0x13107989 0x05000000 0x000e00ff 0x000e2400
0x10107207 0x000000ff 0x00000000 0x001fe400
0x2000780c 0x00000010 0x03f06270 0x000fc600
0x131e7824 0x00000001 0x078e0210 0x020fd000
0x1e107989 0x06000000 0x000e00ff 0x000e2400
0x10117207 0x000000ff 0x00000000 0x001fe400
0x2100780c 0x00000002 0x03f05270 0x000fc600
0x1e247824 0x00000001 0x078e0211 0x000fd000
0x27009388 0x00001024 0x00000800 0x000fe800
0x00007b1d 0x00000000 0x00000000 0x000fea00
0xff107984 0x00001000 0x00001c00 0x000e2200
0x2000720c 0x000000ff 0x03f25270 0x000fce00
0x24267989 0x04200000 0x000e00ff 0x000e6200
0x10117824 0x00000001 0x078e0211 0x001fc800
0x11127824 0x00000001 0x078e0212 0x040fe200
0x11107207 0x00000010 0x04000000 0x000fe400
0x26117207 0x000000ff 0x00800000 0x002fe200
0x13137824 0x00000001 0x078e0212 0x000fe200
0x2100780c 0x00000003 0x03f05270 0x040fe400
0x2100720c 0x000000ff 0x03f25270 0x040fe400
0x12107207 0x00000010 0x04000000 0x000fe400
0x2100720c 0x000000ff 0x03f05270 0x000fc600
0x10117824 0x00000001 0x078e0211 0x000fca00
0x26247207 0x00000011 0x04000000 0x000fe200
0x00001947 0x000009d0 0x03800000 0x000fea00
0x1f00720c 0x000000ff 0x03f05270 0x000fe200
0xff207624 0x00000300 0x078e00ff 0x000fe200
0xff1e7212 0x0000001f 0x078e33ff 0x000fc800
0x2000780c 0x000001f4 0x03f26070 0x000fcc00
0xff108424 0x00000008 0x078e00ff 0x000fe200
0xff008388 0x00000c13 0x00000800 0x000fe200
0xff128424 0x00000064 0x078e00ff 0x000fe400
0x25108625 0x00005c00 0x078e0210 0x000fd000
0x10008385 0x00000100 0x00114b12 0x0001e400
0x25127824 0x00000001 0x078e021e 0x001fe200
0x00009947 0x00000030 0x03800000 0x000fea00
0x0000795d 0x000001c2 0x03a00000 0x000fe200
0x00007946 0x00000000 0x03800000 0x000fe200
0x00007947 0x00000010 0x03800000 0x000fea00
0x00007992 0x00000000 0x00000000 0x000fea00
0xff217424 0x00000008 0x078e00ff 0x000fc800
0x12207625 0x00005c00 0x078e0221 0x000fd000
0x20107980 0x00000100 0x00114b00 0x00016200
0x00ff7355 0x00000000 0x00100000 0x000fe200
0x00007945 0x00000120 0x03800000 0x000fe400
0x1000780c 0x00000063 0x03f45270 0x020fe200
0x00007947 0x000029e2 0x03800000 0x000ff600
0x001e7806 0x00000000 0x050e0100 0x000fc800
0x1e00720c 0x000000ff 0x03f45070 0x000fd800
0x0000a947 0x000000c0 0x03800000 0x000fea00
0x00009947 0x00000030 0x03800000 0x000fea00
0x0000795d 0x0000015e 0x03a00000 0x000fe200
0x00007946 0x00000000 0x03800000 0x000fe200
0x00007947 0x00000010 0x03800000 0x000fea00
0x00007992 0x00000000 0x00000000 0x000fea00
0x20107980 0x00000100 0x00114b00 0x00036400
0x001e7806 0x00000000 0x038e0100 0x000fe200
0x00007946 0x00000000 0x03800000 0x000fe200
0x00047886 0x00000000 0x038e0100 0x000fe400
0x1eff7c12 0x00000004 0x0f840cff 0x000fd800
0x0000a947 0xffffff01 0x0383ffff 0x023fea00
0x00007947 0xffffffa0 0x0383ffff 0x000fea00
0x00007941 0x00000000 0x03800000 0x000fea00
0x002f7919 0x00000000 0x00000000 0x000e6200
0x1000780c 0x00000065 0x03f45270 0x000fe200
0x00007947 0x00002912 0x03800000 0x000ff400
0x00317919 0x00000000 0x00003c00 0x000ea200
0x001e7806 0x00000000 0x050e0100 0x000fe400
0x2f257810 0x00000002 0x07ffe0ff 0x042fe400
0x2f267810 0x00000004 0x07ffe0ff 0x040fe400
0x2f277810 0x00000008 0x07ffe0ff 0x000fe400
0x1e1e7812 0x80000000 0x078eec31 0x004fcc00
0x001e7301 0x0000001e 0x00000000 0x000e7000
0x00287300 0x0000001e 0x000e0000 0x002e6400
0x28287810 0x0000001f 0x07ffe1ff 0x002fc800
0x2f00720c 0x00000028 0x03f46270 0x000fc800
0x111f7989 0x08200000 0x000e0028 0x000e6400
0x1f207207 0x000000ff 0x05000000 0x003fe400
0x2500720c 0x00000028 0x03f44270 0x000fc600
0x201f7824 0x00000001 0x078e0211 0x000fd000
0x1f207989 0x08400000 0x000e0028 0x000e2400
0x20207207 0x000000ff 0x05000000 0x001fe400
0x2600720c 0x00000028 0x03f44270 0x000fc600
0x1f217824 0x00000001 0x078e0220 0x000fd000
0x211e7989 0x08800000 0x000e0028 0x000e2400
0x1e1e7207 0x000000ff 0x05000000 0x001fe400
0x2700720c 0x00000028 0x03f44270 0x000fc600
0x21117824 0x00000001 0x078e021e 0x000fd000
0x111e7989 0x09000000 0x000e0028 0x000e2400
0x1e1e7207 0x000000ff 0x05000000 0x001fca00
0x11297824 0x00000001 0x078e021e 0x000fd000
0x29207989 0x0a000000 0x000e0028 0x00006400
0x2f307810 0x00000010 0x07ffe0ff 0x000fe200
0x00ff7355 0x00000000 0x00100000 0x000fe200
0x00007945 0x00000440 0x03800000 0x000fe400
0x3000720c 0x00000028 0x03f44270 0x000fc800
0x20207207 0x000000ff 0x05000000 0x002fca00
0x20287824 0x00000001 0x078e0229 0x001fe400
0x1000780c 0x00000065 0x03f45270 0x000fe200
0x00007947 0x00002a22 0x03800000 0x000ff600
0x00107806 0x00000000 0x010e0100 0x000fe200
0x00047886 0x00000000 0x038e0100 0x000fc600
0x10107c12 0x00000004 0x0f8ec0ff 0x000fc800
0x10007c0c 0x00000004 0x0bf42070 0x000fd800
0x0000a947 0x00000390 0x03800000 0x000fea00
0x12127810 0xffffffe0 0x07ffe0ff 0x000fe200
0xff217424 0x00000008 0x078e00ff 0x000fc800
0x12207625 0x00005c00 0x078e0221 0x000fd000
0x20107980 0x00000100 0x00114b00 0x00016200
0x01ff7355 0x00000000 0x00100000 0x000fe200
0x00017945 0x00000120 0x03800000 0x000fe400
0x1000780c 0x00000063 0x03f45270 0x020fe200
0x00007947 0x000029b2 0x03800000 0x000ff600
0x001e7806 0x00000000 0x050e0100 0x000fc800
0x1e00720c 0x000000ff 0x03f45070 0x000fd800
0x0000a947 0x000000c0 0x03800000 0x000fea00
0x00009947 0x00000030 0x03800000 0x000fea00
0x0000795d 0x0000015e 0x03a00000 0x000fe200
0x00007946 0x00000000 0x03800000 0x000fe200
0x00007947 0x00000010 0x03800000 0x000fea00
0x00007992 0x00000000 0x00000000 0x000fea00
0x20107980 0x00000100 0x00114b00 0x00036400
0x001e7806 0x00000000 0x038e0100 0x000fe200
0x00007946 0x00000000 0x03800000 0x000fe200
0x00047886 0x00000000 0x038e0100 0x000fe400
0x1eff7c12 0x00000004 0x0f840cff 0x000fd800
0x0000a947 0xffffff01 0x0383ffff 0x023fea00
0x00007947 0xffffffa0 0x0383ffff 0x000fea00
0x00017941 0x00000000 0x03800000 0x000fea00
0x1000780c 0x00000065 0x03f45270 0x000fe200
0x00007947 0x000028f2 0x03800000 0x000ff600
0x001e7806 0x00000000 0x050e0100 0x000fc800
0x1e1e7812 0x80000000 0x078eec31 0x000fcc00
0x001e7301 0x0000001e 0x00000000 0x000e7000
0x00327300 0x0000001e 0x000e0000 0x002e6400
0x32327810 0x0000001f 0x07ffe1ff 0x002fc800
0x2f00720c 0x00000032 0x03f46270 0x000fc800
0x111f7989 0x08200000 0x000e0032 0x000e6400
0x1f207207 0x000000ff 0x05000000 0x003fe400
0x2500720c 0x00000032 0x03f44270 0x000fc600
0x201f7824 0x00000001 0x078e0211 0x000fd000
0x1f207989 0x08400000 0x000e0032 0x000e2400
0x20207207 0x000000ff 0x05000000 0x001fe400
0x2600720c 0x00000032 0x03f44270 0x000fc600
0x1f217824 0x00000001 0x078e0220 0x000fd000
0x21207989 0x08800000 0x000e0032 0x000e2400
0x20207207 0x000000ff 0x05000000 0x001fe400
0x2700720c 0x00000032 0x03f44270 0x000fc600
0x21117824 0x00000001 0x078e0220 0x000fd000
0x111e7989 0x09000000 0x000e0032 0x000e2400
0x1e1e7207 0x000000ff 0x05000000 0x001fca00
0x11297824 0x00000001 0x078e021e 0x000fd000
0x29207989 0x0a000000 0x000e0032 0x00006400
0x3000720c 0x00000032 0x03f44270 0x000fc800
0x20207207 0x000000ff 0x05000000 0x002fc800
0x29287210 0x00000020 0x07ffe028 0x000fe400
0x00117806 0x00000000 0x038e0100 0x000fe200
0x00007946 0x00000000 0x03800000 0x000fe200
0x00047886 0x00000000 0x038e0100 0x000fe400
0x11ff7c12 0x00000004 0x0f840cff 0x000fd800
0x0000a947 0xfffffc11 0x0383ffff 0x001fea00
0x00007947 0xffffffa0 0x0383ffff 0x000fea00
0x00007941 0x00000000 0x03800000 0x000fea00
0x00ff7355 0x00000000 0x00100000 0x000fe200
0x00007945 0x000000e0 0x03800000 0x000fe200
0x2f00720c 0x000000ff 0x03f25270 0x000fe200
0x00000947 0x000000b0 0x03800000 0x000fec00
0x000479c3 0x00000000 0x00002500 0x000e2200
0x00067ab9 0x00005e00 0x00000800 0x000fe200
0x13137824 0x00000001 0x078e0228 0x000fe200
0x00077882 0x00000008 0x00000000 0x000fe200
0xff127424 0x00000065 0x078e00ff 0x000fe200
0x04067290 0x00000006 0x0fffe03f 0x001fc600
0x00047ab9 0x00005c00 0x00000a00 0x000fe400
0x060472a5 0x00000007 0x0f8e0204 0x000fd200
0xff007985 0x00010012 0x0c114b04 0x0001e800
0xff007388 0x00000813 0x00000800 0x0001e800
0xff007388 0x00000428 0x00000800 0x0001e400
0x00007941 0x00000000 0x03800000 0x000fea00
0xff009388 0x00002428 0x00000800 0x0003e200
0xff117224 0x000000ff 0x078e0024 0x000fc800
0xff119224 0x000000ff 0x078e0028 0x000fe400
0x00007948 0xffffffff 0x03800000 0x000fe800
0x00007b1d 0x00000000 0x00000000 0x000fea00
0xff107984 0x00002400 0x00001800 0x000ea800
0x001f7919 0x00000000 0x00002100 0x000ee400
0x1f00720c 0x000000ff 0x03f05270 0x008fc800
0x10107207 0x000000ff 0x00000000 0x004fca00
0x10117824 0x00000001 0x078e0211 0x000fc800
0x0e0e7824 0x00000001 0x078e0211 0x000fc800
0x0f0f7824 0x00000001 0x078e020e 0x000fc800
0x14147824 0x00000001 0x078e020f 0x000fc800
0x15157824 0x00000001 0x078e0214 0x000fc800
0x16167824 0x00000001 0x078e0215 0x000fc800
0x17177824 0x00000001 0x078e0216 0x000fc800
0x18187824 0x00000001 0x078e0217 0x000fc800
0x19197824 0x00000001 0x078e0218 0x000fc800
0x1a1a7824 0x00000001 0x078e0219 0x000fc800
0x1b1b7824 0x00000001 0x078e021a 0x000fc800
0x1c1c7824 0x00000001 0x078e021b 0x000fc800
0x1d1d7824 0x00000001 0x078e021c 0x000fe200
0x00007947 0x00000310 0x03800000 0x000fea00
0x10117989 0x04200000 0x000e00ff 0x000e2200
0x2000780c 0x00000001 0x03f06270 0x040fe400
0x2000780c 0x0000001f 0x03f25270 0x040fe400
0x2000720c 0x000000ff 0x03f45270 0x040fe400
0x11117207 0x000000ff 0x00000000 0x001fe400
0x2000780c 0x00000002 0x03f06270 0x000fc600
0x10117824 0x00000001 0x078e0211 0x000fd000
0x11127989 0x04400000 0x000e00ff 0x000e2400
0x12127207 0x000000ff 0x00000000 0x001fe400
0x2000780c 0x00000004 0x03f06270 0x000fc600
0x11127824 0x00000001 0x078e0212 0x000fd000
0x12137989 0x04800000 0x000e00ff 0x000e2400
0x13137207 0x000000ff 0x00000000 0x001fe400
0x2000780c 0x00000008 0x03f06270 0x000fc600
0x12137824 0x00000001 0x078e0213 0x000fe200
0xff129819 0x00000003 0x0001161f 0x000fc800
0x12289812 0x1ffffffc 0x078ec0ff 0x000fc600
0x13107989 0x05000000 0x000e00ff 0x000e2400
0x10107207 0x000000ff 0x00000000 0x001fe400
0x2000780c 0x00000010 0x03f06270 0x000fc600
0x13247824 0x00000001 0x078e0210 0x000fd000
0x24107989 0x06000000 0x000e00ff 0x000e2400
0x10117207 0x000000ff 0x00000000 0x001fe400
0x2100780c 0x00000002 0x03f05270 0x000fc600
0x24257824 0x00000001 0x078e0211 0x000fd000
0x28009388 0x00001025 0x00000800 0x000fe800
0x00007b1d 0x00000000 0x00000000 0x000fea00
0xff107984 0x00001000 0x00001c00 0x000fe200
0x2100780c 0x00000003 0x03f25270 0x000fce00
0x25267989 0x04200000 0x000e00ff 0x000e2400
0x26267207 0x000000ff 0x01000000 0x001fe200
0x10117824 0x00000001 0x078e0211 0x000fca00
0x11107207 0x00000010 0x04000000 0x000fe400
0x2100720c 0x000000ff 0x03f05270 0x000fc600
0x12109824 0x00000001 0x078e0211 0x000fca00
0x10117207 0x000000ff 0x00000000 0x000fc800
0x26117210 0x0000001e 0x07ffe011 0x020fca00
0x0e0e7824 0x00000001 0x078e0211 0x000fc800
0x0f0f7824 0x00000001 0x078e020e 0x000fc800
0x14147824 0x00000001 0x078e020f 0x000fc800
0x15157824 0x00000001 0x078e0214 0x000fc800
0x16167824 0x00000001 0x078e0215 0x000fc800
0x17177824 0x00000001 0x078e0216 0x000fc800
0x18187824 0x00000001 0x078e0217 0x000fc800
0x19197824 0x00000001 0x078e0218 0x000fc800
0x1a1a7824 0x00000001 0x078e0219 0x000fc800
0x1b1b7824 0x00000001 0x078e021a 0x000fc800
0x1c1c7824 0x00000001 0x078e021b 0x000fc800
0x1d1d7824 0x00000001 0x078e021c 0x000fc600
0x00107919 0x00000000 0x00000000 0x000ea200
0x22227824 0x00000001 0x078e021d 0x000fc600
0x00007b1d 0x00000000 0x00000000 0x000fea00
0x1f00720c 0x000000ff 0x03f05270 0x000fe200
0x23237824 0x00000001 0x078e0222 0x000fe400
0x10127824 0x0000000f 0x078e020d 0x005fe400
0x0d107824 0x00000001 0x078e0210 0x000fcc00
0x12007388 0x00000011 0x00004800 0x000fe800
0x12007388 0x0000040e 0x00004800 0x0001e800
0x12007388 0x0000080f 0x00004800 0x000fe800
0x12007388 0x00000c14 0x00004800 0x000fe200
0xff0e7819 0x0000001f 0x00011400 0x001fc600
0x12007388 0x00001015 0x00004800 0x000fe800
0x12007388 0x00001416 0x00004800 0x000fe800
0x12007388 0x00001817 0x00004800 0x000fe800
0x12007388 0x00001c18 0x00004800 0x000fe800
0x12007388 0x00002019 0x00004800 0x000fe800
0x12007388 0x0000241a 0x00004800 0x000fe800
0x12007388 0x0000281b 0x00004800 0x000fe800
0x12007388 0x00002c1c 0x00004800 0x000fe800
0x12007388 0x0000301d 0x00004800 0x000fe800
0x12007388 0x00003422 0x00004800 0x000fe800
0x12007388 0x00003823 0x00004800 0x000fe200
0x00007918 0x00000000 0x00000000 0x000fca00
0x100d7984 0x00000000 0x00005800 0x000fe800
0x10117984 0x00008000 0x00005800 0x000fe800
0x10137984 0x00010000 0x00005800 0x000fe800
0x10157984 0x00018000 0x00005800 0x000fe800
0x10177984 0x00020000 0x00005800 0x000fe800
0x10197984 0x00028000 0x00005800 0x000fe800
0x101b7984 0x00030000 0x00005800 0x000fe800
0x101d7984 0x00038000 0x00005800 0x000fe800
0x101f7984 0x00040000 0x00005800 0x000fe800
0x10217984 0x00048000 0x00005800 0x000fe800
0x10237984 0x00050000 0x00005800 0x000fe800
0x10257984 0x00058000 0x00005800 0x000fe800
0x10277984 0x00060000 0x00005800 0x000fe800
0x10297984 0x00068000 0x00005800 0x000fe800
0x102f7984 0x00070000 0x00005800 0x000fe800
0xff008388 0x001e0002 0x00000800 0x000fe800
0x00007b1d 0x00000000 0x00000000 0x000fea00
0xff317984 0x001e0000 0x00001800 0x000e2200
0x00007210 0x00000003 0x07f1e0ff 0x000fc800
0x030f7211 0x0000000e 0x000f0eff 0x000fe400
0x000e7a11 0x00005a00 0x078010ff 0x000fc800
0x000f7a11 0x00005b00 0x000f140f 0x000fe400
0x0300720c 0x00000031 0x03f66270 0x081fe400
0x2e00720c 0x00000031 0x03f86270 0x080fe400
0x2d00720c 0x00000031 0x03fa6270 0x080fe400
0x2c00720c 0x00000031 0x03fc6270 0x080fe400
0x2b00720c 0x00000031 0x03f06270 0x000fc400
0x2a00720c 0x00000031 0x03f26270 0x080fe400
0x0400720c 0x00000031 0x03f46270 0x080fe200
0x0e00b386 0x0000000d 0x0010e900 0x0001e200
0x0500720c 0x00000031 0x03f66270 0x000fc600
0x0e00c386 0x00008011 0x0010e900 0x0001e200
0x0600720c 0x00000031 0x03f86270 0x000fc600
0x0e00d386 0x00010013 0x0010e900 0x0001e200
0x0700720c 0x00000031 0x03fa6270 0x000fc600
0x0e00e386 0x00018015 0x0010e900 0x0001e200
0x0800720c 0x00000031 0x03fc6270 0x000fc600
0x0e008386 0x00020017 0x0010e900 0x0001e200
0x0900720c 0x00000031 0x03f06270 0x000fc600
0x0e009386 0x00028019 0x0010e900 0x0001e200
0x0a00720c 0x00000031 0x03f26270 0x000fc600
0x0e00a386 0x0003001b 0x0010e900 0x0001e200
0x0b00720c 0x00000031 0x03f46270 0x000fc600
0x0e00b386 0x0003801d 0x0010e900 0x0001e200
0x0c00720c 0x00000031 0x03f66270 0x000fc600
0x0e00c386 0x0004001f 0x0010e900 0x0001e800
0x0e00d386 0x00048021 0x0010e900 0x0001e800
0x0e00e386 0x00050023 0x0010e900 0x0001e800
0x0e008386 0x00058025 0x0010e900 0x0001e800
0x0e009386 0x00060027 0x0010e900 0x0001e800
0x0e00a386 0x00068029 0x0010e900 0x0001e200
0x0000394d 0x00000000 0x03800000 0x000fea00
0x0e007386 0x0007002f 0x0010e900 0x000fe200
0x0000794d 0x00000000 0x03800000 0x000fea00
0x00247919 0x00000000 0x00002100 0x001e2200
0x00047ab9 0x00005800 0x00000a00 0x000fe200
0x24027812 0x0000001f 0x078ec0ff 0x001fc400
0x24037812 0xffffffe0 0x078ec0ff 0x000fca00
0x03037824 0x0000000f 0x078e0202 0x000fe200
0xff027819 0x0000001f 0x00011400 0x000fc800
0x00007210 0x00000003 0x07f1e0ff 0x000fc800
0x03037211 0x00000002 0x000f0eff 0x000fe200
0x000a7824 0x00000004 0x078e00ff 0x000fc600
0x000b7819 0x00000002 0x00010203 0x000fd000
0x0a027981 0x00000004 0x0c1ee900 0x000ea800
0x0a037981 0x00008004 0x0c1ee900 0x000ee800
0x0a047981 0x00010004 0x0c1ee900 0x000f2800
0x0a057981 0x00018004 0x0c1ee900 0x000f2800
0x0a067981 0x00020004 0x0c1ee900 0x000f2800
0x0a077981 0x00028004 0x0c1ee900 0x000f2800
0x0a087981 0x00030004 0x0c1ee900 0x000f2800
0x0a097981 0x00038004 0x0c1ee900 0x000f2800
0x0a0c7981 0x00040004 0x0c1ee900 0x000f2800
0x0a0d7981 0x00048004 0x0c1ee900 0x000f2800
0x0a0e7981 0x00050004 0x0c1ee900 0x000f2800
0x0a0f7981 0x00058004 0x0c1ee900 0x000f2800
0x0a127981 0x00060004 0x0c1ee900 0x000f2800
0x0a137981 0x00068004 0x0c1ee900 0x000f2800
0x0a147981 0x00070004 0x0c1ee900 0x000f2200
0xff107819 0x00000005 0x00011624 0x000fc400
0x2500720c 0x000000ff 0x03f05270 0x000fe200
0x00117919 0x00000000 0x00000000 0x000e2400
0x10007824 0x000001e0 0x078e02ff 0x000fc800
0x00157824 0x00000001 0x078e0211 0x001fe400
0x11187824 0x0000000f 0x078e0200 0x000fcc00
0x15007388 0x00000002 0x00004800 0x004fe800
0x15007388 0x00008003 0x00004800 0x008fe800
0x15007388 0x00010004 0x00004800 0x010fe800
0x15007388 0x00018005 0x00004800 0x000fe800
0x15007388 0x00020006 0x00004800 0x000fe800
0x15007388 0x00028007 0x00004800 0x000fe800
0x15007388 0x00030008 0x00004800 0x000fe800
0x15007388 0x00038009 0x00004800 0x000fe800
0x15007388 0x0004000c 0x00004800 0x000fe800
0x15007388 0x0004800d 0x00004800 0x000fe800
0x15007388 0x0005000e 0x00004800 0x000fe800
0x15007388 0x0005800f 0x00004800 0x000fe800
0x15007388 0x00060012 0x00004800 0x000fe800
0x15007388 0x00068013 0x00004800 0x000fe800
0x15007388 0x00070014 0x00004800 0x000fe200
0x00007918 0x00000000 0x00000000 0x000fca00
0x18027984 0x00000000 0x00005800 0x000fe800
0x18037984 0x00000400 0x00005800 0x000fe800
0x18047984 0x00000800 0x00005800 0x000e2800
0x18057984 0x00000c00 0x00005800 0x000fe800
0x18067984 0x00001000 0x00005800 0x000e6800
0x18077984 0x00001400 0x00005800 0x000fe800
0x18087984 0x00001800 0x00005800 0x000ea800
0x18097984 0x00001c00 0x00005800 0x000fe800
0x18127984 0x00002000 0x00005800 0x000ee800
0x18137984 0x00002400 0x00005800 0x000fe800
0x18147984 0x00002800 0x00005800 0x000f2800
0x18157984 0x00002c00 0x00005800 0x000fe800
0x18167984 0x00003000 0x00005800 0x000f2200
0x040d7210 0x00000003 0x07ffe002 0x001fc600
0x18177984 0x00003400 0x00005800 0x000fe800
0x180c7984 0x00003800 0x00005800 0x000e2200
0x060d7210 0x00000005 0x07ffe00d 0x002fc800
0x080d7210 0x00000007 0x07ffe00d 0x004fc800
0x120d7210 0x00000009 0x07ffe00d 0x008fc800
0x140d7210 0x00000013 0x07ffe00d 0x010fc800
0x160d7210 0x00000015 0x07ffe00d 0x000fc800
0x0c0c7210 0x00000017 0x07ffe00d 0x001fe200
0x00007b1d 0x00000000 0x00000000 0x000fea00
0x00008947 0x00000d10 0x03800000 0x000fea00
0x0c0d7989 0x04200000 0x000e00ff 0x000e2200
0x1100780c 0x00000001 0x03f06270 0x040fe400
0x1100780c 0x0000001f 0x03f25270 0x000fe400
0x0d0d7207 0x000000ff 0x00000000 0x001fc400
0x1100780c 0x00000002 0x03f06270 0x000fc600
0x0c0d7824 0x00000001 0x078e020d 0x000fd000
0x0d0e7989 0x04400000 0x000e00ff 0x000e2400
0x0e0e7207 0x000000ff 0x00000000 0x001fe400
0x1100780c 0x00000004 0x03f06270 0x000fc600
0x0d0e7824 0x00000001 0x078e020e 0x000fd000
0x0e0f7989 0x04800000 0x000e00ff 0x000e2400
0x0f0f7207 0x000000ff 0x00000000 0x001fe400
0x1100780c 0x00000008 0x03f06270 0x000fc600
0x0e0f7824 0x00000001 0x078e020f 0x000fd000
0x0f0c7989 0x05000000 0x000e00ff 0x000e2400
0x0c0c7207 0x000000ff 0x00000000 0x001fe400
0x1100780c 0x00000010 0x03f06270 0x000fc600
0x0f187824 0x00000001 0x078e020c 0x000fd000
0x180c7989 0x06000000 0x000e00ff 0x000e2400
0x0c0d7207 0x000000ff 0x00000000 0x001fe400
0x1000780c 0x00000002 0x03f05270 0x000fc600
0x18197824 0x00000001 0x078e020d 0x000fd000
0x10009388 0x00001019 0x00004800 0x000fe800
0x00007b1d 0x00000000 0x00000000 0x000fea00
0xff0c7984 0x00001000 0x00001c00 0x000fe200
0x1100720c 0x000000ff 0x03f25270 0x000fce00
0x191a7989 0x04200000 0x000e00ff 0x000e2400
0x1a117207 0x000000ff 0x00800000 0x001fe400
0x1000720c 0x000000ff 0x03f25270 0x000fe200
0x0c0d7824 0x00000001 0x078e020d 0x000fca00
0x0d0c7207 0x0000000c 0x04000000 0x040fe200
0x0d0d7824 0x00000001 0x078e020e 0x000fe200
0x1000780c 0x00000003 0x03f05270 0x000fc800
0x0d0c7207 0x0000000c 0x04000000 0x000fe200
0x0f0d7824 0x00000001 0x078e020d 0x000fe200
0x1000720c 0x000000ff 0x03f05270 0x000fc600
0x0c117824 0x00000001 0x078e0211 0x000fca00
0x1a187207 0x00000011 0x04800000 0x000fc800
0x00000947 0x00000950 0x03800000 0x000fea00
0x2400720c 0x000000ff 0x03f05270 0x000fe200
0xff117624 0x00000300 0x078e00ff 0x000fe200
0xff107212 0x00000024 0x078e33ff 0x000fc800
0x1100780c 0x000001f4 0x03f26070 0x000fcc00
0xff0e8424 0x00000008 0x078e00ff 0x000fe200
0xff008388 0x00000c0d 0x00000800 0x000fe200
0xff0c8424 0x00000064 0x078e00ff 0x000fe400
0x250e8625 0x00005c00 0x078e020e 0x000fd000
0x0e008385 0x00000100 0x00114b0c 0x0001e400
0x250c7824 0x00000001 0x078e0210 0x001fe200
0x00009947 0x00000030 0x03800000 0x000fea00
0x0000795d 0x000001c2 0x03a00000 0x000fe200
0x00007946 0x00000000 0x03800000 0x000fe200
0x00007947 0x00000010 0x03800000 0x000fea00
0x00007992 0x00000000 0x00000000 0x000fea00
0xff117424 0x00000008 0x078e00ff 0x000fc800
0x0c107625 0x00005c00 0x078e0211 0x000fd000
0x100e7980 0x00000100 0x00114b00 0x00016200
0x00ff7355 0x00000000 0x00100000 0x000fe200
0x00007945 0x00000120 0x03800000 0x000fe400
0x0e00780c 0x00000063 0x03f45270 0x020fe200
0x00007947 0x00001742 0x03800000 0x000ff600
0x00197806 0x00000000 0x050e0100 0x000fc800
0x1900720c 0x000000ff 0x03f45070 0x000fd800
0x0000a947 0x000000c0 0x03800000 0x000fea00
0x00009947 0x00000030 0x03800000 0x000fea00
0x0000795d 0x0000015e 0x03a00000 0x000fe200
0x00007946 0x00000000 0x03800000 0x000fe200
0x00007947 0x00000010 0x03800000 0x000fea00
0x00007992 0x00000000 0x00000000 0x000fea00
0x100e7980 0x00000100 0x00114b00 0x00036400
0x00197806 0x00000000 0x038e0100 0x000fe200
0x00007946 0x00000000 0x03800000 0x000fe200
0x00047886 0x00000000 0x038e0100 0x000fe400
0x19ff7c12 0x00000004 0x0f840cff 0x000fd800
0x0000a947 0xffffff01 0x0383ffff 0x023fea00
0x00007947 0xffffffa0 0x0383ffff 0x000fea00
0x00007941 0x00000000 0x03800000 0x000fea00
0x001d7919 0x00000000 0x00000000 0x000e6200
0x0e00780c 0x00000065 0x03f45270 0x000fe200
0x00007947 0x00001672 0x03800000 0x000ff400
0x00237919 0x00000000 0x00003c00 0x000ea200
0x00107806 0x00000000 0x050e0100 0x001fe400
0x1d197810 0x00000002 0x07ffe0ff 0x042fe400
0x1d1b7810 0x00000008 0x07ffe0ff 0x000fe400
0x10107812 0x80000000 0x078eec23 0x004fcc00
0x00107301 0x00000010 0x00000000 0x000e3000
0x00117300 0x00000010 0x000e0000 0x001e2400
0x111c7810 0x0000001f 0x07ffe1ff 0x001fc800
0x1d00720c 0x0000001c 0x03f46270 0x000fc800
0x0f117989 0x08200000 0x000e001c 0x000e2400
0x111a7207 0x000000ff 0x05000000 0x001fe400
0x1900720c 0x0000001c 0x03f44270 0x000fc600
0x1a117824 0x00000001 0x078e020f 0x000fd000
0x111a7989 0x08400000 0x000e001c 0x000e2400
0x1a1a7207 0x000000ff 0x05000000 0x001fca00
0x111f7824 0x00000001 0x078e021a 0x000fe200
0x1d1a7810 0x00000004 0x07ffe0ff 0x000fc800
0x1a00720c 0x0000001c 0x03f44270 0x000fc600
0x1f107989 0x08800000 0x000e001c 0x000e2400
0x10107207 0x000000ff 0x05000000 0x001fe400
0x1b00720c 0x0000001c 0x03f44270 0x000fc600
0x1f0f7824 0x00000001 0x078e0210 0x000fd000
0x0f107989 0x09000000 0x000e001c 0x000e2400
0x10107207 0x000000ff 0x05000000 0x001fca00
0x0f117824 0x00000001 0x078e0210 0x000fd000
0x11207989 0x0a000000 0x000e001c 0x00006400
0x1d227810 0x00000010 0x07ffe0ff 0x000fe200
0x00ff7355 0x00000000 0x00100000 0x000fe200
0x00007945 0x00000440 0x03800000 0x000fe400
0x2200720c 0x0000001c 0x03f44270 0x000fc800
0x20207207 0x000000ff 0x05000000 0x002fca00
0x201c7824 0x00000001 0x078e0211 0x001fe400
0x0e00780c 0x00000065 0x03f45270 0x000fe200
0x00007947 0x00001792 0x03800000 0x000ff600
0x000e7806 0x00000000 0x010e0100 0x000fe200
0x00047886 0x00000000 0x038e0100 0x000fc600
0x0e0e7c12 0x00000004 0x0f8ec0ff 0x000fc800
0x0e007c0c 0x00000004 0x0bf42070 0x000fd800
0x0000a947 0x00000390 0x03800000 0x000fea00
0x0c0c7810 0xffffffe0 0x07ffe0ff 0x000fe200
0xff117424 0x00000008 0x078e00ff 0x000fc800
0x0c107625 0x00005c00 0x078e0211 0x000fd000
0x100e7980 0x00000100 0x00114b00 0x00016200
0x01ff7355 0x00000000 0x00100000 0x000fe200
0x00017945 0x00000120 0x03800000 0x000fe400
0x0e00780c 0x00000063 0x03f45270 0x020fe200
0x00007947 0x00001722 0x03800000 0x000ff600
0x001e7806 0x00000000 0x050e0100 0x000fc800
0x1e00720c 0x000000ff 0x03f45070 0x000fd800
0x0000a947 0x000000c0 0x03800000 0x000fea00
0x00009947 0x00000030 0x03800000 0x000fea00
0x0000795d 0x0000015e 0x03a00000 0x000fe200
0x00007946 0x00000000 0x03800000 0x000fe200
0x00007947 0x00000010 0x03800000 0x000fea00
0x00007992 0x00000000 0x00000000 0x000fea00
0x100e7980 0x00000100 0x00114b00 0x00036400
0x001e7806 0x00000000 0x038e0100 0x000fe200
0x00007946 0x00000000 0x03800000 0x000fe200
0x00047886 0x00000000 0x038e0100 0x000fe400
0x1eff7c12 0x00000004 0x0f840cff 0x000fd800
0x0000a947 0xffffff01 0x0383ffff 0x023fea00
0x00007947 0xffffffa0 0x0383ffff 0x000fea00
0x00017941 0x00000000 0x03800000 0x000fea00
0x0e00780c 0x00000065 0x03f45270 0x000fe200
0x00007947 0x00001662 0x03800000 0x000ff600
0x00107806 0x00000000 0x050e0100 0x001fc800
0x10107812 0x80000000 0x078eec23 0x000fcc00
0x00107301 0x00000010 0x00000000 0x000e3000
0x00117300 0x00000010 0x000e0000 0x001e2400
0x11267810 0x0000001f 0x07ffe1ff 0x001fc800
0x1d00720c 0x00000026 0x03f46270 0x000fc800
0x0f117989 0x08200000 0x000e0026 0x000e2400
0x111e7207 0x000000ff 0x05000000 0x001fe400
0x1900720c 0x00000026 0x03f44270 0x000fc600
0x1e117824 0x00000001 0x078e020f 0x000fd000
0x111e7989 0x08400000 0x000e0026 0x000e2400
0x1e1e7207 0x000000ff 0x05000000 0x001fe400
0x1a00720c 0x00000026 0x03f44270 0x000fc600
0x111f7824 0x00000001 0x078e021e 0x000fd000
0x1f1e7989 0x08800000 0x000e0026 0x000e2400
0x1e1e7207 0x000000ff 0x05000000 0x001fe400
0x1b00720c 0x00000026 0x03f44270 0x000fc600
0x1f0f7824 0x00000001 0x078e021e 0x000fd000
0x0f107989 0x09000000 0x000e0026 0x000e2400
0x10107207 0x000000ff 0x05000000 0x001fca00
0x0f117824 0x00000001 0x078e0210 0x000fd000
0x11207989 0x0a000000 0x000e0026 0x00006400
0x2200720c 0x00000026 0x03f44270 0x000fc800
0x20207207 0x000000ff 0x05000000 0x002fc800
0x111c7210 0x00000020 0x07ffe01c 0x000fe400
0x000f7806 0x00000000 0x038e0100 0x000fe200
0x00007946 0x00000000 0x03800000 0x000fe200
0x00047886 0x00000000 0x038e0100 0x000fe400
0x0fff7c12 0x00000004 0x0f840cff 0x000fd800
0x0000a947 0xfffffc11 0x0383ffff 0x001fea00
0x00007947 0xffffffa0 0x0383ffff 0x000fea00
0x00007941 0x00000000 0x03800000 0x000fea00
0xff0c8424 0x00000008 0x078e00ff 0x000fe200
0x1d00720c 0x000000ff 0x03f25270 0x000fe200
0x0d0f8824 0x00000001 0x078e021c 0x000fe400
0xff0e8424 0x00000065 0x078e00ff 0x000fe400
0x250c8625 0x00005c00 0x078e020c 0x000fc800
0xff117224 0x000000ff 0x078e0018 0x000fc800
0x0c008385 0x00000100 0x00114b0e 0x0001e200
0xff119224 0x000000ff 0x078e001c 0x000fc600
0xff008388 0x0000080f 0x00000800 0x0001e800
0xff008388 0x0000041c 0x00000800 0x0001e800
0xff009388 0x0000241c 0x00000800 0x0001e400
0x00007948 0xffffffff 0x03800000 0x000fe800
0x00007b1d 0x00000000 0x00000000 0x000fea00
0xff0c7984 0x00002400 0x00001800 0x001e2200
0x2400720c 0x000000ff 0x03f05270 0x000fc800
0x0c0c7207 0x000000ff 0x00000000 0x001fca00
0x0c117824 0x00000001 0x078e0211 0x000fc800
0x020c7824 0x00000001 0x078e0211 0x000fc800
0x03197824 0x00000001 0x078e020c 0x000fc800
0x04047824 0x00000001 0x078e0219 0x000fc800
0x05057824 0x00000001 0x078e0204 0x000fc800
0x06067824 0x00000001 0x078e0205 0x000fc800
0x07077824 0x00000001 0x078e0206 0x000fc800
0x08087824 0x00000001 0x078e0207 0x000fc800
0x09097824 0x00000001 0x078e0208 0x000fc800
0x12127824 0x00000001 0x078e0209 0x000fc800
0x13137824 0x00000001 0x078e0212 0x000fc800
0x14147824 0x00000001 0x078e0213 0x000fc800
0x15157824 0x00000001 0x078e0214 0x000fc800
0x16167824 0x00000001 0x078e0215 0x000fc800
0x17177824 0x00000001 0x078e0216 0x000fe200
0x00007947 0x00000380 0x03800000 0x000fea00
0x0c0d7989 0x04200000 0x000e00ff 0x000e2200
0x1100780c 0x00000001 0x03f06270 0x040fe400
0x1100780c 0x0000001f 0x03f25270 0x040fe400
0x1100720c 0x000000ff 0x03f45270 0x000fe400
0x0d0d7207 0x000000ff 0x00000000 0x001fe400
0x1100780c 0x00000002 0x03f06270 0x000fc600
0x0c0d7824 0x00000001 0x078e020d 0x000fd000
0x0d0e7989 0x04400000 0x000e00ff 0x000e2400
0x0e0e7207 0x000000ff 0x00000000 0x001fe400
0x1100780c 0x00000004 0x03f06270 0x000fc600
0x0d0e7824 0x00000001 0x078e020e 0x000fd000
0x0e0f7989 0x04800000 0x000e00ff 0x000e2400
0x0f0f7207 0x000000ff 0x00000000 0x001fe400
0x1100780c 0x00000008 0x03f06270 0x000fc600
0x0e0f7824 0x00000001 0x078e020f 0x000fd000
0x0f0c7989 0x05000000 0x000e00ff 0x000e2400
0x0c0c7207 0x000000ff 0x00000000 0x001fe400
0x1100780c 0x00000010 0x03f06270 0x000fc600
0x0f187824 0x00000001 0x078e020c 0x000fd000
0x180c7989 0x06000000 0x000e00ff 0x000e2400
0x0c0d7207 0x000000ff 0x00000000 0x001fe400
0x1000780c 0x00000002 0x03f05270 0x000fc600
0x18197824 0x00000001 0x078e020d 0x000fd000
0x10009388 0x00001019 0x00004800 0x000fe800
0x00007b1d 0x00000000 0x00000000 0x000fea00
0xff0c7984 0x00001000 0x00001c00 0x000fe200
0x1000720c 0x000000ff 0x03f25270 0x000fce00
0x191a7989 0x04200000 0x000e00ff 0x000e2400
0x1a1a7207 0x000000ff 0x01000000 0x001fe200
0x0c0d7824 0x00000001 0x078e020d 0x000fca00
0x0d0c7207 0x0000000c 0x04000000 0x040fe200
0x0d0d7824 0x00000001 0x078e020e 0x000fe200
0x1000780c 0x00000003 0x03f05270 0x000fc800
0x0d0c7207 0x0000000c 0x04000000 0x040fe400
0x2400720c 0x000000ff 0x03f05270 0x000fe400
0x0c117207 0x000000ff 0x00800000 0x000fe400
0x0d0f7210 0x0000000f 0x07ffe01e 0x020fe400
0x1a117210 0x0000001e 0x07ffe011 0x000fca00
0x020c7824 0x00000001 0x078e0211 0x000fe400
0xff028624 0x00005c00 0x078e00ff 0x000fe400
0x03197824 0x00000001 0x078e020c 0x000fe400
0xff038624 0x00005d00 0x078e00ff 0x000fe400
0x04047824 0x00000001 0x078e0219 0x000fe400
0xff0e8424 0x00000065 0x078e00ff 0x000fc400
0x05057824 0x00000001 0x078e0204 0x000fc800
0x06067824 0x00000001 0x078e0205 0x000fe400
0x02008385 0x00000100 0x00114b0e 0x0001e400
0x07077824 0x00000001 0x078e0206 0x000fc800
0x08087824 0x00000001 0x078e0207 0x000fc800
0x09097824 0x00000001 0x078e0208 0x000fc800
0x12127824 0x00000001 0x078e0209 0x000fc800
0x13137824 0x00000001 0x078e0212 0x000fc800
0x14147824 0x00000001 0x078e0213 0x000fc800
0x15157824 0x00000001 0x078e0214 0x000fc800
0x16167824 0x00000001 0x078e0215 0x000fc800
0x17177824 0x00000001 0x078e0216 0x000fe400
0x00037919 0x00000000 0x00000000 0x001e2200
0x00047ab9 0x00005a00 0x00000a00 0x000fc600
0x00007b1d 0x00000000 0x00000000 0x000fea00
0x03027824 0x0000000f 0x078e0200 0x001fe400
0x00007824 0x00000001 0x078e0203 0x000fcc00
0x02007388 0x00000011 0x00004800 0x000fe800
0x02007388 0x0000040c 0x00004800 0x000fe800
0x02007388 0x00000819 0x00004800 0x000fe800
0x02007388 0x00000c04 0x00004800 0x000fe800
0x02007388 0x00001005 0x00004800 0x000fe800
0x02007388 0x00001406 0x00004800 0x000fe800
0x02007388 0x00001807 0x00004800 0x000fe800
0x02007388 0x00001c08 0x00004800 0x000fe800
0x02007388 0x00002009 0x00004800 0x000fe800
0x02007388 0x00002412 0x00004800 0x000fe800
0x02007388 0x00002813 0x00004800 0x000fe800
0x02007388 0x00002c14 0x00004800 0x000fe800
0x02007388 0x00003015 0x00004800 0x000fe800
0x02007388 0x00003416 0x00004800 0x000fe800
0x02007388 0x00003817 0x00004800 0x000fe200
0x00007918 0x00000000 0x00000000 0x000fca00
0x00037984 0x00000000 0x00005800 0x000e2800
0x00057984 0x00008000 0x00005800 0x000e6800
0x00077984 0x00010000 0x00005800 0x000ea800
0x00097984 0x00018000 0x00005800 0x000ee800
0x000d7984 0x00020000 0x00005800 0x000f2800
0x000f7984 0x00028000 0x00005800 0x000e2800
0x00117984 0x00030000 0x00005800 0x000e6800
0x00137984 0x00038000 0x00005800 0x000ea800
0x00157984 0x00040000 0x00005800 0x000ee800
0x00177984 0x00048000 0x00005800 0x000f2800
0x00197984 0x00050000 0x00005800 0x000f2800
0x001b7984 0x00058000 0x00005800 0x000f2800
0x001d7984 0x00060000 0x00005800 0x000f2800
0x001f7984 0x00068000 0x00005800 0x000f2800
0x00217984 0x00070000 0x00005800 0x000f2800
0x0a007986 0x00000003 0x0c10e904 0x001fe800
0x0a007986 0x00008005 0x0c10e904 0x002fe800
0x0a007986 0x00010007 0x0c10e904 0x004fe800
0x0a007986 0x00018009 0x0c10e904 0x008fe800
0x0a007986 0x0002000d 0x0c10e904 0x010fe800
0x0a007986 0x0002800f 0x0c10e904 0x000fe800
0x0a007986 0x00030011 0x0c10e904 0x000fe800
0x0a007986 0x00038013 0x0c10e904 0x000fe800
0x0a007986 0x00040015 0x0c10e904 0x000fe800
0x0a007986 0x00048017 0x0c10e904 0x000fe800
0x0a007986 0x00050019 0x0c10e904 0x000fe800
0x0a007986 0x0005801b 0x0c10e904 0x000fe800
0x0a007986 0x0006001d 0x0c10e904 0x000fe800
0x0a007986 0x0006801f 0x0c10e904 0x000fe800
0x0a007986 0x00070021 0x0c10e904 0x000fe200
0x0000794d 0x00000000 0x03800000 0x000fea00
0xff297807 0x00000001 0x01000000 0x000fe200
0xff1f7424 0xffffffff 0x078e00ff 0x000fe200
0x001e7802 0x000035f0 0x00000f00 0x000fc600
0x00007944 0x00000f40 0x03c00000 0x001fea00
0x2900780c 0x00000001 0x03f42070 0x000fe200
0x00007947 0xffffd5e0 0x0383ffff 0x000ff600
0xff1f7807 0x00000001 0x01000000 0x000fe200
0xff217424 0xffffffff 0x078e00ff 0x001fe200
0x001e7802 0x00003650 0x00000f00 0x000fc600
0x00007944 0x00000f50 0x03c00000 0x002fea00
0x00317919 0x00000000 0x00003c00 0x000e2200
0xff217424 0xffffffff 0x078e00ff 0x000fe200
0x201e7812 0x80000000 0x078eec31 0x001fe200
0xff207424 0x00000001 0x078e00ff 0x000fca00
0x001e7301 0x0000001e 0x00000000 0x000e3000
0x00287300 0x0000001e 0x000e0000 0x00106400
0x001e7802 0x000036f0 0x00000f00 0x001fc400
0x28287810 0x0000001f 0x07ffe1ff 0x002fca00
0xff1f7224 0x000000ff 0x078e0028 0x000fc600
0x00007944 0x00000d60 0x03c00000 0x000fea00
0x2f00720c 0x00000028 0x03f46270 0x000fe200
0xff1f7224 0x000000ff 0x078e0028 0x000fe200
0x001e7802 0x00003770 0x00000f00 0x000fe200
0xff217424 0xffffffff 0x078e00ff 0x000fe200
0x20207207 0x000000ff 0x05000000 0x002fca00
0x20117824 0x00000001 0x078e0211 0x000fe400
0xff207424 0x00000002 0x078e00ff 0x000fc600
0x00007944 0x00000ce0 0x03c00000 0x000fea00
0x2f257810 0x00000002 0x07ffe0ff 0x000fe200
0xff1f7224 0x000000ff 0x078e0028 0x000fe200
0x001e7802 0x00003800 0x00000f00 0x000fe200
0xff217424 0xffffffff 0x078e00ff 0x000fe200
0x2500720c 0x00000028 0x03f44270 0x000fc800
0x20207207 0x000000ff 0x05000000 0x002fca00
0x11117824 0x00000001 0x078e0220 0x000fe400
0xff207424 0x00000004 0x078e00ff 0x000fc600
0x00007944 0x00000c50 0x03c00000 0x000fea00
0x2f267810 0x00000004 0x07ffe0ff 0x000fe200
0xff1f7224 0x000000ff 0x078e0028 0x000fe200
0x001e7802 0x00003890 0x00000f00 0x000fe200
0xff217424 0xffffffff 0x078e00ff 0x000fe200
0x2600720c 0x00000028 0x03f44270 0x000fc800
0x20207207 0x000000ff 0x05000000 0x002fca00
0x11117824 0x00000001 0x078e0220 0x000fe400
0xff207424 0x00000008 0x078e00ff 0x000fc600
0x00007944 0x00000bc0 0x03c00000 0x000fea00
0x2f277810 0x00000008 0x07ffe0ff 0x000fe200
0xff1f7224 0x000000ff 0x078e0028 0x000fe200
0x001e7802 0x00003930 0x00000f00 0x000fe200
0xff217424 0xffffffff 0x078e00ff 0x000fe200
0x2700720c 0x00000028 0x03f44270 0x000fc800
0x20207207 0x000000ff 0x05000000 0x002fca00
0x11297824 0x00000001 0x078e0220 0x000fe400
0xff207424 0x00000010 0x078e00ff 0x000fe400
0xff117224 0x000000ff 0x078e0029 0x000fc600
0x00007944 0x00000b20 0x03c00000 0x000fea00
0x00007947 0xffffd560 0x0383ffff 0x000fea00
0xff117807 0x00000001 0x05000000 0x000fe200
0xff1f7424 0xffffffff 0x078e00ff 0x000fe200
0x00107802 0x00003980 0x00000f00 0x000fc600
0x00007944 0x00000b10 0x03c00000 0x000fea00
0x1e00780c 0x00000001 0x03f42070 0x000fe200
0x00007947 0xffffd5c0 0x0383ffff 0x000ff600
0xff297807 0x00000001 0x01000000 0x000fe200
0xff1f7424 0xffffffff 0x078e00ff 0x000fe200
0x001e7802 0x000039e0 0x00000f00 0x000fc600
0x00007944 0x00000b50 0x03c00000 0x001fea00
0x2900780c 0x00000001 0x03f42070 0x000fe200
0x00007947 0xffffd610 0x0383ffff 0x000ff600
0xff1f7807 0x00000001 0x01000000 0x000fe200
0xff217424 0xffffffff 0x078e00ff 0x001fe200
0x001e7802 0x00003a40 0x00000f00 0x000fc600
0x00007944 0x00000b60 0x03c00000 0x000fea00
0x201e7812 0x80000000 0x078eec31 0x000fe200
0xff207424 0x00000001 0x078e00ff 0x000fc400
0xff217424 0xffffffff 0x078e00ff 0x000fc600
0x001e7301 0x0000001e 0x00000000 0x000e3000
0x00327300 0x0000001e 0x000e0000 0x00106400
0x001e7802 0x00003ad0 0x00000f00 0x001fc400
0x32327810 0x0000001f 0x07ffe1ff 0x002fca00
0xff1f7224 0x000000ff 0x078e0032 0x000fc600
0x00007944 0x00000980 0x03c00000 0x000fea00
0x2f00720c 0x00000032 0x03f46270 0x000fe200
0xff1f7224 0x000000ff 0x078e0032 0x000fe200
0x001e7802 0x00003b50 0x00000f00 0x000fe200
0xff217424 0xffffffff 0x078e00ff 0x000fe200
0x20207207 0x000000ff 0x05000000 0x002fca00
0x20117824 0x00000001 0x078e0211 0x000fe400
0xff207424 0x00000002 0x078e00ff 0x000fc600
0x00007944 0x00000900 0x03c00000 0x000fea00
0x2500720c 0x00000032 0x03f44270 0x000fe200
0xff1f7224 0x000000ff 0x078e0032 0x000fe200
0x001e7802 0x00003bd0 0x00000f00 0x000fe200
0xff217424 0xffffffff 0x078e00ff 0x000fe200
0x20207207 0x000000ff 0x05000000 0x002fca00
0x11117824 0x00000001 0x078e0220 0x000fe400
0xff207424 0x00000004 0x078e00ff 0x000fc600
0x00007944 0x00000880 0x03c00000 0x000fea00
0x2600720c 0x00000032 0x03f44270 0x000fe200
0xff1f7224 0x000000ff 0x078e0032 0x000fe200
0x001e7802 0x00003c50 0x00000f00 0x000fe200
0xff217424 0xffffffff 0x078e00ff 0x000fe200
0x20207207 0x000000ff 0x05000000 0x002fca00
0x11117824 0x00000001 0x078e0220 0x000fe400
0xff207424 0x00000008 0x078e00ff 0x000fc600
0x00007944 0x00000800 0x03c00000 0x000fea00
0x2700720c 0x00000032 0x03f44270 0x000fe200
0xff1f7224 0x000000ff 0x078e0032 0x000fe200
0x001e7802 0x00003ce0 0x00000f00 0x000fe200
0xff217424 0xffffffff 0x078e00ff 0x000fe200
0x20207207 0x000000ff 0x05000000 0x002fca00
0x11297824 0x00000001 0x078e0220 0x000fe400
0xff207424 0x00000010 0x078e00ff 0x000fe400
0xff117224 0x000000ff 0x078e0029 0x000fc600
0x00007944 0x00000770 0x03c00000 0x000fea00
0x00007947 0xffffd580 0x0383ffff 0x000fea00
0xff297807 0x00000001 0x01000000 0x000fe200
0xff1f7424 0xffffffff 0x078e00ff 0x000fe200
0x001e7802 0x00003d30 0x00000f00 0x000fc600
0x00007944 0x00000800 0x03c00000 0x001fea00
0x2900780c 0x00000001 0x03f42070 0x000fe200
0x00007947 0xffffe880 0x0383ffff 0x000ff600
0xff1f7807 0x00000001 0x01000000 0x000fe200
0xff217424 0xffffffff 0x078e00ff 0x000fe200
0x001e7802 0x00003d90 0x00000f00 0x000fc600
0x00007944 0x00000810 0x03c00000 0x003fea00
0x00237919 0x00000000 0x00003c00 0x000e2200
0xff117224 0x000000ff 0x078e000f 0x000fe200
0x001e7802 0x00003e40 0x00000f00 0x000fe200
0xff217424 0xffffffff 0x078e00ff 0x000fe200
0x20107812 0x80000000 0x078eec23 0x001fe200
0xff207424 0x00000001 0x078e00ff 0x000fca00
0x00107301 0x00000010 0x00000000 0x000e3000
0x001c7300 0x00000010 0x000e0000 0x001e2400
0x1c1c7810 0x0000001f 0x07ffe1ff 0x001fca00
0xff1f7224 0x000000ff 0x078e001c 0x000fc600
0x00007944 0x00000610 0x03c00000 0x000fea00
0x1d00720c 0x0000001c 0x03f46270 0x000fe200
0xff1f7224 0x000000ff 0x078e001c 0x000fe200
0x001e7802 0x00003ec0 0x00000f00 0x000fe200
0xff217424 0xffffffff 0x078e00ff 0x000fe200
0x20207207 0x000000ff 0x05000000 0x002fca00
0x20117824 0x00000001 0x078e020f 0x000fe400
0xff207424 0x00000002 0x078e00ff 0x000fc600
0x00007944 0x00000590 0x03c00000 0x000fea00
0x1d197810 0x00000002 0x07ffe0ff 0x000fe200
0xff1f7224 0x000000ff 0x078e001c 0x000fe200
0x001e7802 0x00003f50 0x00000f00 0x000fe200
0xff217424 0xffffffff 0x078e00ff 0x000fe200
0x1900720c 0x0000001c 0x03f44270 0x000fc800
0x20207207 0x000000ff 0x05000000 0x002fca00
0x11117824 0x00000001 0x078e0220 0x000fe400
0xff207424 0x00000004 0x078e00ff 0x000fc600
0x00007944 0x00000500 0x03c00000 0x000fea00
0x1d1a7810 0x00000004 0x07ffe0ff 0x000fe200
0xff1f7224 0x000000ff 0x078e001c 0x000fe200
0x001e7802 0x00003ff0 0x00000f00 0x000fe200
0xff217424 0xffffffff 0x078e00ff 0x000fe200
0x1a00720c 0x0000001c 0x03f44270 0x000fc800
0x20207207 0x000000ff 0x05000000 0x002fca00
0x11107824 0x00000001 0x078e0220 0x000fe400
0xff207424 0x00000008 0x078e00ff 0x000fe400
0xff117224 0x000000ff 0x078e0010 0x000fc600
0x00007944 0x00000460 0x03c00000 0x000fea00
0x1d1b7810 0x00000008 0x07ffe0ff 0x000fe200
0xff1f7224 0x000000ff 0x078e001c 0x000fe200
0x001e7802 0x00004080 0x00000f00 0x000fe200
0xff217424 0xffffffff 0x078e00ff 0x000fe200
0x1b00720c 0x0000001c 0x03f44270 0x000fc800
0x20117207 0x000000ff 0x05000000 0x002fe200
0xff207424 0x00000010 0x078e00ff 0x000fc800
0x10117824 0x00000001 0x078e0211 0x000fc600
0x00007944 0x000003d0 0x03c00000 0x000fea00
0x00007947 0xffffe7f0 0x0383ffff 0x000fea00
0xff117807 0x00000001 0x05000000 0x000fe200
0xff1f7424 0xffffffff 0x078e00ff 0x000fe200
0x00107802 0x000040d0 0x00000f00 0x000fc600
0x00007944 0x000003c0 0x03c00000 0x000fea00
0x1e00780c 0x00000001 0x03f42070 0x000fe200
0x00007947 0xffffe850 0x0383ffff 0x000ff600
0xff297807 0x00000001 0x01000000 0x000fe200
0xff1f7424 0xffffffff 0x078e00ff 0x000fe200
0x001e7802 0x00004130 0x00000f00 0x000fc600
0x00007944 0x00000400 0x03c00000 0x001fea00
0x2900780c 0x00000001 0x03f42070 0x000fe200
0x00007947 0xffffe8a0 0x0383ffff 0x000ff600
0xff1f7807 0x00000001 0x01000000 0x000fe200
0xff217424 0xffffffff 0x078e00ff 0x000fe200
0x001e7802 0x00004190 0x00000f00 0x000fc600
0x00007944 0x00000410 0x03c00000 0x001fea00
0x20107812 0x80000000 0x078eec23 0x000fe200
0xff117224 0x000000ff 0x078e000f 0x000fe200
0x001e7802 0x00004230 0x00000f00 0x000fe200
0xff207424 0x00000001 0x078e00ff 0x000fc400
0xff217424 0xffffffff 0x078e00ff 0x000fe200
0x00107301 0x00000010 0x00000000 0x000e3000
0x00267300 0x00000010 0x000e0000 0x001e2400
0x26267810 0x0000001f 0x07ffe1ff 0x001fca00
0xff1f7224 0x000000ff 0x078e0026 0x000fc600
0x00007944 0x00000220 0x03c00000 0x000fea00
0x1d00720c 0x00000026 0x03f46270 0x000fe200
0xff1f7224 0x000000ff 0x078e0026 0x000fe200
0x001e7802 0x000042b0 0x00000f00 0x000fe200
0xff217424 0xffffffff 0x078e00ff 0x000fe200
0x20207207 0x000000ff 0x05000000 0x002fca00
0x20117824 0x00000001 0x078e020f 0x000fe400
0xff207424 0x00000002 0x078e00ff 0x000fc600
0x00007944 0x000001a0 0x03c00000 0x000fea00
0x1900720c 0x00000026 0x03f44270 0x000fe200
0xff1f7224 0x000000ff 0x078e0026 0x000fe200
0x001e7802 0x00004330 0x00000f00 0x000fe200
0xff217424 0xffffffff 0x078e00ff 0x000fe200
0x20207207 0x000000ff 0x05000000 0x002fca00
0x11117824 0x00000001 0x078e0220 0x000fe400
0xff207424 0x00000004 0x078e00ff 0x000fc600
0x00007944 0x00000120 0x03c00000 0x000fea00
0x1a00720c 0x00000026 0x03f44270 0x000fe200
0xff1f7224 0x000000ff 0x078e0026 0x000fe200
0x001e7802 0x000043c0 0x00000f00 0x000fe200
0xff217424 0xffffffff 0x078e00ff 0x000fe200
0x20207207 0x000000ff 0x05000000 0x002fca00
0x11107824 0x00000001 0x078e0220 0x000fe400
0xff207424 0x00000008 0x078e00ff 0x000fe400
0xff117224 0x000000ff 0x078e0010 0x000fc600
0x00007944 0x00000090 0x03c00000 0x000fea00
0x1b00720c 0x00000026 0x03f44270 0x000fe200
0xff1f7224 0x000000ff 0x078e0026 0x000fe200
0x001e7802 0x00004440 0x00000f00 0x000fe200
0xff217424 0xffffffff 0x078e00ff 0x000fe200
0x20117207 0x000000ff 0x05000000 0x002fe200
0xff207424 0x00000010 0x078e00ff 0x000fc800
0x10117824 0x00000001 0x078e0211 0x000fc600
0x00007944 0x00000010 0x03c00000 0x000fea00
0x00007947 0xffffe800 0x0383ffff 0x000fea00
0x00007348 0x00000021 0x03800000 0x000fe800
0x11207389 0x08000020 0x000e001f 0x00006400
0xff1f7424 0x00000000 0x078e00ff 0x001fcc00
0x1e007950 0xffffbb70 0x03c3ffff 0x000fea00
0x1100780c 0x00000001 0x03f45070 0x000fe200
0x00007348 0x0000001f 0x03800000 0x000fe800
0x00047886 0x00000000 0x038e0100 0x000fe400
0x1f117c12 0x00000004 0x0f8ec0ff 0x000fca00
0x001e7806 0x00000000 0x050e0100 0x000fc800
0x1e1e7212 0x00000011 0x078ec0ff 0x000fc800
0x1e00720c 0x00000011 0x03f45070 0x000fe200
0xff117424 0x00000000 0x078e00ff 0x000fc600
0xff1e7807 0x00000001 0x01000000 0x000fc600
0x10007950 0xffffbad0 0x03c3ffff 0x000fea00
0x2900780c 0x00000001 0x03f45070 0x000fe200
0x00007348 0x0000001f 0x03800000 0x000ff600
0x00297806 0x00000000 0x050e0100 0x000fc800
0x29ff7212 0x0000001f 0x0784c0ff 0x000fe200
0xff1f7424 0x00000000 0x078e00ff 0x000fc600
0xff297807 0x00000001 0x05000000 0x000fc600
0x1e007950 0xffffba60 0x03c3ffff 0x000fea00
0x1f00780c 0x00000001 0x03f45070 0x000fe200
0xff1f7424 0x00000000 0x078e00ff 0x000fe200
0x00007348 0x00000021 0x03800000 0x000ff400
0x00207806 0x00000000 0x050e0100 0x000fc800
0x20207212 0x00000021 0x078ec0ff 0x000fe200
0x1e007950 0xffffba00 0x03c3ffff 0x000fee00
0x00007947 0xfffffff0 0x0383ffff 0x000fc000
0x00007918 0x00000000 0x00000000 0x000fc000
0x00007918 0x00000000 0x00000000 0x000fc000
0x00007918 0x00000000 0x00000000 0x000fc000
0x00007918 0x00000000 0x00000000 0x000fc000
0x00007918 0x00000000 0x00000000 0x000fc000
0x00007918 0x00000000 0x00000000 0x000fc000
0x00007918 0x00000000 0x00000000 0x000fc000



.text._ZN3cub17CUB_200400_750_NS20DeviceScanInitKernelINS0_13ScanTileStateIiLb1EEEEEvT_i
bar = 0	reg = 10	lmem=0	smem=0
0xff017624 0x00000a00 0x078e00ff 0x000fe400
0x00057919 0x00000000 0x00002100 0x000e2200
0xff077224 0x000000ff 0x078e00ff 0x000fc600
0x00047919 0x00000000 0x00002500 0x000e6200
0x0500780c 0x0000001f 0x03f04070 0x001fe200
0x04007a24 0x00000000 0x078e0205 0x002fc600
0x0400720c 0x000000ff 0x00705670 0x000fe400
0x00007a0c 0x00005a00 0x03f26270 0x000fd800
0x00029810 0x00000020 0x07ffe0ff 0x000fe400
0x00039802 0x00000008 0x00000f00 0x000fe400
0x00069802 0x00000063 0x00000f00 0x000fc600
0x02029625 0x00005800 0x078e0203 0x000fd000
0x02009386 0x00000006 0x0010eb00 0x0001e200
0x0000094d 0x00000000 0x03800000 0x000fea00
0xff027424 0x00000008 0x078e00ff 0x001fc800
0x05027625 0x00005800 0x078e0002 0x000fd000
0x02007386 0x000000ff 0x0010eb00 0x000fe200
0x0000794d 0x00000000 0x03800000 0x000fea00
0x00007947 0xfffffff0 0x0383ffff 0x000fc000
0x00007918 0x00000000 0x00000000 0x000fc000
0x00007918 0x00000000 0x00000000 0x000fc000
0x00007918 0x00000000 0x00000000 0x000fc000
0x00007918 0x00000000 0x00000000 0x000fc000
0x00007918 0x00000000 0x00000000 0x000fc000



.text._ZN3cub17CUB_200400_750_NS29DeviceRadixSortOnesweepKernelINS0_21DeviceRadixSortPolicyIiijE9Policy900ELb0EiijiiNS0_6detail21identity_decomposer_tEEEvPT5_S8_PT3_PKS9_PT1_PKSD_PT2_PKSH_T4_iiT6_
bar = 1	reg = 201	lmem=0	smem=48128
0xff017624 0x00000a00 0x078e00ff 0x000fe400
0x00277919 0x00000000 0x00002100 0x000e2200
0x00ff7355 0x00000000 0x00100000 0x000fe200
0x00007945 0x00000070 0x03800000 0x000fe200
0x2700720c 0x000000ff 0x03f05270 0x001fd800
0x00000947 0x00000040 0x03800000 0x000fea00
0xff007424 0x00000001 0x078e00ff 0x000fe200
0x00047ab9 0x00005a00 0x00000a00 0x000fce00
0xff0079a8 0x00000000 0x081f4144 0x000ea800
0xff007388 0x00b80000 0x00000800 0x0041e400
0x00007941 0x00000000 0x03800000 0x000fea00
0x00007b1d 0x00000000 0x00000000 0x000fea00
0xff247984 0x00b80000 0x00001800 0x000e6200
0x27257812 0xffffffe0 0x078ec0ff 0x040fe200
0x00ff7355 0x00000000 0x00100000 0x000fe200
0x27007812 0x0000001f 0x078ec0ff 0x001fe200
0x00007945 0x00000f80 0x03800000 0x000fe200
0xff667819 0x00000005 0x00011627 0x000fc600
0x25257824 0x0000002e 0x078e0200 0x000fca00
0xff567819 0x0000001f 0x00011425 0x000fe200
0x24007824 0x00002e00 0x078e02ff 0x002fca00
0x00897810 0x00002e00 0x07ffe0ff 0x040fe400
0x00027210 0x00000025 0x07f1e0ff 0x000fe400
0x89007a0c 0x00006800 0x03f24270 0x000fc600
0xff037224 0x000000ff 0x000e0656 0x000fe200
0xff887803 0x00000002 0x00000000 0x000fc800
0x02037819 0x00000002 0x00010203 0x040fe200
0x02027824 0x00000004 0x078e00ff 0x000fc600
0x00009947 0x00000bc0 0x03800000 0x000fea00
0x00047a10 0x00006800 0x07ffe1ff 0x000fe200
0xff577424 0x7fffffff 0x078e00ff 0x000fe200
0x25057810 0x00000020 0x07ffe0ff 0x040fe200
0xff587424 0x7fffffff 0x078e00ff 0x000fe200
0x2500720c 0x00000004 0x03f06270 0x0c0fe200
0xff597424 0x7fffffff 0x078e00ff 0x000fe200
0x25077810 0x00000040 0x07ffe0ff 0x000fe200
0x00047ab9 0x00006200 0x00000a00 0x000fe200
0x0500720c 0x00000004 0x03fa6270 0x000fe400
0x25097810 0x00000060 0x07ffe0ff 0x000fc400
0x25057810 0x00000080 0x07ffe0ff 0x000fe400
0x0700720c 0x00000004 0x03f86270 0x080fe400
0x25077810 0x000000a0 0x07ffe0ff 0x000fe200
0x02578981 0x00000004 0x0c1ee900 0x00016200
0x0900720c 0x00000004 0x03f66270 0x080fe400
0x0500720c 0x00000004 0x03f46270 0x080fe200
0xff5a7424 0x7fffffff 0x078e00ff 0x000fe200
0x25057810 0x000000c0 0x07ffe0ff 0x000fe200
0xff5b7424 0x7fffffff 0x078e00ff 0x000fe200
0x0700720c 0x00000004 0x03f26270 0x000fe200
0x0258d981 0x00008004 0x0c1ee900 0x00016200
0x25077810 0x000000e0 0x07ffe0ff 0x000fc400
0x0500720c 0x00000004 0x03f06270 0x080fe200
0x0259c981 0x00010004 0x0c1ee900 0x00016200
0x25057810 0x00000100 0x07ffe0ff 0x000fe200
0xff5c7424 0x7fffffff 0x078e00ff 0x000fe200
0x0700720c 0x00000004 0x03fa6270 0x080fe200
0xff5d7424 0x7fffffff 0x078e00ff 0x000fe200
0x25077810 0x00000120 0x07ffe0ff 0x000fe200
0x025ab981 0x00018004 0x0c1ee900 0x00016200
0x0500720c 0x00000004 0x03f86270 0x080fe400
0x25057810 0x00000140 0x07ffe0ff 0x000fe200
0x025ba981 0x00020004 0x0c1ee900 0x00016200
0x0700720c 0x00000004 0x03f66270 0x080fe200
0xff5e7424 0x7fffffff 0x078e00ff 0x000fe200
0x25077810 0x00000160 0x07ffe0ff 0x000fe200
0xff5f7424 0x7fffffff 0x078e00ff 0x000fe200
0x0500720c 0x00000004 0x03f46270 0x080fe200
0x025c9981 0x00028004 0x0c1ee900 0x00016200
0x25057810 0x00000180 0x07ffe0ff 0x000fe200
0xff607424 0x7fffffff 0x078e00ff 0x000fe200
0x0700720c 0x00000004 0x03f26270 0x080fe200
0x025d8981 0x00030004 0x0c1ee900 0x00016200
0x25077810 0x000001a0 0x07ffe0ff 0x000fe200
0xff617424 0x7fffffff 0x078e00ff 0x000fe200
0x0500720c 0x00000004 0x03f06270 0x080fe200
0x025ed981 0x00038004 0x0c1ee900 0x00016200
0x25057810 0x000001c0 0x07ffe0ff 0x000fe200
0xff627424 0x7fffffff 0x078e00ff 0x000fe200
0x0700720c 0x00000004 0x03fa6270 0x080fe200
0x025fc981 0x00040004 0x0c1ee900 0x00016200
0x25077810 0x000001e0 0x07ffe0ff 0x000fe200
0xff637424 0x7fffffff 0x078e00ff 0x000fe200
0x0500720c 0x00000004 0x03f86270 0x080fe200
0x0260b981 0x00048004 0x0c1ee900 0x00016200
0x25057810 0x00000200 0x07ffe0ff 0x000fe200
0xff647424 0x7fffffff 0x078e00ff 0x000fe200
0x0700720c 0x00000004 0x03f66270 0x080fe200
0x0261a981 0x00050004 0x0c1ee900 0x00016200
0x25077810 0x00000220 0x07ffe0ff 0x000fe200
0xff657424 0x7fffffff 0x078e00ff 0x000fe200
0x0500720c 0x00000004 0x03f46270 0x080fe200
0x02629981 0x00058004 0x0c1ee900 0x00016200
0x25057810 0x00000240 0x07ffe0ff 0x000fe200
0xff677424 0x7fffffff 0x078e00ff 0x000fe200
0x0700720c 0x00000004 0x03f26270 0x080fe200
0x02638981 0x00060004 0x0c1ee900 0x00016200
0x25077810 0x00000260 0x07ffe0ff 0x000fe200
0xff687424 0x7fffffff 0x078e00ff 0x000fe200
0x0500720c 0x00000004 0x03f06270 0x080fe200
0x0264d981 0x00068004 0x0c1ee900 0x00016200
0x25057810 0x00000280 0x07ffe0ff 0x000fe200
0xff697424 0x7fffffff 0x078e00ff 0x000fe200
0x0700720c 0x00000004 0x03fa6270 0x080fe200
0x0265c981 0x00070004 0x0c1ee900 0x00016200
0x25077810 0x000002a0 0x07ffe0ff 0x000fe200
0xff6a7424 0x7fffffff 0x078e00ff 0x000fe200
0x0500720c 0x00000004 0x03f86270 0x080fe200
0x0267b981 0x00078004 0x0c1ee900 0x00016200
0x25057810 0x000002c0 0x07ffe0ff 0x000fe200
0xff6b7424 0x7fffffff 0x078e00ff 0x000fe200
0x0700720c 0x00000004 0x03f66270 0x080fe200
0x0268a981 0x00080004 0x0c1ee900 0x00016200
0x25077810 0x000002e0 0x07ffe0ff 0x000fe200
0xff6c7424 0x7fffffff 0x078e00ff 0x000fe200
0x0500720c 0x00000004 0x03f46270 0x080fe200
0x02699981 0x00088004 0x0c1ee900 0x00016200
0x25057810 0x00000300 0x07ffe0ff 0x000fe200
0xff6d7424 0x7fffffff 0x078e00ff 0x000fe200
0x0700720c 0x00000004 0x03f26270 0x080fe200
0x026a8981 0x00090004 0x0c1ee900 0x00016200
0x25077810 0x00000320 0x07ffe0ff 0x000fe200
0xff6e7424 0x7fffffff 0x078e00ff 0x000fe200
0x0500720c 0x00000004 0x03f06270 0x080fe200
0x026bd981 0x00098004 0x0c1ee900 0x00016200
0x25057810 0x00000340 0x07ffe0ff 0x000fe200
0xff6f7424 0x7fffffff 0x078e00ff 0x000fe200
0x0700720c 0x00000004 0x03fa6270 0x080fe200
0x026cc981 0x000a0004 0x0c1ee900 0x00016200
0x25077810 0x00000360 0x07ffe0ff 0x000fe200
0xff707424 0x7fffffff 0x078e00ff 0x000fe200
0x0500720c 0x00000004 0x03f86270 0x080fe200
0x026db981 0x000a8004 0x0c1ee900 0x00016200
0x25057810 0x00000380 0x07ffe0ff 0x000fe200
0xff717424 0x7fffffff 0x078e00ff 0x000fe200
0x0700720c 0x00000004 0x03f66270 0x080fe200
0x026ea981 0x000b0004 0x0c1ee900 0x00016200
0x25077810 0x000003a0 0x07ffe0ff 0x000fe200
0xff727424 0x7fffffff 0x078e00ff 0x000fe200
0x0500720c 0x00000004 0x03f46270 0x080fe200
0x026f9981 0x000b8004 0x0c1ee900 0x00016200
0x25057810 0x000003c0 0x07ffe0ff 0x000fe200
0xff737424 0x7fffffff 0x078e00ff 0x000fe200
0x0700720c 0x00000004 0x03f26270 0x080fe200
0x02708981 0x000c0004 0x0c1ee900 0x00016200
0x25077810 0x000003e0 0x07ffe0ff 0x000fe200
0xff747424 0x7fffffff 0x078e00ff 0x000fe200
0x0500720c 0x00000004 0x03f06270 0x080fe200
0x0271d981 0x000c8004 0x0c1ee900 0x00016200
0x25057810 0x00000400 0x07ffe0ff 0x000fe200
0xff757424 0x7fffffff 0x078e00ff 0x000fe200
0x0700720c 0x00000004 0x03fa6270 0x080fe200
0x0272c981 0x000d0004 0x0c1ee900 0x00016200
0x25077810 0x00000420 0x07ffe0ff 0x000fe200
0xff767424 0x7fffffff 0x078e00ff 0x000fe200
0x0500720c 0x00000004 0x03f86270 0x080fe200
0x0273b981 0x000d8004 0x0c1ee900 0x00016200
0x25057810 0x00000440 0x07ffe0ff 0x000fe200
0xff777424 0x7fffffff 0x078e00ff 0x000fe200
0x0700720c 0x00000004 0x03f66270 0x000fe200
0x0274a981 0x000e0004 0x0c1ee900 0x00016200
0x25077810 0x00000460 0x07ffe0ff 0x000fc400
0x0500720c 0x00000004 0x03f46270 0x080fe200
0x02759981 0x000e8004 0x0c1ee900 0x00016200
0x25057810 0x00000480 0x07ffe0ff 0x000fe200
0xff787424 0x7fffffff 0x078e00ff 0x000fe200
0x0700720c 0x00000004 0x03f26270 0x080fe200
0x02768981 0x000f0004 0x0c1ee900 0x00016200
0x25077810 0x000004a0 0x07ffe0ff 0x000fe200
0xff797424 0x7fffffff 0x078e00ff 0x000fe200
0x0500720c 0x00000004 0x03f06270 0x080fe200
0x0277d981 0x000f8004 0x0c1ee900 0x00016200
0x25057810 0x000004c0 0x07ffe0ff 0x000fe200
0xff7a7424 0x7fffffff 0x078e00ff 0x000fe200
0x0700720c 0x00000004 0x03fa6270 0x080fe200
0xff7c7424 0x7fffffff 0x078e00ff 0x000fe200
0x25077810 0x000004e0 0x07ffe0ff 0x000fe200
0x0278c981 0x00100004 0x0c1ee900 0x00016200
0x0500720c 0x00000004 0x03f86270 0x080fe200
0xff7b7424 0x7fffffff 0x078e00ff 0x000fe200
0x25057810 0x00000500 0x07ffe0ff 0x000fe200
0x0279b981 0x00108004 0x0c1ee900 0x00016200
0x0700720c 0x00000004 0x03f66270 0x000fc400
0x25077810 0x00000540 0x07ffe0ff 0x000fe200
0x027aa981 0x00110004 0x0c1ee900 0x00016200
0x0500720c 0x00000004 0x03f46270 0x080fe200
0xff7d7424 0x7fffffff 0x078e00ff 0x000fe200
0x25057810 0x00000520 0x07ffe0ff 0x000fe200
0x027c8981 0x00120004 0x0c1ee900 0x00016200
0x0700720c 0x00000004 0x03f06270 0x080fe200
0xff7e7424 0x7fffffff 0x078e00ff 0x000fe400
0x027b9981 0x00118004 0x0c1ee900 0x00016200
0x0500720c 0x00000004 0x03f26270 0x000fe200
0xff827424 0x7fffffff 0x078e00ff 0x000fe200
0x25057810 0x00000560 0x07ffe0ff 0x040fe200
0x027dd981 0x00128004 0x0c1ee900 0x00016200
0x25077810 0x00000580 0x07ffe0ff 0x000fc400
0x0500720c 0x00000004 0x03fa6270 0x080fe200
0x027ec981 0x00130004 0x0c1ee900 0x00016200
0x25057810 0x000005a0 0x07ffe0ff 0x000fe400
0x0700720c 0x00000004 0x03f86270 0x080fe200
0x02828981 0x00150004 0x0c1ee900 0x00016200
0x0500720c 0x00000004 0x03f06270 0x000fe200
0xff7f7424 0x7fffffff 0x078e00ff 0x000fe400
0xff807424 0x7fffffff 0x078e00ff 0x000fe400
0xff817424 0x7fffffff 0x078e00ff 0x000fc400
0xff837424 0x7fffffff 0x078e00ff 0x000fe400
0xff847424 0x7fffffff 0x078e00ff 0x000fe200
0x027fb981 0x00138004 0x0c1ee900 0x00016200
0xff857424 0x7fffffff 0x078e00ff 0x000fc600
0x0280a981 0x00140004 0x0c1ee900 0x00016800
0x02819981 0x00148004 0x0c1ee900 0x00016800
0x0283d981 0x00158004 0x0c1ee900 0x00016800
0x0284c981 0x00160004 0x0c1ee900 0x00016200
0x00000947 0x00000320 0x03800000 0x000fea00
0x00047ab9 0x00006200 0x00000a00 0x000fe400
0x02857981 0x00168004 0x0c1ee900 0x00036200
0x00007947 0x000002f0 0x03800000 0x000fea00
0x00047ab9 0x00006200 0x00000a00 0x000fe400
0x02577981 0x00000004 0x0c1ee900 0x00016800
0x02587981 0x00008004 0x0c1ee900 0x00016800
0x02597981 0x00010004 0x0c1ee900 0x00016800
0x025a7981 0x00018004 0x0c1ee900 0x00016800
0x025b7981 0x00020004 0x0c1ee900 0x00016800
0x025c7981 0x00028004 0x0c1ee900 0x00016800
0x025d7981 0x00030004 0x0c1ee900 0x00016800
0x025e7981 0x00038004 0x0c1ee900 0x00016800
0x025f7981 0x00040004 0x0c1ee900 0x00016800
0x02607981 0x00048004 0x0c1ee900 0x00016800
0x02617981 0x00050004 0x0c1ee900 0x00016800
0x02627981 0x00058004 0x0c1ee900 0x00016800
0x02637981 0x00060004 0x0c1ee900 0x00016800
0x02647981 0x00068004 0x0c1ee900 0x00016800
0x02657981 0x00070004 0x0c1ee900 0x00016800
0x02677981 0x00078004 0x0c1ee900 0x00016800
0x02687981 0x00080004 0x0c1ee900 0x00016800
0x02697981 0x00088004 0x0c1ee900 0x00016800
0x026a7981 0x00090004 0x0c1ee900 0x00016800
0x026b7981 0x00098004 0x0c1ee900 0x00016800
0x026c7981 0x000a0004 0x0c1ee900 0x00016800
0x026d7981 0x000a8004 0x0c1ee900 0x00016800
0x026e7981 0x000b0004 0x0c1ee900 0x00016800
0x026f7981 0x000b8004 0x0c1ee900 0x00016800
0x02707981 0x000c0004 0x0c1ee900 0x00016800
0x02717981 0x000c8004 0x0c1ee900 0x00016800
0x02727981 0x000d0004 0x0c1ee900 0x00016800
0x02737981 0x000d8004 0x0c1ee900 0x00016800
0x02747981 0x000e0004 0x0c1ee900 0x00016800
0x02757981 0x000e8004 0x0c1ee900 0x00016800
0x02767981 0x000f0004 0x0c1ee900 0x00016800
0x02777981 0x000f8004 0x0c1ee900 0x00016800
0x02787981 0x00100004 0x0c1ee900 0x00016800
0x02797981 0x00108004 0x0c1ee900 0x00016800
0x027a7981 0x00110004 0x0c1ee900 0x00016800
0x027b7981 0x00118004 0x0c1ee900 0x00016800
0x027c7981 0x00120004 0x0c1ee900 0x00016800
0x027d7981 0x00128004 0x0c1ee900 0x00016800
0x027e7981 0x00130004 0x0c1ee900 0x00016800
0x027f7981 0x00138004 0x0c1ee900 0x00016800
0x02807981 0x00140004 0x0c1ee900 0x00016800
0x02817981 0x00148004 0x0c1ee900 0x00016800
0x02827981 0x00150004 0x0c1ee900 0x00016800
0x02837981 0x00158004 0x0c1ee900 0x00016800
0x02847981 0x00160004 0x0c1ee900 0x00016800
0x02857981 0x00168004 0x0c1ee900 0x00016400
0x00007941 0x00000000 0x03800000 0x000fea00
0x004f7919 0x00000000 0x00000000 0x000ea200
0x00ff7355 0x00000000 0x00100000 0x000fe200
0x00007945 0x00000130 0x03800000 0x000fe200
0x574e7810 0x80000000 0x07ffe0ff 0x020fc400
0x4f047817 0x000000e0 0x07800200 0x004fe200
0xff077224 0x000000ff 0x078e004f 0x000fc600
0x4f047810 0x0000001f 0x07ffe104 0x000fc800
0x04057811 0x00000001 0x078fd8ff 0x040fe400
0x0400780c 0x00000060 0x03f26070 0x000fe200
0x66047824 0x00001000 0x078e00ff 0x000fe200
0x05057812 0x00000003 0x0780c0ff 0x000fd800
0x00008947 0x00000090 0x03800000 0x000fea00
0x66067824 0x00000100 0x078e024f 0x100fe400
0xff077224 0x000000ff 0x078e004f 0x000fe400
0x06067824 0x00000010 0x078e00ff 0x000fce00
0x05057810 0xffffffff 0x07ffe0ff 0x000fe200
0x06007388 0x000000ff 0x00000c00 0x0005e200
0x07077810 0x00000020 0x07ffe0ff 0x000fe400
0x0500720c 0x000000ff 0x03f05270 0x000fe400
0x06067810 0x00000200 0x07ffe0ff 0x004fd400
0x00000947 0xffffffa0 0x0383ffff 0x000fea00
0x00007941 0x00000000 0x03800000 0x000fea00
0x00ff7355 0x00000000 0x00100000 0x000fe200
0x00007945 0x000000d0 0x03800000 0x000fe200
0x00009947 0x000000b0 0x03800000 0x000fea00
0x66057824 0x00000100 0x078e0207 0x000fe200
0x07067810 0xffffff80 0x07ffe0ff 0x000fc800
0x05057811 0x00000400 0x078e20ff 0x000fce00
0x06067810 0x00000080 0x07ffe0ff 0x000fe200
0x05007388 0xfffc00ff 0x00000c00 0x000fe600
0x0600780c 0x00000080 0x03f06270 0x000fe200
0x05007388 0xfffe00ff 0x00000c00 0x000fe800
0x05007388 0x000000ff 0x00000c00 0x000fe800
0x05007388 0x000200ff 0x00000c00 0x0005e400
0x05057810 0x00000800 0x07ffe0ff 0x004fe200
0x00008947 0xffffff80 0x0383ffff 0x000fec00
0x00007941 0x00000000 0x03800000 0x000fea00
0x00047882 0xffffffff 0x00000000 0x000fe200
0x58517810 0x80000000 0x07ffe0ff 0x000fe200
0x00057ab9 0x00006a00 0x00000800 0x000fe200
0x59507810 0x80000000 0x07ffe0ff 0x000fe200
0x04047299 0x00000005 0x0800063f 0x000fe200
0x5a537810 0x80000000 0x07ffe0ff 0x000fe200
0xff877424 0x00000001 0x078e00ff 0x000fe200
0xff057211 0x0000004f 0x078f10ff 0x000fe200
0x00007918 0x00000000 0x00000000 0x000fca00
0x5b527810 0x80000000 0x07ffe0ff 0x000fe200
0x66667824 0x00000400 0x078e00ff 0x000fe200
0xff867a19 0x00006900 0x0001164e 0x000fe400
0x5c557810 0x80000000 0x07ffe0ff 0x000fe400
0xff077a19 0x00006900 0x00011651 0x000fe400
0x5d547810 0x80000000 0x07ffe0ff 0x000fe400
0xff087a19 0x00006900 0x00011650 0x000fc400
0x5e4d7810 0x80000000 0x07ffe0ff 0x000fe400
0xff0a7a19 0x00006900 0x00011653 0x000fe400
0x05067812 0x3ffffffc 0x078ec0ff 0x000fe400
0x5f4c7810 0x80000000 0x07ffe0ff 0x000fe400
0xff0c7a19 0x00006900 0x00011652 0x000fe200
0x4f057824 0x00000001 0x078e0a06 0x000fe200
0x86867c12 0x00000004 0x0f8e30ff 0x000fc400
0x604b7810 0x80000000 0x07ffe0ff 0x000fe400
0xff0e7a19 0x00006900 0x00011655 0x000fe200
0x86067824 0x00000010 0x078e0204 0x000fe200
0x07077c12 0x00000004 0x0f8e30ff 0x000fe400
0x614a7810 0x80000000 0x07ffe0ff 0x000fe200
0x05067824 0x00000004 0x078e0206 0x000fe200
0xff107a19 0x00006900 0x00011654 0x000fe400
0x08097c12 0x00000004 0x0f8e30ff 0x000fe200
0x07087824 0x00000010 0x078e0204 0x000fe200
0x62497810 0x80000000 0x07ffe0ff 0x000fc400
0xff127a19 0x00006900 0x0001164d 0x000fe200
0x05087824 0x00000004 0x078e0208 0x000fe200
0x0a0b7c12 0x00000004 0x0f8e30ff 0x000fe200
0x090a7824 0x00000010 0x078e0204 0x000fe200
0x63487810 0x80000000 0x07ffe0ff 0x000fe200
0x06ff738c 0x00000087 0x000000ff 0x000fe200
0xff147a19 0x00006900 0x0001164c 0x000fe200
0x050a7824 0x00000004 0x078e020a 0x000fe200
0x0c0d7c12 0x00000004 0x0f8e30ff 0x000fe200
0x0b0c7824 0x00000010 0x078e0204 0x000fe200
0x64477810 0x80000000 0x07ffe0ff 0x000fe200
0x08ff738c 0x00000087 0x000000ff 0x000fe200
0xff167a19 0x00006900 0x0001164b 0x000fe200
0x050c7824 0x00000004 0x078e020c 0x000fe200
0x0e0f7c12 0x00000004 0x0f8e30ff 0x000fe200
0x0d0e7824 0x00000010 0x078e0204 0x000fe200
0x65467810 0x80000000 0x07ffe0ff 0x000fe200
0x0aff738c 0x00000087 0x000000ff 0x000fe200
0xff187a19 0x00006900 0x0001164a 0x000fe200
0x050e7824 0x00000004 0x078e020e 0x000fe200
0x10117c12 0x00000004 0x0f8e30ff 0x000fe200
0x0f107824 0x00000010 0x078e0204 0x000fe200
0x67457810 0x80000000 0x07ffe0ff 0x000fe200
0x0cff738c 0x00000087 0x000000ff 0x000fe200
0xff1a7a19 0x00006900 0x00011649 0x000fe200
0x05107824 0x00000004 0x078e0210 0x000fe200
0x12137c12 0x00000004 0x0f8e30ff 0x000fe200
0x11127824 0x00000010 0x078e0204 0x000fe200
0x68447810 0x80000000 0x07ffe0ff 0x000fe200
0x0eff738c 0x00000087 0x000000ff 0x000fe200
0xff1c7a19 0x00006900 0x00011648 0x000fe200
0x05127824 0x00000004 0x078e0212 0x000fe200
0x14157c12 0x00000004 0x0f8e30ff 0x000fe200
0x13147824 0x00000010 0x078e0204 0x000fe200
0x69437810 0x80000000 0x07ffe0ff 0x000fe200
0x10ff738c 0x00000087 0x000000ff 0x000fe200
0xff1e7a19 0x00006900 0x00011647 0x000fe200
0x05147824 0x00000004 0x078e0214 0x000fe200
0x16177c12 0x00000004 0x0f8e30ff 0x000fe200
0x15167824 0x00000010 0x078e0204 0x000fe200
0x6a427810 0x80000000 0x07ffe0ff 0x000fe200
0x12ff738c 0x00000087 0x000000ff 0x000fe200
0xff207a19 0x00006900 0x00011646 0x000fe200
0x05167824 0x00000004 0x078e0216 0x000fe200
0x18197c12 0x00000004 0x0f8e30ff 0x000fe200
0x17187824 0x00000010 0x078e0204 0x000fe200
0x6b417810 0x80000000 0x07ffe0ff 0x000fe200
0x14ff738c 0x00000087 0x000000ff 0x000fe200
0xff227a19 0x00006900 0x00011645 0x000fe200
0x05187824 0x00000004 0x078e0218 0x000fe200
0x1a1b7c12 0x00000004 0x0f8e30ff 0x000fe200
0x191a7824 0x00000010 0x078e0204 0x000fe200
0x6c407810 0x80000000 0x07ffe0ff 0x000fe200
0x16ff738c 0x00000087 0x000000ff 0x000fe200
0xff8a7a19 0x00006900 0x00011644 0x000fe200
0x051a7824 0x00000004 0x078e021a 0x000fe200
0x1c1d7c12 0x00000004 0x0f8e30ff 0x000fe200
0x1b1c7824 0x00000010 0x078e0204 0x000fe200
0x6d3f7810 0x80000000 0x07ffe0ff 0x000fe200
0x18ff738c 0x00000087 0x000000ff 0x000fe200
0xff8c7a19 0x00006900 0x00011643 0x000fe200
0x051c7824 0x00000004 0x078e021c 0x000fe200
0x1e1f7c12 0x00000004 0x0f8e30ff 0x000fe200
0x1d1e7824 0x00000010 0x078e0204 0x000fe200
0x6e3e7810 0x80000000 0x07ffe0ff 0x000fe200
0x1aff738c 0x00000087 0x000000ff 0x000fe200
0xff8e7a19 0x00006900 0x00011642 0x000fe200
0x051e7824 0x00000004 0x078e021e 0x000fe200
0x20217c12 0x00000004 0x0f8e30ff 0x000fe200
0x1f207824 0x00000010 0x078e0204 0x000fe200
0x6f3d7810 0x80000000 0x07ffe0ff 0x000fe200
0x1cff738c 0x00000087 0x000000ff 0x000fe200
0xff907a19 0x00006900 0x00011641 0x000fe200
0x05207824 0x00000004 0x078e0220 0x000fe200
0x22237c12 0x00000004 0x0f8e30ff 0x000fe200
0x21227824 0x00000010 0x078e0204 0x000fe200
0x703c7810 0x80000000 0x07ffe0ff 0x000fe200
0x1eff738c 0x00000087 0x000000ff 0x000fe200
0xff927a19 0x00006900 0x00011640 0x000fe200
0x05227824 0x00000004 0x078e0222 0x000fe200
0x8a8b7c12 0x00000004 0x0f8e30ff 0x000fe200
0x238a7824 0x00000010 0x078e0204 0x000fe200
0x713b7810 0x80000000 0x07ffe0ff 0x000fe200
0x20ff738c 0x00000087 0x000000ff 0x000fe200
0xff947a19 0x00006900 0x0001163f 0x000fe200
0x058a7824 0x00000004 0x078e028a 0x000fe200
0x8c8d7c12 0x00000004 0x0f8e30ff 0x000fe200
0x8b8c7824 0x00000010 0x078e0204 0x000fe200
0x723a7810 0x80000000 0x07ffe0ff 0x000fe200
0x22ff738c 0x00000087 0x000000ff 0x000fe200
0xff967a19 0x00006900 0x0001163e 0x000fe200
0x058c7824 0x00000004 0x078e028c 0x000fe200
0x8e8f7c12 0x00000004 0x0f8e30ff 0x000fe200
0x8d8e7824 0x00000010 0x078e0204 0x000fe200
0x73397810 0x80000000 0x07ffe0ff 0x000fe200
0x8aff738c 0x00000087 0x000000ff 0x0005e200
0xff987a19 0x00006900 0x0001163d 0x000fe200
0x058e7824 0x00000004 0x078e028e 0x000fe200
0x90917c12 0x00000004 0x0f8e30ff 0x000fe200
0x8f907824 0x00000010 0x078e0204 0x000fe200
0x74387810 0x80000000 0x07ffe0ff 0x000fe200
0x8cff738c 0x00000087 0x000000ff 0x000fe200
0xff9a7a19 0x00006900 0x0001163c 0x000fe200
0x05907824 0x00000004 0x078e0290 0x000fe200
0x92937c12 0x00000004 0x0f8e30ff 0x000fe200
0x91927824 0x00000010 0x078e0204 0x000fe200
0x75377810 0x80000000 0x07ffe0ff 0x000fe200
0x8eff738c 0x00000087 0x000000ff 0x000fe200
0xff9c7a19 0x00006900 0x0001163b 0x000fe200
0x05927824 0x00000004 0x078e0292 0x000fe200
0x94957c12 0x00000004 0x0f8e30ff 0x000fe200
0x93947824 0x00000010 0x078e0204 0x000fe200
0x76367810 0x80000000 0x07ffe0ff 0x000fe200
0x90ff738c 0x00000087 0x000000ff 0x000fe200
0xff9e7a19 0x00006900 0x0001163a 0x000fe200
0x05947824 0x00000004 0x078e0294 0x000fe200
0x96977c12 0x00000004 0x0f8e30ff 0x000fe200
0x95967824 0x00000010 0x078e0204 0x000fe200
0x77357810 0x80000000 0x07ffe0ff 0x000fe200
0x92ff738c 0x00000087 0x000000ff 0x000fe200
0xffa07a19 0x00006900 0x00011639 0x000fe200
0x05967824 0x00000004 0x078e0296 0x000fe200
0x98997c12 0x00000004 0x0f8e30ff 0x000fe200
0x97987824 0x00000010 0x078e0204 0x000fe200
0x78347810 0x80000000 0x07ffe0ff 0x000fe200
0x94ff738c 0x00000087 0x000000ff 0x000fe200
0xffa27a19 0x00006900 0x00011638 0x000fe200
0x05987824 0x00000004 0x078e0298 0x000fe200
0x9a9b7c12 0x00000004 0x0f8e30ff 0x000fe200
0x999a7824 0x00000010 0x078e0204 0x000fe200
0x79337810 0x80000000 0x07ffe0ff 0x000fe200
0x96ff738c 0x00000087 0x000000ff 0x000fe200
0xffa47a19 0x00006900 0x00011637 0x000fe200
0x059a7824 0x00000004 0x078e029a 0x000fe200
0x9c9d7c12 0x00000004 0x0f8e30ff 0x000fe200
0x9b9c7824 0x00000010 0x078e0204 0x000fe200
0x7a327810 0x80000000 0x07ffe0ff 0x000fe200
0x98ff738c 0x00000087 0x000000ff 0x000fe200
0xffa67a19 0x00006900 0x00011636 0x000fe200
0x059c7824 0x00000004 0x078e029c 0x000fe200
0x9e9f7c12 0x00000004 0x0f8e30ff 0x000fe200
0x9d9e7824 0x00000010 0x078e0204 0x000fe200
0x7b317810 0x80000000 0x07ffe0ff 0x000fe200
0x9aff738c 0x00000087 0x000000ff 0x000fe200
0xffa87a19 0x00006900 0x00011635 0x000fe200
0x059e7824 0x00000004 0x078e029e 0x000fe200
0xa0a17c12 0x00000004 0x0f8e30ff 0x000fe200
0x9fa07824 0x00000010 0x078e0204 0x000fe200
0x7c307810 0x80000000 0x07ffe0ff 0x000fe200
0x9cff738c 0x00000087 0x000000ff 0x000fe200
0xffaa7a19 0x00006900 0x00011634 0x000fe200
0x05a07824 0x00000004 0x078e02a0 0x000fe200
0xa2a37c12 0x00000004 0x0f8e30ff 0x000fe200
0xa1a27824 0x00000010 0x078e0204 0x000fe200
0x7d2f7810 0x80000000 0x07ffe0ff 0x000fe200
0x9eff738c 0x00000087 0x000000ff 0x000fe200
0xffac7a19 0x00006900 0x00011633 0x000fe200
0x05a27824 0x00000004 0x078e02a2 0x000fe200
0xa4a57c12 0x00000004 0x0f8e30ff 0x000fe200
0xa3a47824 0x00000010 0x078e0204 0x000fe200
0x7e2e7810 0x80000000 0x07ffe0ff 0x000fe200
0xa0ff738c 0x00000087 0x000000ff 0x000fe200
0xffae7a19 0x00006900 0x00011632 0x000fe200
0x05a47824 0x00000004 0x078e02a4 0x000fe200
0xa6a77c12 0x00000004 0x0f8e30ff 0x000fe200
0xa5a67824 0x00000010 0x078e0204 0x000fe200
0x7f2d7810 0x80000000 0x07ffe0ff 0x000fe200
0xa2ff738c 0x00000087 0x000000ff 0x000fe200
0xffb07a19 0x00006900 0x00011631 0x000fe200
0x05a67824 0x00000004 0x078e02a6 0x000fe200
0xa8a97c12 0x00000004 0x0f8e30ff 0x000fe200
0xa7a87824 0x00000010 0x078e0204 0x000fe200
0x802c7810 0x80000000 0x07ffe0ff 0x000fe200
0xa4ff738c 0x00000087 0x000000ff 0x000fe200
0xffb27a19 0x00006900 0x00011630 0x000fe200
0x05a87824 0x00000004 0x078e02a8 0x000fe200
0xaaab7c12 0x00000004 0x0f8e30ff 0x000fe200
0xa9aa7824 0x00000010 0x078e0204 0x000fe200
0x812b7810 0x80000000 0x07ffe0ff 0x000fe200
0xa6ff738c 0x00000087 0x000000ff 0x000fe200
0xffb47a19 0x00006900 0x0001162f 0x000fe200
0x05aa7824 0x00000004 0x078e02aa 0x000fe200
0xacad7c12 0x00000004 0x0f8e30ff 0x000fe200
0xabac7824 0x00000010 0x078e0204 0x000fe200
0x822a7810 0x80000000 0x07ffe0ff 0x000fe200
0xa8ff738c 0x00000087 0x000000ff 0x000fe200
0xffb67a19 0x00006900 0x0001162e 0x000fe200
0x05ac7824 0x00000004 0x078e02ac 0x000fe200
0xaeaf7c12 0x00000004 0x0f8e30ff 0x000fe200
0xadae7824 0x00000010 0x078e0204 0x000fe200
0x83297810 0x80000000 0x07ffe0ff 0x000fe200
0xaaff738c 0x00000087 0x000000ff 0x000fe200
0xffb87a19 0x00006900 0x0001162d 0x000fe200
0x05ae7824 0x00000004 0x078e02ae 0x000fe200
0xb0b17c12 0x00000004 0x0f8e30ff 0x000fe200
0xafb07824 0x00000010 0x078e0204 0x000fe200
0x84287810 0x80000000 0x07ffe0ff 0x000fe200
0xacff738c 0x00000087 0x000000ff 0x000fe200
0xffba7a19 0x00006900 0x0001162c 0x000fe200
0x05b07824 0x00000004 0x078e02b0 0x000fe200
0xb2b37c12 0x00000004 0x0f8e30ff 0x000fe200
0xb1b27824 0x00000010 0x078e0204 0x000fe200
0x85267810 0x80000000 0x07ffe0ff 0x000fe200
0xaeff738c 0x00000087 0x000000ff 0x000fe200
0xffbc7a19 0x00006900 0x0001162b 0x000fe200
0x05b27824 0x00000004 0x078e02b2 0x000fe200
0xb4b57c12 0x00000004 0x0f8e30ff 0x000fe200
0xb3b47824 0x00000010 0x078e0204 0x000fe200
0xffbe7a19 0x00006900 0x0001162a 0x000fe200
0xb0ff738c 0x00000087 0x000000ff 0x000fe200
0xb6b77c12 0x00000004 0x0f8e30ff 0x000fe200
0xb5b67824 0x00000010 0x078e0204 0x000fe200
0xffc07a19 0x00006900 0x00011629 0x000fe200
0x05b47824 0x00000004 0x078e02b4 0x000fe200
0xb8b97c12 0x00000004 0x0f8e30ff 0x000fe200
0xb7b87824 0x00000010 0x078e0204 0x000fe200
0xffc27a19 0x00006900 0x00011628 0x000fe200
0x05b67824 0x00000004 0x078e02b6 0x000fe200
0xbabb7c12 0x00000004 0x0f8e30ff 0x000fe200
0xb9ba7824 0x00000010 0x078e0204 0x000fe200
0xffc47a19 0x00006900 0x00011626 0x000fe200
0x05b87824 0x00000004 0x078e02b8 0x000fe200
0xbcbd7c12 0x00000004 0x0f8e30ff 0x000fe200
0xbbbc7824 0x00000010 0x078e0204 0x000fe200
0xbebf7c12 0x00000004 0x0f8e30ff 0x000fe200
0x05ba7824 0x00000004 0x078e02ba 0x000fe200
0xc0c17c12 0x00000004 0x0f8e30ff 0x000fe200
0xbdbe7824 0x00000010 0x078e0204 0x100fe200
0xc2c37c12 0x00000004 0x0f8e30ff 0x000fe200
0xbfc07824 0x00000010 0x078e0204 0x100fe200
0xc4c57c12 0x00000004 0x0f8e30ff 0x000fe200
0xc1c27824 0x00000010 0x078e0204 0x100fe200
0xb2ff738c 0x00000087 0x000000ff 0x000fe200
0xc3c47824 0x00000010 0x078e0204 0x000fc400
0x05bc7824 0x00000004 0x078e02bc 0x000fe200
0xb4ff738c 0x00000087 0x000000ff 0x000fe200
0xc5c67824 0x00000010 0x078e0204 0x000fe400
0x05be7824 0x00000004 0x078e02be 0x040fe200
0xb6ff738c 0x00000087 0x000000ff 0x000fe200
0x05c07824 0x00000004 0x078e02c0 0x040fe400
0x05c27824 0x00000004 0x078e02c2 0x040fe200
0xb8ff738c 0x00000087 0x000000ff 0x000fe200
0x05c47824 0x00000004 0x078e02c4 0x000fc400
0x05c67824 0x00000004 0x078e02c6 0x000fe200
0xbaff738c 0x00000087 0x000000ff 0x000fe200
0x4f8a7824 0x00000010 0x078e0204 0x004fc600
0xbcff738c 0x00000087 0x000000ff 0x000fe800
0xbeff738c 0x00000087 0x000000ff 0x000fe800
0xc0ff738c 0x00000087 0x000000ff 0x000fe800
0xc2ff738c 0x00000087 0x000000ff 0x000fe800
0xc4ff738c 0x00000087 0x000000ff 0x000fe800
0xc6ff738c 0x00000087 0x000000ff 0x000fe200
0x00007918 0x00000000 0x00000000 0x000fca00
0x8a047984 0x00000000 0x00001c00 0x000eb000
0x8a087984 0x00020000 0x00001c00 0x000ef000
0x8a0c7984 0x00040000 0x00001c00 0x000f3000
0x8a107984 0x00060000 0x00001c00 0x000f7000
0x8a147984 0x00080000 0x00001c00 0x000e3000
0x8a187984 0x000a0000 0x00001c00 0x000e6200
0x06047210 0x00000005 0x07ffe004 0x004fe200
0x4f057824 0x00000004 0x078e0266 0x000fc800
0x07047824 0x00000001 0x078e0204 0x000fe400
0x8a1c7984 0x000c0000 0x00001c00 0x000ea200
0x0a087210 0x00000009 0x07ffe008 0x008fca00
0x0b087824 0x00000001 0x078e0208 0x000fe400
0x8a207984 0x000e0000 0x00001c00 0x000ee200
0x0e0c7210 0x0000000d 0x07ffe00c 0x010fca00
0x0f0c7824 0x00000001 0x078e020c 0x000fe200
0x12107210 0x00000011 0x07ffe010 0x020fe200
0x00007b1d 0x00000000 0x00000000 0x000fea00
0x13107824 0x00000001 0x078e0210 0x000fe200
0x05007388 0x00000004 0x00000800 0x000fe200
0x16147210 0x00000015 0x07ffe014 0x001fe200
0xff167424 0x00000004 0x078e00ff 0x000fc400
0x05007388 0x00008008 0x00000800 0x0001e400
0x17147824 0x00000001 0x078e0214 0x000fe400
0x05007388 0x0001000c 0x00000800 0x000fe200
0x1a187210 0x00000019 0x07ffe018 0x002fc600
0x05007388 0x00018010 0x00000800 0x000fe200
0x24087824 0x00000100 0x078e0227 0x001fe400
0x1b187824 0x00000001 0x078e0218 0x000fe200
0x05007388 0x00020014 0x00000800 0x000fe200
0x1e1c7210 0x0000001d 0x07ffe01c 0x004fca00
0x1f1c7824 0x00000001 0x078e021c 0x000fe200
0x05007388 0x00028018 0x00000800 0x000fe200
0x22207210 0x00000021 0x07ffe020 0x008fca00
0x23207824 0x00000001 0x078e0220 0x000fe200
0x05007388 0x0003001c 0x00000800 0x000fee00
0x05007388 0x00038020 0x00000800 0x000fe800
0x00007b1d 0x00000000 0x00000000 0x000fea00
0x270a7984 0x00000000 0x00005800 0x000e2800
0x27077984 0x00040000 0x00005800 0x000e6800
0x27097984 0x00080000 0x00005800 0x000ea800
0x270b7984 0x000c0000 0x00005800 0x000ee800
0x270d7984 0x00100000 0x00005800 0x000f2800
0x270f7984 0x00140000 0x00005800 0x000f6800
0x27117984 0x00180000 0x00005800 0x000f6800
0x27137984 0x001c0000 0x00005800 0x000f6800
0x27007388 0x000000ff 0x00004800 0x000fe800
0x27007388 0x0004000a 0x00004800 0x001fe200
0x0a047824 0x00000001 0x078e0207 0x002fc800
0x040c7824 0x00000001 0x078e0209 0x004fe400
0x08087625 0x00005800 0x078e0216 0x000fe400
0x27007388 0x00080004 0x00004800 0x000fe400
0x0c0e7824 0x00000001 0x078e020b 0x008fe400
0x27007388 0x000c000c 0x00004800 0x000fe400
0x0e107824 0x00000001 0x078e020d 0x010fc800
0x10127824 0x00000001 0x078e020f 0x020fe200
0x27007388 0x0010000e 0x00004800 0x000fe600
0x12147824 0x00000001 0x078e0211 0x000fe200
0x27007388 0x00140010 0x00004800 0x000fe600
0x14067824 0x00000001 0x078e0213 0x000fe200
0x27007388 0x00180012 0x00004800 0x000fe800
0x0600780c 0x00002e00 0x03f05270 0x040fe200
0x27007388 0x001c0014 0x00004800 0x000fe200
0x06057812 0x40000000 0x078efcff 0x000fd000
0x08007386 0x00000005 0x00116900 0x000fe800
0x00007b1d 0x00000000 0x04004800 0x000fea00
0x00ff731c 0x00000000 0x00004000 0x000e2400
0x00008947 0x00002830 0x03800000 0x001fea00
0x27047625 0x00005e00 0x078e0216 0x000fd000
0x04047381 0x00000000 0x001ee900 0x000ea200
0x2700720c 0x00000086 0x03f04070 0x040fe200
0x270a7625 0x00005c00 0x078e0216 0x000fc600
0xff0f7807 0x00002e00 0x04000000 0x000fe200
0xff077224 0x000000ff 0x078e0006 0x000fe200
0x2400780c 0x00000001 0x03f06270 0x000fc600
0x040c7824 0x00000001 0x078e0a0f 0x004fd000
0x27007388 0x00b8000c 0x00004800 0x0001e200
0x00008947 0x00000280 0x03800000 0x000fea00
0x00ff7355 0x00000000 0x00100000 0x000fe200
0x00007945 0x00000260 0x03800000 0x000fe200
0xff0c7424 0xffffffff 0x078e00ff 0x001fe400
0xff0e7224 0x000000ff 0x078e0024 0x000fe400
0xff077224 0x000000ff 0x078e0006 0x000fe400
0x0e047824 0x00000100 0x078e0227 0x000fe200
0x01ff7355 0x00000000 0x00100000 0x000fe200
0xff057424 0x00000004 0x078e00ff 0x000fe200
0x00017945 0x000000d0 0x03800000 0x000fe400
0x04047810 0xffffff00 0x07ffe0ff 0x000fca00
0x04047625 0x00005800 0x078e0205 0x000fc800
0x00007992 0x00000000 0x00000000 0x000fea00
0x040d7381 0x00000000 0x001f6900 0x000ea400
0x0d00720c 0x000000ff 0x03f05270 0x004fd800
0x00000947 0x00000060 0x03800000 0x000fea00
0x000d7806 0x00000000 0x038e0100 0x000fe200
0x00007946 0x00000000 0x03800000 0x000fe200
0x00057886 0x00000000 0x038e0100 0x000fe400
0x0dff7c12 0x00000005 0x0f800cff 0x000fd800
0x00008947 0xffffff71 0x0383ffff 0x000fea00
0x00007947 0xffffffa0 0x0383ffff 0x000fea00
0x00017941 0x00000000 0x03800000 0x000fea00
0x0d047812 0x3fffffff 0x078ec0ff 0x040fe400
0x0d00780c 0xffffffff 0x03f04270 0x000fc600
0x04077824 0x00000001 0x078e0207 0x000fe200
0x00007947 0x000137f2 0x03800000 0x000ff000
0x00057806 0x00000000 0x000e0100 0x000fc800
0x050c7212 0x0000000c 0x078ec0ff 0x000fe400
0x0d00720c 0x000000ff 0x03f06270 0x000fd800
0x00008947 0x00000090 0x03800000 0x000fea00
0x0e00780c 0x00000001 0x03f04270 0x000fd800
0x00008947 0x00000070 0x03800000 0x000fea00
0x0e0e7810 0xffffffff 0x07ffe0ff 0x000fe400
0x00047806 0x00000000 0x038e0100 0x000fe200
0x00007946 0x00000000 0x03800000 0x000fe200
0x00057886 0x00000000 0x038e0100 0x000fe400
0x04ff7c12 0x00000005 0x0f800cff 0x000fd800
0x00008947 0xfffffdf1 0x0383ffff 0x000fea00
0x00007947 0xffffffa0 0x0383ffff 0x000fea00
0x00007941 0x00000000 0x03800000 0x000fea00
0x27047984 0x00b80000 0x00005800 0x000e6200
0x89007a0c 0x00006800 0x03f06270 0x000fe200
0x00007948 0xffffffff 0x03800000 0x000fe800
0xff007a0c 0x00005c00 0x03f22070 0x000fe200
0x00ff7355 0x00000000 0x00100000 0x000fe200
0x070d7812 0x80000000 0x078efcff 0x000fe200
0x00007945 0x00000ca0 0x03800000 0x000fe200
0xff007a0c 0x00005d00 0x04702710 0x000fc400
0x8800720c 0x000000ff 0x03fc5270 0x000fc800
0x08007386 0x0000000d 0x00116900 0x000fe200
0x040e7210 0x00000007 0x07ffe806 0x002fca00
0x0e078210 0x0000000f 0x07ffe006 0x000fc600
0x27007388 0x00b8000e 0x00004800 0x000fea00
0x0a008386 0x00000007 0x0010e900 0x000fe800
0x00007b1d 0x00000000 0x00000000 0x000fea00
0x860c7984 0x00b80000 0x00005800 0x001e2400
0x250c7210 0x0000000c 0x07f1e0ff 0x001fca00
0xff877224 0x000000ff 0x000e0656 0x000fe200
0x0c047a11 0x00006000 0x078010ff 0x000fc800
0x0c057a11 0x00006100 0x000f1487 0x000fe200
0x0000e947 0x000008d0 0x03800000 0x000fee00
0xff077424 0xffffd200 0x078e00ff 0x000fe200
0x25097810 0x00000040 0x07ffe0ff 0x040fe400
0x250b7810 0x00000080 0x07ffe0ff 0x040fe200
0x24067624 0x00006800 0x078e0207 0x000fe200
0x25077810 0x00000020 0x07ffe0ff 0x000fc800
0x2500720c 0x00000006 0x03f06270 0x080fe400
0x0700720c 0x00000006 0x03fa6270 0x080fe400
0x25077810 0x00000060 0x07ffe0ff 0x000fe400
0x0900720c 0x00000006 0x03f86270 0x080fe400
0x0700720c 0x00000006 0x03f66270 0x000fe400
0x25097810 0x000000a0 0x07ffe0ff 0x000fc400
0x25077810 0x000000c0 0x07ffe0ff 0x000fe200
0x04008386 0x00000057 0x0010e900 0x0001e200
0x0b00720c 0x00000006 0x03f46270 0x080fe400
0x0900720c 0x00000006 0x03f26270 0x080fe200
0x0400d386 0x00008058 0x0010e900 0x0001e200
0x0700720c 0x00000006 0x03f06270 0x000fe400
0x25097810 0x000000e0 0x07ffe0ff 0x040fe200
0x0400c386 0x00010059 0x0010e900 0x0001e200
0x25077810 0x00000100 0x07ffe0ff 0x000fc400
0x0900720c 0x00000006 0x03fa6270 0x080fe200
0x0400b386 0x0001805a 0x0010e900 0x0001e200
0x0700720c 0x00000006 0x03f86270 0x080fe400
0x25097810 0x00000120 0x07ffe0ff 0x040fe200
0x0400a386 0x0002005b 0x0010e900 0x0001e200
0x25077810 0x00000140 0x07ffe0ff 0x000fe400
0x0900720c 0x00000006 0x03f66270 0x080fe200
0x04009386 0x0002805c 0x0010e900 0x0001e200
0x0700720c 0x00000006 0x03f46270 0x000fc400
0x25097810 0x00000160 0x07ffe0ff 0x040fe200
0x04008386 0x0003005d 0x0010e900 0x0001e200
0x25077810 0x00000180 0x07ffe0ff 0x000fe400
0x0900720c 0x00000006 0x03f26270 0x080fe200
0x0400d386 0x0003805e 0x0010e900 0x0001e200
0x0700720c 0x00000006 0x03f06270 0x000fe400
0x25097810 0x000001a0 0x07ffe0ff 0x040fe200
0x0400c386 0x0004005f 0x0010e900 0x0001e200
0x25077810 0x000001c0 0x07ffe0ff 0x000fc400
0x0900720c 0x00000006 0x03fa6270 0x080fe200
0x0400b386 0x00048060 0x0010e900 0x0001e200
0x0700720c 0x00000006 0x03f86270 0x080fe400
0x25097810 0x000001e0 0x07ffe0ff 0x040fe200
0x0400a386 0x00050061 0x0010e900 0x0001e200
0x25077810 0x00000200 0x07ffe0ff 0x000fe400
0x0900720c 0x00000006 0x03f66270 0x080fe200
0x04009386 0x00058062 0x0010e900 0x0001e200
0x0700720c 0x00000006 0x03f46270 0x000fc400
0x25097810 0x00000220 0x07ffe0ff 0x040fe200
0x04008386 0x00060063 0x0010e900 0x0001e200
0x25077810 0x00000240 0x07ffe0ff 0x000fe400
0x0900720c 0x00000006 0x03f26270 0x080fe200
0x0400d386 0x00068064 0x0010e900 0x0001e200
0x0700720c 0x00000006 0x03f06270 0x000fe400
0x25097810 0x00000260 0x07ffe0ff 0x040fe200
0x0400c386 0x00070065 0x0010e900 0x0001e200
0x25077810 0x00000280 0x07ffe0ff 0x000fc400
0x0900720c 0x00000006 0x03fa6270 0x080fe200
0x0400b386 0x00078067 0x0010e900 0x0001e200
0x0700720c 0x00000006 0x03f86270 0x080fe400
0x25097810 0x000002a0 0x07ffe0ff 0x040fe200
0x0400a386 0x00080068 0x0010e900 0x0001e200
0x25077810 0x000002c0 0x07ffe0ff 0x000fe400
0x0900720c 0x00000006 0x03f66270 0x080fe200
0x04009386 0x00088069 0x0010e900 0x0001e200
0x0700720c 0x00000006 0x03f46270 0x000fc400
0x25097810 0x000002e0 0x07ffe0ff 0x040fe200
0x04008386 0x0009006a 0x0010e900 0x0001e200
0x25077810 0x00000300 0x07ffe0ff 0x000fe400
0x0900720c 0x00000006 0x03f26270 0x080fe200
0x0400d386 0x0009806b 0x0010e900 0x0001e200
0x0700720c 0x00000006 0x03f06270 0x000fe400
0x25097810 0x00000320 0x07ffe0ff 0x040fe200
0x0400c386 0x000a006c 0x0010e900 0x0001e200
0x25077810 0x00000340 0x07ffe0ff 0x000fc400
0x0900720c 0x00000006 0x03fa6270 0x080fe200
0x0400b386 0x000a806d 0x0010e900 0x0001e200
0x0700720c 0x00000006 0x03f86270 0x080fe400
0x25097810 0x00000360 0x07ffe0ff 0x040fe200
0x0400a386 0x000b006e 0x0010e900 0x0001e200
0x25077810 0x00000380 0x07ffe0ff 0x000fe400
0x0900720c 0x00000006 0x03f66270 0x080fe200
0x04009386 0x000b806f 0x0010e900 0x0001e200
0x0700720c 0x00000006 0x03f46270 0x000fc400
0x25097810 0x000003a0 0x07ffe0ff 0x040fe200
0x04008386 0x000c0070 0x0010e900 0x0001e200
0x25077810 0x000003c0 0x07ffe0ff 0x000fe400
0x0900720c 0x00000006 0x03f26270 0x080fe200
0x0400d386 0x000c8071 0x0010e900 0x0001e200
0x0700720c 0x00000006 0x03f06270 0x000fe400
0x25097810 0x000003e0 0x07ffe0ff 0x040fe200
0x0400c386 0x000d0072 0x0010e900 0x0001e200
0x25077810 0x00000400 0x07ffe0ff 0x000fc400
0x0900720c 0x00000006 0x03fa6270 0x080fe200
0x0400b386 0x000d8073 0x0010e900 0x0001e200
0x0700720c 0x00000006 0x03f86270 0x080fe400
0x25097810 0x00000420 0x07ffe0ff 0x040fe200
0x0400a386 0x000e0074 0x0010e900 0x0001e200
0x25077810 0x00000440 0x07ffe0ff 0x000fe400
0x0900720c 0x00000006 0x03f66270 0x080fe200
0x04009386 0x000e8075 0x0010e900 0x0001e200
0x0700720c 0x00000006 0x03f46270 0x000fc400
0x25097810 0x00000460 0x07ffe0ff 0x040fe200
0x04008386 0x000f0076 0x0010e900 0x0001e200
0x25077810 0x00000480 0x07ffe0ff 0x000fe400
0x0900720c 0x00000006 0x03f26270 0x080fe200
0x0400d386 0x000f8077 0x0010e900 0x0001e200
0x0700720c 0x00000006 0x03f06270 0x000fe400
0x25097810 0x000004a0 0x07ffe0ff 0x040fe200
0x0400c386 0x00100078 0x0010e900 0x0001e200
0x25077810 0x000004c0 0x07ffe0ff 0x000fc400
0x0900720c 0x00000006 0x03fa6270 0x080fe200
0x0400b386 0x00108079 0x0010e900 0x0001e200
0x0700720c 0x00000006 0x03f86270 0x080fe400
0x25097810 0x000004e0 0x07ffe0ff 0x040fe200
0x0400a386 0x0011007a 0x0010e900 0x0001e200
0x25077810 0x00000500 0x07ffe0ff 0x000fe400
0x0900720c 0x00000006 0x03f66270 0x080fe200
0x04009386 0x0011807b 0x0010e900 0x0001e200
0x0700720c 0x00000006 0x03f46270 0x000fc400
0x25097810 0x00000520 0x07ffe0ff 0x040fe200
0x04008386 0x0012007c 0x0010e900 0x0001e200
0x25077810 0x00000540 0x07ffe0ff 0x000fe400
0x0900720c 0x00000006 0x03f26270 0x080fe200
0x0400d386 0x0012807d 0x0010e900 0x0001e200
0x0700720c 0x00000006 0x03f06270 0x000fe400
0x25097810 0x00000560 0x07ffe0ff 0x040fe200
0x0400c386 0x0013007e 0x0010e900 0x0001e200
0x25077810 0x00000580 0x07ffe0ff 0x000fc400
0x0900720c 0x00000006 0x03fa6270 0x080fe200
0x0400b386 0x0013807f 0x0010e900 0x0001e200
0x0700720c 0x00000006 0x03f86270 0x080fe400
0x25077810 0x000005a0 0x07ffe0ff 0x000fe200
0x0400a386 0x00140080 0x0010e900 0x0001e800
0x04009386 0x00148081 0x0010e900 0x0001e800
0x0400d386 0x00158083 0x0010e900 0x0001e800
0x0400c386 0x00160084 0x0010e900 0x0001e800
0x04008386 0x00150082 0x0010e900 0x0001e200
0x0700720c 0x00000006 0x03f06270 0x000fd800
0x00000947 0x00000300 0x03800000 0x000fea00
0x04007386 0x00168085 0x0010e900 0x0011e200
0x00007947 0x000002e0 0x03800000 0x000fea00
0x04007386 0x00000057 0x0010e900 0x0001e800
0x04007386 0x00008058 0x0010e900 0x0001e800
0x04007386 0x00010059 0x0010e900 0x0001e800
0x04007386 0x0001805a 0x0010e900 0x0001e800
0x04007386 0x0002005b 0x0010e900 0x0001e800
0x04007386 0x0002805c 0x0010e900 0x0001e800
0x04007386 0x0003005d 0x0010e900 0x0001e800
0x04007386 0x0003805e 0x0010e900 0x0001e800
0x04007386 0x0004005f 0x0010e900 0x0001e800
0x04007386 0x00048060 0x0010e900 0x0001e800
0x04007386 0x00050061 0x0010e900 0x0001e800
0x04007386 0x00058062 0x0010e900 0x0001e800
0x04007386 0x00060063 0x0010e900 0x0001e800
0x04007386 0x00068064 0x0010e900 0x0001e800
0x04007386 0x00070065 0x0010e900 0x0001e800
0x04007386 0x00078067 0x0010e900 0x0001e800
0x04007386 0x00080068 0x0010e900 0x0001e800
0x04007386 0x00088069 0x0010e900 0x0001e800
0x04007386 0x0009006a 0x0010e900 0x0001e800
0x04007386 0x0009806b 0x0010e900 0x0001e800
0x04007386 0x000a006c 0x0010e900 0x0001e800
0x04007386 0x000a806d 0x0010e900 0x0001e800
0x04007386 0x000b006e 0x0010e900 0x0001e800
0x04007386 0x000b806f 0x0010e900 0x0001e800
0x04007386 0x000c0070 0x0010e900 0x0001e800
0x04007386 0x000c8071 0x0010e900 0x0001e800
0x04007386 0x000d0072 0x0010e900 0x0001e800
0x04007386 0x000d8073 0x0010e900 0x0001e800
0x04007386 0x000e0074 0x0010e900 0x0001e800
0x04007386 0x000e8075 0x0010e900 0x0001e800
0x04007386 0x000f0076 0x0010e900 0x0001e800
0x04007386 0x000f8077 0x0010e900 0x0001e800
0x04007386 0x00100078 0x0010e900 0x0001e800
0x04007386 0x00108079 0x0010e900 0x0001e800
0x04007386 0x0011007a 0x0010e900 0x0001e800
0x04007386 0x0011807b 0x0010e900 0x0001e800
0x04007386 0x0012007c 0x0010e900 0x0001e800
0x04007386 0x0012807d 0x0010e900 0x0001e800
0x04007386 0x0013007e 0x0010e900 0x0001e800
0x04007386 0x0013807f 0x0010e900 0x0001e800
0x04007386 0x00140080 0x0010e900 0x0001e800
0x04007386 0x00148081 0x0010e900 0x0001e800
0x04007386 0x00150082 0x0010e900 0x0001e800
0x04007386 0x00158083 0x0010e900 0x0001e800
0x04007386 0x00160084 0x0010e900 0x0001e800
0x04007386 0x00168085 0x0010e900 0x0001e400
0x00007941 0x00000000 0x03800000 0x001fea00
0x00ff7355 0x00000000 0x00100000 0x000fe200
0x00007945 0x00000bf0 0x03800000 0x000fe200
0x0000e947 0x000008e0 0x03800000 0x000fea00
0x00007a10 0x00006800 0x07ffe1ff 0x000fe200
0x00047ab9 0x00006600 0x00000a00 0x000fe200
0x25617810 0x00000020 0x07ffe0ff 0x000fc400
0x2500720c 0x00000000 0x03f06270 0x0c0fe400
0x25637810 0x00000040 0x07ffe0ff 0x000fe400
0x6100720c 0x00000000 0x03fa6270 0x080fe400
0x25617810 0x00000060 0x07ffe0ff 0x000fe400
0x6300720c 0x00000000 0x03f86270 0x000fe400
0x25657810 0x00000080 0x07ffe0ff 0x000fc400
0x6100720c 0x00000000 0x03f66270 0x080fe200
0x02058981 0x00000004 0x0c1ee900 0x00016200
0x25617810 0x000000c0 0x07ffe0ff 0x000fe400
0x6500720c 0x00000000 0x03f46270 0x080fe200
0x0207d981 0x00008004 0x0c1ee900 0x00016200
0x6100720c 0x00000000 0x03f06270 0x000fe400
0x25617810 0x00000100 0x07ffe0ff 0x040fe200
0x0209c981 0x00010004 0x0c1ee900 0x00016200
0x25677810 0x000000a0 0x07ffe0ff 0x000fc400
0x6100720c 0x00000000 0x03f86270 0x080fe200
0x020bb981 0x00018004 0x0c1ee900 0x00016200
0x25617810 0x00000140 0x07ffe0ff 0x040fe400
0x25637810 0x000000e0 0x07ffe0ff 0x000fe200
0x020da981 0x00020004 0x0c1ee900 0x00016200
0x6700720c 0x00000000 0x03f26270 0x080fe400
0x6100720c 0x00000000 0x03f46270 0x000fe200
0x02118981 0x00030004 0x0c1ee900 0x00016200
0x25617810 0x00000180 0x07ffe0ff 0x000fc400
0x6300720c 0x00000000 0x03fa6270 0x080fe200
0x0215c981 0x00040004 0x0c1ee900 0x00016200
0x25637810 0x00000120 0x07ffe0ff 0x000fe400
0x6100720c 0x00000000 0x03f06270 0x080fe400
0x25617810 0x000001c0 0x07ffe0ff 0x000fe200
0x020f9981 0x00028004 0x0c1ee900 0x00016200
0x6300720c 0x00000000 0x03f66270 0x080fe400
0x25637810 0x00000160 0x07ffe0ff 0x000fe200
0x0219a981 0x00050004 0x0c1ee900 0x00016200
0x6100720c 0x00000000 0x03f86270 0x000fc400
0x25617810 0x00000200 0x07ffe0ff 0x000fe200
0x0213d981 0x00038004 0x0c1ee900 0x00016200
0x6300720c 0x00000000 0x03f26270 0x080fe400
0x25637810 0x000001a0 0x07ffe0ff 0x000fe200
0x021d8981 0x00060004 0x0c1ee900 0x00016200
0x6100720c 0x00000000 0x03f46270 0x080fe400
0x25617810 0x00000240 0x07ffe0ff 0x000fe200
0x0217b981 0x00048004 0x0c1ee900 0x00016200
0x6300720c 0x00000000 0x03fa6270 0x000fc400
0x25637810 0x000001e0 0x07ffe0ff 0x000fe200
0x0221c981 0x00070004 0x0c1ee900 0x00016200
0x6100720c 0x00000000 0x03f06270 0x080fe400
0x25617810 0x00000280 0x07ffe0ff 0x000fe200
0x021b9981 0x00058004 0x0c1ee900 0x00016200
0x6300720c 0x00000000 0x03f66270 0x080fe400
0x25637810 0x00000220 0x07ffe0ff 0x000fe200
0x0227a981 0x00080004 0x0c1ee900 0x00016200
0x6100720c 0x00000000 0x03f86270 0x000fc400
0x25617810 0x000002c0 0x07ffe0ff 0x000fe200
0x021fd981 0x00068004 0x0c1ee900 0x00016200
0x6300720c 0x00000000 0x03f26270 0x080fe400
0x25637810 0x00000260 0x07ffe0ff 0x000fe200
0x022b8981 0x00090004 0x0c1ee900 0x00016200
0x6100720c 0x00000000 0x03f46270 0x080fe400
0x25617810 0x00000300 0x07ffe0ff 0x000fe200
0x0223b981 0x00078004 0x0c1ee900 0x00016200
0x6300720c 0x00000000 0x03fa6270 0x000fc400
0x25637810 0x000002a0 0x07ffe0ff 0x000fe200
0x022fc981 0x000a0004 0x0c1ee900 0x00016200
0x6100720c 0x00000000 0x03f06270 0x080fe400
0x25617810 0x00000340 0x07ffe0ff 0x000fe200
0x02299981 0x00088004 0x0c1ee900 0x00016200
0x6300720c 0x00000000 0x03f66270 0x080fe400
0x25637810 0x000002e0 0x07ffe0ff 0x000fe200
0x0233a981 0x000b0004 0x0c1ee900 0x00016200
0x6100720c 0x00000000 0x03f86270 0x000fc400
0x25617810 0x00000380 0x07ffe0ff 0x000fe200
0x022dd981 0x00098004 0x0c1ee900 0x00016200
0x6300720c 0x00000000 0x03f26270 0x080fe400
0x25637810 0x00000320 0x07ffe0ff 0x000fe200
0x02378981 0x000c0004 0x0c1ee900 0x00016200
0x6100720c 0x00000000 0x03f46270 0x080fe400
0x25617810 0x000003c0 0x07ffe0ff 0x000fe200
0x0231b981 0x000a8004 0x0c1ee900 0x00016200
0x6300720c 0x00000000 0x03fa6270 0x000fc400
0x25637810 0x00000360 0x07ffe0ff 0x000fe200
0x023bc981 0x000d0004 0x0c1ee900 0x00016200
0x6100720c 0x00000000 0x03f06270 0x080fe400
0x25617810 0x00000400 0x07ffe0ff 0x000fe200
0x02359981 0x000b8004 0x0c1ee900 0x00016200
0x6300720c 0x00000000 0x03f66270 0x080fe400
0x25637810 0x000003a0 0x07ffe0ff 0x000fe200
0x023fa981 0x000e0004 0x0c1ee900 0x00016200
0x6100720c 0x00000000 0x03f86270 0x000fc400
0x25617810 0x00000440 0x07ffe0ff 0x000fe200
0x0239d981 0x000c8004 0x0c1ee900 0x00016200
0x6300720c 0x00000000 0x03f26270 0x080fe400
0x25637810 0x000003e0 0x07ffe0ff 0x000fe200
0x02438981 0x000f0004 0x0c1ee900 0x00016200
0x6100720c 0x00000000 0x03f46270 0x080fe400
0x25617810 0x00000480 0x07ffe0ff 0x000fe200
0x023db981 0x000d8004 0x0c1ee900 0x00016200
0x6300720c 0x00000000 0x03fa6270 0x000fc400
0x25637810 0x00000420 0x07ffe0ff 0x000fe200
0x0247c981 0x00100004 0x0c1ee900 0x00016200
0x6100720c 0x00000000 0x03f06270 0x080fe400
0x25617810 0x000004c0 0x07ffe0ff 0x000fe200
0x02419981 0x000e8004 0x0c1ee900 0x00016200
0x6300720c 0x00000000 0x03f66270 0x080fe400
0x25637810 0x00000460 0x07ffe0ff 0x000fe200
0x024ba981 0x00110004 0x0c1ee900 0x00016200
0x6100720c 0x00000000 0x03f86270 0x000fc400
0x25617810 0x00000500 0x07ffe0ff 0x000fe200
0x0245d981 0x000f8004 0x0c1ee900 0x00016200
0x6300720c 0x00000000 0x03f26270 0x080fe400
0x25637810 0x000004a0 0x07ffe0ff 0x000fe200
0x024f8981 0x00120004 0x0c1ee900 0x00016200
0x6100720c 0x00000000 0x03f46270 0x080fe400
0x25617810 0x00000540 0x07ffe0ff 0x000fe200
0x0249b981 0x00108004 0x0c1ee900 0x00016200
0x6300720c 0x00000000 0x03fa6270 0x000fc400
0x25637810 0x000004e0 0x07ffe0ff 0x000fe200
0x0253c981 0x00130004 0x0c1ee900 0x00016200
0x6100720c 0x00000000 0x03f06270 0x080fe400
0x6300720c 0x00000000 0x03f66270 0x080fe200
0x024d9981 0x00118004 0x0c1ee900 0x00016200
0x25637810 0x00000520 0x07ffe0ff 0x040fe400
0x25617810 0x00000580 0x07ffe0ff 0x000fe200
0x0257a981 0x00140004 0x0c1ee900 0x00016200
0x6300720c 0x00000000 0x03f26270 0x000fc400
0x25637810 0x00000560 0x07ffe0ff 0x000fe200
0x0251d981 0x00128004 0x0c1ee900 0x00016200
0x6100720c 0x00000000 0x03f86270 0x080fe400
0x25617810 0x000005a0 0x07ffe0ff 0x000fe200
0x025b8981 0x00150004 0x0c1ee900 0x00016200
0x6300720c 0x00000000 0x03fa6270 0x080fe400
0x6100720c 0x00000000 0x03f06270 0x000fe200
0x0255b981 0x00138004 0x0c1ee900 0x00016800
0x02599981 0x00148004 0x0c1ee900 0x00016800
0x025fc981 0x00160004 0x0c1ee900 0x00016800
0x025dd981 0x00158004 0x0c1ee900 0x00016200
0x00000947 0x00000320 0x03800000 0x000fea00
0x00047ab9 0x00006600 0x00000a00 0x000fe400
0x02617981 0x00168004 0x0c1ee900 0x00036200
0x00007947 0x000002f0 0x03800000 0x000fea00
0x00047ab9 0x00006600 0x00000a00 0x000fe400
0x02057981 0x00000004 0x0c1ee900 0x00016800
0x02077981 0x00008004 0x0c1ee900 0x00016800
0x02097981 0x00010004 0x0c1ee900 0x00016800
0x020b7981 0x00018004 0x0c1ee900 0x00016800
0x020d7981 0x00020004 0x0c1ee900 0x00016800
0x020f7981 0x00028004 0x0c1ee900 0x00016800
0x02117981 0x00030004 0x0c1ee900 0x00016800
0x02137981 0x00038004 0x0c1ee900 0x00016800
0x02157981 0x00040004 0x0c1ee900 0x00016800
0x02177981 0x00048004 0x0c1ee900 0x00016800
0x02197981 0x00050004 0x0c1ee900 0x00016800
0x021b7981 0x00058004 0x0c1ee900 0x00016800
0x021d7981 0x00060004 0x0c1ee900 0x00016800
0x021f7981 0x00068004 0x0c1ee900 0x00016800
0x02217981 0x00070004 0x0c1ee900 0x00016800
0x02237981 0x00078004 0x0c1ee900 0x00016800
0x02277981 0x00080004 0x0c1ee900 0x00016800
0x02297981 0x00088004 0x0c1ee900 0x00016800
0x022b7981 0x00090004 0x0c1ee900 0x00016800
0x022d7981 0x00098004 0x0c1ee900 0x00016800
0x022f7981 0x000a0004 0x0c1ee900 0x00016800
0x02317981 0x000a8004 0x0c1ee900 0x00016800
0x02337981 0x000b0004 0x0c1ee900 0x00016800
0x02357981 0x000b8004 0x0c1ee900 0x00016800
0x02377981 0x000c0004 0x0c1ee900 0x00016800
0x02397981 0x000c8004 0x0c1ee900 0x00016800
0x023b7981 0x000d0004 0x0c1ee900 0x00016800
0x023d7981 0x000d8004 0x0c1ee900 0x00016800
0x023f7981 0x000e0004 0x0c1ee900 0x00016800
0x02417981 0x000e8004 0x0c1ee900 0x00016800
0x02437981 0x000f0004 0x0c1ee900 0x00016800
0x02457981 0x000f8004 0x0c1ee900 0x00016800
0x02477981 0x00100004 0x0c1ee900 0x00016800
0x02497981 0x00108004 0x0c1ee900 0x00016800
0x024b7981 0x00110004 0x0c1ee900 0x00016800
0x024d7981 0x00118004 0x0c1ee900 0x00016800
0x024f7981 0x00120004 0x0c1ee900 0x00016800
0x02517981 0x00128004 0x0c1ee900 0x00016800
0x02537981 0x00130004 0x0c1ee900 0x00016800
0x02557981 0x00138004 0x0c1ee900 0x00016800
0x02577981 0x00140004 0x0c1ee900 0x00016800
0x02597981 0x00148004 0x0c1ee900 0x00016800
0x025b7981 0x00150004 0x0c1ee900 0x00016800
0x025d7981 0x00158004 0x0c1ee900 0x00016800
0x025f7981 0x00160004 0x0c1ee900 0x00016800
0x02617981 0x00168004 0x0c1ee900 0x00016400
0x00007941 0x00000000 0x03800000 0x000fea00
0x0c027a11 0x00006400 0x078010ff 0x003fc800
0x0c037a11 0x00006500 0x000f1487 0x000fe200
0x0000e947 0x000008d0 0x03800000 0x000fee00
0xff637424 0xffffd200 0x078e00ff 0x000fe200
0x25657810 0x00000040 0x07ffe0ff 0x040fe400
0x25677810 0x000000a0 0x07ffe0ff 0x040fe200
0x24247624 0x00006800 0x078e0263 0x000fe200
0x25637810 0x00000020 0x07ffe0ff 0x000fc800
0x2500720c 0x00000024 0x03f46270 0x080fe400
0x6500720c 0x00000024 0x03f86270 0x080fe400
0x25657810 0x00000080 0x07ffe0ff 0x000fe400
0x6300720c 0x00000024 0x03f66270 0x080fe400
0x25637810 0x00000060 0x07ffe0ff 0x000fe400
0x6500720c 0x00000024 0x03fc6270 0x000fc400
0x6700720c 0x00000024 0x03f06270 0x080fe200
0x0200a386 0x00000005 0x0010e900 0x0201e200
0x25657810 0x000000e0 0x07ffe0ff 0x000fe400
0x6300720c 0x00000024 0x03fa6270 0x080fe200
0x0200c386 0x00010009 0x0010e900 0x000fe200
0x25637810 0x000000c0 0x07ffe0ff 0x000fe400
0x6500720c 0x00000024 0x03f46270 0x000fe200
0x0200b386 0x00008007 0x0010e900 0x0003e200
0x25657810 0x00000120 0x07ffe0ff 0x000fc400
0x6300720c 0x00000024 0x03f26270 0x080fe200
0x02008386 0x0002800f 0x0010e900 0x0005e200
0x25637810 0x00000100 0x07ffe0ff 0x040fe400
0x25057810 0x00000180 0x07ffe0ff 0x001fe200
0x0200e386 0x0002000d 0x0010e900 0x0005e200
0x6500720c 0x00000024 0x03f86270 0x080fe400
0x25657810 0x00000160 0x07ffe0ff 0x000fe200
0x0200d386 0x0001800b 0x0010e900 0x0005e200
0x6300720c 0x00000024 0x03f66270 0x000fc400
0x25637810 0x00000140 0x07ffe0ff 0x000fe200
0x0200a386 0x00038013 0x0010e900 0x0005e200
0x0500720c 0x00000024 0x03f06270 0x080fe400
0x25057810 0x000001c0 0x07ffe0ff 0x000fe200
0x02009386 0x00030011 0x0010e900 0x0005e200
0x6500720c 0x00000024 0x03fc6270 0x080fe400
0x25077810 0x000001a0 0x07ffe0ff 0x002fe200
0x0200c386 0x00048017 0x0010e900 0x0005e200
0x6300720c 0x00000024 0x03fa6270 0x000fc400
0x0500720c 0x00000024 0x03f46270 0x080fe200
0x0200b386 0x00040015 0x0010e900 0x0005e200
0x25057810 0x00000200 0x07ffe0ff 0x000fe400
0x0700720c 0x00000024 0x03f26270 0x080fe200
0x02008386 0x0006001d 0x0010e900 0x0005e200
0x25077810 0x000001e0 0x07ffe0ff 0x000fe400
0x0500720c 0x00000024 0x03f86270 0x000fe200
0x0200e386 0x0005801b 0x0010e900 0x0005e200
0x25057810 0x00000240 0x07ffe0ff 0x000fc400
0x0700720c 0x00000024 0x03f66270 0x080fe200
0x0200d386 0x00050019 0x0010e900 0x0005e200
0x25077810 0x00000220 0x07ffe0ff 0x000fe400
0x0500720c 0x00000024 0x03fc6270 0x080fe200
0x02009386 0x0006801f 0x0010e900 0x0005e200
0x25057810 0x00000280 0x07ffe0ff 0x000fe400
0x0700720c 0x00000024 0x03fa6270 0x000fe200
0x0200a386 0x00070021 0x0010e900 0x0005e200
0x25077810 0x00000260 0x07ffe0ff 0x000fc400
0x0500720c 0x00000024 0x03f26270 0x080fe200
0x0200b386 0x00078023 0x0010e900 0x0005e200
0x25057810 0x000002c0 0x07ffe0ff 0x000fe400
0x0700720c 0x00000024 0x03f06270 0x080fe200
0x0200c386 0x00080027 0x0010e900 0x0005e200
0x25077810 0x000002a0 0x07ffe0ff 0x000fe400
0x0500720c 0x00000024 0x03f66270 0x000fe200
0x0200d386 0x00088029 0x0010e900 0x0005e200
0x25057810 0x00000300 0x07ffe0ff 0x000fc400
0x0700720c 0x00000024 0x03f46270 0x080fe200
0x0200e386 0x0009002b 0x0010e900 0x0005e200
0x25077810 0x000002e0 0x07ffe0ff 0x000fe400
0x0500720c 0x00000024 0x03fa6270 0x080fe200
0x02008386 0x0009802d 0x0010e900 0x0005e200
0x25057810 0x00000340 0x07ffe0ff 0x000fe400
0x0700720c 0x00000024 0x03f86270 0x000fe200
0x02009386 0x000a002f 0x0010e900 0x0005e200
0x25077810 0x00000320 0x07ffe0ff 0x000fc400
0x0500720c 0x00000024 0x03f06270 0x080fe200
0x0200a386 0x000a8031 0x0010e900 0x0005e200
0x25057810 0x00000380 0x07ffe0ff 0x000fe400
0x0700720c 0x00000024 0x03fc6270 0x080fe200
0x0200b386 0x000b0033 0x0010e900 0x0005e200
0x25077810 0x00000360 0x07ffe0ff 0x000fe400
0x0500720c 0x00000024 0x03f46270 0x000fe200
0x0200c386 0x000b8035 0x0010e900 0x0005e200
0x25057810 0x000003c0 0x07ffe0ff 0x000fc400
0x0700720c 0x00000024 0x03f26270 0x080fe200
0x0200d386 0x000c0037 0x0010e900 0x0005e200
0x25077810 0x000003a0 0x07ffe0ff 0x000fe400
0x0500720c 0x00000024 0x03f86270 0x080fe200
0x0200e386 0x000c8039 0x0010e900 0x0005e200
0x25057810 0x00000400 0x07ffe0ff 0x000fe400
0x0700720c 0x00000024 0x03f66270 0x000fe200
0x02008386 0x000d003b 0x0010e900 0x0005e200
0x25077810 0x000003e0 0x07ffe0ff 0x000fc400
0x0500720c 0x00000024 0x03fc6270 0x080fe200
0x02009386 0x000d803d 0x0010e900 0x0005e200
0x25057810 0x00000440 0x07ffe0ff 0x000fe400
0x0700720c 0x00000024 0x03fa6270 0x080fe200
0x0200a386 0x000e003f 0x0010e900 0x0005e200
0x25077810 0x00000420 0x07ffe0ff 0x000fe400
0x0500720c 0x00000024 0x03f26270 0x000fe200
0x0200b386 0x000e8041 0x0010e900 0x0005e200
0x25057810 0x00000480 0x07ffe0ff 0x000fc400
0x0700720c 0x00000024 0x03f06270 0x080fe200
0x0200c386 0x000f0043 0x0010e900 0x0005e200
0x25077810 0x00000460 0x07ffe0ff 0x000fe400
0x0500720c 0x00000024 0x03f66270 0x080fe200
0x0200d386 0x000f8045 0x0010e900 0x0005e200
0x25057810 0x000004c0 0x07ffe0ff 0x000fe400
0x0700720c 0x00000024 0x03f46270 0x000fe200
0x0200e386 0x00100047 0x0010e900 0x0005e200
0x25077810 0x000004a0 0x07ffe0ff 0x000fc400
0x0500720c 0x00000024 0x03fa6270 0x080fe200
0x02008386 0x00108049 0x0010e900 0x0005e200
0x25057810 0x00000500 0x07ffe0ff 0x000fe400
0x0700720c 0x00000024 0x03f86270 0x080fe200
0x02009386 0x0011004b 0x0010e900 0x0005e200
0x25077810 0x000004e0 0x07ffe0ff 0x000fe400
0x0500720c 0x00000024 0x03f06270 0x080fe200
0x0200a386 0x0011804d 0x0010e900 0x0005e200
0x0700720c 0x00000024 0x03fc6270 0x000fc400
0x25077810 0x00000520 0x07ffe0ff 0x040fe200
0x0200b386 0x0012004f 0x0010e900 0x0005e200
0x25057810 0x00000540 0x07ffe0ff 0x000fe400
0x0700720c 0x00000024 0x03f26270 0x080fe200
0x0200c386 0x00128051 0x0010e900 0x0005e200
0x0500720c 0x00000024 0x03f46270 0x000fe400
0x25077810 0x00000560 0x07ffe0ff 0x040fe200
0x02008386 0x00140057 0x0010e900 0x0005e200
0x25057810 0x00000580 0x07ffe0ff 0x000fc400
0x25257810 0x000005a0 0x07ffe0ff 0x000fe200
0x0200d386 0x00130053 0x0010e900 0x0005e200
0x0700720c 0x00000024 0x03f66270 0x080fe400
0x0500720c 0x00000024 0x03f86270 0x080fe200
0x0200e386 0x00138055 0x0010e900 0x0005e200
0x2500720c 0x00000024 0x03f06270 0x000fc600
0x02009386 0x00148059 0x0010e900 0x0005e800
0x0200a386 0x0015005b 0x0010e900 0x0005e800
0x0200b386 0x0015805d 0x0010e900 0x0005e800
0x0200c386 0x0016005f 0x0010e900 0x0005e200
0x0000094d 0x00000000 0x03800000 0x000fea00
0x02007386 0x00168061 0x0010e900 0x000fe200
0x0000794d 0x00000000 0x03800000 0x000fea00
0x02007386 0x00000005 0x0010e900 0x020fe800
0x02007386 0x00008007 0x0010e900 0x000fe800
0x02007386 0x00010009 0x0010e900 0x000fe800
0x02007386 0x0001800b 0x0010e900 0x000fe800
0x02007386 0x0002000d 0x0010e900 0x000fe800
0x02007386 0x0002800f 0x0010e900 0x000fe800
0x02007386 0x00030011 0x0010e900 0x000fe800
0x02007386 0x00038013 0x0010e900 0x000fe800
0x02007386 0x00040015 0x0010e900 0x000fe800
0x02007386 0x00048017 0x0010e900 0x000fe800
0x02007386 0x00050019 0x0010e900 0x000fe800
0x02007386 0x0005801b 0x0010e900 0x000fe800
0x02007386 0x0006001d 0x0010e900 0x000fe800
0x02007386 0x0006801f 0x0010e900 0x000fe800
0x02007386 0x00070021 0x0010e900 0x000fe800
0x02007386 0x00078023 0x0010e900 0x000fe800
0x02007386 0x00080027 0x0010e900 0x000fe800
0x02007386 0x00088029 0x0010e900 0x000fe800
0x02007386 0x0009002b 0x0010e900 0x000fe800
0x02007386 0x0009802d 0x0010e900 0x000fe800
0x02007386 0x000a002f 0x0010e900 0x000fe800
0x02007386 0x000a8031 0x0010e900 0x000fe800
0x02007386 0x000b0033 0x0010e900 0x000fe800
0x02007386 0x000b8035 0x0010e900 0x000fe800
0x02007386 0x000c0037 0x0010e900 0x000fe800
0x02007386 0x000c8039 0x0010e900 0x000fe800
0x02007386 0x000d003b 0x0010e900 0x000fe800
0x02007386 0x000d803d 0x0010e900 0x000fe800
0x02007386 0x000e003f 0x0010e900 0x000fe800
0x02007386 0x000e8041 0x0010e900 0x000fe800
0x02007386 0x000f0043 0x0010e900 0x000fe800
0x02007386 0x000f8045 0x0010e900 0x000fe800
0x02007386 0x00100047 0x0010e900 0x000fe800
0x02007386 0x00108049 0x0010e900 0x000fe800
0x02007386 0x0011004b 0x0010e900 0x000fe800
0x02007386 0x0011804d 0x0010e900 0x000fe800
0x02007386 0x0012004f 0x0010e900 0x000fe800
0x02007386 0x00128051 0x0010e900 0x000fe800
0x02007386 0x00130053 0x0010e900 0x000fe800
0x02007386 0x00138055 0x0010e900 0x000fe800
0x02007386 0x00140057 0x0010e900 0x000fe800
0x02007386 0x00148059 0x0010e900 0x000fe800
0x02007386 0x0015005b 0x0010e900 0x000fe800
0x02007386 0x0015805d 0x0010e900 0x000fe800
0x02007386 0x0016005f 0x0010e900 0x000fe800
0x02007386 0x00168061 0x0010e900 0x000fe200
0x0000794d 0x00000000 0x03800000 0x000fea00
0x00007947 0x00011252 0x03800000 0x000fea00
0x06057989 0x04200000 0x000000ff 0x000e2400
0x06050824 0x00000001 0x078e0205 0x001fd000
0x05047989 0x04400000 0x000000ff 0x000e2400
0x05040824 0x00000001 0x078e0204 0x001fd000
0x04077989 0x04800000 0x000000ff 0x000e2400
0x04070824 0x00000001 0x078e0207 0x001fd000
0x07087989 0x05000000 0x000000ff 0x000e2400
0x07080824 0x00000001 0x078e0208 0x001fd000
0x08097989 0x06000000 0x000000ff 0x00006400
0x4f00780c 0x0000001f 0x03f25270 0x000fe200
0xff057224 0x000000ff 0x078e0009 0x002fe200
0xff077819 0x00000005 0x00011627 0x000fe200
0x00007948 0xffffffff 0x03800000 0x000fe800
0x05050824 0x00000001 0x078e0208 0x000fe200
0x0700780c 0x00000002 0x03f05270 0x000fe400
0x4f00720c 0x000000ff 0x03f45270 0x000fc400
0x07049824 0x00000004 0x078e00ff 0x000fd000
0x04009388 0x00840005 0x00000800 0x000fe800
0x00007b1d 0x00000000 0x00000000 0x000fea00
0xff0c7984 0x00840000 0x00001c00 0x000e6200
0x0700780c 0x00000007 0x03f25270 0x000fe200
0x05047824 0x00000001 0x078e0a06 0x000fca00
0x04577207 0x000000ff 0x01000000 0x000fe200
0xff087984 0x00841000 0x00001c00 0x001e2200
0xff047a19 0x00006900 0x0001164e 0x000fce00
0x27107984 0x00040000 0x00005800 0x000ea800
0x27127984 0x00080000 0x00005800 0x000ee800
0x27147984 0x000c0000 0x00005800 0x000fe800
0x27167984 0x00100000 0x00005800 0x000fe800
0x27187984 0x00140000 0x00005800 0x000fe800
0x271a7984 0x00180000 0x00005800 0x000fe200
0x0c0d7824 0x00000001 0x078e020d 0x002fc600
0x271c7984 0x001c0000 0x00005800 0x000fe200
0x0d0e7824 0x00000001 0x078e020e 0x040fe200
0x0d0c7207 0x0000000c 0x04000000 0x000fe400
0x0700780c 0x00000003 0x03f05270 0x000fe200
0x0f0f7824 0x00000001 0x078e020e 0x000fe200
0x040b7c12 0x00000004 0x0f8e30ff 0x001fe400
0x0e0c7207 0x0000000c 0x04000000 0x000fe200
0x0f087824 0x00000001 0x078e0208 0x000fe200
0x270e7984 0x00000000 0x00005800 0x000e2200
0x0700780c 0x00000004 0x03f05270 0x000fc400
0x08097824 0x00000001 0x078e0209 0x000fe400
0x0f0c7207 0x0000000c 0x04000000 0x000fe400
0x0700780c 0x00000005 0x03f05270 0x000fc800
0x080c7207 0x0000000c 0x04000000 0x000fe400
0x0700780c 0x00000006 0x03f05270 0x000fc800
0x090c7207 0x0000000c 0x04000000 0x000fe400
0x0700720c 0x000000ff 0x03f05270 0x000fc600
0x090c9824 0x00000001 0x078e020a 0x000fe200
0x0bff7812 0x00000001 0x0782c0ff 0x000fe200
0xff0a7224 0x000000ff 0x078e00ff 0x000fc600
0x0c0c7207 0x000000ff 0x00000000 0x000fca00
0x0c577824 0x00000001 0x078e0257 0x000fc800
0x57107824 0x00000001 0x078e0210 0x044fe400
0x57127824 0x00000001 0x078e0212 0x048fe400
0x570e7824 0x00000001 0x078e020e 0x041fe400
0x57147824 0x00000001 0x078e0214 0x040fe400
0x57167824 0x00000001 0x078e0216 0x040fe200
0x27007388 0x00040010 0x00004800 0x000fe200
0x57187824 0x00000001 0x078e0218 0x000fc400
0x571a7824 0x00000001 0x078e021a 0x040fe200
0x27007388 0x0000000e 0x00004800 0x000fe200
0x571c7824 0x00000001 0x078e021c 0x000fc600
0x27007388 0x00080012 0x00004800 0x000fe800
0x27007388 0x000c0014 0x00004800 0x000fe800
0x27007388 0x00100016 0x00004800 0x000fe800
0x27007388 0x00140018 0x00004800 0x000fe800
0x27007388 0x0018001a 0x00004800 0x000fe800
0x27007388 0x001c001c 0x00004800 0x000fe800
0x00007b1d 0x00000000 0x00000000 0x000fea00
0x00007947 0x00011052 0x03800000 0x000fea00
0x00047806 0x00000000 0x008e0100 0x000fc800
0xff049212 0x00000004 0x078e33ff 0x000fe400
0x0b007804 0x0000007e 0x00000000 0x000fd800
0x00057806 0x00000000 0x008e0100 0x000fe400
0x00077806 0x00000000 0x010e0100 0x000fe400
0xff059212 0x00000005 0x078e33ff 0x000fe400
0x00097806 0x00000000 0x018e0100 0x000fe400
0xff07a212 0x00000007 0x078e33ff 0x000fe400
0x05047212 0x00000004 0x078ec0ff 0x000fc400
0x00057806 0x00000000 0x020e0100 0x000fe400
0xff09b212 0x00000009 0x078e33ff 0x000fe400
0x07047212 0x00000004 0x078ec0ff 0x000fe400
0xff05c212 0x00000005 0x078e33ff 0x000fe400
0x09047212 0x00000004 0x078ec0ff 0x000fe400
0x0bff7812 0x00000080 0x0782c0ff 0x000fc400
0x00077806 0x00000000 0x028e0100 0x000fe400
0x05047212 0x00000004 0x078ec0ff 0x000fe400
0x00057806 0x00000000 0x030e0100 0x000fe400
0xff07d212 0x00000007 0x078e33ff 0x000fe400
0xff05e212 0x00000005 0x078e33ff 0x000fe400
0x07047212 0x00000004 0x078ec0ff 0x000fc400
0x00087806 0x00000000 0x008e0100 0x000fe400
0x05077212 0x00000004 0x078ec0ff 0x000fe400
0x000d7919 0x00000000 0x00003a00 0x000e2200
0xff089212 0x00000008 0x078e33ff 0x000fe200
0x00ff7355 0x00000000 0x00100000 0x000fe200
0xff057a19 0x00006900 0x00011651 0x000fe200
0x00007945 0x000000b0 0x03800000 0x000fe200
0x08047212 0x00000007 0x078ec0ff 0x000fe200
0xff087224 0x000000ff 0x078e00ff 0x000fe200
0x05117c12 0x00000004 0x0f8e30ff 0x000fc800
0x000c7300 0x00000004 0x000e0000 0x000e6200
0x0d077212 0x00000004 0x078ec0ff 0x001fe400
0x4f00720c 0x0000000c 0x03f05270 0x002fca00
0x00077309 0x00000007 0x00000000 0x000e2e00
0x00000947 0x00000020 0x03800000 0x000fea00
0x0b087824 0x00000004 0x078e0266 0x000fd000
0x0808738c 0x00000007 0x000000ff 0x00106400
0x00007941 0x00000000 0x03800000 0x000fea00
0x11007804 0x0000007f 0x00000000 0x000fe200
0x00ff7355 0x00000000 0x00100000 0x000fe200
0x08087589 0x00001f0c 0x000e0000 0x0022a200
0x00007945 0x00000220 0x03800000 0x000ff200
0x00047806 0x00000000 0x000e0100 0x000fc400
0x00057806 0x00000000 0x008e0100 0x000fe400
0xff048212 0x00000004 0x078e33ff 0x000fe400
0x00097806 0x00000000 0x010e0100 0x000fe400
0xff059212 0x00000005 0x078e33ff 0x000fe400
0xff09a212 0x00000009 0x078e33ff 0x000fe400
0x05047212 0x00000004 0x078ec0ff 0x000fc400
0x00057806 0x00000000 0x018e0100 0x000fe400
0x09047212 0x00000004 0x078ec0ff 0x000fe400
0x00097806 0x00000000 0x020e0100 0x000fe400
0xff05b212 0x00000005 0x078e33ff 0x000fe400
0x11ff7812 0x00000080 0x0780c0ff 0x000fe400
0xff09c212 0x00000009 0x078e33ff 0x000fc400
0x05047212 0x00000004 0x078ec0ff 0x000fe400
0x00057806 0x00000000 0x028e0100 0x000fe400
0x09047212 0x00000004 0x078ec0ff 0x000fe400
0x00097806 0x00000000 0x030e0100 0x000fe400
0xff05d212 0x00000005 0x078e33ff 0x000fe400
0x000b7806 0x00000000 0x000e0100 0x000fc400
0xff09e212 0x00000009 0x078e33ff 0x000fe400
0x05047212 0x00000004 0x078ec0ff 0x000fe400
0xff0b8212 0x0000000b 0x078e33ff 0x000fe400
0x09047212 0x00000004 0x078ec0ff 0x000fe400
0xff057a19 0x00006900 0x00011650 0x000fe400
0x0b047212 0x00000004 0x078ec0ff 0x000fc400
0x05137c12 0x00000004 0x0f8e30ff 0x000fe400
0x0d097212 0x00000004 0x078ec0ff 0x000fe400
0x000f7300 0x00000004 0x000e0000 0x000ef000
0x00097309 0x00000009 0x00000000 0x000f2200
0x4f00720c 0x0000000f 0x03f05270 0x008fd800
0x00000947 0x00000020 0x03800000 0x000fea00
0x110a7824 0x00000004 0x078e0266 0x016fd000
0x0a0a738c 0x00000009 0x000000ff 0x0002a400
0x00007941 0x00000000 0x03800000 0x016fea00
0x13007804 0x0000007f 0x00000000 0x000fe200
0x00ff7355 0x00000000 0x00100000 0x000fe200
0x0a0a7589 0x00001f0f 0x000e0000 0x0002a200
0x00007945 0x00000250 0x03800000 0x000fe200
0xff0e7224 0x000000ff 0x078e00ff 0x000fe400
0xff0c7224 0x000000ff 0x078e00ff 0x000fcc00
0x00047806 0x00000000 0x000e0100 0x000fe400
0x00057806 0x00000000 0x008e0100 0x000fe400
0xff048212 0x00000004 0x078e33ff 0x000fe400
0x000b7806 0x00000000 0x010e0100 0x000fe400
0xff059212 0x00000005 0x078e33ff 0x000fe400
0xff0ba212 0x0000000b 0x078e33ff 0x000fc400
0x05047212 0x00000004 0x078ec0ff 0x000fe400
0x00057806 0x00000000 0x018e0100 0x000fe400
0x0b047212 0x00000004 0x078ec0ff 0x000fe400
0x000b7806 0x00000000 0x020e0100 0x000fe400
0xff05b212 0x00000005 0x078e33ff 0x000fe400
0xff0bc212 0x0000000b 0x078e33ff 0x000fc400
0x05047212 0x00000004 0x078ec0ff 0x000fe400
0x13ff7812 0x00000080 0x0780c0ff 0x000fe400
0x00057806 0x00000000 0x028e0100 0x000fe400
0x0b047212 0x00000004 0x078ec0ff 0x000fe400
0x000b7806 0x00000000 0x030e0100 0x000fe400
0xff05d212 0x00000005 0x078e33ff 0x000fc400
0xff0be212 0x0000000b 0x078e33ff 0x000fe400
0x05047212 0x00000004 0x078ec0ff 0x000fe400
0x000d7806 0x00000000 0x000e0100 0x000fe400
0x0b047212 0x00000004 0x078ec0ff 0x000fe400
0x000b7919 0x00000000 0x00003a00 0x000ee200
0xff0d8212 0x0000000d 0x078e33ff 0x000fe400
0xff057a19 0x00006900 0x00011653 0x000fc400
0x0d047212 0x00000004 0x078ec0ff 0x000fe400
0x05117c12 0x00000004 0x0f8e30ff 0x000fc800
0x00107300 0x00000004 0x000e0000 0x000f2200
0x0b0b7212 0x00000004 0x078ec0ff 0x008fe400
0x4f00720c 0x00000010 0x03f05270 0x010fca00
0x000b7309 0x0000000b 0x00000000 0x000eee00
0x00000947 0x00000020 0x03800000 0x000fea00
0x130c7824 0x00000004 0x078e0266 0x006fd000
0x0c0c738c 0x0000000b 0x000000ff 0x0082a400
0x00007941 0x00000000 0x03800000 0x006fea00
0x11007804 0x0000007f 0x00000000 0x000fe200
0x00ff7355 0x00000000 0x00100000 0x000fe200
0x0c0c7589 0x00001f10 0x000e0000 0x0002a200
0x00007945 0x00000230 0x03800000 0x000ff200
0x00047806 0x00000000 0x000e0100 0x000fc400
0x00057806 0x00000000 0x008e0100 0x000fe400
0xff048212 0x00000004 0x078e33ff 0x000fe400
0x000d7806 0x00000000 0x010e0100 0x000fe400
0xff059212 0x00000005 0x078e33ff 0x000fe400
0xff0da212 0x0000000d 0x078e33ff 0x000fe400
0x05047212 0x00000004 0x078ec0ff 0x000fc400
0x00057806 0x00000000 0x018e0100 0x000fe400
0x0d047212 0x00000004 0x078ec0ff 0x000fe400
0x000d7806 0x00000000 0x020e0100 0x000fe400
0xff05b212 0x00000005 0x078e33ff 0x000fe400
0xff0dc212 0x0000000d 0x078e33ff 0x000fe400
0x05047212 0x00000004 0x078ec0ff 0x000fc400
0x11ff7812 0x00000080 0x0780c0ff 0x000fe400
0x00057806 0x00000000 0x028e0100 0x000fe400
0x0d047212 0x00000004 0x078ec0ff 0x000fe400
0x000d7806 0x00000000 0x030e0100 0x000fe400
0xff05d212 0x00000005 0x078e33ff 0x000fe400
0xff0de212 0x0000000d 0x078e33ff 0x000fc400
0x05047212 0x00000004 0x078ec0ff 0x000fe400
0x000f7806 0x00000000 0x000e0100 0x000fe400
0x0d047212 0x00000004 0x078ec0ff 0x000fe400
0x000d7919 0x00000000 0x00003a00 0x000f2200
0xff0f8212 0x0000000f 0x078e33ff 0x000fe400
0xff057a19 0x00006900 0x00011652 0x000fe400
0x0f047212 0x00000004 0x078ec0ff 0x000fc400
0x05157c12 0x00000004 0x0f8e30ff 0x000fc800
0x00147300 0x00000004 0x000e0000 0x000f6200
0x0d0d7212 0x00000004 0x078ec0ff 0x010fe400
0x4f00720c 0x00000014 0x03f05270 0x020fca00
0x000d7309 0x0000000d 0x00000000 0x000f2e00
0x00000947 0x00000020 0x03800000 0x000fea00
0x110e7824 0x00000004 0x078e0266 0x006fd000
0x0e0e738c 0x0000000d 0x000000ff 0x0102a400
0x00007941 0x00000000 0x03800000 0x006fea00
0x15007804 0x0000007f 0x00000000 0x000fe200
0x00ff7355 0x00000000 0x00100000 0x000fe200
0x0e0e7589 0x00001f14 0x000e0000 0x0002a200
0x00007945 0x00000240 0x03800000 0x000fe200
0x00127805 0x00000000 0x0001ff00 0x000fd000
0x00047806 0x00000000 0x000e0100 0x000fe400
0x00057806 0x00000000 0x008e0100 0x000fe400
0xff048212 0x00000004 0x078e33ff 0x000fe400
0x000f7806 0x00000000 0x010e0100 0x000fe400
0xff059212 0x00000005 0x078e33ff 0x000fe400
0xff0fa212 0x0000000f 0x078e33ff 0x000fc400
0x05047212 0x00000004 0x078ec0ff 0x000fe400
0x00057806 0x00000000 0x018e0100 0x000fe400
0x0f047212 0x00000004 0x078ec0ff 0x000fe400
0x000f7806 0x00000000 0x020e0100 0x000fe400
0xff05b212 0x00000005 0x078e33ff 0x000fe400
0xff0fc212 0x0000000f 0x078e33ff 0x000fc400
0x05047212 0x00000004 0x078ec0ff 0x000fe400
0x15ff7812 0x00000080 0x0780c0ff 0x000fe400
0x00057806 0x00000000 0x028e0100 0x000fe400
0x0f047212 0x00000004 0x078ec0ff 0x000fe400
0x000f7806 0x00000000 0x030e0100 0x000fe400
0xff05d212 0x00000005 0x078e33ff 0x000fc400
0xff0fe212 0x0000000f 0x078e33ff 0x000fe400
0x05047212 0x00000004 0x078ec0ff 0x000fe400
0x00117806 0x00000000 0x000e0100 0x000fe400
0x0f047212 0x00000004 0x078ec0ff 0x000fe400
0x000f7919 0x00000000 0x00003a00 0x000f6200
0xff118212 0x00000011 0x078e33ff 0x000fe400
0xff057a19 0x00006900 0x00011655 0x000fc400
0x11047212 0x00000004 0x078ec0ff 0x000fe400
0x05177c12 0x00000004 0x0f8e30ff 0x000fc800
0x00167300 0x00000004 0x000e0000 0x000f2200
0x0f0f7212 0x00000004 0x078ec0ff 0x020fe400
0x4f00720c 0x00000016 0x03f05270 0x010fca00
0x000f7309 0x0000000f 0x00000000 0x000f2e00
0x00000947 0x00000020 0x03800000 0x000fea00
0x15127824 0x00000004 0x078e0266 0x006fd000
0x1212738c 0x0000000f 0x000000ff 0x0102a400
0x00007941 0x00000000 0x03800000 0x006fea00
0x17007804 0x0000007f 0x00000000 0x000fe200
0x00ff7355 0x00000000 0x00100000 0x000fe200
0x12127589 0x00001f16 0x000e0000 0x0002a200
0x00007945 0x00000230 0x03800000 0x000ff200
0x00047806 0x00000000 0x000e0100 0x000fc400
0x00057806 0x00000000 0x008e0100 0x000fe400
0xff048212 0x00000004 0x078e33ff 0x000fe400
0xff059212 0x00000005 0x078e33ff 0x000fe400
0x00117806 0x00000000 0x010e0100 0x000fe400
0x05047212 0x00000004 0x078ec0ff 0x000fe400
0xff11a212 0x00000011 0x078e33ff 0x000fc400
0x00057806 0x00000000 0x018e0100 0x000fe400
0x11047212 0x00000004 0x078ec0ff 0x000fe400
0xff05b212 0x00000005 0x078e33ff 0x000fe400
0x00117806 0x00000000 0x020e0100 0x000fe400
0x17ff7812 0x00000080 0x0780c0ff 0x000fe400
0x05047212 0x00000004 0x078ec0ff 0x000fc400
0x00057806 0x00000000 0x028e0100 0x000fe400
0xff11c212 0x00000011 0x078e33ff 0x000fe400
0xff05d212 0x00000005 0x078e33ff 0x000fe400
0x11047212 0x00000004 0x078ec0ff 0x000fe400
0x00117806 0x00000000 0x030e0100 0x000fe400
0x00157806 0x00000000 0x000e0100 0x000fc400
0xff11e212 0x00000011 0x078e33ff 0x000fe400
0x05047212 0x00000004 0x078ec0ff 0x000fe400
0x00057919 0x00000000 0x00003a00 0x000f6200
0xff158212 0x00000015 0x078e33ff 0x000fe400
0x11047212 0x00000004 0x078ec0ff 0x000fe400
0xff117a19 0x00006900 0x00011654 0x000fe400
0x15047212 0x00000004 0x078ec0ff 0x000fc400
0x111b7c12 0x00000004 0x0f8e30ff 0x000fc800
0x00187300 0x00000004 0x000e0000 0x000f2200
0x05107212 0x00000004 0x078ec0ff 0x020fe400
0x4f00720c 0x00000018 0x03f05270 0x010fca00
0x00107309 0x00000010 0x00000000 0x000f2e00
0x00000947 0x00000020 0x03800000 0x000fea00
0x17137824 0x00000004 0x078e0266 0x006fd000
0x1313738c 0x00000010 0x000000ff 0x0102a400
0x00007941 0x00000000 0x03800000 0x006fea00
0x1b007804 0x0000007f 0x00000000 0x000fe200
0x00ff7355 0x00000000 0x00100000 0x000fe200
0x13137589 0x00001f18 0x000e0000 0x0002a200
0x00007945 0x00000250 0x03800000 0x000fe200
0xff167224 0x000000ff 0x078e00ff 0x000fe400
0xff147224 0x000000ff 0x078e00ff 0x000fcc00
0x00047806 0x00000000 0x000e0100 0x000fe400
0x00057806 0x00000000 0x008e0100 0x000fe400
0xff048212 0x00000004 0x078e33ff 0x000fe400
0x00117806 0x00000000 0x010e0100 0x000fe400
0xff059212 0x00000005 0x078e33ff 0x000fe400
0xff11a212 0x00000011 0x078e33ff 0x000fc400
0x05047212 0x00000004 0x078ec0ff 0x000fe400
0x00057806 0x00000000 0x018e0100 0x000fe400
0x11047212 0x00000004 0x078ec0ff 0x000fe400
0x00117806 0x00000000 0x020e0100 0x000fe400
0xff05b212 0x00000005 0x078e33ff 0x000fe400
0xff11c212 0x00000011 0x078e33ff 0x000fc400
0x05047212 0x00000004 0x078ec0ff 0x000fe400
0x1bff7812 0x00000080 0x0780c0ff 0x000fe400
0x00057806 0x00000000 0x028e0100 0x000fe400
0x11047212 0x00000004 0x078ec0ff 0x000fe400
0x00117806 0x00000000 0x030e0100 0x000fe400
0xff05d212 0x00000005 0x078e33ff 0x000fc400
0xff11e212 0x00000011 0x078e33ff 0x000fe400
0x05047212 0x00000004 0x078ec0ff 0x000fe400
0x00157806 0x00000000 0x000e0100 0x000fe400
0x11047212 0x00000004 0x078ec0ff 0x000fe400
0x00117919 0x00000000 0x00003a00 0x000f6200
0xff158212 0x00000015 0x078e33ff 0x000fe400
0xff057a19 0x00006900 0x0001164d 0x000fc400
0x15047212 0x00000004 0x078ec0ff 0x000fe400
0x051d7c12 0x00000004 0x0f8e30ff 0x000fc800
0x00197300 0x00000004 0x000e0000 0x000f2200
0x11117212 0x00000004 0x078ec0ff 0x020fe400
0x4f00720c 0x00000019 0x03f05270 0x010fca00
0x00117309 0x00000011 0x00000000 0x000f2e00
0x00000947 0x00000020 0x03800000 0x000fea00
0x1b147824 0x00000004 0x078e0266 0x006fd000
0x1414738c 0x00000011 0x000000ff 0x0102a400
0x00007941 0x00000000 0x03800000 0x006fea00
0x1d007804 0x0000007f 0x00000000 0x000fe200
0x00ff7355 0x00000000 0x00100000 0x000fe200
0x14147589 0x00001f19 0x000e0000 0x0002a200
0x00007945 0x00000230 0x03800000 0x000ff200
0x00047806 0x00000000 0x000e0100 0x000fc400
0x00057806 0x00000000 0x008e0100 0x000fe400
0xff048212 0x00000004 0x078e33ff 0x000fe400
0x00157806 0x00000000 0x010e0100 0x000fe400
0xff059212 0x00000005 0x078e33ff 0x000fe400
0xff15a212 0x00000015 0x078e33ff 0x000fe400
0x05047212 0x00000004 0x078ec0ff 0x000fc400
0x00057806 0x00000000 0x018e0100 0x000fe400
0x15047212 0x00000004 0x078ec0ff 0x000fe400
0x00157806 0x00000000 0x020e0100 0x000fe400
0xff05b212 0x00000005 0x078e33ff 0x000fe400
0xff15c212 0x00000015 0x078e33ff 0x000fe400
0x05047212 0x00000004 0x078ec0ff 0x000fc400
0x1dff7812 0x00000080 0x0780c0ff 0x000fe400
0x00057806 0x00000000 0x028e0100 0x000fe400
0x15047212 0x00000004 0x078ec0ff 0x000fe400
0x00157806 0x00000000 0x030e0100 0x000fe400
0xff05d212 0x00000005 0x078e33ff 0x000fe400
0xff15e212 0x00000015 0x078e33ff 0x000fc400
0x05047212 0x00000004 0x078ec0ff 0x000fe400
0x00177806 0x00000000 0x000e0100 0x000fe400
0x15047212 0x00000004 0x078ec0ff 0x000fe400
0x00157919 0x00000000 0x00003a00 0x000f6200
0xff178212 0x00000017 0x078e33ff 0x000fe400
0xff057a19 0x00006900 0x0001164c 0x000fe400
0x17047212 0x00000004 0x078ec0ff 0x000fc400
0x051f7c12 0x00000004 0x0f8e30ff 0x000fc800
0x001b7300 0x00000004 0x000e0000 0x000f2200
0x15157212 0x00000004 0x078ec0ff 0x020fe400
0x4f00720c 0x0000001b 0x03f05270 0x010fca00
0x00157309 0x00000015 0x00000000 0x000f2e00
0x00000947 0x00000020 0x03800000 0x000fea00
0x1d167824 0x00000004 0x078e0266 0x006fd000
0x1616738c 0x00000015 0x000000ff 0x0102a400
0x00007941 0x00000000 0x03800000 0x006fea00
0x1f007804 0x0000007f 0x00000000 0x000fe200
0x00ff7355 0x00000000 0x00100000 0x000fe200
0x16167589 0x00001f1b 0x000e0000 0x0002a200
0x00007945 0x00000250 0x03800000 0x000fe200
0xff1a7224 0x000000ff 0x078e00ff 0x000fe400
0xff187224 0x000000ff 0x078e00ff 0x000fcc00
0x00047806 0x00000000 0x000e0100 0x000fe400
0x00057806 0x00000000 0x008e0100 0x000fe400
0xff048212 0x00000004 0x078e33ff 0x000fe400
0x00177806 0x00000000 0x010e0100 0x000fe400
0xff059212 0x00000005 0x078e33ff 0x000fe400
0xff17a212 0x00000017 0x078e33ff 0x000fc400
0x05047212 0x00000004 0x078ec0ff 0x000fe400
0x00057806 0x00000000 0x018e0100 0x000fe400
0x17047212 0x00000004 0x078ec0ff 0x000fe400
0x00177806 0x00000000 0x020e0100 0x000fe400
0xff05b212 0x00000005 0x078e33ff 0x000fe400
0xff17c212 0x00000017 0x078e33ff 0x000fc400
0x05047212 0x00000004 0x078ec0ff 0x000fe400
0x1fff7812 0x00000080 0x0780c0ff 0x000fe400
0x00057806 0x00000000 0x028e0100 0x000fe400
0x17047212 0x00000004 0x078ec0ff 0x000fe400
0x00177806 0x00000000 0x030e0100 0x000fe400
0xff05d212 0x00000005 0x078e33ff 0x000fc400
0xff17e212 0x00000017 0x078e33ff 0x000fe400
0x05047212 0x00000004 0x078ec0ff 0x000fe400
0x00197806 0x00000000 0x000e0100 0x000fe400
0x17047212 0x00000004 0x078ec0ff 0x000fe400
0x00177919 0x00000000 0x00003a00 0x000f6200
0xff198212 0x00000019 0x078e33ff 0x000fe400
0xff057a19 0x00006900 0x0001164b 0x000fc400
0x19047212 0x00000004 0x078ec0ff 0x000fe400
0x051d7c12 0x00000004 0x0f8e30ff 0x000fc800
0x001c7300 0x00000004 0x000e0000 0x000f2200
0x17177212 0x00000004 0x078ec0ff 0x020fe400
0x4f00720c 0x0000001c 0x03f05270 0x010fca00
0x00177309 0x00000017 0x00000000 0x000f2e00
0x00000947 0x00000020 0x03800000 0x000fea00
0x1f187824 0x00000004 0x078e0266 0x006fd000
0x1818738c 0x00000017 0x000000ff 0x0102a400
0x00007941 0x00000000 0x03800000 0x006fea00
0x1d007804 0x0000007f 0x00000000 0x000fe200
0x00ff7355 0x00000000 0x00100000 0x000fe200
0x18187589 0x00001f1c 0x000e0000 0x0002a200
0x00007945 0x00000230 0x03800000 0x000ff200
0x00047806 0x00000000 0x000e0100 0x000fc400
0x00057806 0x00000000 0x008e0100 0x000fe400
0xff048212 0x00000004 0x078e33ff 0x000fe400
0x00197806 0x00000000 0x010e0100 0x000fe400
0xff059212 0x00000005 0x078e33ff 0x000fe400
0xff19a212 0x00000019 0x078e33ff 0x000fe400
0x05047212 0x00000004 0x078ec0ff 0x000fc400
0x00057806 0x00000000 0x018e0100 0x000fe400
0x19047212 0x00000004 0x078ec0ff 0x000fe400
0x00197806 0x00000000 0x020e0100 0x000fe400
0xff05b212 0x00000005 0x078e33ff 0x000fe400
0xff19c212 0x00000019 0x078e33ff 0x000fe400
0x05047212 0x00000004 0x078ec0ff 0x000fc400
0x1dff7812 0x00000080 0x0780c0ff 0x000fe400
0x00057806 0x00000000 0x028e0100 0x000fe400
0x19047212 0x00000004 0x078ec0ff 0x000fe400
0x00197806 0x00000000 0x030e0100 0x000fe400
0xff05d212 0x00000005 0x078e33ff 0x000fe400
0xff19e212 0x00000019 0x078e33ff 0x000fc400
0x05047212 0x00000004 0x078ec0ff 0x000fe400
0x001b7806 0x00000000 0x000e0100 0x000fe400
0x19047212 0x00000004 0x078ec0ff 0x000fe400
0x00197919 0x00000000 0x00003a00 0x000f6200
0xff1b8212 0x0000001b 0x078e33ff 0x000fe400
0xff057a19 0x00006900 0x0001164a 0x000fe400
0x1b047212 0x00000004 0x078ec0ff 0x000fc400
0x05217c12 0x00000004 0x0f8e30ff 0x000fc800
0x001f7300 0x00000004 0x000e0000 0x000f2200
0x19197212 0x00000004 0x078ec0ff 0x020fe400
0x4f00720c 0x0000001f 0x03f05270 0x010fca00
0x00197309 0x00000019 0x00000000 0x000f2e00
0x00000947 0x00000020 0x03800000 0x000fea00
0x1d1a7824 0x00000004 0x078e0266 0x006fd000
0x1a1a738c 0x00000019 0x000000ff 0x0102a400
0x00007941 0x00000000 0x03800000 0x006fea00
0x21007804 0x0000007f 0x00000000 0x000fe200
0x00ff7355 0x00000000 0x00100000 0x000fe200
0x1a1a7589 0x00001f1f 0x000e0000 0x0002a200
0x00007945 0x00000250 0x03800000 0x000fe200
0xff1e7224 0x000000ff 0x078e00ff 0x000fe400
0xff1c7224 0x000000ff 0x078e00ff 0x000fcc00
0x00047806 0x00000000 0x000e0100 0x000fe400
0x00057806 0x00000000 0x008e0100 0x000fe400
0xff048212 0x00000004 0x078e33ff 0x000fe400
0x001b7806 0x00000000 0x010e0100 0x000fe400
0xff059212 0x00000005 0x078e33ff 0x000fe400
0xff1ba212 0x0000001b 0x078e33ff 0x000fc400
0x05047212 0x00000004 0x078ec0ff 0x000fe400
0x00057806 0x00000000 0x018e0100 0x000fe400
0x1b047212 0x00000004 0x078ec0ff 0x000fe400
0x001b7806 0x00000000 0x020e0100 0x000fe400
0xff05b212 0x00000005 0x078e33ff 0x000fe400
0xff1bc212 0x0000001b 0x078e33ff 0x000fc400
0x05047212 0x00000004 0x078ec0ff 0x000fe400
0x21ff7812 0x00000080 0x0780c0ff 0x000fe400
0x00057806 0x00000000 0x028e0100 0x000fe400
0x1b047212 0x00000004 0x078ec0ff 0x000fe400
0x001b7806 0x00000000 0x030e0100 0x000fe400
0xff05d212 0x00000005 0x078e33ff 0x000fc400
0xff1be212 0x0000001b 0x078e33ff 0x000fe400
0x05047212 0x00000004 0x078ec0ff 0x000fe400
0x001d7806 0x00000000 0x000e0100 0x000fe400
0x1b047212 0x00000004 0x078ec0ff 0x000fe400
0x001b7919 0x00000000 0x00003a00 0x000f6200
0xff1d8212 0x0000001d 0x078e33ff 0x000fe400
0xff057a19 0x00006900 0x00011649 0x000fc400
0x1d047212 0x00000004 0x078ec0ff 0x000fe400
0x05597c12 0x00000004 0x0f8e30ff 0x000fc800
0x00207300 0x00000004 0x000e0000 0x000f2200
0x1b1b7212 0x00000004 0x078ec0ff 0x020fe400
0x4f00720c 0x00000020 0x03f05270 0x010fca00
0x001b7309 0x0000001b 0x00000000 0x000f2e00
0x00000947 0x00000020 0x03800000 0x000fea00
0x211c7824 0x00000004 0x078e0266 0x006fd000
0x1c1c738c 0x0000001b 0x000000ff 0x0102a400
0x00007941 0x00000000 0x03800000 0x006fea00
0x59007804 0x0000007f 0x00000000 0x000fe200
0x00ff7355 0x00000000 0x00100000 0x000fe200
0x1c1c7589 0x00001f20 0x000e0000 0x0002a200
0x00007945 0x00000230 0x03800000 0x000ff200
0x00047806 0x00000000 0x000e0100 0x000fc400
0x00057806 0x00000000 0x008e0100 0x000fe400
0xff048212 0x00000004 0x078e33ff 0x000fe400
0x001d7806 0x00000000 0x010e0100 0x000fe400
0xff059212 0x00000005 0x078e33ff 0x000fe400
0xff1da212 0x0000001d 0x078e33ff 0x000fe400
0x05047212 0x00000004 0x078ec0ff 0x000fc400
0x00057806 0x00000000 0x018e0100 0x000fe400
0x1d047212 0x00000004 0x078ec0ff 0x000fe400
0x001d7806 0x00000000 0x020e0100 0x000fe400
0xff05b212 0x00000005 0x078e33ff 0x000fe400
0xff1dc212 0x0000001d 0x078e33ff 0x000fe400
0x05047212 0x00000004 0x078ec0ff 0x000fc400
0x59ff7812 0x00000080 0x0780c0ff 0x000fe400
0x00057806 0x00000000 0x028e0100 0x000fe400
0x1d047212 0x00000004 0x078ec0ff 0x000fe400
0x001d7806 0x00000000 0x030e0100 0x000fe400
0xff05d212 0x00000005 0x078e33ff 0x000fe400
0xff1de212 0x0000001d 0x078e33ff 0x000fc400
0x05047212 0x00000004 0x078ec0ff 0x000fe400
0x001f7806 0x00000000 0x000e0100 0x000fe400
0x1d047212 0x00000004 0x078ec0ff 0x000fe400
0x001d7919 0x00000000 0x00003a00 0x000f6200
0xff1f8212 0x0000001f 0x078e33ff 0x000fe400
0xff057a19 0x00006900 0x00011648 0x000fe400
0x1f047212 0x00000004 0x078ec0ff 0x000fc400
0x055b7c12 0x00000004 0x0f8e30ff 0x000fc800
0x00237300 0x00000004 0x000e0000 0x000f2200
0x1d1d7212 0x00000004 0x078ec0ff 0x020fe400
0x4f00720c 0x00000023 0x03f05270 0x010fca00
0x001d7309 0x0000001d 0x00000000 0x000f2e00
0x00000947 0x00000020 0x03800000 0x000fea00
0x591e7824 0x00000004 0x078e0266 0x006fd000
0x1e1e738c 0x0000001d 0x000000ff 0x0102a400
0x00007941 0x00000000 0x03800000 0x006fea00
0x5b007804 0x0000007f 0x00000000 0x000fe200
0x00ff7355 0x00000000 0x00100000 0x000fe200
0x1e1e7589 0x00001f23 0x000e0000 0x0002a200
0x00007945 0x00000250 0x03800000 0x000fe200
0xff227224 0x000000ff 0x078e00ff 0x000fe400
0xff207224 0x000000ff 0x078e00ff 0x000fcc00
0x00047806 0x00000000 0x000e0100 0x000fe400
0x00057806 0x00000000 0x008e0100 0x000fe400
0xff048212 0x00000004 0x078e33ff 0x000fe400
0x001f7806 0x00000000 0x010e0100 0x000fe400
0xff059212 0x00000005 0x078e33ff 0x000fe400
0xff1fa212 0x0000001f 0x078e33ff 0x000fc400
0x05047212 0x00000004 0x078ec0ff 0x000fe400
0x00057806 0x00000000 0x018e0100 0x000fe400
0x1f047212 0x00000004 0x078ec0ff 0x000fe400
0x001f7806 0x00000000 0x020e0100 0x000fe400
0xff05b212 0x00000005 0x078e33ff 0x000fe400
0xff1fc212 0x0000001f 0x078e33ff 0x000fc400
0x05047212 0x00000004 0x078ec0ff 0x000fe400
0x5bff7812 0x00000080 0x0780c0ff 0x000fe400
0x00057806 0x00000000 0x028e0100 0x000fe400
0x1f047212 0x00000004 0x078ec0ff 0x000fe400
0x001f7806 0x00000000 0x030e0100 0x000fe400
0xff05d212 0x00000005 0x078e33ff 0x000fc400
0xff1fe212 0x0000001f 0x078e33ff 0x000fe400
0x05047212 0x00000004 0x078ec0ff 0x000fe400
0x00217806 0x00000000 0x000e0100 0x000fe400
0x1f047212 0x00000004 0x078ec0ff 0x000fe400
0x001f7919 0x00000000 0x00003a00 0x000f6200
0xff218212 0x00000021 0x078e33ff 0x000fe400
0xff057a19 0x00006900 0x00011647 0x000fc400
0x21047212 0x00000004 0x078ec0ff 0x000fe400
0x05597c12 0x00000004 0x0f8e30ff 0x000fc800
0x00567300 0x00000004 0x000e0000 0x000f2200
0x1f1f7212 0x00000004 0x078ec0ff 0x020fe400
0x4f00720c 0x00000056 0x03f05270 0x010fca00
0x001f7309 0x0000001f 0x00000000 0x000f2e00
0x00000947 0x00000020 0x03800000 0x000fea00
0x5b207824 0x00000004 0x078e0266 0x006fd000
0x2020738c 0x0000001f 0x000000ff 0x0102a400
0x00007941 0x00000000 0x03800000 0x006fea00
0x59007804 0x0000007f 0x00000000 0x000fe200
0x00ff7355 0x00000000 0x00100000 0x000fe200
0x20207589 0x00001f56 0x000e0000 0x0002a200
0x00007945 0x00000230 0x03800000 0x000ff200
0x00047806 0x00000000 0x000e0100 0x000fc400
0x00057806 0x00000000 0x008e0100 0x000fe400
0xff048212 0x00000004 0x078e33ff 0x000fe400
0x00217806 0x00000000 0x010e0100 0x000fe400
0xff059212 0x00000005 0x078e33ff 0x000fe400
0xff21a212 0x00000021 0x078e33ff 0x000fe400
0x05047212 0x00000004 0x078ec0ff 0x000fc400
0x00057806 0x00000000 0x018e0100 0x000fe400
0x21047212 0x00000004 0x078ec0ff 0x000fe400
0x00217806 0x00000000 0x020e0100 0x000fe400
0xff05b212 0x00000005 0x078e33ff 0x000fe400
0xff21c212 0x00000021 0x078e33ff 0x000fe400
0x05047212 0x00000004 0x078ec0ff 0x000fc400
0x59ff7812 0x00000080 0x0780c0ff 0x000fe400
0x00057806 0x00000000 0x028e0100 0x000fe400
0x21047212 0x00000004 0x078ec0ff 0x000fe400
0x00217806 0x00000000 0x030e0100 0x000fe400
0xff05d212 0x00000005 0x078e33ff 0x000fe400
0xff21e212 0x00000021 0x078e33ff 0x000fc400
0x05047212 0x00000004 0x078ec0ff 0x000fe400
0x00237806 0x00000000 0x000e0100 0x000fe400
0x21047212 0x00000004 0x078ec0ff 0x000fe400
0x00217919 0x00000000 0x00003a00 0x000f6200
0xff238212 0x00000023 0x078e33ff 0x000fe400
0xff057a19 0x00006900 0x00011646 0x000fe400
0x23047212 0x00000004 0x078ec0ff 0x000fc400
0x055b7c12 0x00000004 0x0f8e30ff 0x000fc800
0x00587300 0x00000004 0x000e0000 0x000f2200
0x21217212 0x00000004 0x078ec0ff 0x020fe400
0x4f00720c 0x00000058 0x03f05270 0x010fca00
0x00217309 0x00000021 0x00000000 0x000f2e00
0x00000947 0x00000020 0x03800000 0x000fea00
0x59227824 0x00000004 0x078e0266 0x006fd000
0x2222738c 0x00000021 0x000000ff 0x0102a400
0x00007941 0x00000000 0x03800000 0x006fea00
0x5b007804 0x0000007f 0x00000000 0x000fe200
0x00ff7355 0x00000000 0x00100000 0x000fe200
0x22227589 0x00001f58 0x000e0000 0x0002a200
0x00007945 0x00000250 0x03800000 0x000fe200
0xff567224 0x000000ff 0x078e00ff 0x000fd000
0x00047806 0x00000000 0x000e0100 0x000fe400
0x00057806 0x00000000 0x008e0100 0x000fe400
0xff048212 0x00000004 0x078e33ff 0x000fe400
0x00237806 0x00000000 0x010e0100 0x000fe400
0xff059212 0x00000005 0x078e33ff 0x000fe400
0xff23a212 0x00000023 0x078e33ff 0x000fc400
0x05047212 0x00000004 0x078ec0ff 0x000fe400
0x00057806 0x00000000 0x018e0100 0x000fe400
0x23047212 0x00000004 0x078ec0ff 0x000fe400
0x00237806 0x00000000 0x020e0100 0x000fe400
0xff05b212 0x00000005 0x078e33ff 0x000fe400
0xff23c212 0x00000023 0x078e33ff 0x000fc400
0x05047212 0x00000004 0x078ec0ff 0x000fe400
0x5bff7812 0x00000080 0x0780c0ff 0x000fe400
0x00057806 0x00000000 0x028e0100 0x000fe400
0x23047212 0x00000004 0x078ec0ff 0x000fe400
0x00237806 0x00000000 0x030e0100 0x000fe400
0xff05d212 0x00000005 0x078e33ff 0x000fc400
0xff23e212 0x00000023 0x078e33ff 0x000fe400
0x05047212 0x00000004 0x078ec0ff 0x000fe400
0x00597806 0x00000000 0x000e0100 0x000fe400
0x23047212 0x00000004 0x078ec0ff 0x000fe400
0x00237919 0x00000000 0x00003a00 0x000f6200
0xff598212 0x00000059 0x078e33ff 0x000fe400
0xff057a19 0x00006900 0x00011645 0x000fc400
0x59047212 0x00000004 0x078ec0ff 0x000fe200
0xff597224 0x000000ff 0x078e00ff 0x000fe200
0x055f7c12 0x00000004 0x0f8e30ff 0x000fc800
0x005a7300 0x00000004 0x000e0000 0x000f2200
0x23237212 0x00000004 0x078ec0ff 0x020fe400
0x4f00720c 0x0000005a 0x03f05270 0x010fca00
0x00237309 0x00000023 0x00000000 0x000f2e00
0x00000947 0x00000020 0x03800000 0x000fea00
0x5b567824 0x00000004 0x078e0266 0x006fd000
0x5656738c 0x00000023 0x000000ff 0x0102a400
0x00007941 0x00000000 0x03800000 0x006fea00
0x5f007804 0x0000007f 0x00000000 0x000fe200
0x00ff7355 0x00000000 0x00100000 0x000fe200
0x56567589 0x00001f5a 0x000e0000 0x0002a200
0x00007945 0x00000230 0x03800000 0x000ff200
0x00047806 0x00000000 0x000e0100 0x000fc400
0x00057806 0x00000000 0x008e0100 0x000fe400
0xff048212 0x00000004 0x078e33ff 0x000fe400
0xff059212 0x00000005 0x078e33ff 0x000fe400
0x005b7806 0x00000000 0x010e0100 0x000fe400
0x05047212 0x00000004 0x078ec0ff 0x000fe400
0xff5ba212 0x0000005b 0x078e33ff 0x000fc400
0x00057806 0x00000000 0x018e0100 0x000fe400
0x5b047212 0x00000004 0x078ec0ff 0x000fe400
0xff05b212 0x00000005 0x078e33ff 0x000fe400
0x005b7806 0x00000000 0x020e0100 0x000fe400
0x5fff7812 0x00000080 0x0780c0ff 0x000fe400
0x05047212 0x00000004 0x078ec0ff 0x000fc400
0x00057806 0x00000000 0x028e0100 0x000fe400
0xff5bc212 0x0000005b 0x078e33ff 0x000fe400
0xff05d212 0x00000005 0x078e33ff 0x000fe400
0x5b047212 0x00000004 0x078ec0ff 0x000fe400
0x005b7806 0x00000000 0x030e0100 0x000fe400
0x005d7806 0x00000000 0x000e0100 0x000fc400
0xff5be212 0x0000005b 0x078e33ff 0x000fe400
0x05047212 0x00000004 0x078ec0ff 0x000fe400
0x00057919 0x00000000 0x00003a00 0x000f6200
0xff5d8212 0x0000005d 0x078e33ff 0x000fe400
0x5b047212 0x00000004 0x078ec0ff 0x000fe400
0xff5b7a19 0x00006900 0x00011644 0x000fe400
0x5d047212 0x00000004 0x078ec0ff 0x000fc400
0x5b617c12 0x00000004 0x0f8e30ff 0x000fc800
0x005c7300 0x00000004 0x000e0000 0x000f2200
0x05587212 0x00000004 0x078ec0ff 0x020fe400
0x4f00720c 0x0000005c 0x03f05270 0x010fca00
0x00587309 0x00000058 0x00000000 0x000f2e00
0x00000947 0x00000020 0x03800000 0x000fea00
0x5f597824 0x00000004 0x078e0266 0x006fd000
0x5959738c 0x00000058 0x000000ff 0x0102a400
0x00007941 0x00000000 0x03800000 0x006fea00
0x61007804 0x0000007f 0x00000000 0x000fe200
0x00ff7355 0x00000000 0x00100000 0x000fe200
0x59597589 0x00001f5c 0x000e0000 0x0002a200
0x00007945 0x00000250 0x03800000 0x000ff200
0x00047806 0x00000000 0x000e0100 0x000fc400
0x00057806 0x00000000 0x008e0100 0x000fe400
0xff048212 0x00000004 0x078e33ff 0x000fe400
0xff059212 0x00000005 0x078e33ff 0x000fe400
0x005b7806 0x00000000 0x010e0100 0x000fe400
0x05047212 0x00000004 0x078ec0ff 0x000fe400
0xff5ba212 0x0000005b 0x078e33ff 0x000fc400
0x00057806 0x00000000 0x018e0100 0x000fe400
0x5b047212 0x00000004 0x078ec0ff 0x000fe400
0xff05b212 0x00000005 0x078e33ff 0x000fe400
0x005b7806 0x00000000 0x020e0100 0x000fe400
0x61ff7812 0x00000080 0x0780c0ff 0x000fe400
0x05047212 0x00000004 0x078ec0ff 0x000fc400
0x00057806 0x00000000 0x028e0100 0x000fe400
0xff5bc212 0x0000005b 0x078e33ff 0x000fe400
0xff05d212 0x00000005 0x078e33ff 0x000fe400
0x5b047212 0x00000004 0x078ec0ff 0x000fe400
0x005b7806 0x00000000 0x030e0100 0x000fe400
0x005d7806 0x00000000 0x000e0100 0x000fc400
0xff5be212 0x0000005b 0x078e33ff 0x000fe400
0x05047212 0x00000004 0x078ec0ff 0x000fe400
0x00057919 0x00000000 0x00003a00 0x000f6200
0xff5d8212 0x0000005d 0x078e33ff 0x000fe400
0x5b047212 0x00000004 0x078ec0ff 0x000fe400
0xff5b7a19 0x00006900 0x00011643 0x000fe400
0x5d047212 0x00000004 0x078ec0ff 0x000fe200
0xff5d7224 0x000000ff 0x078e00ff 0x000fe200
0x5b637c12 0x00000004 0x0f8e30ff 0x000fe200
0xff5b7224 0x000000ff 0x078e00ff 0x000fc600
0x005e7300 0x00000004 0x000e0000 0x000f2200
0x055a7212 0x00000004 0x078ec0ff 0x020fe400
0x4f00720c 0x0000005e 0x03f05270 0x010fca00
0x005a7309 0x0000005a 0x00000000 0x000f2e00
0x00000947 0x00000020 0x03800000 0x000fea00
0x615b7824 0x00000004 0x078e0266 0x006fd000
0x5b5b738c 0x0000005a 0x000000ff 0x0102a400
0x00007941 0x00000000 0x03800000 0x006fea00
0x63007804 0x0000007f 0x00000000 0x000fe200
0x00ff7355 0x00000000 0x00100000 0x000fe200
0x5b5b7589 0x00001f5e 0x000e0000 0x0002a200
0x00007945 0x00000230 0x03800000 0x000ff200
0x00047806 0x00000000 0x000e0100 0x000fc400
0x00057806 0x00000000 0x008e0100 0x000fe400
0xff048212 0x00000004 0x078e33ff 0x000fe400
0xff059212 0x00000005 0x078e33ff 0x000fe400
0x005f7806 0x00000000 0x010e0100 0x000fe400
0x05047212 0x00000004 0x078ec0ff 0x000fe400
0xff5fa212 0x0000005f 0x078e33ff 0x000fc400
0x00057806 0x00000000 0x018e0100 0x000fe400
0x5f047212 0x00000004 0x078ec0ff 0x000fe400
0xff05b212 0x00000005 0x078e33ff 0x000fe400
0x005f7806 0x00000000 0x020e0100 0x000fe400
0x63ff7812 0x00000080 0x0780c0ff 0x000fe400
0x05047212 0x00000004 0x078ec0ff 0x000fc400
0x00057806 0x00000000 0x028e0100 0x000fe400
0xff5fc212 0x0000005f 0x078e33ff 0x000fe400
0xff05d212 0x00000005 0x078e33ff 0x000fe400
0x5f047212 0x00000004 0x078ec0ff 0x000fe400
0x005f7806 0x00000000 0x030e0100 0x000fe400
0x00617806 0x00000000 0x000e0100 0x000fc400
0xff5fe212 0x0000005f 0x078e33ff 0x000fe400
0x05047212 0x00000004 0x078ec0ff 0x000fe400
0x00057919 0x00000000 0x00003a00 0x000f6200
0xff618212 0x00000061 0x078e33ff 0x000fe400
0x5f047212 0x00000004 0x078ec0ff 0x000fe400
0xff5f7a19 0x00006900 0x00011642 0x000fe400
0x61047212 0x00000004 0x078ec0ff 0x000fc400
0x5f657c12 0x00000004 0x0f8e30ff 0x000fc800
0x00607300 0x00000004 0x000e0000 0x000f2200
0x055c7212 0x00000004 0x078ec0ff 0x020fe400
0x4f00720c 0x00000060 0x03f05270 0x010fca00
0x005c7309 0x0000005c 0x00000000 0x000f2e00
0x00000947 0x00000020 0x03800000 0x000fea00
0x635d7824 0x00000004 0x078e0266 0x006fd000
0x5d5d738c 0x0000005c 0x000000ff 0x0102a400
0x00007941 0x00000000 0x03800000 0x006fea00
0x65007804 0x0000007f 0x00000000 0x000fe200
0x00ff7355 0x00000000 0x00100000 0x000fe200
0x5d5d7589 0x00001f60 0x000e0000 0x0002a200
0x00007945 0x00000250 0x03800000 0x000ff200
0x00047806 0x00000000 0x000e0100 0x000fc400
0x00057806 0x00000000 0x008e0100 0x000fe400
0xff048212 0x00000004 0x078e33ff 0x000fe400
0xff059212 0x00000005 0x078e33ff 0x000fe400
0x005f7806 0x00000000 0x010e0100 0x000fe400
0x05047212 0x00000004 0x078ec0ff 0x000fe400
0xff5fa212 0x0000005f 0x078e33ff 0x000fc400
0x00057806 0x00000000 0x018e0100 0x000fe400
0x5f047212 0x00000004 0x078ec0ff 0x000fe400
0xff05b212 0x00000005 0x078e33ff 0x000fe400
0x005f7806 0x00000000 0x020e0100 0x000fe400
0x65ff7812 0x00000080 0x0780c0ff 0x000fe400
0x05047212 0x00000004 0x078ec0ff 0x000fc400
0x00057806 0x00000000 0x028e0100 0x000fe400
0xff5fc212 0x0000005f 0x078e33ff 0x000fe400
0xff05d212 0x00000005 0x078e33ff 0x000fe400
0x5f047212 0x00000004 0x078ec0ff 0x000fe400
0x005f7806 0x00000000 0x030e0100 0x000fe400
0x00617806 0x00000000 0x000e0100 0x000fc400
0xff5fe212 0x0000005f 0x078e33ff 0x000fe400
0x05047212 0x00000004 0x078ec0ff 0x000fe400
0x00057919 0x00000000 0x00003a00 0x000f6200
0xff618212 0x00000061 0x078e33ff 0x000fe400
0x5f047212 0x00000004 0x078ec0ff 0x000fe400
0xff5f7a19 0x00006900 0x00011641 0x000fe400
0x61047212 0x00000004 0x078ec0ff 0x000fe200
0xff617224 0x000000ff 0x078e00ff 0x000fe200
0x5f677c12 0x00000004 0x0f8e30ff 0x000fe200
0xff5f7224 0x000000ff 0x078e00ff 0x000fc600
0x00627300 0x00000004 0x000e0000 0x000f2200
0x055e7212 0x00000004 0x078ec0ff 0x020fe400
0x4f00720c 0x00000062 0x03f05270 0x010fca00
0x005e7309 0x0000005e 0x00000000 0x000f2e00
0x00000947 0x00000020 0x03800000 0x000fea00
0x655f7824 0x00000004 0x078e0266 0x006fd000
0x5f5f738c 0x0000005e 0x000000ff 0x0102a400
0x00007941 0x00000000 0x03800000 0x006fea00
0x67007804 0x0000007f 0x00000000 0x000fe200
0x00ff7355 0x00000000 0x00100000 0x000fe200
0x5f5f7589 0x00001f62 0x000e0000 0x0002a200
0x00007945 0x00000230 0x03800000 0x000ff200
0x00047806 0x00000000 0x000e0100 0x000fc400
0x00057806 0x00000000 0x008e0100 0x000fe400
0xff048212 0x00000004 0x078e33ff 0x000fe400
0xff059212 0x00000005 0x078e33ff 0x000fe400
0x00637806 0x00000000 0x010e0100 0x000fe400
0x05047212 0x00000004 0x078ec0ff 0x000fe400
0xff63a212 0x00000063 0x078e33ff 0x000fc400
0x00057806 0x00000000 0x018e0100 0x000fe400
0x63047212 0x00000004 0x078ec0ff 0x000fe400
0xff05b212 0x00000005 0x078e33ff 0x000fe400
0x00637806 0x00000000 0x020e0100 0x000fe400
0x67ff7812 0x00000080 0x0780c0ff 0x000fe400
0x05047212 0x00000004 0x078ec0ff 0x000fc400
0x00057806 0x00000000 0x028e0100 0x000fe400
0xff63c212 0x00000063 0x078e33ff 0x000fe400
0xff05d212 0x00000005 0x078e33ff 0x000fe400
0x63047212 0x00000004 0x078ec0ff 0x000fe400
0x00637806 0x00000000 0x030e0100 0x000fe400
0x00657806 0x00000000 0x000e0100 0x000fc400
0xff63e212 0x00000063 0x078e33ff 0x000fe400
0x05047212 0x00000004 0x078ec0ff 0x000fe400
0x00057919 0x00000000 0x00003a00 0x000f6200
0xff658212 0x00000065 0x078e33ff 0x000fe400
0x63047212 0x00000004 0x078ec0ff 0x000fe400
0xff637a19 0x00006900 0x00011640 0x000fe400
0x65047212 0x00000004 0x078ec0ff 0x000fc400
0x63697c12 0x00000004 0x0f8e30ff 0x000fc800
0x00647300 0x00000004 0x000e0000 0x000f2200
0x05607212 0x00000004 0x078ec0ff 0x020fe400
0x4f00720c 0x00000064 0x03f05270 0x010fca00
0x00607309 0x00000060 0x00000000 0x000f2e00
0x00000947 0x00000020 0x03800000 0x000fea00
0x67617824 0x00000004 0x078e0266 0x006fd000
0x6161738c 0x00000060 0x000000ff 0x0102a400
0x00007941 0x00000000 0x03800000 0x006fea00
0x69007804 0x0000007f 0x00000000 0x000fe200
0x00ff7355 0x00000000 0x00100000 0x000fe200
0x61617589 0x00001f64 0x000e0000 0x0002a200
0x00007945 0x00000250 0x03800000 0x000fe200
0xff677224 0x000000ff 0x078e00ff 0x000fd000
0x00047806 0x00000000 0x000e0100 0x000fe400
0x00057806 0x00000000 0x008e0100 0x000fe400
0xff048212 0x00000004 0x078e33ff 0x000fe400
0xff059212 0x00000005 0x078e33ff 0x000fe400
0x00637806 0x00000000 0x010e0100 0x000fe400
0x05047212 0x00000004 0x078ec0ff 0x000fc400
0xff63a212 0x00000063 0x078e33ff 0x000fe400
0x00057806 0x00000000 0x018e0100 0x000fe400
0x63047212 0x00000004 0x078ec0ff 0x000fe400
0xff05b212 0x00000005 0x078e33ff 0x000fe400
0x00637806 0x00000000 0x020e0100 0x000fe400
0x69ff7812 0x00000080 0x0780c0ff 0x000fc400
0x05047212 0x00000004 0x078ec0ff 0x000fe400
0x00057806 0x00000000 0x028e0100 0x000fe400
0xff63c212 0x00000063 0x078e33ff 0x000fe400
0xff05d212 0x00000005 0x078e33ff 0x000fe400
0x63047212 0x00000004 0x078ec0ff 0x000fe400
0x00637806 0x00000000 0x030e0100 0x000fc400
0x00657806 0x00000000 0x000e0100 0x000fe400
0xff63e212 0x00000063 0x078e33ff 0x000fe400
0x05047212 0x00000004 0x078ec0ff 0x000fe400
0x00057919 0x00000000 0x00003a00 0x000f6200
0xff658212 0x00000065 0x078e33ff 0x000fe400
0x63047212 0x00000004 0x078ec0ff 0x000fe400
0xff637a19 0x00006900 0x0001163f 0x000fc400
0x65047212 0x00000004 0x078ec0ff 0x000fe400
0x636b7c12 0x00000004 0x0f8e30ff 0x000fe200
0xff637224 0x000000ff 0x078e00ff 0x000fc600
0x00687300 0x00000004 0x000e0000 0x000f2200
0x05627212 0x00000004 0x078ec0ff 0x020fe400
0x4f00720c 0x00000068 0x03f05270 0x010fca00
0x00627309 0x00000062 0x00000000 0x000f2e00
0x00000947 0x00000020 0x03800000 0x000fea00
0x69637824 0x00000004 0x078e0266 0x006fd000
0x6363738c 0x00000062 0x000000ff 0x0102a400
0x00007941 0x00000000 0x03800000 0x006fea00
0x6b007804 0x0000007f 0x00000000 0x000fe200
0x00ff7355 0x00000000 0x00100000 0x000fe200
0x63637589 0x00001f68 0x000e0000 0x0002a200
0x00007945 0x00000230 0x03800000 0x000ff200
0x00047806 0x00000000 0x000e0100 0x000fc400
0x00057806 0x00000000 0x008e0100 0x000fe400
0xff048212 0x00000004 0x078e33ff 0x000fe400
0xff059212 0x00000005 0x078e33ff 0x000fe400
0x00657806 0x00000000 0x010e0100 0x000fe400
0x05047212 0x00000004 0x078ec0ff 0x000fe400
0xff65a212 0x00000065 0x078e33ff 0x000fc400
0x00057806 0x00000000 0x018e0100 0x000fe400
0x65047212 0x00000004 0x078ec0ff 0x000fe400
0xff05b212 0x00000005 0x078e33ff 0x000fe400
0x00657806 0x00000000 0x020e0100 0x000fe400
0x6bff7812 0x00000080 0x0780c0ff 0x000fe400
0x05047212 0x00000004 0x078ec0ff 0x000fc400
0x00057806 0x00000000 0x028e0100 0x000fe400
0xff65c212 0x00000065 0x078e33ff 0x000fe400
0xff05d212 0x00000005 0x078e33ff 0x000fe400
0x65047212 0x00000004 0x078ec0ff 0x000fe400
0x00657806 0x00000000 0x030e0100 0x000fe400
0x00697806 0x00000000 0x000e0100 0x000fc400
0xff65e212 0x00000065 0x078e33ff 0x000fe400
0x05047212 0x00000004 0x078ec0ff 0x000fe400
0x00057919 0x00000000 0x00003a00 0x000f6200
0xff698212 0x00000069 0x078e33ff 0x000fe400
0x65047212 0x00000004 0x078ec0ff 0x000fe400
0xff657a19 0x00006900 0x0001163e 0x000fe400
0x69047212 0x00000004 0x078ec0ff 0x000fc400
0x656d7c12 0x00000004 0x0f8e30ff 0x000fc800
0x006c7300 0x00000004 0x000e0000 0x000f2200
0x05647212 0x00000004 0x078ec0ff 0x020fe400
0x4f00720c 0x0000006c 0x03f05270 0x010fca00
0x00647309 0x00000064 0x00000000 0x000f2e00
0x00000947 0x00000020 0x03800000 0x000fea00
0x6b677824 0x00000004 0x078e0266 0x006fd000
0x6767738c 0x00000064 0x000000ff 0x0102a400
0x00007941 0x00000000 0x03800000 0x006fea00
0x6d007804 0x0000007f 0x00000000 0x000fe200
0x00ff7355 0x00000000 0x00100000 0x000fe200
0x67677589 0x00001f6c 0x000e0000 0x0002a200
0x00007945 0x00000250 0x03800000 0x000fe200
0xff6a7224 0x000000ff 0x078e00ff 0x000fd000
0x00047806 0x00000000 0x000e0100 0x000fe400
0x00057806 0x00000000 0x008e0100 0x000fe400
0xff048212 0x00000004 0x078e33ff 0x000fe400
0x00657806 0x00000000 0x010e0100 0x000fe400
0xff059212 0x00000005 0x078e33ff 0x000fe400
0xff65a212 0x00000065 0x078e33ff 0x000fc400
0x05047212 0x00000004 0x078ec0ff 0x000fe400
0x00057806 0x00000000 0x018e0100 0x000fe400
0x65047212 0x00000004 0x078ec0ff 0x000fe400
0x00657806 0x00000000 0x020e0100 0x000fe400
0xff05b212 0x00000005 0x078e33ff 0x000fe400
0xff65c212 0x00000065 0x078e33ff 0x000fc400
0x05047212 0x00000004 0x078ec0ff 0x000fe400
0x6dff7812 0x00000080 0x0780c0ff 0x000fe400
0x00057806 0x00000000 0x028e0100 0x000fe400
0x65047212 0x00000004 0x078ec0ff 0x000fe400
0x00657806 0x00000000 0x030e0100 0x000fe400
0xff05d212 0x00000005 0x078e33ff 0x000fc400
0xff65e212 0x00000065 0x078e33ff 0x000fe400
0x05047212 0x00000004 0x078ec0ff 0x000fe400
0x00697806 0x00000000 0x000e0100 0x000fe400
0x65047212 0x00000004 0x078ec0ff 0x000fe400
0x00657919 0x00000000 0x00003a00 0x000f6200
0xff698212 0x00000069 0x078e33ff 0x000fe400
0xff057a19 0x00006900 0x0001163d 0x000fc400
0x69047212 0x00000004 0x078ec0ff 0x000fe200
0xff697224 0x000000ff 0x078e00ff 0x000fe200
0x056f7c12 0x00000004 0x0f8e30ff 0x000fc800
0x006e7300 0x00000004 0x000e0000 0x000f2200
0x65657212 0x00000004 0x078ec0ff 0x020fe400
0x4f00720c 0x0000006e 0x03f05270 0x010fca00
0x00657309 0x00000065 0x00000000 0x000f2e00
0x00000947 0x00000020 0x03800000 0x000fea00
0x6d6a7824 0x00000004 0x078e0266 0x006fd000
0x6a6a738c 0x00000065 0x000000ff 0x0102a400
0x00007941 0x00000000 0x03800000 0x006fea00
0x6f007804 0x0000007f 0x00000000 0x000fe200
0x00ff7355 0x00000000 0x00100000 0x000fe200
0x6a6a7589 0x00001f6e 0x000e0000 0x0002a200
0x00007945 0x00000230 0x03800000 0x000ff200
0x00047806 0x00000000 0x000e0100 0x000fc400
0x00057806 0x00000000 0x008e0100 0x000fe400
0xff048212 0x00000004 0x078e33ff 0x000fe400
0xff059212 0x00000005 0x078e33ff 0x000fe400
0x006b7806 0x00000000 0x010e0100 0x000fe400
0x05047212 0x00000004 0x078ec0ff 0x000fe400
0xff6ba212 0x0000006b 0x078e33ff 0x000fc400
0x00057806 0x00000000 0x018e0100 0x000fe400
0x6b047212 0x00000004 0x078ec0ff 0x000fe400
0xff05b212 0x00000005 0x078e33ff 0x000fe400
0x006b7806 0x00000000 0x020e0100 0x000fe400
0x6fff7812 0x00000080 0x0780c0ff 0x000fe400
0x05047212 0x00000004 0x078ec0ff 0x000fc400
0x00057806 0x00000000 0x028e0100 0x000fe400
0xff6bc212 0x0000006b 0x078e33ff 0x000fe400
0xff05d212 0x00000005 0x078e33ff 0x000fe400
0x6b047212 0x00000004 0x078ec0ff 0x000fe400
0x006b7806 0x00000000 0x030e0100 0x000fe400
0x006d7806 0x00000000 0x000e0100 0x000fc400
0xff6be212 0x0000006b 0x078e33ff 0x000fe400
0x05047212 0x00000004 0x078ec0ff 0x000fe400
0x00057919 0x00000000 0x00003a00 0x000f6200
0xff6d8212 0x0000006d 0x078e33ff 0x000fe400
0x6b047212 0x00000004 0x078ec0ff 0x000fe400
0xff6b7a19 0x00006900 0x0001163c 0x000fe400
0x6d047212 0x00000004 0x078ec0ff 0x000fc400
0x6b737c12 0x00000004 0x0f8e30ff 0x000fc800
0x00707300 0x00000004 0x000e0000 0x000f2200
0x05687212 0x00000004 0x078ec0ff 0x020fe400
0x4f00720c 0x00000070 0x03f05270 0x010fca00
0x00687309 0x00000068 0x00000000 0x000f2e00
0x00000947 0x00000020 0x03800000 0x000fea00
0x6f697824 0x00000004 0x078e0266 0x006fd000
0x6969738c 0x00000068 0x000000ff 0x0102a400
0x00007941 0x00000000 0x03800000 0x006fea00
0x73007804 0x0000007f 0x00000000 0x000fe200
0x00ff7355 0x00000000 0x00100000 0x000fe200
0x69697589 0x00001f70 0x000e0000 0x0002a200
0x00007945 0x00000250 0x03800000 0x000fe200
0xff6e7224 0x000000ff 0x078e00ff 0x000fe400
0xff6c7224 0x000000ff 0x078e00ff 0x000fcc00
0x00047806 0x00000000 0x000e0100 0x000fe400
0x00057806 0x00000000 0x008e0100 0x000fe400
0xff048212 0x00000004 0x078e33ff 0x000fe400
0x006b7806 0x00000000 0x010e0100 0x000fe400
0xff059212 0x00000005 0x078e33ff 0x000fe400
0xff6ba212 0x0000006b 0x078e33ff 0x000fc400
0x05047212 0x00000004 0x078ec0ff 0x000fe400
0x00057806 0x00000000 0x018e0100 0x000fe400
0x6b047212 0x00000004 0x078ec0ff 0x000fe400
0x006b7806 0x00000000 0x020e0100 0x000fe400
0xff05b212 0x00000005 0x078e33ff 0x000fe400
0xff6bc212 0x0000006b 0x078e33ff 0x000fc400
0x05047212 0x00000004 0x078ec0ff 0x000fe400
0x73ff7812 0x00000080 0x0780c0ff 0x000fe400
0x00057806 0x00000000 0x028e0100 0x000fe400
0x6b047212 0x00000004 0x078ec0ff 0x000fe400
0x006b7806 0x00000000 0x030e0100 0x000fe400
0xff05d212 0x00000005 0x078e33ff 0x000fc400
0xff6be212 0x0000006b 0x078e33ff 0x000fe400
0x05047212 0x00000004 0x078ec0ff 0x000fe400
0x006d7806 0x00000000 0x000e0100 0x000fe400
0x6b047212 0x00000004 0x078ec0ff 0x000fe400
0x006b7919 0x00000000 0x00003a00 0x000f6200
0xff6d8212 0x0000006d 0x078e33ff 0x000fe400
0xff057a19 0x00006900 0x0001163b 0x000fc400
0x6d047212 0x00000004 0x078ec0ff 0x000fe400
0x05757c12 0x00000004 0x0f8e30ff 0x000fc800
0x00717300 0x00000004 0x000e0000 0x000f2200
0x6b6b7212 0x00000004 0x078ec0ff 0x020fe400
0x4f00720c 0x00000071 0x03f05270 0x010fca00
0x006b7309 0x0000006b 0x00000000 0x000f2e00
0x00000947 0x00000020 0x03800000 0x000fea00
0x736c7824 0x00000004 0x078e0266 0x006fd000
0x6c6c738c 0x0000006b 0x000000ff 0x0102a400
0x00007941 0x00000000 0x03800000 0x006fea00
0x75007804 0x0000007f 0x00000000 0x000fe200
0x00ff7355 0x00000000 0x00100000 0x000fe200
0x6c6c7589 0x00001f71 0x000e0000 0x0002a200
0x00007945 0x00000230 0x03800000 0x000ff200
0x00047806 0x00000000 0x000e0100 0x000fc400
0x00057806 0x00000000 0x008e0100 0x000fe400
0xff048212 0x00000004 0x078e33ff 0x000fe400
0x006d7806 0x00000000 0x010e0100 0x000fe400
0xff059212 0x00000005 0x078e33ff 0x000fe400
0xff6da212 0x0000006d 0x078e33ff 0x000fe400
0x05047212 0x00000004 0x078ec0ff 0x000fc400
0x00057806 0x00000000 0x018e0100 0x000fe400
0x6d047212 0x00000004 0x078ec0ff 0x000fe400
0x006d7806 0x00000000 0x020e0100 0x000fe400
0xff05b212 0x00000005 0x078e33ff 0x000fe400
0xff6dc212 0x0000006d 0x078e33ff 0x000fe400
0x05047212 0x00000004 0x078ec0ff 0x000fc400
0x75ff7812 0x00000080 0x0780c0ff 0x000fe400
0x00057806 0x00000000 0x028e0100 0x000fe400
0x6d047212 0x00000004 0x078ec0ff 0x000fe400
0x006d7806 0x00000000 0x030e0100 0x000fe400
0xff05d212 0x00000005 0x078e33ff 0x000fe400
0xff6de212 0x0000006d 0x078e33ff 0x000fc400
0x05047212 0x00000004 0x078ec0ff 0x000fe400
0x006f7806 0x00000000 0x000e0100 0x000fe400
0x6d047212 0x00000004 0x078ec0ff 0x000fe400
0x006d7919 0x00000000 0x00003a00 0x000f6200
0xff6f8212 0x0000006f 0x078e33ff 0x000fe400
0xff057a19 0x00006900 0x0001163a 0x000fe400
0x6f047212 0x00000004 0x078ec0ff 0x000fc400
0x05777c12 0x00000004 0x0f8e30ff 0x000fc800
0x00737300 0x00000004 0x000e0000 0x000f2200
0x6d6d7212 0x00000004 0x078ec0ff 0x020fe400
0x4f00720c 0x00000073 0x03f05270 0x010fca00
0x006d7309 0x0000006d 0x00000000 0x000f2e00
0x00000947 0x00000020 0x03800000 0x000fea00
0x756e7824 0x00000004 0x078e0266 0x006fd000
0x6e6e738c 0x0000006d 0x000000ff 0x0102a400
0x00007941 0x00000000 0x03800000 0x006fea00
0x77007804 0x0000007f 0x00000000 0x000fe200
0x00ff7355 0x00000000 0x00100000 0x000fe200
0x6e6e7589 0x00001f73 0x000e0000 0x0002a200
0x00007945 0x00000250 0x03800000 0x000fe200
0xff727224 0x000000ff 0x078e00ff 0x000fe400
0xff707224 0x000000ff 0x078e00ff 0x000fcc00
0x00047806 0x00000000 0x000e0100 0x000fe400
0x00057806 0x00000000 0x008e0100 0x000fe400
0xff048212 0x00000004 0x078e33ff 0x000fe400
0x006f7806 0x00000000 0x010e0100 0x000fe400
0xff059212 0x00000005 0x078e33ff 0x000fe400
0xff6fa212 0x0000006f 0x078e33ff 0x000fc400
0x05047212 0x00000004 0x078ec0ff 0x000fe400
0x00057806 0x00000000 0x018e0100 0x000fe400
0x6f047212 0x00000004 0x078ec0ff 0x000fe400
0x006f7806 0x00000000 0x020e0100 0x000fe400
0xff05b212 0x00000005 0x078e33ff 0x000fe400
0xff6fc212 0x0000006f 0x078e33ff 0x000fc400
0x05047212 0x00000004 0x078ec0ff 0x000fe400
0x77ff7812 0x00000080 0x0780c0ff 0x000fe400
0x00057806 0x00000000 0x028e0100 0x000fe400
0x6f047212 0x00000004 0x078ec0ff 0x000fe400
0x006f7806 0x00000000 0x030e0100 0x000fe400
0xff05d212 0x00000005 0x078e33ff 0x000fc400
0xff6fe212 0x0000006f 0x078e33ff 0x000fe400
0x05047212 0x00000004 0x078ec0ff 0x000fe400
0x00717806 0x00000000 0x000e0100 0x000fe400
0x6f047212 0x00000004 0x078ec0ff 0x000fe400
0x006f7919 0x00000000 0x00003a00 0x000f6200
0xff718212 0x00000071 0x078e33ff 0x000fe400
0xff057a19 0x00006900 0x00011639 0x000fc400
0x71047212 0x00000004 0x078ec0ff 0x000fe400
0x05757c12 0x00000004 0x0f8e30ff 0x000fc800
0x00747300 0x00000004 0x000e0000 0x000f2200
0x6f6f7212 0x00000004 0x078ec0ff 0x020fe400
0x4f00720c 0x00000074 0x03f05270 0x010fca00
0x006f7309 0x0000006f 0x00000000 0x000f2e00
0x00000947 0x00000020 0x03800000 0x000fea00
0x77707824 0x00000004 0x078e0266 0x006fd000
0x7070738c 0x0000006f 0x000000ff 0x0102a400
0x00007941 0x00000000 0x03800000 0x006fea00
0x75007804 0x0000007f 0x00000000 0x000fe200
0x00ff7355 0x00000000 0x00100000 0x000fe200
0x70707589 0x00001f74 0x000e0000 0x0002a200
0x00007945 0x00000230 0x03800000 0x000ff200
0x00047806 0x00000000 0x000e0100 0x000fc400
0x00057806 0x00000000 0x008e0100 0x000fe400
0xff048212 0x00000004 0x078e33ff 0x000fe400
0x00717806 0x00000000 0x010e0100 0x000fe400
0xff059212 0x00000005 0x078e33ff 0x000fe400
0xff71a212 0x00000071 0x078e33ff 0x000fe400
0x05047212 0x00000004 0x078ec0ff 0x000fc400
0x00057806 0x00000000 0x018e0100 0x000fe400
0x71047212 0x00000004 0x078ec0ff 0x000fe400
0x00717806 0x00000000 0x020e0100 0x000fe400
0xff05b212 0x00000005 0x078e33ff 0x000fe400
0xff71c212 0x00000071 0x078e33ff 0x000fe400
0x05047212 0x00000004 0x078ec0ff 0x000fc400
0x75ff7812 0x00000080 0x0780c0ff 0x000fe400
0x00057806 0x00000000 0x028e0100 0x000fe400
0x71047212 0x00000004 0x078ec0ff 0x000fe400
0x00717806 0x00000000 0x030e0100 0x000fe400
0xff05d212 0x00000005 0x078e33ff 0x000fe400
0xff71e212 0x00000071 0x078e33ff 0x000fc400
0x05047212 0x00000004 0x078ec0ff 0x000fe400
0x00737806 0x00000000 0x000e0100 0x000fe400
0x71047212 0x00000004 0x078ec0ff 0x000fe400
0x00717919 0x00000000 0x00003a00 0x000f6200
0xff738212 0x00000073 0x078e33ff 0x000fe400
0xff057a19 0x00006900 0x00011638 0x000fe400
0x73047212 0x00000004 0x078ec0ff 0x000fc400
0x05797c12 0x00000004 0x0f8e30ff 0x000fc800
0x00777300 0x00000004 0x000e0000 0x000f2200
0x71717212 0x00000004 0x078ec0ff 0x020fe400
0x4f00720c 0x00000077 0x03f05270 0x010fca00
0x00717309 0x00000071 0x00000000 0x000f2e00
0x00000947 0x00000020 0x03800000 0x000fea00
0x75727824 0x00000004 0x078e0266 0x006fd000
0x7272738c 0x00000071 0x000000ff 0x0102a400
0x00007941 0x00000000 0x03800000 0x006fea00
0x79007804 0x0000007f 0x00000000 0x000fe200
0x00ff7355 0x00000000 0x00100000 0x000fe200
0x72727589 0x00001f77 0x000e0000 0x0002a200
0x00007945 0x00000250 0x03800000 0x000fe200
0xff767224 0x000000ff 0x078e00ff 0x000fe400
0xff747224 0x000000ff 0x078e00ff 0x000fcc00
0x00047806 0x00000000 0x000e0100 0x000fe400
0x00057806 0x00000000 0x008e0100 0x000fe400
0xff048212 0x00000004 0x078e33ff 0x000fe400
0x00737806 0x00000000 0x010e0100 0x000fe400
0xff059212 0x00000005 0x078e33ff 0x000fe400
0xff73a212 0x00000073 0x078e33ff 0x000fc400
0x05047212 0x00000004 0x078ec0ff 0x000fe400
0x00057806 0x00000000 0x018e0100 0x000fe400
0x73047212 0x00000004 0x078ec0ff 0x000fe400
0x00737806 0x00000000 0x020e0100 0x000fe400
0xff05b212 0x00000005 0x078e33ff 0x000fe400
0xff73c212 0x00000073 0x078e33ff 0x000fc400
0x05047212 0x00000004 0x078ec0ff 0x000fe400
0x79ff7812 0x00000080 0x0780c0ff 0x000fe400
0x00057806 0x00000000 0x028e0100 0x000fe400
0x73047212 0x00000004 0x078ec0ff 0x000fe400
0x00737806 0x00000000 0x030e0100 0x000fe400
0xff05d212 0x00000005 0x078e33ff 0x000fc400
0xff73e212 0x00000073 0x078e33ff 0x000fe400
0x05047212 0x00000004 0x078ec0ff 0x000fe400
0x00757806 0x00000000 0x000e0100 0x000fe400
0x73047212 0x00000004 0x078ec0ff 0x000fe400
0x00737919 0x00000000 0x00003a00 0x000f6200
0xff758212 0x00000075 0x078e33ff 0x000fe400
0xff057a19 0x00006900 0x00011637 0x000fc400
0x75047212 0x00000004 0x078ec0ff 0x000fe400
0x057d7c12 0x00000004 0x0f8e30ff 0x000fc800
0x00787300 0x00000004 0x000e0000 0x000f2200
0x73737212 0x00000004 0x078ec0ff 0x020fe400
0x4f00720c 0x00000078 0x03f05270 0x010fca00
0x00737309 0x00000073 0x00000000 0x000f2e00
0x00000947 0x00000020 0x03800000 0x000fea00
0x79747824 0x00000004 0x078e0266 0x006fd000
0x7474738c 0x00000073 0x000000ff 0x0102a400
0x00007941 0x00000000 0x03800000 0x006fea00
0x7d007804 0x0000007f 0x00000000 0x000fe200
0x00ff7355 0x00000000 0x00100000 0x000fe200
0x74747589 0x00001f78 0x000e0000 0x0002a200
0x00007945 0x00000230 0x03800000 0x000ff200
0x00047806 0x00000000 0x000e0100 0x000fc400
0x00057806 0x00000000 0x008e0100 0x000fe400
0xff048212 0x00000004 0x078e33ff 0x000fe400
0x00757806 0x00000000 0x010e0100 0x000fe400
0xff059212 0x00000005 0x078e33ff 0x000fe400
0xff75a212 0x00000075 0x078e33ff 0x000fe400
0x05047212 0x00000004 0x078ec0ff 0x000fc400
0x00057806 0x00000000 0x018e0100 0x000fe400
0x75047212 0x00000004 0x078ec0ff 0x000fe400
0x00757806 0x00000000 0x020e0100 0x000fe400
0xff05b212 0x00000005 0x078e33ff 0x000fe400
0xff75c212 0x00000075 0x078e33ff 0x000fe400
0x05047212 0x00000004 0x078ec0ff 0x000fc400
0x7dff7812 0x00000080 0x0780c0ff 0x000fe400
0x00057806 0x00000000 0x028e0100 0x000fe400
0x75047212 0x00000004 0x078ec0ff 0x000fe400
0x00757806 0x00000000 0x030e0100 0x000fe400
0xff05d212 0x00000005 0x078e33ff 0x000fe400
0xff75e212 0x00000075 0x078e33ff 0x000fc400
0x05047212 0x00000004 0x078ec0ff 0x000fe400
0x00777806 0x00000000 0x000e0100 0x000fe400
0x75047212 0x00000004 0x078ec0ff 0x000fe400
0x00757919 0x00000000 0x00003a00 0x000f6200
0xff778212 0x00000077 0x078e33ff 0x000fe400
0xff057a19 0x00006900 0x00011636 0x000fe400
0x77047212 0x00000004 0x078ec0ff 0x000fc400
0x057f7c12 0x00000004 0x0f8e30ff 0x000fc800
0x007b7300 0x00000004 0x000e0000 0x000f2200
0x75757212 0x00000004 0x078ec0ff 0x020fe400
0x4f00720c 0x0000007b 0x03f05270 0x010fca00
0x00757309 0x00000075 0x00000000 0x000f2e00
0x00000947 0x00000020 0x03800000 0x000fea00
0x7d767824 0x00000004 0x078e0266 0x006fd000
0x7676738c 0x00000075 0x000000ff 0x0102a400
0x00007941 0x00000000 0x03800000 0x006fea00
0x7f007804 0x0000007f 0x00000000 0x000fe200
0x00ff7355 0x00000000 0x00100000 0x000fe200
0x76767589 0x00001f7b 0x000e0000 0x0002a200
0x00007945 0x00000250 0x03800000 0x000fe200
0xff7a7224 0x000000ff 0x078e00ff 0x000fe400
0xff787224 0x000000ff 0x078e00ff 0x000fcc00
0x00047806 0x00000000 0x000e0100 0x000fe400
0x00057806 0x00000000 0x008e0100 0x000fe400
0xff048212 0x00000004 0x078e33ff 0x000fe400
0x00777806 0x00000000 0x010e0100 0x000fe400
0xff059212 0x00000005 0x078e33ff 0x000fe400
0xff77a212 0x00000077 0x078e33ff 0x000fc400
0x05047212 0x00000004 0x078ec0ff 0x000fe400
0x00057806 0x00000000 0x018e0100 0x000fe400
0x77047212 0x00000004 0x078ec0ff 0x000fe400
0x00777806 0x00000000 0x020e0100 0x000fe400
0xff05b212 0x00000005 0x078e33ff 0x000fe400
0xff77c212 0x00000077 0x078e33ff 0x000fc400
0x05047212 0x00000004 0x078ec0ff 0x000fe400
0x7fff7812 0x00000080 0x0780c0ff 0x000fe400
0x00057806 0x00000000 0x028e0100 0x000fe400
0x77047212 0x00000004 0x078ec0ff 0x000fe400
0x00777806 0x00000000 0x030e0100 0x000fe400
0xff05d212 0x00000005 0x078e33ff 0x000fc400
0xff77e212 0x00000077 0x078e33ff 0x000fe400
0x05047212 0x00000004 0x078ec0ff 0x000fe400
0x00797806 0x00000000 0x000e0100 0x000fe400
0x77047212 0x00000004 0x078ec0ff 0x000fe400
0x00777919 0x00000000 0x00003a00 0x000f6200
0xff798212 0x00000079 0x078e33ff 0x000fe400
0xff057a19 0x00006900 0x00011635 0x000fc400
0x79047212 0x00000004 0x078ec0ff 0x000fe400
0x057d7c12 0x00000004 0x0f8e30ff 0x000fc800
0x007c7300 0x00000004 0x000e0000 0x000f2200
0x77777212 0x00000004 0x078ec0ff 0x020fe400
0x4f00720c 0x0000007c 0x03f05270 0x010fca00
0x00777309 0x00000077 0x00000000 0x000f2e00
0x00000947 0x00000020 0x03800000 0x000fea00
0x7f787824 0x00000004 0x078e0266 0x006fd000
0x7878738c 0x00000077 0x000000ff 0x0102a400
0x00007941 0x00000000 0x03800000 0x006fea00
0x7d007804 0x0000007f 0x00000000 0x000fe200
0x00ff7355 0x00000000 0x00100000 0x000fe200
0x78787589 0x00001f7c 0x000e0000 0x0002a200
0x00007945 0x00000230 0x03800000 0x000ff200
0x00047806 0x00000000 0x000e0100 0x000fc400
0x00057806 0x00000000 0x008e0100 0x000fe400
0xff048212 0x00000004 0x078e33ff 0x000fe400
0x00797806 0x00000000 0x010e0100 0x000fe400
0xff059212 0x00000005 0x078e33ff 0x000fe400
0xff79a212 0x00000079 0x078e33ff 0x000fe400
0x05047212 0x00000004 0x078ec0ff 0x000fc400
0x00057806 0x00000000 0x018e0100 0x000fe400
0x79047212 0x00000004 0x078ec0ff 0x000fe400
0x00797806 0x00000000 0x020e0100 0x000fe400
0xff05b212 0x00000005 0x078e33ff 0x000fe400
0xff79c212 0x00000079 0x078e33ff 0x000fe400
0x05047212 0x00000004 0x078ec0ff 0x000fc400
0x7dff7812 0x00000080 0x0780c0ff 0x000fe400
0x00057806 0x00000000 0x028e0100 0x000fe400
0x79047212 0x00000004 0x078ec0ff 0x000fe400
0x00797806 0x00000000 0x030e0100 0x000fe400
0xff05d212 0x00000005 0x078e33ff 0x000fe400
0xff79e212 0x00000079 0x078e33ff 0x000fc400
0x05047212 0x00000004 0x078ec0ff 0x000fe400
0x007b7806 0x00000000 0x000e0100 0x000fe400
0x79047212 0x00000004 0x078ec0ff 0x000fe400
0x00797919 0x00000000 0x00003a00 0x000f6200
0xff7b8212 0x0000007b 0x078e33ff 0x000fe400
0xff057a19 0x00006900 0x00011634 0x000fe400
0x7b047212 0x00000004 0x078ec0ff 0x000fc400
0x05817c12 0x00000004 0x0f8e30ff 0x000fc800
0x007f7300 0x00000004 0x000e0000 0x000f2200
0x79797212 0x00000004 0x078ec0ff 0x020fe400
0x4f00720c 0x0000007f 0x03f05270 0x010fca00
0x00797309 0x00000079 0x00000000 0x000f2e00
0x00000947 0x00000020 0x03800000 0x000fea00
0x7d7a7824 0x00000004 0x078e0266 0x006fd000
0x7a7a738c 0x00000079 0x000000ff 0x0102a400
0x00007941 0x00000000 0x03800000 0x006fea00
0x81007804 0x0000007f 0x00000000 0x000fe200
0x00ff7355 0x00000000 0x00100000 0x000fe200
0x7a7a7589 0x00001f7f 0x000e0000 0x0002a200
0x00007945 0x00000250 0x03800000 0x000fe200
0xff7e7224 0x000000ff 0x078e00ff 0x000fe400
0xff7c7224 0x000000ff 0x078e00ff 0x000fcc00
0x00047806 0x00000000 0x000e0100 0x000fe400
0x00057806 0x00000000 0x008e0100 0x000fe400
0xff048212 0x00000004 0x078e33ff 0x000fe400
0x007b7806 0x00000000 0x010e0100 0x000fe400
0xff059212 0x00000005 0x078e33ff 0x000fe400
0xff7ba212 0x0000007b 0x078e33ff 0x000fc400
0x05047212 0x00000004 0x078ec0ff 0x000fe400
0x00057806 0x00000000 0x018e0100 0x000fe400
0x7b047212 0x00000004 0x078ec0ff 0x000fe400
0x007b7806 0x00000000 0x020e0100 0x000fe400
0xff05b212 0x00000005 0x078e33ff 0x000fe400
0xff7bc212 0x0000007b 0x078e33ff 0x000fc400
0x05047212 0x00000004 0x078ec0ff 0x000fe400
0x81ff7812 0x00000080 0x0780c0ff 0x000fe400
0x00057806 0x00000000 0x028e0100 0x000fe400
0x7b047212 0x00000004 0x078ec0ff 0x000fe400
0x007b7806 0x00000000 0x030e0100 0x000fe400
0xff05d212 0x00000005 0x078e33ff 0x000fc400
0xff7be212 0x0000007b 0x078e33ff 0x000fe400
0x05047212 0x00000004 0x078ec0ff 0x000fe400
0x007d7806 0x00000000 0x000e0100 0x000fe400
0x7b047212 0x00000004 0x078ec0ff 0x000fe400
0x007b7919 0x00000000 0x00003a00 0x000f6200
0xff7d8212 0x0000007d 0x078e33ff 0x000fe400
0xff057a19 0x00006900 0x00011633 0x000fc400
0x7d047212 0x00000004 0x078ec0ff 0x000fe400
0x05857c12 0x00000004 0x0f8e30ff 0x000fc800
0x00807300 0x00000004 0x000e0000 0x000f2200
0x7b7b7212 0x00000004 0x078ec0ff 0x020fe400
0x4f00720c 0x00000080 0x03f05270 0x010fca00
0x007b7309 0x0000007b 0x00000000 0x000f2e00
0x00000947 0x00000020 0x03800000 0x000fea00
0x817c7824 0x00000004 0x078e0266 0x006fd000
0x7c7c738c 0x0000007b 0x000000ff 0x0102a400
0x00007941 0x00000000 0x03800000 0x006fea00
0x85007804 0x0000007f 0x00000000 0x000fe200
0x00ff7355 0x00000000 0x00100000 0x000fe200
0x7c7c7589 0x00001f80 0x000e0000 0x0002a200
0x00007945 0x00000230 0x03800000 0x000ff200
0x00047806 0x00000000 0x000e0100 0x000fc400
0x00057806 0x00000000 0x008e0100 0x000fe400
0xff048212 0x00000004 0x078e33ff 0x000fe400
0x007d7806 0x00000000 0x010e0100 0x000fe400
0xff059212 0x00000005 0x078e33ff 0x000fe400
0xff7da212 0x0000007d 0x078e33ff 0x000fe400
0x05047212 0x00000004 0x078ec0ff 0x000fc400
0x00057806 0x00000000 0x018e0100 0x000fe400
0x7d047212 0x00000004 0x078ec0ff 0x000fe400
0x007d7806 0x00000000 0x020e0100 0x000fe400
0xff05b212 0x00000005 0x078e33ff 0x000fe400
0xff7dc212 0x0000007d 0x078e33ff 0x000fe400
0x05047212 0x00000004 0x078ec0ff 0x000fc400
0x85ff7812 0x00000080 0x0780c0ff 0x000fe400
0x00057806 0x00000000 0x028e0100 0x000fe400
0x7d047212 0x00000004 0x078ec0ff 0x000fe400
0x007d7806 0x00000000 0x030e0100 0x000fe400
0xff05d212 0x00000005 0x078e33ff 0x000fe400
0xff7de212 0x0000007d 0x078e33ff 0x000fc400
0x05047212 0x00000004 0x078ec0ff 0x000fe400
0x007f7806 0x00000000 0x000e0100 0x000fe400
0x7d047212 0x00000004 0x078ec0ff 0x000fe400
0x007d7919 0x00000000 0x00003a00 0x000f6200
0xff7f8212 0x0000007f 0x078e33ff 0x000fe400
0xff057a19 0x00006900 0x00011632 0x000fe400
0x7f047212 0x00000004 0x078ec0ff 0x000fc400
0x05877c12 0x00000004 0x0f8e30ff 0x000fc800
0x00837300 0x00000004 0x000e0000 0x000f2200
0x7d7d7212 0x00000004 0x078ec0ff 0x020fe400
0x4f00720c 0x00000083 0x03f05270 0x010fca00
0x007d7309 0x0000007d 0x00000000 0x000f2e00
0x00000947 0x00000020 0x03800000 0x000fea00
0x857e7824 0x00000004 0x078e0266 0x006fd000
0x7e7e738c 0x0000007d 0x000000ff 0x0102a400
0x00007941 0x00000000 0x03800000 0x006fea00
0x87007804 0x0000007f 0x00000000 0x000fe200
0x00ff7355 0x00000000 0x00100000 0x000fe200
0x7e7e7589 0x00001f83 0x000e0000 0x0002a200
0x00007945 0x00000250 0x03800000 0x000fe200
0xff827224 0x000000ff 0x078e00ff 0x000fe400
0xff807224 0x000000ff 0x078e00ff 0x000fcc00
0x00047806 0x00000000 0x000e0100 0x000fe400
0x00057806 0x00000000 0x008e0100 0x000fe400
0xff048212 0x00000004 0x078e33ff 0x000fe400
0x007f7806 0x00000000 0x010e0100 0x000fe400
0xff059212 0x00000005 0x078e33ff 0x000fe400
0xff7fa212 0x0000007f 0x078e33ff 0x000fc400
0x05047212 0x00000004 0x078ec0ff 0x000fe400
0x00057806 0x00000000 0x018e0100 0x000fe400
0x7f047212 0x00000004 0x078ec0ff 0x000fe400
0x007f7806 0x00000000 0x020e0100 0x000fe400
0xff05b212 0x00000005 0x078e33ff 0x000fe400
0xff7fc212 0x0000007f 0x078e33ff 0x000fc400
0x05047212 0x00000004 0x078ec0ff 0x000fe400
0x87ff7812 0x00000080 0x0780c0ff 0x000fe400
0x00057806 0x00000000 0x028e0100 0x000fe400
0x7f047212 0x00000004 0x078ec0ff 0x000fe400
0x007f7806 0x00000000 0x030e0100 0x000fe400
0xff05d212 0x00000005 0x078e33ff 0x000fc400
0xff7fe212 0x0000007f 0x078e33ff 0x000fe400
0x05047212 0x00000004 0x078ec0ff 0x000fe400
0x00817806 0x00000000 0x000e0100 0x000fe400
0x7f047212 0x00000004 0x078ec0ff 0x000fe400
0x007f7919 0x00000000 0x00003a00 0x000f6200
0xff818212 0x00000081 0x078e33ff 0x000fe400
0xff057a19 0x00006900 0x00011631 0x000fc400
0x81047212 0x00000004 0x078ec0ff 0x000fe400
0x05857c12 0x00000004 0x0f8e30ff 0x000fc800
0x00847300 0x00000004 0x000e0000 0x000f2200
0x7f7f7212 0x00000004 0x078ec0ff 0x020fe400
0x4f00720c 0x00000084 0x03f05270 0x010fca00
0x007f7309 0x0000007f 0x00000000 0x000f2e00
0x00000947 0x00000020 0x03800000 0x000fea00
0x87807824 0x00000004 0x078e0266 0x006fd000
0x8080738c 0x0000007f 0x000000ff 0x0102a400
0x00007941 0x00000000 0x03800000 0x006fea00
0x85007804 0x0000007f 0x00000000 0x000fe200
0x00ff7355 0x00000000 0x00100000 0x000fe200
0x80807589 0x00001f84 0x000e0000 0x0002a200
0x00007945 0x00000230 0x03800000 0x000ff200
0x00047806 0x00000000 0x000e0100 0x000fc400
0x00057806 0x00000000 0x008e0100 0x000fe400
0xff048212 0x00000004 0x078e33ff 0x000fe400
0x00817806 0x00000000 0x010e0100 0x000fe400
0xff059212 0x00000005 0x078e33ff 0x000fe400
0xff81a212 0x00000081 0x078e33ff 0x000fe400
0x05047212 0x00000004 0x078ec0ff 0x000fc400
0x00057806 0x00000000 0x018e0100 0x000fe400
0x81047212 0x00000004 0x078ec0ff 0x000fe400
0x00817806 0x00000000 0x020e0100 0x000fe400
0xff05b212 0x00000005 0x078e33ff 0x000fe400
0xff81c212 0x00000081 0x078e33ff 0x000fe400
0x05047212 0x00000004 0x078ec0ff 0x000fc400
0x85ff7812 0x00000080 0x0780c0ff 0x000fe400
0x00057806 0x00000000 0x028e0100 0x000fe400
0x81047212 0x00000004 0x078ec0ff 0x000fe400
0x00817806 0x00000000 0x030e0100 0x000fe400
0xff05d212 0x00000005 0x078e33ff 0x000fe400
0xff81e212 0x00000081 0x078e33ff 0x000fc400
0x05047212 0x00000004 0x078ec0ff 0x000fe400
0x00837806 0x00000000 0x000e0100 0x000fe400
0x81047212 0x00000004 0x078ec0ff 0x000fe400
0x00817919 0x00000000 0x00003a00 0x000f6200
0xff838212 0x00000083 0x078e33ff 0x000fe400
0xff057a19 0x00006900 0x00011630 0x000fe400
0x83047212 0x00000004 0x078ec0ff 0x000fc400
0x05877c12 0x00000004 0x0f8e30ff 0x000fc800
0x00867300 0x00000004 0x000e0000 0x000f2200
0x81817212 0x00000004 0x078ec0ff 0x020fe400
0x4f00720c 0x00000086 0x03f05270 0x010fca00
0x00817309 0x00000081 0x00000000 0x000f2e00
0x00000947 0x00000020 0x03800000 0x000fea00
0x85827824 0x00000004 0x078e0266 0x006fd000
0x8282738c 0x00000081 0x000000ff 0x0102a400
0x00007941 0x00000000 0x03800000 0x006fea00
0x87007804 0x0000007f 0x00000000 0x000fe200
0x00ff7355 0x00000000 0x00100000 0x000fe200
0x82827589 0x00001f86 0x000e0000 0x0002a200
0x00007945 0x00000250 0x03800000 0x000fe200
0xff8a7224 0x000000ff 0x078e00ff 0x000fe400
0xff847224 0x000000ff 0x078e00ff 0x000fcc00
0x00047806 0x00000000 0x000e0100 0x000fe400
0x00057806 0x00000000 0x008e0100 0x000fe400
0xff048212 0x00000004 0x078e33ff 0x000fe400
0x00837806 0x00000000 0x010e0100 0x000fe400
0xff059212 0x00000005 0x078e33ff 0x000fe400
0xff83a212 0x00000083 0x078e33ff 0x000fc400
0x05047212 0x00000004 0x078ec0ff 0x000fe400
0x00057806 0x00000000 0x018e0100 0x000fe400
0x83047212 0x00000004 0x078ec0ff 0x000fe400
0x00837806 0x00000000 0x020e0100 0x000fe400
0xff05b212 0x00000005 0x078e33ff 0x000fe400
0xff83c212 0x00000083 0x078e33ff 0x000fc400
0x05047212 0x00000004 0x078ec0ff 0x000fe400
0x87ff7812 0x00000080 0x0780c0ff 0x000fe400
0x00057806 0x00000000 0x028e0100 0x000fe400
0x83047212 0x00000004 0x078ec0ff 0x000fe400
0x00837806 0x00000000 0x030e0100 0x000fe400
0xff05d212 0x00000005 0x078e33ff 0x000fc400
0xff83e212 0x00000083 0x078e33ff 0x000fe400
0x05047212 0x00000004 0x078ec0ff 0x000fe400
0x00857806 0x00000000 0x000e0100 0x000fe400
0x83047212 0x00000004 0x078ec0ff 0x000fe400
0x00837919 0x00000000 0x00003a00 0x000f6200
0xff858212 0x00000085 0x078e33ff 0x000fe400
0xff057a19 0x00006900 0x0001162f 0x000fc400
0x85047212 0x00000004 0x078ec0ff 0x000fe400
0x058d7c12 0x00000004 0x0f8e30ff 0x000fc800
0x00897300 0x00000004 0x000e0000 0x000f2200
0x83837212 0x00000004 0x078ec0ff 0x020fe400
0x4f00720c 0x00000089 0x03f05270 0x010fca00
0x00837309 0x00000083 0x00000000 0x000f2e00
0x00000947 0x00000020 0x03800000 0x000fea00
0x87847824 0x00000004 0x078e0266 0x006fd000
0x8484738c 0x00000083 0x000000ff 0x0102a400
0x00007941 0x00000000 0x03800000 0x006fea00
0x8d007804 0x0000007f 0x00000000 0x000fe200
0x00ff7355 0x00000000 0x00100000 0x000fe200
0x84847589 0x00001f89 0x000e0000 0x0002a200
0x00007945 0x00000230 0x03800000 0x000ff200
0x00047806 0x00000000 0x000e0100 0x000fc400
0x00057806 0x00000000 0x008e0100 0x000fe400
0xff048212 0x00000004 0x078e33ff 0x000fe400
0x00857806 0x00000000 0x010e0100 0x000fe400
0xff059212 0x00000005 0x078e33ff 0x000fe400
0xff85a212 0x00000085 0x078e33ff 0x000fe400
0x05047212 0x00000004 0x078ec0ff 0x000fc400
0x00057806 0x00000000 0x018e0100 0x000fe400
0x85047212 0x00000004 0x078ec0ff 0x000fe400
0x00857806 0x00000000 0x020e0100 0x000fe400
0xff05b212 0x00000005 0x078e33ff 0x000fe400
0xff85c212 0x00000085 0x078e33ff 0x000fe400
0x05047212 0x00000004 0x078ec0ff 0x000fc400
0x8dff7812 0x00000080 0x0780c0ff 0x000fe400
0x00057806 0x00000000 0x028e0100 0x000fe400
0x85047212 0x00000004 0x078ec0ff 0x000fe400
0x00857806 0x00000000 0x030e0100 0x000fe400
0xff05d212 0x00000005 0x078e33ff 0x000fe400
0xff85e212 0x00000085 0x078e33ff 0x000fc400
0x05047212 0x00000004 0x078ec0ff 0x000fe400
0x00877806 0x00000000 0x000e0100 0x000fe400
0x85047212 0x00000004 0x078ec0ff 0x000fe400
0x00857919 0x00000000 0x00003a00 0x000f6200
0xff878212 0x00000087 0x078e33ff 0x000fe400
0xff057a19 0x00006900 0x0001162e 0x000fe400
0x87047212 0x00000004 0x078ec0ff 0x000fc400
0x058f7c12 0x00000004 0x0f8e30ff 0x000fc800
0x008b7300 0x00000004 0x000e0000 0x000f2200
0x85857212 0x00000004 0x078ec0ff 0x020fe400
0x4f00720c 0x0000008b 0x03f05270 0x010fca00
0x00857309 0x00000085 0x00000000 0x000f2e00
0x00000947 0x00000020 0x03800000 0x000fea00
0x8d8a7824 0x00000004 0x078e0266 0x006fd000
0x8a8a738c 0x00000085 0x000000ff 0x0102a400
0x00007941 0x00000000 0x03800000 0x006fea00
0x8f007804 0x0000007f 0x00000000 0x000fe200
0x00ff7355 0x00000000 0x00100000 0x000fe200
0x8a8a7589 0x00001f8b 0x000e0000 0x0002a200
0x00007945 0x00000250 0x03800000 0x000fe200
0xff8c7224 0x000000ff 0x078e00ff 0x000fd000
0x00047806 0x00000000 0x000e0100 0x000fe400
0x00057806 0x00000000 0x008e0100 0x000fe400
0xff048212 0x00000004 0x078e33ff 0x000fe400
0xff059212 0x00000005 0x078e33ff 0x000fe400
0x00877806 0x00000000 0x010e0100 0x000fe400
0x05047212 0x00000004 0x078ec0ff 0x000fc400
0xff87a212 0x00000087 0x078e33ff 0x000fe400
0x00057806 0x00000000 0x018e0100 0x000fe400
0x87047212 0x00000004 0x078ec0ff 0x000fe400
0xff05b212 0x00000005 0x078e33ff 0x000fe400
0x00877806 0x00000000 0x020e0100 0x000fe400
0x8fff7812 0x00000080 0x0780c0ff 0x000fc400
0x05047212 0x00000004 0x078ec0ff 0x000fe400
0x00057806 0x00000000 0x028e0100 0x000fe400
0xff87c212 0x00000087 0x078e33ff 0x000fe400
0xff05d212 0x00000005 0x078e33ff 0x000fe400
0x87047212 0x00000004 0x078ec0ff 0x000fe400
0x00877806 0x00000000 0x030e0100 0x000fc400
0x00897806 0x00000000 0x000e0100 0x000fe400
0xff87e212 0x00000087 0x078e33ff 0x000fe400
0x05047212 0x00000004 0x078ec0ff 0x000fe400
0x00057919 0x00000000 0x00003a00 0x000f6200
0xff898212 0x00000089 0x078e33ff 0x000fe400
0x87047212 0x00000004 0x078ec0ff 0x000fe400
0xff877a19 0x00006900 0x0001162d 0x000fc400
0x89047212 0x00000004 0x078ec0ff 0x000fe200
0xff897224 0x000000ff 0x078e00ff 0x000fe200
0x878d7c12 0x00000004 0x0f8e30ff 0x000fc800
0x008e7300 0x00000004 0x000e0000 0x000f2200
0x05867212 0x00000004 0x078ec0ff 0x020fe400
0x4f00720c 0x0000008e 0x03f05270 0x010fca00
0x00867309 0x00000086 0x00000000 0x000f2e00
0x00000947 0x00000020 0x03800000 0x000fea00
0x8f897824 0x00000004 0x078e0266 0x006fd000
0x8989738c 0x00000086 0x000000ff 0x0102a400
0x00007941 0x00000000 0x03800000 0x006fea00
0x8d007804 0x0000007f 0x00000000 0x000fe200
0x00ff7355 0x00000000 0x00100000 0x000fe200
0x89897589 0x00001f8e 0x000e0000 0x0002a200
0x00007945 0x00000230 0x03800000 0x000ff200
0x00047806 0x00000000 0x000e0100 0x000fc400
0x00057806 0x00000000 0x008e0100 0x000fe400
0xff048212 0x00000004 0x078e33ff 0x000fe400
0x00877806 0x00000000 0x010e0100 0x000fe400
0xff059212 0x00000005 0x078e33ff 0x000fe400
0xff87a212 0x00000087 0x078e33ff 0x000fe400
0x05047212 0x00000004 0x078ec0ff 0x000fc400
0x00057806 0x00000000 0x018e0100 0x000fe400
0x87047212 0x00000004 0x078ec0ff 0x000fe400
0x00877806 0x00000000 0x020e0100 0x000fe400
0xff05b212 0x00000005 0x078e33ff 0x000fe400
0xff87c212 0x00000087 0x078e33ff 0x000fe400
0x05047212 0x00000004 0x078ec0ff 0x000fc400
0x8dff7812 0x00000080 0x0780c0ff 0x000fe400
0x00057806 0x00000000 0x028e0100 0x000fe400
0x87047212 0x00000004 0x078ec0ff 0x000fe400
0x00877806 0x00000000 0x030e0100 0x000fe400
0xff05d212 0x00000005 0x078e33ff 0x000fe400
0xff87e212 0x00000087 0x078e33ff 0x000fc400
0x05047212 0x00000004 0x078ec0ff 0x000fe400
0x008b7806 0x00000000 0x000e0100 0x000fe400
0x87047212 0x00000004 0x078ec0ff 0x000fe400
0x00877919 0x00000000 0x00003a00 0x000f6200
0xff8b8212 0x0000008b 0x078e33ff 0x000fe400
0xff057a19 0x00006900 0x0001162c 0x000fe400
0x8b047212 0x00000004 0x078ec0ff 0x000fc400
0x05937c12 0x00000004 0x0f8e30ff 0x000fc800
0x008f7300 0x00000004 0x000e0000 0x000f2200
0x87877212 0x00000004 0x078ec0ff 0x020fe400
0x4f00720c 0x0000008f 0x03f05270 0x010fca00
0x00877309 0x00000087 0x00000000 0x000f2e00
0x00000947 0x00000020 0x03800000 0x000fea00
0x8d8c7824 0x00000004 0x078e0266 0x006fd000
0x8c8c738c 0x00000087 0x000000ff 0x0102a400
0x00007941 0x00000000 0x03800000 0x006fea00
0x93007804 0x0000007f 0x00000000 0x000fe200
0x00ff7355 0x00000000 0x00100000 0x000fe200
0x8c8c7589 0x00001f8f 0x000e0000 0x0002a200
0x00007945 0x00000250 0x03800000 0x000fe200
0xff907224 0x000000ff 0x078e00ff 0x000fe400
0xff8e7224 0x000000ff 0x078e00ff 0x000fcc00
0x00047806 0x00000000 0x000e0100 0x000fe400
0x00057806 0x00000000 0x008e0100 0x000fe400
0xff048212 0x00000004 0x078e33ff 0x000fe400
0x008b7806 0x00000000 0x010e0100 0x000fe400
0xff059212 0x00000005 0x078e33ff 0x000fe400
0xff8ba212 0x0000008b 0x078e33ff 0x000fc400
0x05047212 0x00000004 0x078ec0ff 0x000fe400
0x00057806 0x00000000 0x018e0100 0x000fe400
0x8b047212 0x00000004 0x078ec0ff 0x000fe400
0x008b7806 0x00000000 0x020e0100 0x000fe400
0xff05b212 0x00000005 0x078e33ff 0x000fe400
0xff8bc212 0x0000008b 0x078e33ff 0x000fc400
0x05047212 0x00000004 0x078ec0ff 0x000fe400
0x93ff7812 0x00000080 0x0780c0ff 0x000fe400
0x00057806 0x00000000 0x028e0100 0x000fe400
0x8b047212 0x00000004 0x078ec0ff 0x000fe400
0x008b7806 0x00000000 0x030e0100 0x000fe400
0xff05d212 0x00000005 0x078e33ff 0x000fc400
0xff8be212 0x0000008b 0x078e33ff 0x000fe400
0x05047212 0x00000004 0x078ec0ff 0x000fe400
0x008d7806 0x00000000 0x000e0100 0x000fe400
0x8b047212 0x00000004 0x078ec0ff 0x000fe400
0x008b7919 0x00000000 0x00003a00 0x000f6200
0xff8d8212 0x0000008d 0x078e33ff 0x000fe400
0xff057a19 0x00006900 0x0001162b 0x000fc400
0x8d047212 0x00000004 0x078ec0ff 0x000fe400
0x05957c12 0x00000004 0x0f8e30ff 0x000fc800
0x00917300 0x00000004 0x000e0000 0x000f2200
0x8b8b7212 0x00000004 0x078ec0ff 0x020fe400
0x4f00720c 0x00000091 0x03f05270 0x010fca00
0x008b7309 0x0000008b 0x00000000 0x000f2e00
0x00000947 0x00000020 0x03800000 0x000fea00
0x938e7824 0x00000004 0x078e0266 0x006fd000
0x8e8e738c 0x0000008b 0x000000ff 0x0102a400
0x00007941 0x00000000 0x03800000 0x006fea00
0x95007804 0x0000007f 0x00000000 0x000fe200
0x00ff7355 0x00000000 0x00100000 0x000fe200
0x8e8e7589 0x00001f91 0x000e0000 0x0002a200
0x00007945 0x00000230 0x03800000 0x000ff200
0x00047806 0x00000000 0x000e0100 0x000fc400
0x00057806 0x00000000 0x008e0100 0x000fe400
0xff048212 0x00000004 0x078e33ff 0x000fe400
0x008d7806 0x00000000 0x010e0100 0x000fe400
0xff059212 0x00000005 0x078e33ff 0x000fe400
0xff8da212 0x0000008d 0x078e33ff 0x000fe400
0x05047212 0x00000004 0x078ec0ff 0x000fc400
0x00057806 0x00000000 0x018e0100 0x000fe400
0x8d047212 0x00000004 0x078ec0ff 0x000fe400
0x008d7806 0x00000000 0x020e0100 0x000fe400
0xff05b212 0x00000005 0x078e33ff 0x000fe400
0xff8dc212 0x0000008d 0x078e33ff 0x000fe400
0x05047212 0x00000004 0x078ec0ff 0x000fc400
0x95ff7812 0x00000080 0x0780c0ff 0x000fe400
0x00057806 0x00000000 0x028e0100 0x000fe400
0x8d047212 0x00000004 0x078ec0ff 0x000fe400
0x008d7806 0x00000000 0x030e0100 0x000fe400
0xff05d212 0x00000005 0x078e33ff 0x000fe400
0xff8de212 0x0000008d 0x078e33ff 0x000fc400
0x05047212 0x00000004 0x078ec0ff 0x000fe400
0x008f7806 0x00000000 0x000e0100 0x000fe400
0x8d047212 0x00000004 0x078ec0ff 0x000fe400
0x008d7919 0x00000000 0x00003a00 0x000f6200
0xff8f8212 0x0000008f 0x078e33ff 0x000fe400
0xff057a19 0x00006900 0x0001162a 0x000fe400
0x8f047212 0x00000004 0x078ec0ff 0x000fc400
0x05937c12 0x00000004 0x0f8e30ff 0x000fc800
0x00927300 0x00000004 0x000e0000 0x000f2200
0x8d8d7212 0x00000004 0x078ec0ff 0x020fe400
0x4f00720c 0x00000092 0x03f05270 0x010fca00
0x008d7309 0x0000008d 0x00000000 0x000f2e00
0x00000947 0x00000020 0x03800000 0x000fea00
0x95907824 0x00000004 0x078e0266 0x006fd000
0x9090738c 0x0000008d 0x000000ff 0x0102a400
0x00007941 0x00000000 0x03800000 0x006fea00
0x93007804 0x0000007f 0x00000000 0x000fe200
0x00947919 0x00000000 0x00003a00 0x000e6200
0x00ff7355 0x00000000 0x00100000 0x000fe200
0x00007945 0x00000250 0x03800000 0x000fe400
0x90907589 0x00001f92 0x000e0000 0x00052e00
0x00047806 0x00000000 0x000e0100 0x000fc400
0x00057806 0x00000000 0x008e0100 0x000fe400
0xff048212 0x00000004 0x078e33ff 0x000fe400
0x008f7806 0x00000000 0x010e0100 0x000fe400
0xff059212 0x00000005 0x078e33ff 0x000fe400
0xff8fa212 0x0000008f 0x078e33ff 0x000fe400
0x05047212 0x00000004 0x078ec0ff 0x000fc400
0x00057806 0x00000000 0x018e0100 0x000fe400
0x8f047212 0x00000004 0x078ec0ff 0x000fe400
0x008f7806 0x00000000 0x020e0100 0x000fe400
0xff05b212 0x00000005 0x078e33ff 0x000fe400
0x93ff7812 0x00000080 0x0780c0ff 0x000fe400
0xff8fc212 0x0000008f 0x078e33ff 0x000fc400
0x05047212 0x00000004 0x078ec0ff 0x000fe400
0x00057806 0x00000000 0x028e0100 0x000fe400
0x8f047212 0x00000004 0x078ec0ff 0x000fe400
0x008f7806 0x00000000 0x030e0100 0x000fe400
0xff05d212 0x00000005 0x078e33ff 0x000fe400
0x00917806 0x00000000 0x000e0100 0x000fc400
0xff8fe212 0x0000008f 0x078e33ff 0x000fe400
0x05047212 0x00000004 0x078ec0ff 0x000fe400
0xff918212 0x00000091 0x078e33ff 0x000fe400
0x8f047212 0x00000004 0x078ec0ff 0x000fc800
0x91057212 0x00000004 0x078ec0ff 0x000fe200
0xff047224 0x000000ff 0x078e00ff 0x000fe200
0xff917a19 0x00006900 0x00011629 0x000fe400
0x948f7212 0x00000005 0x078ec0ff 0x002fe400
0x00967300 0x00000005 0x000e0000 0x000e6200
0x91987c12 0x00000004 0x0f8e30ff 0x000fe200
0xff917224 0x000000ff 0x078e00ff 0x000fcc00
0x008f7309 0x0000008f 0x00000000 0x000ee200
0x4f00720c 0x00000096 0x03f05270 0x002fd800
0x00000947 0x00000020 0x03800000 0x000fea00
0x93667824 0x00000004 0x078e0266 0x01cfd000
0x6691738c 0x0000008f 0x000000ff 0x0002a400
0x00007941 0x00000000 0x03800000 0x01cfea00
0x98007804 0x0000007f 0x00000000 0x000fe200
0x00ff7355 0x00000000 0x00100000 0x000fe200
0x00007945 0x00000250 0x03800000 0x000ff400
0x00057806 0x00000000 0x000e0100 0x000fc400
0x00667806 0x00000000 0x008e0100 0x002fe400
0xff058212 0x00000005 0x078e33ff 0x000fe400
0x00927806 0x00000000 0x010e0100 0x000fe400
0xff669212 0x00000066 0x078e33ff 0x000fe400
0xff92a212 0x00000092 0x078e33ff 0x000fe400
0x66057212 0x00000005 0x078ec0ff 0x000fc400
0x00667806 0x00000000 0x018e0100 0x000fe400
0x92057212 0x00000005 0x078ec0ff 0x000fe400
0x00927806 0x00000000 0x020e0100 0x000fe400
0xff66b212 0x00000066 0x078e33ff 0x000fe400
0xff92c212 0x00000092 0x078e33ff 0x000fe400
0x66057212 0x00000005 0x078ec0ff 0x000fc400
0x98ff7812 0x00000080 0x0780c0ff 0x000fe400
0x00667806 0x00000000 0x028e0100 0x000fe400
0x92057212 0x00000005 0x078ec0ff 0x000fe400
0x00927806 0x00000000 0x030e0100 0x000fe400
0xff66d212 0x00000066 0x078e33ff 0x000fe400
0xff92e212 0x00000092 0x078e33ff 0x000fc400
0x66057212 0x00000005 0x078ec0ff 0x000fe400
0x00947806 0x00000000 0x000e0100 0x000fe400
0x92057212 0x00000005 0x078ec0ff 0x000fe400
0x00927919 0x00000000 0x00003a00 0x000e6200
0xff948212 0x00000094 0x078e33ff 0x000fe400
0xff667a19 0x00006900 0x00011628 0x000fe400
0x94057212 0x00000005 0x078ec0ff 0x000fc400
0x669a7c12 0x00000004 0x0f8e30ff 0x000fc800
0x00957300 0x00000005 0x000e0000 0x000ea200
0x91667589 0x00001f96 0x000e0000 0x00072200
0x92927212 0x00000005 0x078ec0ff 0x002fe400
0x4f00720c 0x00000095 0x03f05270 0x004fc800
0x00977309 0x00000092 0x00000000 0x00067000
0x00000947 0x00000030 0x03800000 0x000fea00
0xff057819 0x00000005 0x00011627 0x010fca00
0x05047824 0x00000100 0x078e0298 0x000fd000
0x0404738c 0x00000097 0x000040ff 0x0022a400
0x00007941 0x00000000 0x03800000 0x010fea00
0x9a007804 0x0000007f 0x00000000 0x000fe200
0x00ff7355 0x00000000 0x00100000 0x000fe200
0x00007945 0x00000270 0x03800000 0x000fe200
0xff917224 0x000000ff 0x078e00ff 0x008fd200
0x00057806 0x00000000 0x000e0100 0x000fe400
0x00927806 0x00000000 0x008e0100 0x000fe400
0xff058212 0x00000005 0x078e33ff 0x000fe400
0xff929212 0x00000092 0x078e33ff 0x000fe400
0x00947806 0x00000000 0x010e0100 0x000fe400
0x92057212 0x00000005 0x078ec0ff 0x000fc400
0xff94a212 0x00000094 0x078e33ff 0x000fe400
0x00927806 0x00000000 0x018e0100 0x000fe400
0x94057212 0x00000005 0x078ec0ff 0x000fe400
0xff92b212 0x00000092 0x078e33ff 0x000fe400
0x00947806 0x00000000 0x020e0100 0x000fe400
0x9aff7812 0x00000080 0x0780c0ff 0x000fc400
0x92057212 0x00000005 0x078ec0ff 0x000fe400
0x00927806 0x00000000 0x028e0100 0x000fe400
0xff94c212 0x00000094 0x078e33ff 0x000fe400
0xff92d212 0x00000092 0x078e33ff 0x000fe400
0x94057212 0x00000005 0x078ec0ff 0x000fe400
0x00947806 0x00000000 0x030e0100 0x000fc400
0x00967806 0x00000000 0x000e0100 0x000fe400
0xff94e212 0x00000094 0x078e33ff 0x000fe400
0x92057212 0x00000005 0x078ec0ff 0x000fe400
0x00927919 0x00000000 0x00003a00 0x000ee200
0xff968212 0x00000096 0x078e33ff 0x000fe400
0x94057212 0x00000005 0x078ec0ff 0x000fe400
0xff947a19 0x00006900 0x00011626 0x000fc400
0x96057212 0x00000005 0x078ec0ff 0x000fe400
0x949b7c12 0x00000004 0x0f8e30ff 0x000fe200
0xff947224 0x000000ff 0x078e00ff 0x000fc600
0x00967300 0x00000005 0x000e0000 0x000f2200
0x92937212 0x00000005 0x078ec0ff 0x008fe400
0x04927589 0x00001f95 0x000e0000 0x0044e200
0x4f00720c 0x00000096 0x03f05270 0x010fc800
0x00997309 0x00000093 0x00000000 0x00053000
0x00000947 0x00000030 0x03800000 0x000fea00
0xff057819 0x00000005 0x00011627 0x004fca00
0x05947824 0x00000100 0x078e029a 0x000fd000
0x9494738c 0x00000099 0x000040ff 0x01052400
0x00007941 0x00000000 0x03800000 0x004fea00
0x9b007804 0x0000007f 0x00000000 0x000fe200
0x009a7919 0x00000000 0x00003a00 0x000ea200
0x00ff7355 0x00000000 0x00100000 0x000fe200
0x00007945 0x00000240 0x03800000 0x000fe400
0x94947589 0x00001f96 0x000e0000 0x0108ee00
0x00047806 0x00000000 0x000e0100 0x000fc400
0x00057806 0x00000000 0x008e0100 0x000fe400
0xff048212 0x00000004 0x078e33ff 0x000fe400
0x00937806 0x00000000 0x010e0100 0x000fe400
0xff059212 0x00000005 0x078e33ff 0x000fe400
0xff93a212 0x00000093 0x078e33ff 0x000fe400
0x05047212 0x00000004 0x078ec0ff 0x000fc400
0x00057806 0x00000000 0x018e0100 0x000fe400
0x93047212 0x00000004 0x078ec0ff 0x000fe400
0x00937806 0x00000000 0x020e0100 0x000fe400
0xff05b212 0x00000005 0x078e33ff 0x000fe400
0x9bff7812 0x00000080 0x0780c0ff 0x000fe400
0xff93c212 0x00000093 0x078e33ff 0x000fc400
0x05047212 0x00000004 0x078ec0ff 0x000fe400
0x00057806 0x00000000 0x028e0100 0x000fe400
0x93047212 0x00000004 0x078ec0ff 0x000fe400
0x00937806 0x00000000 0x030e0100 0x000fe400
0xff05d212 0x00000005 0x078e33ff 0x000fe400
0x00957806 0x00000000 0x000e0100 0x000fc400
0xff93e212 0x00000093 0x078e33ff 0x000fe400
0x05047212 0x00000004 0x078ec0ff 0x000fe400
0xff958212 0x00000095 0x078e33ff 0x000fe400
0x93047212 0x00000004 0x078ec0ff 0x000fc800
0x95937212 0x00000004 0x078ec0ff 0x000fe200
0xff047424 0x00000004 0x078e00ff 0x000fc800
0x27047625 0x00005e00 0x078e0204 0x000fe200
0x00987300 0x00000093 0x000e0000 0x000f6400
0x4f00720c 0x00000098 0x03f05270 0x020fe400
0x9a4f7212 0x00000093 0x078ec0ff 0x004fcc00
0x009a7309 0x0000004f 0x00000000 0x0008a800
0x00000947 0x00000030 0x03800000 0x000fea00
0xff967819 0x00000005 0x00011627 0x018fca00
0x96917824 0x00000100 0x078e029b 0x000fd000
0x9191738c 0x0000009a 0x000040ff 0x0044e400
0x00007941 0x00000000 0x03800000 0x008fea00
0x00007b1d 0x00000000 0x00000000 0x000fea00
0x04047381 0x00000000 0x001ee900 0x000ee200
0x07077810 0xffffffff 0x07ffe008 0x001fe400
0x09087810 0xffffffff 0x07ffe00a 0x000fe200
0x91917589 0x00001f98 0x000e0000 0x000e2200
0x0b097810 0xffffffff 0x07ffe00c 0x000fe200
0x07077824 0x00000004 0x078e00ff 0x000fe200
0x0d0a7810 0xffffffff 0x07ffe00e 0x000fe200
0x08087824 0x00000004 0x078e00ff 0x000fe200
0x0f0b7810 0xffffffff 0x07ffe012 0x000fe200
0x09097824 0x00000004 0x078e00ff 0x000fe200
0x100c7810 0xffffffff 0x07ffe013 0x000fe200
0x0a0a7824 0x00000004 0x078e00ff 0x000fe200
0x110d7810 0xffffffff 0x07ffe014 0x000fe200
0x0b0b7824 0x00000004 0x078e00ff 0x000fe200
0x150e7810 0xffffffff 0x07ffe016 0x000fe200
0x0c0c7824 0x00000004 0x078e00ff 0x000fe200
0x170f7810 0xffffffff 0x07ffe018 0x000fe200
0x0d0d7824 0x00000004 0x078e00ff 0x000fe200
0x19107810 0xffffffff 0x07ffe01a 0x000fe200
0x0e0e7824 0x00000004 0x078e00ff 0x000fe200
0x1b117810 0xffffffff 0x07ffe01c 0x000fe200
0x07007388 0x0000004e 0x00000800 0x000fe200
0x1d127810 0xffffffff 0x07ffe01e 0x000fe200
0x0f0f7824 0x00000004 0x078e00ff 0x000fe200
0x1f137810 0xffffffff 0x07ffe020 0x000fe200
0x08007388 0x00000051 0x00000800 0x000fe200
0x21147810 0xffffffff 0x07ffe022 0x000fe200
0x10107824 0x00000004 0x078e00ff 0x000fe200
0x23157810 0xffffffff 0x07ffe056 0x000fe200
0x09007388 0x00000050 0x00000800 0x000fe200
0x58167810 0xffffffff 0x07ffe059 0x000fe200
0x11117824 0x00000004 0x078e00ff 0x000fe200
0x5a177810 0xffffffff 0x07ffe05b 0x000fe200
0x0a007388 0x00000053 0x00000800 0x000fe200
0x12127824 0x00000004 0x078e00ff 0x000fe200
0x5c187810 0xffffffff 0x07ffe05d 0x000fe200
0x13137824 0x00000004 0x078e00ff 0x000fe200
0x0b007388 0x00000052 0x00000800 0x000fe200
0x5e197810 0xffffffff 0x07ffe05f 0x000fe200
0x14147824 0x00000004 0x078e00ff 0x000fe200
0x601a7810 0xffffffff 0x07ffe061 0x000fe200
0x0c007388 0x00000055 0x00000800 0x000fe200
0x15157824 0x00000004 0x078e00ff 0x000fe200
0x621b7810 0xffffffff 0x07ffe063 0x000fe200
0x16167824 0x00000004 0x078e00ff 0x000fe200
0x0d007388 0x00000054 0x00000800 0x000fe200
0x641c7810 0xffffffff 0x07ffe067 0x000fe200
0x17177824 0x00000004 0x078e00ff 0x000fe200
0x651d7810 0xffffffff 0x07ffe06a 0x000fe200
0x0e007388 0x0000004d 0x00000800 0x000fe200
0x18187824 0x00000004 0x078e00ff 0x000fe200
0x681e7810 0xffffffff 0x07ffe069 0x000fe200
0x19197824 0x00000004 0x078e00ff 0x000fe200
0x0f007388 0x0000004c 0x00000800 0x000fe200
0x6b1f7810 0xffffffff 0x07ffe06c 0x000fe200
0x1a1a7824 0x00000004 0x078e00ff 0x000fe200
0x6d207810 0xffffffff 0x07ffe06e 0x000fe200
0x10007388 0x0000004b 0x00000800 0x000fe200
0x1b1b7824 0x00000004 0x078e00ff 0x000fe200
0x6f217810 0xffffffff 0x07ffe070 0x000fe200
0x1c1c7824 0x00000004 0x078e00ff 0x000fe200
0x11007388 0x0000004a 0x00000800 0x000fe200
0x71227810 0xffffffff 0x07ffe072 0x000fe200
0x1d1d7824 0x00000004 0x078e00ff 0x000fe200
0x73237810 0xffffffff 0x07ffe074 0x000fe200
0x12007388 0x00000049 0x00000800 0x000fe200
0x1e1e7824 0x00000004 0x078e00ff 0x000fe200
0x75767810 0xffffffff 0x07ffe076 0x000fe200
0x1f1f7824 0x00000004 0x078e00ff 0x000fe200
0x13007388 0x00000048 0x00000800 0x000fe200
0x77787810 0xffffffff 0x07ffe078 0x000fe200
0x20207824 0x00000004 0x078e00ff 0x000fe200
0x797a7810 0xffffffff 0x07ffe07a 0x000fe200
0x14007388 0x00000047 0x00000800 0x000fe200
0x21217824 0x00000004 0x078e00ff 0x000fe200
0x7b7c7810 0xffffffff 0x07ffe07c 0x000fe200
0x22227824 0x00000004 0x078e00ff 0x000fe200
0x15007388 0x00000046 0x00000800 0x000fe200
0x7d7e7810 0xffffffff 0x07ffe07e 0x000fe200
0x23237824 0x00000004 0x078e00ff 0x000fe200
0x7f807810 0xffffffff 0x07ffe080 0x000fe200
0x16007388 0x00000045 0x00000800 0x000fe200
0x81827810 0xffffffff 0x07ffe082 0x000fe200
0x9a917824 0x00000001 0x078e0291 0x005fe200
0x83847810 0xffffffff 0x07ffe084 0x000fe200
0x17007388 0x00000044 0x00000800 0x000fe200
0x858a7810 0xffffffff 0x07ffe08a 0x000fc400
0x86897810 0xffffffff 0x07ffe089 0x000fe200
0x18007388 0x00000043 0x00000800 0x0001e200
0x878c7810 0xffffffff 0x07ffe08c 0x000fe400
0x8b8e7810 0xffffffff 0x07ffe08e 0x000fe200
0x19007388 0x00000042 0x00000800 0x0005e200
0x8d907810 0xffffffff 0x07ffe090 0x000fe400
0x8f667810 0xffffffff 0x07ffe066 0x000fe200
0x1a007388 0x00000041 0x00000800 0x000be200
0x97927810 0xffffffff 0x07ffe092 0x002fe200
0x91437824 0x00000004 0x078e00ff 0x001fe200
0x99947810 0xffffffff 0x07ffe094 0x000fe200
0x1b007388 0x00000040 0x00000800 0x0001e200
0x76427824 0x00000004 0x078e00ff 0x004fe200
0x2400780c 0x00000001 0x03f06270 0x000fc400
0x1c007388 0x0000003f 0x00000800 0x0003e200
0x78417824 0x00000004 0x078e00ff 0x020fc600
0x1d007388 0x0000003e 0x00000800 0x0005e200
0x7e407824 0x00000004 0x078e00ff 0x001fc600
0x1e007388 0x0000003d 0x00000800 0x0001e200
0x7c3f7824 0x00000004 0x078e00ff 0x002fc600
0x1f007388 0x0000003c 0x00000800 0x0003e200
0x7a3e7824 0x00000004 0x078e00ff 0x004fc600
0x20007388 0x0000003b 0x00000800 0x0005e200
0x803d7824 0x00000004 0x078e00ff 0x001fc600
0x21007388 0x0000003a 0x00000800 0x0001e200
0x823c7824 0x00000004 0x078e00ff 0x002fc600
0x22007388 0x00000039 0x00000800 0x0003e200
0x843b7824 0x00000004 0x078e00ff 0x004fc600
0x23007388 0x00000038 0x00000800 0x0005e200
0x8a3a7824 0x00000004 0x078e00ff 0x001fc600
0x42007388 0x00000037 0x00000800 0x0001e200
0x89397824 0x00000004 0x078e00ff 0x002fc600
0x41007388 0x00000036 0x00000800 0x0003e200
0x90387824 0x00000004 0x078e00ff 0x004fc600
0x3e007388 0x00000035 0x00000800 0x0005e200
0x8e377824 0x00000004 0x078e00ff 0x001fc600
0x3f007388 0x00000034 0x00000800 0x0001e200
0x8c367824 0x00000004 0x078e00ff 0x002fc600
0x40007388 0x00000033 0x00000800 0x0003e200
0x66357824 0x00000004 0x078e00ff 0x004fc600
0x3d007388 0x00000032 0x00000800 0x000fe200
0x92347824 0x00000004 0x078e00ff 0x001fc600
0x3c007388 0x00000031 0x00000800 0x000fe200
0x94337824 0x00000004 0x078e00ff 0x002fc600
0x3b007388 0x00000030 0x00000800 0x000fe800
0x3a007388 0x0000002f 0x00000800 0x0001e800
0x39007388 0x0000002e 0x00000800 0x0003e800
0x36007388 0x0000002d 0x00000800 0x0003e200
0xff2f7224 0x000000ff 0x078e0006 0x001fc600
0x37007388 0x0000002c 0x00000800 0x0003e800
0x38007388 0x0000002b 0x00000800 0x0003e800
0x35007388 0x0000002a 0x00000800 0x0003e800
0x34007388 0x00000029 0x00000800 0x0003e800
0x33007388 0x00000028 0x00000800 0x0003e800
0x43007388 0xfffffc26 0x00000800 0x0003e200
0x04047824 0x00000001 0x078e0a57 0x008fd000
0x27007388 0x00b80004 0x00004800 0x0003e200
0x00008947 0x00000280 0x03800000 0x000fea00
0x00ff7355 0x00000000 0x00100000 0x000fe200
0x00007945 0x00000260 0x03800000 0x000fe200
0xff267424 0xffffffff 0x078e00ff 0x002fe400
0xff287224 0x000000ff 0x078e0024 0x000fe400
0xff2f7224 0x000000ff 0x078e0006 0x000fe400
0x28047824 0x00000100 0x078e0227 0x000fe200
0x01ff7355 0x00000000 0x00100000 0x000fe200
0xff057424 0x00000004 0x078e00ff 0x000fe200
0x00017945 0x000000d0 0x03800000 0x000fe400
0x04047810 0xffffff00 0x07ffe0ff 0x000fca00
0x04047625 0x00005800 0x078e0205 0x000fc800
0x00007992 0x00000000 0x00000000 0x000fea00
0x04297381 0x00000000 0x001f6900 0x000ea400
0x2900720c 0x000000ff 0x03f05270 0x004fd800
0x00000947 0x00000060 0x03800000 0x000fea00
0x00297806 0x00000000 0x038e0100 0x000fe200
0x00007946 0x00000000 0x03800000 0x000fe200
0x00057886 0x00000000 0x038e0100 0x000fe400
0x29ff7c12 0x00000005 0x0f800cff 0x000fd800
0x00008947 0xffffff71 0x0383ffff 0x010fea00
0x00007947 0xffffffa0 0x0383ffff 0x000fea00
0x00017941 0x00000000 0x03800000 0x000fea00
0x29047812 0x3fffffff 0x078ec0ff 0x040fe400
0x2900780c 0xffffffff 0x03f04270 0x000fc600
0x042f7824 0x00000001 0x078e022f 0x000fe200
0x00007947 0x00009672 0x03800000 0x000ff000
0x00057806 0x00000000 0x000e0100 0x000fc800
0x05267212 0x00000026 0x078ec0ff 0x000fe400
0x2900720c 0x000000ff 0x03f06270 0x000fd800
0x00008947 0x00000090 0x03800000 0x000fea00
0x2800780c 0x00000001 0x03f04270 0x000fd800
0x00008947 0x00000070 0x03800000 0x000fea00
0x28287810 0xffffffff 0x07ffe0ff 0x000fe400
0x00047806 0x00000000 0x038e0100 0x000fe200
0x00007946 0x00000000 0x03800000 0x000fe200
0x00057886 0x00000000 0x038e0100 0x000fe400
0x04ff7c12 0x00000005 0x0f800cff 0x000fd800
0x00008947 0xfffffdf1 0x0383ffff 0x010fea00
0x00007947 0xffffffa0 0x0383ffff 0x000fea00
0x00007941 0x00000000 0x03800000 0x000fea00
0x27267984 0x00b80000 0x00005800 0x002e2200
0x00047810 0x00002e00 0x07ffe0ff 0x000fe200
0x24297824 0x00000100 0x078e0227 0x000fe200
0xff007a0c 0x00005c00 0x03f22070 0x000fe200
0x00007948 0xffffffff 0x03800000 0x000fe800
0x04007a0c 0x00006800 0x03f06270 0x000fe200
0xff047424 0x00000004 0x078e00ff 0x000fe200
0x8800720c 0x000000ff 0x03f45270 0x000fc400
0xff007a0c 0x00005d00 0x04702710 0x000fe200
0x29287625 0x00005800 0x078e0204 0x000fe200
0x2f057812 0x80000000 0x078efcff 0x000fd000
0x28007386 0x00000005 0x00116900 0x000fe400
0x272a8625 0x00005c00 0x078e0204 0x000fe200
0x26267210 0x0000002f 0x07ffe806 0x001fc800
0x26578210 0x00000057 0x07ffe006 0x000fc800
0x27007388 0x00b80026 0x00004800 0x000fe800
0x2a008386 0x00000057 0x0010e900 0x000fe800
0x00007b1d 0x00000000 0x00000000 0x000fea00
0x0000a947 0x00002d80 0x03800000 0x000fea00
0xff057424 0xffffd200 0x078e00ff 0x000fe200
0x272d7810 0x00000100 0x07ffe0ff 0x040fe200
0x00ff7355 0x00000000 0x00100000 0x000fe200
0x27317810 0x00000300 0x07ffe0ff 0x040fe200
0x24067624 0x00006800 0x078e0205 0x000fe200
0x00007945 0x00000230 0x03800000 0x000fe800
0x2700720c 0x00000006 0x03f06270 0x000fc400
0x2d00720c 0x00000006 0x03f26270 0x080fe400
0x3100720c 0x00000006 0x03f46270 0x000fd000
0x27058984 0x00000000 0x00005800 0x000e2400
0xff268a19 0x00006900 0x00011605 0x001fe400
0x052b8812 0x80000000 0x078e3cff 0x000fe400
0x26268c12 0x00000004 0x0f8e30ff 0x000fd000
0x26268984 0x00b80000 0x00005800 0x000e2400
0x26298824 0x00000001 0x078e0227 0x001fc800
0x29288625 0x00006000 0x078e0004 0x000fd000
0x28008386 0x0000002b 0x0010e900 0x0001e200
0x00007918 0x00000000 0x00000000 0x000fca00
0x27059984 0x00040000 0x00005800 0x000e6200
0x272b7810 0x00000400 0x07ffe0ff 0x001fe400
0xff2a9a19 0x00006900 0x00011605 0x002fc800
0x2a2a9c12 0x00000004 0x0f8e30ff 0x000fd000
0x2a2a9984 0x00b80000 0x00005800 0x000e2400
0x2d2f9824 0x00000001 0x078e022a 0x001fe200
0x052d9812 0x80000000 0x078e3cff 0x000fc600
0x2f049625 0x00006000 0x078e0004 0x000fe200
0x272f7810 0x00000200 0x07ffe0ff 0x000fc800
0x2f00720c 0x00000006 0x03f06270 0x000fc600
0x04009386 0x0000002d 0x0010e900 0x0001e200
0x00007918 0x00000000 0x00000000 0x000fd000
0x00000947 0x00000090 0x03800000 0x000fea00
0x27047984 0x00080000 0x00005800 0x001e2200
0xff287424 0x00000004 0x078e00ff 0x000fe200
0xff057a19 0x00006900 0x00011604 0x001fe400
0x04297812 0x80000000 0x078e3cff 0x000fe400
0x05267c12 0x00000004 0x0f8e30ff 0x000fd000
0x26267984 0x00b80000 0x00005800 0x000e2400
0x2f057824 0x00000001 0x078e0226 0x001fc800
0x05047625 0x00006000 0x078e0028 0x000fd000
0x04007386 0x00000029 0x0010e900 0x0001e400
0x00007941 0x00000000 0x03800000 0x000fea00
0x00ff7355 0x00000000 0x00100000 0x000fe200
0x00007918 0x00000000 0x00000000 0x000fca00
0x00007945 0x000000c0 0x03800000 0x000fe200
0x272d7810 0x00000500 0x07ffe0ff 0x001fe200
0x00002947 0x00000090 0x03800000 0x000fea00
0x27047984 0x000c0000 0x00005800 0x000e2200
0xff287424 0x00000004 0x078e00ff 0x000fe200
0xff057a19 0x00006900 0x00011604 0x001fe400
0x04297812 0x80000000 0x078e3cff 0x000fe400
0x05267c12 0x00000004 0x0f8e30ff 0x000fd000
0x26267984 0x00b80000 0x00005800 0x000e2400
0x31057824 0x00000001 0x078e0226 0x001fc800
0x05047625 0x00006000 0x078e0028 0x000fd000
0x04007386 0x00000029 0x0010e900 0x0001e400
0x00007941 0x00000000 0x03800000 0x000fea00
0x2b00720c 0x00000006 0x03fc6270 0x000fe200
0x00ff7355 0x00000000 0x00100000 0x000fe200
0x272f7810 0x00000600 0x07ffe0ff 0x000fe200
0x00007918 0x00000000 0x00000000 0x000fca00
0x27317810 0x00000700 0x07ffe0ff 0x040fe200
0x00007945 0x00000140 0x03800000 0x000fe200
0x27457810 0x00000800 0x07ffe0ff 0x040fe400
0x27477810 0x00000900 0x07ffe0ff 0x040fe400
0x27497810 0x00000a00 0x07ffe0ff 0x000fe400
0x2d00720c 0x00000006 0x03f06270 0x080fe400
0x2f00720c 0x00000006 0x03f26270 0x000fc400
0x3100720c 0x00000006 0x03f46270 0x080fe400
0x4500720c 0x00000006 0x03f66270 0x080fe400
0x4700720c 0x00000006 0x03f86270 0x080fe400
0x4900720c 0x00000006 0x03fa6270 0x000fe200
0x00006947 0x00000090 0x03800000 0x000fec00
0x27047984 0x00100000 0x00005800 0x001e2200
0xff287424 0x00000004 0x078e00ff 0x000fe200
0xff057a19 0x00006900 0x00011604 0x001fe400
0x04297812 0x80000000 0x078e3cff 0x000fc400
0x05267c12 0x00000004 0x0f8e30ff 0x000fd000
0x26267984 0x00b80000 0x00005800 0x000e2400
0x2b057824 0x00000001 0x078e0226 0x001fc800
0x05047625 0x00006000 0x078e0028 0x000fd000
0x04007386 0x00000029 0x0010e900 0x0001e400
0x00007941 0x00000000 0x03800000 0x000fea00
0x00ff7355 0x00000000 0x00100000 0x000fe200
0x00007918 0x00000000 0x00000000 0x000fca00
0x00007945 0x000000b0 0x03800000 0x000fe200
0x00000947 0x00000090 0x03800000 0x000fea00
0x27047984 0x00140000 0x00005800 0x001e2200
0xff287424 0x00000004 0x078e00ff 0x000fe200
0xff057a19 0x00006900 0x00011604 0x001fe400
0x04297812 0x80000000 0x078e3cff 0x000fe400
0x05267c12 0x00000004 0x0f8e30ff 0x000fd000
0x26267984 0x00b80000 0x00005800 0x000e2400
0x2d057824 0x00000001 0x078e0226 0x001fc800
0x05047625 0x00006000 0x078e0028 0x000fd000
0x04007386 0x00000029 0x0010e900 0x0001e400
0x00007941 0x00000000 0x03800000 0x000fea00
0x00ff7355 0x00000000 0x00100000 0x000fe200
0x00007918 0x00000000 0x00000000 0x000fca00
0x00007945 0x000000b0 0x03800000 0x000fe200
0x00001947 0x00000090 0x03800000 0x000fea00
0x27047984 0x00180000 0x00005800 0x001e2200
0xff287424 0x00000004 0x078e00ff 0x000fe200
0xff057a19 0x00006900 0x00011604 0x001fe400
0x04297812 0x80000000 0x078e3cff 0x000fe400
0x05267c12 0x00000004 0x0f8e30ff 0x000fd000
0x26267984 0x00b80000 0x00005800 0x000e2400
0x2f057824 0x00000001 0x078e0226 0x001fc800
0x05047625 0x00006000 0x078e0028 0x000fd000
0x04007386 0x00000029 0x0010e900 0x0001e400
0x00007941 0x00000000 0x03800000 0x000fea00
0x00ff7355 0x00000000 0x00100000 0x000fe200
0x00007918 0x00000000 0x00000000 0x000fca00
0x00007945 0x000000b0 0x03800000 0x000fe200
0x00002947 0x00000090 0x03800000 0x000fea00
0x27047984 0x001c0000 0x00005800 0x001e2200
0xff287424 0x00000004 0x078e00ff 0x000fe200
0xff057a19 0x00006900 0x00011604 0x001fe400
0x04297812 0x80000000 0x078e3cff 0x000fe400
0x05267c12 0x00000004 0x0f8e30ff 0x000fd000
0x26267984 0x00b80000 0x00005800 0x000e2400
0x31057824 0x00000001 0x078e0226 0x001fc800
0x05047625 0x00006000 0x078e0028 0x000fd000
0x04007386 0x00000029 0x0010e900 0x0001e400
0x00007941 0x00000000 0x03800000 0x000fea00
0x00ff7355 0x00000000 0x00100000 0x000fe200
0x00007918 0x00000000 0x00000000 0x000fca00
0x00007945 0x000000b0 0x03800000 0x000fe200
0x00003947 0x00000090 0x03800000 0x000fea00
0x27047984 0x00200000 0x00005800 0x001e2200
0xff287424 0x00000004 0x078e00ff 0x000fe200
0xff057a19 0x00006900 0x00011604 0x001fe400
0x04297812 0x80000000 0x078e3cff 0x000fe400
0x05267c12 0x00000004 0x0f8e30ff 0x000fd000
0x26267984 0x00b80000 0x00005800 0x000e2400
0x45057824 0x00000001 0x078e0226 0x001fc800
0x05047625 0x00006000 0x078e0028 0x000fd000
0x04007386 0x00000029 0x0010e900 0x0001e400
0x00007941 0x00000000 0x03800000 0x000fea00
0x00ff7355 0x00000000 0x00100000 0x000fe200
0x00007918 0x00000000 0x00000000 0x000fca00
0x00007945 0x000000c0 0x03800000 0x000fe200
0x272b7810 0x00000b00 0x07ffe0ff 0x000fe200
0x00004947 0x00000090 0x03800000 0x000fea00
0x27047984 0x00240000 0x00005800 0x001e2200
0xff287424 0x00000004 0x078e00ff 0x000fe200
0xff057a19 0x00006900 0x00011604 0x001fe400
0x04297812 0x80000000 0x078e3cff 0x000fe400
0x05267c12 0x00000004 0x0f8e30ff 0x000fd000
0x26267984 0x00b80000 0x00005800 0x000e2400
0x47057824 0x00000001 0x078e0226 0x001fc800
0x05047625 0x00006000 0x078e0028 0x000fd000
0x04007386 0x00000029 0x0010e900 0x0001e400
0x00007941 0x00000000 0x03800000 0x000fea00
0x00ff7355 0x00000000 0x00100000 0x000fe200
0x00007918 0x00000000 0x00000000 0x000fca00
0x00007945 0x000000c0 0x03800000 0x000fe200
0x272d7810 0x00000c00 0x07ffe0ff 0x000fe200
0x00005947 0x00000090 0x03800000 0x000fea00
0x27047984 0x00280000 0x00005800 0x001e2200
0xff287424 0x00000004 0x078e00ff 0x000fe200
0xff057a19 0x00006900 0x00011604 0x001fe400
0x04297812 0x80000000 0x078e3cff 0x000fe400
0x05267c12 0x00000004 0x0f8e30ff 0x000fd000
0x26267984 0x00b80000 0x00005800 0x000e2400
0x49057824 0x00000001 0x078e0226 0x001fc800
0x05047625 0x00006000 0x078e0028 0x000fd000
0x04007386 0x00000029 0x0010e900 0x0001e400
0x00007941 0x00000000 0x03800000 0x000fea00
0x2b00720c 0x00000006 0x03fc6270 0x000fe200
0x00ff7355 0x00000000 0x00100000 0x000fe200
0x272f7810 0x00000d00 0x07ffe0ff 0x000fe200
0x00007918 0x00000000 0x00000000 0x000fca00
0x27317810 0x00000e00 0x07ffe0ff 0x040fe200
0x00007945 0x00000140 0x03800000 0x000fe200
0x27457810 0x00000f00 0x07ffe0ff 0x040fe400
0x27477810 0x00001000 0x07ffe0ff 0x040fe400
0x27497810 0x00001100 0x07ffe0ff 0x000fe400
0x2d00720c 0x00000006 0x03f06270 0x080fe400
0x2f00720c 0x00000006 0x03f26270 0x000fc400
0x3100720c 0x00000006 0x03f46270 0x080fe400
0x4500720c 0x00000006 0x03f66270 0x080fe400
0x4700720c 0x00000006 0x03f86270 0x080fe400
0x4900720c 0x00000006 0x03fa6270 0x000fe200
0x00006947 0x00000090 0x03800000 0x000fec00
0x27047984 0x002c0000 0x00005800 0x001e2200
0xff287424 0x00000004 0x078e00ff 0x000fe200
0xff057a19 0x00006900 0x00011604 0x001fe400
0x04297812 0x80000000 0x078e3cff 0x000fc400
0x05267c12 0x00000004 0x0f8e30ff 0x000fd000
0x26267984 0x00b80000 0x00005800 0x000e2400
0x2b057824 0x00000001 0x078e0226 0x001fc800
0x05047625 0x00006000 0x078e0028 0x000fd000
0x04007386 0x00000029 0x0010e900 0x0001e400
0x00007941 0x00000000 0x03800000 0x000fea00
0x00ff7355 0x00000000 0x00100000 0x000fe200
0x00007918 0x00000000 0x00000000 0x000fca00
0x00007945 0x000000b0 0x03800000 0x000fe200
0x00000947 0x00000090 0x03800000 0x000fea00
0x27047984 0x00300000 0x00005800 0x001e2200
0xff287424 0x00000004 0x078e00ff 0x000fe200
0xff057a19 0x00006900 0x00011604 0x001fe400
0x04297812 0x80000000 0x078e3cff 0x000fe400
0x05267c12 0x00000004 0x0f8e30ff 0x000fd000
0x26267984 0x00b80000 0x00005800 0x000e2400
0x2d057824 0x00000001 0x078e0226 0x001fc800
0x05047625 0x00006000 0x078e0028 0x000fd000
0x04007386 0x00000029 0x0010e900 0x0001e400
0x00007941 0x00000000 0x03800000 0x000fea00
0x00ff7355 0x00000000 0x00100000 0x000fe200
0x00007918 0x00000000 0x00000000 0x000fca00
0x00007945 0x000000b0 0x03800000 0x000fe200
0x00001947 0x00000090 0x03800000 0x000fea00
0x27047984 0x00340000 0x00005800 0x001e2200
0xff287424 0x00000004 0x078e00ff 0x000fe200
0xff057a19 0x00006900 0x00011604 0x001fe400
0x04297812 0x80000000 0x078e3cff 0x000fe400
0x05267c12 0x00000004 0x0f8e30ff 0x000fd000
0x26267984 0x00b80000 0x00005800 0x000e2400
0x2f057824 0x00000001 0x078e0226 0x001fc800
0x05047625 0x00006000 0x078e0028 0x000fd000
0x04007386 0x00000029 0x0010e900 0x0001e400
0x00007941 0x00000000 0x03800000 0x000fea00
0x00ff7355 0x00000000 0x00100000 0x000fe200
0x00007918 0x00000000 0x00000000 0x000fca00
0x00007945 0x000000b0 0x03800000 0x000fe200
0x00002947 0x00000090 0x03800000 0x000fea00
0x27047984 0x00380000 0x00005800 0x001e2200
0xff287424 0x00000004 0x078e00ff 0x000fe200
0xff057a19 0x00006900 0x00011604 0x001fe400
0x04297812 0x80000000 0x078e3cff 0x000fe400
0x05267c12 0x00000004 0x0f8e30ff 0x000fd000
0x26267984 0x00b80000 0x00005800 0x000e2400
0x31057824 0x00000001 0x078e0226 0x001fc800
0x05047625 0x00006000 0x078e0028 0x000fd000
0x04007386 0x00000029 0x0010e900 0x0001e400
0x00007941 0x00000000 0x03800000 0x000fea00
0x00ff7355 0x00000000 0x00100000 0x000fe200
0x00007918 0x00000000 0x00000000 0x000fca00
0x00007945 0x000000b0 0x03800000 0x000fe200
0x00003947 0x00000090 0x03800000 0x000fea00
0x27047984 0x003c0000 0x00005800 0x001e2200
0xff287424 0x00000004 0x078e00ff 0x000fe200
0xff057a19 0x00006900 0x00011604 0x001fe400
0x04297812 0x80000000 0x078e3cff 0x000fe400
0x05267c12 0x00000004 0x0f8e30ff 0x000fd000
0x26267984 0x00b80000 0x00005800 0x000e2400
0x45057824 0x00000001 0x078e0226 0x001fc800
0x05047625 0x00006000 0x078e0028 0x000fd000
0x04007386 0x00000029 0x0010e900 0x0001e400
0x00007941 0x00000000 0x03800000 0x000fea00
0x00ff7355 0x00000000 0x00100000 0x000fe200
0x00007918 0x00000000 0x00000000 0x000fca00
0x00007945 0x000000c0 0x03800000 0x000fe200
0x272b7810 0x00001200 0x07ffe0ff 0x000fe200
0x00004947 0x00000090 0x03800000 0x000fea00
0x27047984 0x00400000 0x00005800 0x001e2200
0xff287424 0x00000004 0x078e00ff 0x000fe200
0xff057a19 0x00006900 0x00011604 0x001fe400
0x04297812 0x80000000 0x078e3cff 0x000fe400
0x05267c12 0x00000004 0x0f8e30ff 0x000fd000
0x26267984 0x00b80000 0x00005800 0x000e2400
0x47057824 0x00000001 0x078e0226 0x001fc800
0x05047625 0x00006000 0x078e0028 0x000fd000
0x04007386 0x00000029 0x0010e900 0x0001e400
0x00007941 0x00000000 0x03800000 0x000fea00
0x00ff7355 0x00000000 0x00100000 0x000fe200
0x00007918 0x00000000 0x00000000 0x000fca00
0x00007945 0x000000c0 0x03800000 0x000fe200
0x272d7810 0x00001300 0x07ffe0ff 0x000fe200
0x00005947 0x00000090 0x03800000 0x000fea00
0x27047984 0x00440000 0x00005800 0x001e2200
0xff287424 0x00000004 0x078e00ff 0x000fe200
0xff057a19 0x00006900 0x00011604 0x001fe400
0x04297812 0x80000000 0x078e3cff 0x000fe400
0x05267c12 0x00000004 0x0f8e30ff 0x000fd000
0x26267984 0x00b80000 0x00005800 0x000e2400
0x49057824 0x00000001 0x078e0226 0x001fc800
0x05047625 0x00006000 0x078e0028 0x000fd000
0x04007386 0x00000029 0x0010e900 0x0001e400
0x00007941 0x00000000 0x03800000 0x000fea00
0x2b00720c 0x00000006 0x03fc6270 0x000fe200
0x00ff7355 0x00000000 0x00100000 0x000fe200
0x272f7810 0x00001400 0x07ffe0ff 0x000fe200
0x00007918 0x00000000 0x00000000 0x000fca00
0x27317810 0x00001500 0x07ffe0ff 0x040fe200
0x00007945 0x00000140 0x03800000 0x000fe200
0x27457810 0x00001600 0x07ffe0ff 0x040fe400
0x27477810 0x00001700 0x07ffe0ff 0x040fe400
0x27497810 0x00001800 0x07ffe0ff 0x000fe400
0x2d00720c 0x00000006 0x03f06270 0x080fe400
0x2f00720c 0x00000006 0x03f26270 0x000fc400
0x3100720c 0x00000006 0x03f46270 0x080fe400
0x4500720c 0x00000006 0x03f66270 0x080fe400
0x4700720c 0x00000006 0x03f86270 0x080fe400
0x4900720c 0x00000006 0x03fa6270 0x000fe200
0x00006947 0x00000090 0x03800000 0x000fec00
0x27047984 0x00480000 0x00005800 0x001e2200
0xff287424 0x00000004 0x078e00ff 0x000fe200
0xff057a19 0x00006900 0x00011604 0x001fe400
0x04297812 0x80000000 0x078e3cff 0x000fc400
0x05267c12 0x00000004 0x0f8e30ff 0x000fd000
0x26267984 0x00b80000 0x00005800 0x000e2400
0x2b057824 0x00000001 0x078e0226 0x001fc800
0x05047625 0x00006000 0x078e0028 0x000fd000
0x04007386 0x00000029 0x0010e900 0x0001e400
0x00007941 0x00000000 0x03800000 0x000fea00
0x00ff7355 0x00000000 0x00100000 0x000fe200
0x00007918 0x00000000 0x00000000 0x000fca00
0x00007945 0x000000b0 0x03800000 0x000fe200
0x00000947 0x00000090 0x03800000 0x000fea00
0x27047984 0x004c0000 0x00005800 0x001e2200
0xff287424 0x00000004 0x078e00ff 0x000fe200
0xff057a19 0x00006900 0x00011604 0x001fe400
0x04297812 0x80000000 0x078e3cff 0x000fe400
0x05267c12 0x00000004 0x0f8e30ff 0x000fd000
0x26267984 0x00b80000 0x00005800 0x000e2400
0x2d057824 0x00000001 0x078e0226 0x001fc800
0x05047625 0x00006000 0x078e0028 0x000fd000
0x04007386 0x00000029 0x0010e900 0x0001e400
0x00007941 0x00000000 0x03800000 0x000fea00
0x00ff7355 0x00000000 0x00100000 0x000fe200
0x00007918 0x00000000 0x00000000 0x000fca00
0x00007945 0x000000b0 0x03800000 0x000fe200
0x00001947 0x00000090 0x03800000 0x000fea00
0x27047984 0x00500000 0x00005800 0x001e2200
0xff287424 0x00000004 0x078e00ff 0x000fe200
0xff057a19 0x00006900 0x00011604 0x001fe400
0x04297812 0x80000000 0x078e3cff 0x000fe400
0x05267c12 0x00000004 0x0f8e30ff 0x000fd000
0x26267984 0x00b80000 0x00005800 0x000e2400
0x2f057824 0x00000001 0x078e0226 0x001fc800
0x05047625 0x00006000 0x078e0028 0x000fd000
0x04007386 0x00000029 0x0010e900 0x0001e400
0x00007941 0x00000000 0x03800000 0x000fea00
0x00ff7355 0x00000000 0x00100000 0x000fe200
0x00007918 0x00000000 0x00000000 0x000fca00
0x00007945 0x000000b0 0x03800000 0x000fe200
0x00002947 0x00000090 0x03800000 0x000fea00
0x27047984 0x00540000 0x00005800 0x001e2200
0xff287424 0x00000004 0x078e00ff 0x000fe200
0xff057a19 0x00006900 0x00011604 0x001fe400
0x04297812 0x80000000 0x078e3cff 0x000fe400
0x05267c12 0x00000004 0x0f8e30ff 0x000fd000
0x26267984 0x00b80000 0x00005800 0x000e2400
0x31057824 0x00000001 0x078e0226 0x001fc800
0x05047625 0x00006000 0x078e0028 0x000fd000
0x04007386 0x00000029 0x0010e900 0x0001e400
0x00007941 0x00000000 0x03800000 0x000fea00
0x00ff7355 0x00000000 0x00100000 0x000fe200
0x00007918 0x00000000 0x00000000 0x000fca00
0x00007945 0x000000b0 0x03800000 0x000fe200
0x00003947 0x00000090 0x03800000 0x000fea00
0x27047984 0x00580000 0x00005800 0x001e2200
0xff287424 0x00000004 0x078e00ff 0x000fe200
0xff057a19 0x00006900 0x00011604 0x001fe400
0x04297812 0x80000000 0x078e3cff 0x000fe400
0x05267c12 0x00000004 0x0f8e30ff 0x000fd000
0x26267984 0x00b80000 0x00005800 0x000e2400
0x45057824 0x00000001 0x078e0226 0x001fc800
0x05047625 0x00006000 0x078e0028 0x000fd000
0x04007386 0x00000029 0x0010e900 0x0001e400
0x00007941 0x00000000 0x03800000 0x000fea00
0x00ff7355 0x00000000 0x00100000 0x000fe200
0x00007918 0x00000000 0x00000000 0x000fca00
0x00007945 0x000000c0 0x03800000 0x000fe200
0x272b7810 0x00001900 0x07ffe0ff 0x000fe200
0x00004947 0x00000090 0x03800000 0x000fea00
0x27047984 0x005c0000 0x00005800 0x001e2200
0xff287424 0x00000004 0x078e00ff 0x000fe200
0xff057a19 0x00006900 0x00011604 0x001fe400
0x04297812 0x80000000 0x078e3cff 0x000fe400
0x05267c12 0x00000004 0x0f8e30ff 0x000fd000
0x26267984 0x00b80000 0x00005800 0x000e2400
0x47057824 0x00000001 0x078e0226 0x001fc800
0x05047625 0x00006000 0x078e0028 0x000fd000
0x04007386 0x00000029 0x0010e900 0x0001e400
0x00007941 0x00000000 0x03800000 0x000fea00
0x00ff7355 0x00000000 0x00100000 0x000fe200
0x00007918 0x00000000 0x00000000 0x000fca00
0x00007945 0x000000c0 0x03800000 0x000fe200
0x272d7810 0x00001a00 0x07ffe0ff 0x000fe200
0x00005947 0x00000090 0x03800000 0x000fea00
0x27047984 0x00600000 0x00005800 0x001e2200
0xff287424 0x00000004 0x078e00ff 0x000fe200
0xff057a19 0x00006900 0x00011604 0x001fe400
0x04297812 0x80000000 0x078e3cff 0x000fe400
0x05267c12 0x00000004 0x0f8e30ff 0x000fd000
0x26267984 0x00b80000 0x00005800 0x000e2400
0x49057824 0x00000001 0x078e0226 0x001fc800
0x05047625 0x00006000 0x078e0028 0x000fd000
0x04007386 0x00000029 0x0010e900 0x0001e400
0x00007941 0x00000000 0x03800000 0x000fea00
0x2b00720c 0x00000006 0x03fc6270 0x000fe200
0x00ff7355 0x00000000 0x00100000 0x000fe200
0x272f7810 0x00001b00 0x07ffe0ff 0x000fe200
0x00007918 0x00000000 0x00000000 0x000fca00
0x27317810 0x00001c00 0x07ffe0ff 0x040fe200
0x00007945 0x00000140 0x03800000 0x000fe200
0x27457810 0x00001d00 0x07ffe0ff 0x040fe400
0x27477810 0x00001e00 0x07ffe0ff 0x040fe400
0x27497810 0x00001f00 0x07ffe0ff 0x000fe400
0x2d00720c 0x00000006 0x03f06270 0x080fe400
0x2f00720c 0x00000006 0x03f26270 0x000fc400
0x3100720c 0x00000006 0x03f46270 0x080fe400
0x4500720c 0x00000006 0x03f66270 0x080fe400
0x4700720c 0x00000006 0x03f86270 0x080fe400
0x4900720c 0x00000006 0x03fa6270 0x000fe200
0x00006947 0x00000090 0x03800000 0x000fec00
0x27047984 0x00640000 0x00005800 0x001e2200
0xff287424 0x00000004 0x078e00ff 0x000fe200
0xff057a19 0x00006900 0x00011604 0x001fe400
0x04297812 0x80000000 0x078e3cff 0x000fc400
0x05267c12 0x00000004 0x0f8e30ff 0x000fd000
0x26267984 0x00b80000 0x00005800 0x000e2400
0x2b057824 0x00000001 0x078e0226 0x001fc800
0x05047625 0x00006000 0x078e0028 0x000fd000
0x04007386 0x00000029 0x0010e900 0x0001e400
0x00007941 0x00000000 0x03800000 0x000fea00
0x00ff7355 0x00000000 0x00100000 0x000fe200
0x00007918 0x00000000 0x00000000 0x000fca00
0x00007945 0x000000b0 0x03800000 0x000fe200
0x00000947 0x00000090 0x03800000 0x000fea00
0x27047984 0x00680000 0x00005800 0x001e2200
0xff287424 0x00000004 0x078e00ff 0x000fe200
0xff057a19 0x00006900 0x00011604 0x001fe400
0x04297812 0x80000000 0x078e3cff 0x000fe400
0x05267c12 0x00000004 0x0f8e30ff 0x000fd000
0x26267984 0x00b80000 0x00005800 0x000e2400
0x2d057824 0x00000001 0x078e0226 0x001fc800
0x05047625 0x00006000 0x078e0028 0x000fd000
0x04007386 0x00000029 0x0010e900 0x0001e400
0x00007941 0x00000000 0x03800000 0x000fea00
0x00ff7355 0x00000000 0x00100000 0x000fe200
0x00007918 0x00000000 0x00000000 0x000fca00
0x00007945 0x000000b0 0x03800000 0x000fe200
0x00001947 0x00000090 0x03800000 0x000fea00
0x27047984 0x006c0000 0x00005800 0x001e2200
0xff287424 0x00000004 0x078e00ff 0x000fe200
0xff057a19 0x00006900 0x00011604 0x001fe400
0x04297812 0x80000000 0x078e3cff 0x000fe400
0x05267c12 0x00000004 0x0f8e30ff 0x000fd000
0x26267984 0x00b80000 0x00005800 0x000e2400
0x2f057824 0x00000001 0x078e0226 0x001fc800
0x05047625 0x00006000 0x078e0028 0x000fd000
0x04007386 0x00000029 0x0010e900 0x0001e400
0x00007941 0x00000000 0x03800000 0x000fea00
0x00ff7355 0x00000000 0x00100000 0x000fe200
0x00007918 0x00000000 0x00000000 0x000fca00
0x00007945 0x000000b0 0x03800000 0x000fe200
0x00002947 0x00000090 0x03800000 0x000fea00
0x27047984 0x00700000 0x00005800 0x001e2200
0xff287424 0x00000004 0x078e00ff 0x000fe200
0xff057a19 0x00006900 0x00011604 0x001fe400
0x04297812 0x80000000 0x078e3cff 0x000fe400
0x05267c12 0x00000004 0x0f8e30ff 0x000fd000
0x26267984 0x00b80000 0x00005800 0x000e2400
0x31057824 0x00000001 0x078e0226 0x001fc800
0x05047625 0x00006000 0x078e0028 0x000fd000
0x04007386 0x00000029 0x0010e900 0x0001e400
0x00007941 0x00000000 0x03800000 0x000fea00
0x00ff7355 0x00000000 0x00100000 0x000fe200
0x00007918 0x00000000 0x00000000 0x000fca00
0x00007945 0x000000b0 0x03800000 0x000fe200
0x00003947 0x00000090 0x03800000 0x000fea00
0x27047984 0x00740000 0x00005800 0x001e2200
0xff287424 0x00000004 0x078e00ff 0x000fe200
0xff057a19 0x00006900 0x00011604 0x001fe400
0x04297812 0x80000000 0x078e3cff 0x000fe400
0x05267c12 0x00000004 0x0f8e30ff 0x000fd000
0x26267984 0x00b80000 0x00005800 0x000e2400
0x45057824 0x00000001 0x078e0226 0x001fc800
0x05047625 0x00006000 0x078e0028 0x000fd000
0x04007386 0x00000029 0x0010e900 0x0001e400
0x00007941 0x00000000 0x03800000 0x000fea00
0x00ff7355 0x00000000 0x00100000 0x000fe200
0x00007918 0x00000000 0x00000000 0x000fca00
0x00007945 0x000000c0 0x03800000 0x000fe200
0x272b7810 0x00002000 0x07ffe0ff 0x000fe200
0x00004947 0x00000090 0x03800000 0x000fea00
0x27047984 0x00780000 0x00005800 0x001e2200
0xff287424 0x00000004 0x078e00ff 0x000fe200
0xff057a19 0x00006900 0x00011604 0x001fe400
0x04297812 0x80000000 0x078e3cff 0x000fe400
0x05267c12 0x00000004 0x0f8e30ff 0x000fd000
0x26267984 0x00b80000 0x00005800 0x000e2400
0x47057824 0x00000001 0x078e0226 0x001fc800
0x05047625 0x00006000 0x078e0028 0x000fd000
0x04007386 0x00000029 0x0010e900 0x0001e400
0x00007941 0x00000000 0x03800000 0x000fea00
0x00ff7355 0x00000000 0x00100000 0x000fe200
0x00007918 0x00000000 0x00000000 0x000fca00
0x00007945 0x000000c0 0x03800000 0x000fe200
0x272d7810 0x00002100 0x07ffe0ff 0x000fe200
0x00005947 0x00000090 0x03800000 0x000fea00
0x27047984 0x007c0000 0x00005800 0x001e2200
0xff287424 0x00000004 0x078e00ff 0x000fe200
0xff057a19 0x00006900 0x00011604 0x001fe400
0x04297812 0x80000000 0x078e3cff 0x000fe400
0x05267c12 0x00000004 0x0f8e30ff 0x000fd000
0x26267984 0x00b80000 0x00005800 0x000e2400
0x49057824 0x00000001 0x078e0226 0x001fc800
0x05047625 0x00006000 0x078e0028 0x000fd000
0x04007386 0x00000029 0x0010e900 0x0001e400
0x00007941 0x00000000 0x03800000 0x000fea00
0x2b00720c 0x00000006 0x03fc6270 0x000fe200
0x00ff7355 0x00000000 0x00100000 0x000fe200
0x272f7810 0x00002200 0x07ffe0ff 0x000fe200
0x00007918 0x00000000 0x00000000 0x000fca00
0x27317810 0x00002300 0x07ffe0ff 0x040fe200
0x00007945 0x00000140 0x03800000 0x000fe200
0x27457810 0x00002400 0x07ffe0ff 0x040fe400
0x27477810 0x00002500 0x07ffe0ff 0x040fe400
0x27497810 0x00002600 0x07ffe0ff 0x000fe400
0x2d00720c 0x00000006 0x03f06270 0x080fe400
0x2f00720c 0x00000006 0x03f26270 0x000fc400
0x3100720c 0x00000006 0x03f46270 0x080fe400
0x4500720c 0x00000006 0x03f66270 0x080fe400
0x4700720c 0x00000006 0x03f86270 0x080fe400
0x4900720c 0x00000006 0x03fa6270 0x000fe200
0x00006947 0x00000090 0x03800000 0x000fec00
0x27047984 0x00800000 0x00005800 0x001e2200
0xff287424 0x00000004 0x078e00ff 0x000fe200
0xff057a19 0x00006900 0x00011604 0x001fe400
0x04297812 0x80000000 0x078e3cff 0x000fc400
0x05267c12 0x00000004 0x0f8e30ff 0x000fd000
0x26267984 0x00b80000 0x00005800 0x000e2400
0x2b057824 0x00000001 0x078e0226 0x001fc800
0x05047625 0x00006000 0x078e0028 0x000fd000
0x04007386 0x00000029 0x0010e900 0x0001e400
0x00007941 0x00000000 0x03800000 0x000fea00
0x00ff7355 0x00000000 0x00100000 0x000fe200
0x00007918 0x00000000 0x00000000 0x000fca00
0x00007945 0x000000b0 0x03800000 0x000fe200
0x00000947 0x00000090 0x03800000 0x000fea00
0x27047984 0x00840000 0x00005800 0x001e2200
0xff287424 0x00000004 0x078e00ff 0x000fe200
0xff057a19 0x00006900 0x00011604 0x001fe400
0x04297812 0x80000000 0x078e3cff 0x000fe400
0x05267c12 0x00000004 0x0f8e30ff 0x000fd000
0x26267984 0x00b80000 0x00005800 0x000e2400
0x2d057824 0x00000001 0x078e0226 0x001fc800
0x05047625 0x00006000 0x078e0028 0x000fd000
0x04007386 0x00000029 0x0010e900 0x0001e400
0x00007941 0x00000000 0x03800000 0x000fea00
0x00ff7355 0x00000000 0x00100000 0x000fe200
0x00007918 0x00000000 0x00000000 0x000fca00
0x00007945 0x000000b0 0x03800000 0x000fe200
0x00001947 0x00000090 0x03800000 0x000fea00
0x27047984 0x00880000 0x00005800 0x001e2200
0xff287424 0x00000004 0x078e00ff 0x000fe200
0xff057a19 0x00006900 0x00011604 0x001fe400
0x04297812 0x80000000 0x078e3cff 0x000fe400
0x05267c12 0x00000004 0x0f8e30ff 0x000fd000
0x26267984 0x00b80000 0x00005800 0x000e2400
0x2f057824 0x00000001 0x078e0226 0x001fc800
0x05047625 0x00006000 0x078e0028 0x000fd000
0x04007386 0x00000029 0x0010e900 0x0001e400
0x00007941 0x00000000 0x03800000 0x000fea00
0x00ff7355 0x00000000 0x00100000 0x000fe200
0x00007918 0x00000000 0x00000000 0x000fca00
0x00007945 0x000000b0 0x03800000 0x000fe200
0x00002947 0x00000090 0x03800000 0x000fea00
0x27047984 0x008c0000 0x00005800 0x001e2200
0xff287424 0x00000004 0x078e00ff 0x000fe200
0xff057a19 0x00006900 0x00011604 0x001fe400
0x04297812 0x80000000 0x078e3cff 0x000fe400
0x05267c12 0x00000004 0x0f8e30ff 0x000fd000
0x26267984 0x00b80000 0x00005800 0x000e2400
0x31057824 0x00000001 0x078e0226 0x001fc800
0x05047625 0x00006000 0x078e0028 0x000fd000
0x04007386 0x00000029 0x0010e900 0x0001e400
0x00007941 0x00000000 0x03800000 0x000fea00
0x00ff7355 0x00000000 0x00100000 0x000fe200
0x00007918 0x00000000 0x00000000 0x000fca00
0x00007945 0x000000b0 0x03800000 0x000fe200
0x00003947 0x00000090 0x03800000 0x000fea00
0x27047984 0x00900000 0x00005800 0x001e2200
0xff287424 0x00000004 0x078e00ff 0x000fe200
0xff057a19 0x00006900 0x00011604 0x001fe400
0x04297812 0x80000000 0x078e3cff 0x000fe400
0x05267c12 0x00000004 0x0f8e30ff 0x000fd000
0x26267984 0x00b80000 0x00005800 0x000e2400
0x45057824 0x00000001 0x078e0226 0x001fc800
0x05047625 0x00006000 0x078e0028 0x000fd000
0x04007386 0x00000029 0x0010e900 0x0001e400
0x00007941 0x00000000 0x03800000 0x000fea00
0x00ff7355 0x00000000 0x00100000 0x000fe200
0x00007918 0x00000000 0x00000000 0x000fca00
0x00007945 0x000000c0 0x03800000 0x000fe200
0x272b7810 0x00002700 0x07ffe0ff 0x000fe200
0x00004947 0x00000090 0x03800000 0x000fea00
0x27047984 0x00940000 0x00005800 0x001e2200
0xff287424 0x00000004 0x078e00ff 0x000fe200
0xff057a19 0x00006900 0x00011604 0x001fe400
0x04297812 0x80000000 0x078e3cff 0x000fe400
0x05267c12 0x00000004 0x0f8e30ff 0x000fd000
0x26267984 0x00b80000 0x00005800 0x000e2400
0x47057824 0x00000001 0x078e0226 0x001fc800
0x05047625 0x00006000 0x078e0028 0x000fd000
0x04007386 0x00000029 0x0010e900 0x0001e400
0x00007941 0x00000000 0x03800000 0x000fea00
0x00ff7355 0x00000000 0x00100000 0x000fe200
0x00007918 0x00000000 0x00000000 0x000fca00
0x00007945 0x000000c0 0x03800000 0x000fe200
0x272d7810 0x00002800 0x07ffe0ff 0x000fe200
0x00005947 0x00000090 0x03800000 0x000fea00
0x27047984 0x00980000 0x00005800 0x001e2200
0xff287424 0x00000004 0x078e00ff 0x000fe200
0xff057a19 0x00006900 0x00011604 0x001fe400
0x04297812 0x80000000 0x078e3cff 0x000fe400
0x05267c12 0x00000004 0x0f8e30ff 0x000fd000
0x26267984 0x00b80000 0x00005800 0x000e2400
0x49057824 0x00000001 0x078e0226 0x001fc800
0x05047625 0x00006000 0x078e0028 0x000fd000
0x04007386 0x00000029 0x0010e900 0x0001e400
0x00007941 0x00000000 0x03800000 0x000fea00
0x2b00720c 0x00000006 0x03fc6270 0x000fe200
0x00ff7355 0x00000000 0x00100000 0x000fe200
0x272f7810 0x00002900 0x07ffe0ff 0x000fe200
0x00007918 0x00000000 0x00000000 0x000fca00
0x27317810 0x00002a00 0x07ffe0ff 0x040fe200
0x00007945 0x00000140 0x03800000 0x000fe200
0x27457810 0x00002b00 0x07ffe0ff 0x040fe400
0x27477810 0x00002c00 0x07ffe0ff 0x040fe400
0x27497810 0x00002d00 0x07ffe0ff 0x000fe400
0x2d00720c 0x00000006 0x03f06270 0x080fe400
0x2f00720c 0x00000006 0x03f26270 0x000fc400
0x3100720c 0x00000006 0x03f46270 0x080fe400
0x4500720c 0x00000006 0x03f66270 0x080fe400
0x4700720c 0x00000006 0x03f86270 0x080fe400
0x4900720c 0x00000006 0x03fa6270 0x000fe200
0x00006947 0x00000090 0x03800000 0x000fec00
0x27047984 0x009c0000 0x00005800 0x001e2200
0xff267424 0x00000004 0x078e00ff 0x000fe200
0xff057a19 0x00006900 0x00011604 0x001fe400
0x04297812 0x80000000 0x078e3cff 0x000fc400
0x05067c12 0x00000004 0x0f8e30ff 0x000fd000
0x06067984 0x00b80000 0x00005800 0x000e2400
0x2b057824 0x00000001 0x078e0206 0x001fc800
0x05047625 0x00006000 0x078e0026 0x000fd000
0x04007386 0x00000029 0x0010e900 0x0001e400
0x00007941 0x00000000 0x03800000 0x000fea00
0x00ff7355 0x00000000 0x00100000 0x000fe200
0x00007918 0x00000000 0x00000000 0x000fca00
0x00007945 0x000000b0 0x03800000 0x000fe200
0x00000947 0x00000090 0x03800000 0x000fea00
0x27047984 0x00a00000 0x00005800 0x001e2200
0xff267424 0x00000004 0x078e00ff 0x000fe200
0xff057a19 0x00006900 0x00011604 0x001fe400
0x04297812 0x80000000 0x078e3cff 0x000fe400
0x05067c12 0x00000004 0x0f8e30ff 0x000fd000
0x06067984 0x00b80000 0x00005800 0x000e2400
0x2d057824 0x00000001 0x078e0206 0x001fc800
0x05047625 0x00006000 0x078e0026 0x000fd000
0x04007386 0x00000029 0x0010e900 0x0001e400
0x00007941 0x00000000 0x03800000 0x000fea00
0x00ff7355 0x00000000 0x00100000 0x000fe200
0x00007918 0x00000000 0x00000000 0x000fca00
0x00007945 0x000000b0 0x03800000 0x000fe200
0x00001947 0x00000090 0x03800000 0x000fea00
0x27047984 0x00a40000 0x00005800 0x001e2200
0xff267424 0x00000004 0x078e00ff 0x000fe200
0xff057a19 0x00006900 0x00011604 0x001fe400
0x04297812 0x80000000 0x078e3cff 0x000fe400
0x05067c12 0x00000004 0x0f8e30ff 0x000fd000
0x06067984 0x00b80000 0x00005800 0x000e2400
0x2f057824 0x00000001 0x078e0206 0x001fc800
0x05047625 0x00006000 0x078e0026 0x000fd000
0x04007386 0x00000029 0x0010e900 0x0001e400
0x00007941 0x00000000 0x03800000 0x000fea00
0x00ff7355 0x00000000 0x00100000 0x000fe200
0x00007918 0x00000000 0x00000000 0x000fca00
0x00007945 0x000000b0 0x03800000 0x000fe200
0x00002947 0x00000090 0x03800000 0x000fea00
0x27047984 0x00a80000 0x00005800 0x001e2200
0xff267424 0x00000004 0x078e00ff 0x000fe200
0xff057a19 0x00006900 0x00011604 0x001fe400
0x04297812 0x80000000 0x078e3cff 0x000fe400
0x05067c12 0x00000004 0x0f8e30ff 0x000fd000
0x06067984 0x00b80000 0x00005800 0x000e2400
0x31057824 0x00000001 0x078e0206 0x001fc800
0x05047625 0x00006000 0x078e0026 0x000fd000
0x04007386 0x00000029 0x0010e900 0x0001e400
0x00007941 0x00000000 0x03800000 0x000fea00
0x00ff7355 0x00000000 0x00100000 0x000fe200
0x00007918 0x00000000 0x00000000 0x000fca00
0x00007945 0x000000b0 0x03800000 0x000fe200
0x00003947 0x00000090 0x03800000 0x000fea00
0x27047984 0x00ac0000 0x00005800 0x001e2200
0xff267424 0x00000004 0x078e00ff 0x000fe200
0xff057a19 0x00006900 0x00011604 0x001fe400
0x04297812 0x80000000 0x078e3cff 0x000fe400
0x05067c12 0x00000004 0x0f8e30ff 0x000fd000
0x06067984 0x00b80000 0x00005800 0x000e2400
0x45057824 0x00000001 0x078e0206 0x001fc800
0x05047625 0x00006000 0x078e0026 0x000fd000
0x04007386 0x00000029 0x0010e900 0x0001e400
0x00007941 0x00000000 0x03800000 0x000fea00
0x00ff7355 0x00000000 0x00100000 0x000fe200
0x00007918 0x00000000 0x00000000 0x000fca00
0x00007945 0x000000b0 0x03800000 0x000fe200
0x00004947 0x00000090 0x03800000 0x000fea00
0x27047984 0x00b00000 0x00005800 0x001e2200
0xff267424 0x00000004 0x078e00ff 0x000fe200
0xff057a19 0x00006900 0x00011604 0x001fe400
0x04297812 0x80000000 0x078e3cff 0x000fe400
0x05067c12 0x00000004 0x0f8e30ff 0x000fd000
0x06067984 0x00b80000 0x00005800 0x000e2400
0x47057824 0x00000001 0x078e0206 0x001fc800
0x05047625 0x00006000 0x078e0026 0x000fd000
0x04007386 0x00000029 0x0010e900 0x0001e400
0x00007941 0x00000000 0x03800000 0x000fea00
0x00ff7355 0x00000000 0x00100000 0x000fe200
0x00007918 0x00000000 0x00000000 0x000fca00
0x00007945 0x000000b0 0x03800000 0x000fe200
0x00005947 0x00000090 0x03800000 0x000fea00
0x27047984 0x00b40000 0x00005800 0x001e2200
0xff267424 0x00000004 0x078e00ff 0x000fe200
0xff057a19 0x00006900 0x00011604 0x001fe400
0x04297812 0x80000000 0x078e3cff 0x000fe400
0x05067c12 0x00000004 0x0f8e30ff 0x000fd000
0x06067984 0x00b80000 0x00005800 0x000e2400
0x49057824 0x00000001 0x078e0206 0x001fc800
0x05047625 0x00006000 0x078e0026 0x000fd000
0x04007386 0x00000029 0x0010e900 0x0001e400
0x00007941 0x00000000 0x03800000 0x000fea00
0x00007918 0x00000000 0x00000000 0x000fca00
0x00007947 0x000019e0 0x03800000 0x000fea00
0x27057984 0x00000000 0x00005800 0x000e2400
0xff067a19 0x00006900 0x00011605 0x001fe400
0x05057812 0x80000000 0x078e3cff 0x000fe400
0x06067c12 0x00000004 0x0f8e30ff 0x000fd000
0x06067984 0x00b80000 0x00005800 0x000e2400
0x06297824 0x00000001 0x078e0227 0x001fc800
0x29287625 0x00006000 0x078e0004 0x000fd000
0x28007386 0x00000005 0x0010e900 0x000fe200
0x00007918 0x00000000 0x00000000 0x000fca00
0x27267984 0x00040000 0x00005800 0x000e2400
0xff2a7a19 0x00006900 0x00011626 0x001fe400
0x262d7812 0x80000000 0x078e3cff 0x000fe400
0x2a2c7c12 0x00000004 0x0f8e30ff 0x000fd000
0x2c2c7984 0x00b80000 0x00005800 0x000e2400
0x2c2b7810 0x00000100 0x07ffe027 0x001fca00
0x2b2a7625 0x00006000 0x078e0004 0x000fd000
0x2a007386 0x0000002d 0x0010e900 0x000fe200
0x00007918 0x00000000 0x00000000 0x000fca00
0x27057984 0x00080000 0x00005800 0x000e2400
0xff067a19 0x00006900 0x00011605 0x001fe400
0x05057812 0x80000000 0x078e3cff 0x000fe400
0x06067c12 0x00000004 0x0f8e30ff 0x000fd000
0x06067984 0x00b80000 0x00005800 0x000e2400
0x06297810 0x00000200 0x07ffe027 0x001fca00
0x29287625 0x00006000 0x078e0004 0x000fd000
0x28007386 0x00000005 0x0010e900 0x000fe200
0x00007918 0x00000000 0x00000000 0x000fca00
0x27267984 0x000c0000 0x00005800 0x000e2400
0xff2a7a19 0x00006900 0x00011626 0x001fe400
0x262d7812 0x80000000 0x078e3cff 0x000fe400
0x2a2c7c12 0x00000004 0x0f8e30ff 0x000fd000
0x2c2c7984 0x00b80000 0x00005800 0x000e2400
0x2c2b7810 0x00000300 0x07ffe027 0x001fca00
0x2b2a7625 0x00006000 0x078e0004 0x000fd000
0x2a007386 0x0000002d 0x0010e900 0x000fe200
0x00007918 0x00000000 0x00000000 0x000fca00
0x27057984 0x00100000 0x00005800 0x000e2400
0xff067a19 0x00006900 0x00011605 0x001fe400
0x05057812 0x80000000 0x078e3cff 0x000fe400
0x06067c12 0x00000004 0x0f8e30ff 0x000fd000
0x06067984 0x00b80000 0x00005800 0x000e2400
0x06297810 0x00000400 0x07ffe027 0x001fca00
0x29287625 0x00006000 0x078e0004 0x000fd000
0x28007386 0x00000005 0x0010e900 0x000fe200
0x00007918 0x00000000 0x00000000 0x000fca00
0x27267984 0x00140000 0x00005800 0x000e2400
0xff2a7a19 0x00006900 0x00011626 0x001fe400
0x262d7812 0x80000000 0x078e3cff 0x000fe400
0x2a2c7c12 0x00000004 0x0f8e30ff 0x000fd000
0x2c2c7984 0x00b80000 0x00005800 0x000e2400
0x2c2b7810 0x00000500 0x07ffe027 0x001fca00
0x2b2a7625 0x00006000 0x078e0004 0x000fd000
0x2a007386 0x0000002d 0x0010e900 0x000fe200
0x00007918 0x00000000 0x00000000 0x000fca00
0x27057984 0x00180000 0x00005800 0x000e2400
0xff067a19 0x00006900 0x00011605 0x001fe400
0x05057812 0x80000000 0x078e3cff 0x000fe400
0x06067c12 0x00000004 0x0f8e30ff 0x000fd000
0x06067984 0x00b80000 0x00005800 0x000e2400
0x06297810 0x00000600 0x07ffe027 0x001fca00
0x29287625 0x00006000 0x078e0004 0x000fd000
0x28007386 0x00000005 0x0010e900 0x000fe200
0x00007918 0x00000000 0x00000000 0x000fca00
0x27267984 0x001c0000 0x00005800 0x000e2400
0xff2a7a19 0x00006900 0x00011626 0x001fe400
0x262d7812 0x80000000 0x078e3cff 0x000fe400
0x2a2c7c12 0x00000004 0x0f8e30ff 0x000fd000
0x2c2c7984 0x00b80000 0x00005800 0x000e2400
0x2c2b7810 0x00000700 0x07ffe027 0x001fca00
0x2b2a7625 0x00006000 0x078e0004 0x000fd000
0x2a007386 0x0000002d 0x0010e900 0x000fe200
0x00007918 0x00000000 0x00000000 0x000fca00
0x27057984 0x00200000 0x00005800 0x000e2400
0xff067a19 0x00006900 0x00011605 0x001fe400
0x05057812 0x80000000 0x078e3cff 0x000fe400
0x06067c12 0x00000004 0x0f8e30ff 0x000fd000
0x06067984 0x00b80000 0x00005800 0x000e2400
0x06297810 0x00000800 0x07ffe027 0x001fca00
0x29287625 0x00006000 0x078e0004 0x000fd000
0x28007386 0x00000005 0x0010e900 0x000fe200
0x00007918 0x00000000 0x00000000 0x000fca00
0x27267984 0x00240000 0x00005800 0x000e2400
0xff2a7a19 0x00006900 0x00011626 0x001fe400
0x262d7812 0x80000000 0x078e3cff 0x000fe400
0x2a2c7c12 0x00000004 0x0f8e30ff 0x000fd000
0x2c2c7984 0x00b80000 0x00005800 0x000e2400
0x2c2b7810 0x00000900 0x07ffe027 0x001fca00
0x2b2a7625 0x00006000 0x078e0004 0x000fd000
0x2a007386 0x0000002d 0x0010e900 0x000fe200
0x00007918 0x00000000 0x00000000 0x000fca00
0x27057984 0x00280000 0x00005800 0x000e2400
0xff067a19 0x00006900 0x00011605 0x001fe400
0x05057812 0x80000000 0x078e3cff 0x000fe400
0x06067c12 0x00000004 0x0f8e30ff 0x000fd000
0x06067984 0x00b80000 0x00005800 0x000e2400
0x06297810 0x00000a00 0x07ffe027 0x001fca00
0x29287625 0x00006000 0x078e0004 0x000fd000
0x28007386 0x00000005 0x0010e900 0x000fe200
0x00007918 0x00000000 0x00000000 0x000fca00
0x27267984 0x002c0000 0x00005800 0x000e2400
0xff2a7a19 0x00006900 0x00011626 0x001fe400
0x262d7812 0x80000000 0x078e3cff 0x000fe400
0x2a2c7c12 0x00000004 0x0f8e30ff 0x000fd000
0x2c2c7984 0x00b80000 0x00005800 0x000e2400
0x2c2b7810 0x00000b00 0x07ffe027 0x001fca00
0x2b2a7625 0x00006000 0x078e0004 0x000fd000
0x2a007386 0x0000002d 0x0010e900 0x000fe200
0x00007918 0x00000000 0x00000000 0x000fca00
0x27057984 0x00300000 0x00005800 0x000e2400
0xff067a19 0x00006900 0x00011605 0x001fe400
0x05057812 0x80000000 0x078e3cff 0x000fe400
0x06067c12 0x00000004 0x0f8e30ff 0x000fd000
0x06067984 0x00b80000 0x00005800 0x000e2400
0x06297810 0x00000c00 0x07ffe027 0x001fca00
0x29287625 0x00006000 0x078e0004 0x000fd000
0x28007386 0x00000005 0x0010e900 0x000fe200
0x00007918 0x00000000 0x00000000 0x000fca00
0x27267984 0x00340000 0x00005800 0x000e2400
0xff2a7a19 0x00006900 0x00011626 0x001fe400
0x262d7812 0x80000000 0x078e3cff 0x000fe400
0x2a2c7c12 0x00000004 0x0f8e30ff 0x000fd000
0x2c2c7984 0x00b80000 0x00005800 0x000e2400
0x2c2b7810 0x00000d00 0x07ffe027 0x001fca00
0x2b2a7625 0x00006000 0x078e0004 0x000fd000
0x2a007386 0x0000002d 0x0010e900 0x000fe200
0x00007918 0x00000000 0x00000000 0x000fca00
0x27057984 0x00380000 0x00005800 0x000e2400
0xff067a19 0x00006900 0x00011605 0x001fe400
0x05057812 0x80000000 0x078e3cff 0x000fe400
0x06067c12 0x00000004 0x0f8e30ff 0x000fd000
0x06067984 0x00b80000 0x00005800 0x000e2400
0x06297810 0x00000e00 0x07ffe027 0x001fca00
0x29287625 0x00006000 0x078e0004 0x000fd000
0x28007386 0x00000005 0x0010e900 0x000fe200
0x00007918 0x00000000 0x00000000 0x000fca00
0x27267984 0x003c0000 0x00005800 0x000e2400
0xff2a7a19 0x00006900 0x00011626 0x001fe400
0x262d7812 0x80000000 0x078e3cff 0x000fe400
0x2a2c7c12 0x00000004 0x0f8e30ff 0x000fd000
0x2c2c7984 0x00b80000 0x00005800 0x000e2400
0x2c2b7810 0x00000f00 0x07ffe027 0x001fca00
0x2b2a7625 0x00006000 0x078e0004 0x000fd000
0x2a007386 0x0000002d 0x0010e900 0x000fe200
0x00007918 0x00000000 0x00000000 0x000fca00
0x27057984 0x00400000 0x00005800 0x000e2400
0xff067a19 0x00006900 0x00011605 0x001fe400
0x05057812 0x80000000 0x078e3cff 0x000fe400
0x06067c12 0x00000004 0x0f8e30ff 0x000fd000
0x06067984 0x00b80000 0x00005800 0x000e2400
0x06297810 0x00001000 0x07ffe027 0x001fca00
0x29287625 0x00006000 0x078e0004 0x000fd000
0x28007386 0x00000005 0x0010e900 0x000fe200
0x00007918 0x00000000 0x00000000 0x000fca00
0x27267984 0x00440000 0x00005800 0x000e2400
0xff2a7a19 0x00006900 0x00011626 0x001fe400
0x262d7812 0x80000000 0x078e3cff 0x000fe400
0x2a2c7c12 0x00000004 0x0f8e30ff 0x000fd000
0x2c2c7984 0x00b80000 0x00005800 0x000e2400
0x2c2b7810 0x00001100 0x07ffe027 0x001fca00
0x2b2a7625 0x00006000 0x078e0004 0x000fd000
0x2a007386 0x0000002d 0x0010e900 0x000fe200
0x00007918 0x00000000 0x00000000 0x000fca00
0x27057984 0x00480000 0x00005800 0x000e2400
0xff067a19 0x00006900 0x00011605 0x001fe400
0x05057812 0x80000000 0x078e3cff 0x000fe400
0x06067c12 0x00000004 0x0f8e30ff 0x000fd000
0x06067984 0x00b80000 0x00005800 0x000e2400
0x06297810 0x00001200 0x07ffe027 0x001fca00
0x29287625 0x00006000 0x078e0004 0x000fd000
0x28007386 0x00000005 0x0010e900 0x000fe200
0x00007918 0x00000000 0x00000000 0x000fca00
0x27267984 0x004c0000 0x00005800 0x000e2400
0xff2a7a19 0x00006900 0x00011626 0x001fe400
0x262d7812 0x80000000 0x078e3cff 0x000fe400
0x2a2c7c12 0x00000004 0x0f8e30ff 0x000fd000
0x2c2c7984 0x00b80000 0x00005800 0x000e2400
0x2c2b7810 0x00001300 0x07ffe027 0x001fca00
0x2b2a7625 0x00006000 0x078e0004 0x000fd000
0x2a007386 0x0000002d 0x0010e900 0x000fe200
0x00007918 0x00000000 0x00000000 0x000fca00
0x27057984 0x00500000 0x00005800 0x000e2400
0xff067a19 0x00006900 0x00011605 0x001fe400
0x05057812 0x80000000 0x078e3cff 0x000fe400
0x06067c12 0x00000004 0x0f8e30ff 0x000fd000
0x06067984 0x00b80000 0x00005800 0x000e2400
0x06297810 0x00001400 0x07ffe027 0x001fca00
0x29287625 0x00006000 0x078e0004 0x000fd000
0x28007386 0x00000005 0x0010e900 0x000fe200
0x00007918 0x00000000 0x00000000 0x000fca00
0x27267984 0x00540000 0x00005800 0x000e2400
0xff2a7a19 0x00006900 0x00011626 0x001fe400
0x262d7812 0x80000000 0x078e3cff 0x000fe400
0x2a2c7c12 0x00000004 0x0f8e30ff 0x000fd000
0x2c2c7984 0x00b80000 0x00005800 0x000e2400
0x2c2b7810 0x00001500 0x07ffe027 0x001fca00
0x2b2a7625 0x00006000 0x078e0004 0x000fd000
0x2a007386 0x0000002d 0x0010e900 0x000fe200
0x00007918 0x00000000 0x00000000 0x000fca00
0x27057984 0x00580000 0x00005800 0x000e2400
0xff067a19 0x00006900 0x00011605 0x001fe400
0x05057812 0x80000000 0x078e3cff 0x000fe400
0x06067c12 0x00000004 0x0f8e30ff 0x000fd000
0x06067984 0x00b80000 0x00005800 0x000e2400
0x06297810 0x00001600 0x07ffe027 0x001fca00
0x29287625 0x00006000 0x078e0004 0x000fd000
0x28007386 0x00000005 0x0010e900 0x000fe200
0x00007918 0x00000000 0x00000000 0x000fca00
0x27267984 0x005c0000 0x00005800 0x000e2400
0xff2a7a19 0x00006900 0x00011626 0x001fe400
0x262d7812 0x80000000 0x078e3cff 0x000fe400
0x2a2c7c12 0x00000004 0x0f8e30ff 0x000fd000
0x2c2c7984 0x00b80000 0x00005800 0x000e2400
0x2c2b7810 0x00001700 0x07ffe027 0x001fca00
0x2b2a7625 0x00006000 0x078e0004 0x000fd000
0x2a007386 0x0000002d 0x0010e900 0x000fe200
0x00007918 0x00000000 0x00000000 0x000fca00
0x27057984 0x00600000 0x00005800 0x000e2400
0xff067a19 0x00006900 0x00011605 0x001fe400
0x05057812 0x80000000 0x078e3cff 0x000fe400
0x06067c12 0x00000004 0x0f8e30ff 0x000fd000
0x06067984 0x00b80000 0x00005800 0x000e2400
0x06297810 0x00001800 0x07ffe027 0x001fca00
0x29287625 0x00006000 0x078e0004 0x000fd000
0x28007386 0x00000005 0x0010e900 0x000fe200
0x00007918 0x00000000 0x00000000 0x000fca00
0x27267984 0x00640000 0x00005800 0x000e2400
0xff2a7a19 0x00006900 0x00011626 0x001fe400
0x262d7812 0x80000000 0x078e3cff 0x000fe400
0x2a2c7c12 0x00000004 0x0f8e30ff 0x000fd000
0x2c2c7984 0x00b80000 0x00005800 0x000e2400
0x2c2b7810 0x00001900 0x07ffe027 0x001fca00
0x2b2a7625 0x00006000 0x078e0004 0x000fd000
0x2a007386 0x0000002d 0x0010e900 0x000fe200
0x00007918 0x00000000 0x00000000 0x000fca00
0x27057984 0x00680000 0x00005800 0x000e2400
0xff067a19 0x00006900 0x00011605 0x001fe400
0x05057812 0x80000000 0x078e3cff 0x000fe400
0x06067c12 0x00000004 0x0f8e30ff 0x000fd000
0x06067984 0x00b80000 0x00005800 0x000e2400
0x06297810 0x00001a00 0x07ffe027 0x001fca00
0x29287625 0x00006000 0x078e0004 0x000fd000
0x28007386 0x00000005 0x0010e900 0x000fe200
0x00007918 0x00000000 0x00000000 0x000fca00
0x27267984 0x006c0000 0x00005800 0x000e2400
0xff2a7a19 0x00006900 0x00011626 0x001fe400
0x262d7812 0x80000000 0x078e3cff 0x000fe400
0x2a2c7c12 0x00000004 0x0f8e30ff 0x000fd000
0x2c2c7984 0x00b80000 0x00005800 0x000e2400
0x2c2b7810 0x00001b00 0x07ffe027 0x001fca00
0x2b2a7625 0x00006000 0x078e0004 0x000fd000
0x2a007386 0x0000002d 0x0010e900 0x000fe200
0x00007918 0x00000000 0x00000000 0x000fca00
0x27057984 0x00700000 0x00005800 0x000e2400
0xff067a19 0x00006900 0x00011605 0x001fe400
0x05057812 0x80000000 0x078e3cff 0x000fe400
0x06067c12 0x00000004 0x0f8e30ff 0x000fd000
0x06067984 0x00b80000 0x00005800 0x000e2400
0x06297810 0x00001c00 0x07ffe027 0x001fca00
0x29287625 0x00006000 0x078e0004 0x000fd000
0x28007386 0x00000005 0x0010e900 0x000fe200
0x00007918 0x00000000 0x00000000 0x000fca00
0x27267984 0x00740000 0x00005800 0x000e2400
0xff2a7a19 0x00006900 0x00011626 0x001fe400
0x262d7812 0x80000000 0x078e3cff 0x000fe400
0x2a2c7c12 0x00000004 0x0f8e30ff 0x000fd000
0x2c2c7984 0x00b80000 0x00005800 0x000e2400
0x2c2b7810 0x00001d00 0x07ffe027 0x001fca00
0x2b2a7625 0x00006000 0x078e0004 0x000fd000
0x2a007386 0x0000002d 0x0010e900 0x000fe200
0x00007918 0x00000000 0x00000000 0x000fca00
0x27057984 0x00780000 0x00005800 0x000e2400
0xff067a19 0x00006900 0x00011605 0x001fe400
0x05057812 0x80000000 0x078e3cff 0x000fe400
0x06067c12 0x00000004 0x0f8e30ff 0x000fd000
0x06067984 0x00b80000 0x00005800 0x000e2400
0x06297810 0x00001e00 0x07ffe027 0x001fca00
0x29287625 0x00006000 0x078e0004 0x000fd000
0x28007386 0x00000005 0x0010e900 0x000fe200
0x00007918 0x00000000 0x00000000 0x000fca00
0x27267984 0x007c0000 0x00005800 0x000e2400
0xff2a7a19 0x00006900 0x00011626 0x001fe400
0x262d7812 0x80000000 0x078e3cff 0x000fe400
0x2a2c7c12 0x00000004 0x0f8e30ff 0x000fd000
0x2c2c7984 0x00b80000 0x00005800 0x000e2400
0x2c2b7810 0x00001f00 0x07ffe027 0x001fca00
0x2b2a7625 0x00006000 0x078e0004 0x000fd000
0x2a007386 0x0000002d 0x0010e900 0x000fe200
0x00007918 0x00000000 0x00000000 0x000fca00
0x27057984 0x00800000 0x00005800 0x000e2400
0xff067a19 0x00006900 0x00011605 0x001fe400
0x05057812 0x80000000 0x078e3cff 0x000fe400
0x06067c12 0x00000004 0x0f8e30ff 0x000fd000
0x06067984 0x00b80000 0x00005800 0x000e2400
0x06297810 0x00002000 0x07ffe027 0x001fca00
0x29287625 0x00006000 0x078e0004 0x000fd000
0x28007386 0x00000005 0x0010e900 0x000fe200
0x00007918 0x00000000 0x00000000 0x000fca00
0x27267984 0x00840000 0x00005800 0x000e2400
0xff2a7a19 0x00006900 0x00011626 0x001fe400
0x262d7812 0x80000000 0x078e3cff 0x000fe400
0x2a2c7c12 0x00000004 0x0f8e30ff 0x000fd000
0x2c2c7984 0x00b80000 0x00005800 0x000e2400
0x2c2b7810 0x00002100 0x07ffe027 0x001fca00
0x2b2a7625 0x00006000 0x078e0004 0x000fd000
0x2a007386 0x0000002d 0x0010e900 0x000fe200
0x00007918 0x00000000 0x00000000 0x000fca00
0x27057984 0x00880000 0x00005800 0x000e2400
0xff067a19 0x00006900 0x00011605 0x001fe400
0x05057812 0x80000000 0x078e3cff 0x000fe400
0x06067c12 0x00000004 0x0f8e30ff 0x000fd000
0x06067984 0x00b80000 0x00005800 0x000e2400
0x06297810 0x00002200 0x07ffe027 0x001fca00
0x29287625 0x00006000 0x078e0004 0x000fd000
0x28007386 0x00000005 0x0010e900 0x000fe200
0x00007918 0x00000000 0x00000000 0x000fca00
0x27267984 0x008c0000 0x00005800 0x000e2400
0xff2a7a19 0x00006900 0x00011626 0x001fe400
0x262d7812 0x80000000 0x078e3cff 0x000fe400
0x2a2c7c12 0x00000004 0x0f8e30ff 0x000fd000
0x2c2c7984 0x00b80000 0x00005800 0x000e2400
0x2c2b7810 0x00002300 0x07ffe027 0x001fca00
0x2b2a7625 0x00006000 0x078e0004 0x000fd000
0x2a007386 0x0000002d 0x0010e900 0x000fe200
0x00007918 0x00000000 0x00000000 0x000fca00
0x27057984 0x00900000 0x00005800 0x000e2400
0xff067a19 0x00006900 0x00011605 0x001fe400
0x05057812 0x80000000 0x078e3cff 0x000fe400
0x06067c12 0x00000004 0x0f8e30ff 0x000fd000
0x06067984 0x00b80000 0x00005800 0x000e2400
0x06297810 0x00002400 0x07ffe027 0x001fca00
0x29287625 0x00006000 0x078e0004 0x000fd000
0x28007386 0x00000005 0x0010e900 0x000fe200
0x00007918 0x00000000 0x00000000 0x000fca00
0x27267984 0x00940000 0x00005800 0x000e2400
0xff2a7a19 0x00006900 0x00011626 0x001fe400
0x262d7812 0x80000000 0x078e3cff 0x000fe400
0x2a2c7c12 0x00000004 0x0f8e30ff 0x000fd000
0x2c2c7984 0x00b80000 0x00005800 0x000e2400
0x2c2b7810 0x00002500 0x07ffe027 0x001fca00
0x2b2a7625 0x00006000 0x078e0004 0x000fd000
0x2a007386 0x0000002d 0x0010e900 0x000fe200
0x00007918 0x00000000 0x00000000 0x000fca00
0x27057984 0x00980000 0x00005800 0x000e2400
0xff067a19 0x00006900 0x00011605 0x001fe400
0x05057812 0x80000000 0x078e3cff 0x000fe400
0x06067c12 0x00000004 0x0f8e30ff 0x000fd000
0x06067984 0x00b80000 0x00005800 0x000e2400
0x06297810 0x00002600 0x07ffe027 0x001fca00
0x29287625 0x00006000 0x078e0004 0x000fd000
0x28007386 0x00000005 0x0010e900 0x000fe200
0x00007918 0x00000000 0x00000000 0x000fca00
0x27267984 0x009c0000 0x00005800 0x000e2400
0xff2a7a19 0x00006900 0x00011626 0x001fe400
0x262d7812 0x80000000 0x078e3cff 0x000fe400
0x2a2c7c12 0x00000004 0x0f8e30ff 0x000fd000
0x2c2c7984 0x00b80000 0x00005800 0x000e2400
0x2c2b7810 0x00002700 0x07ffe027 0x001fca00
0x2b2a7625 0x00006000 0x078e0004 0x000fd000
0x2a007386 0x0000002d 0x0010e900 0x000fe200
0x00007918 0x00000000 0x00000000 0x000fca00
0x27057984 0x00a00000 0x00005800 0x000e2400
0xff067a19 0x00006900 0x00011605 0x001fe400
0x05057812 0x80000000 0x078e3cff 0x000fe400
0x06067c12 0x00000004 0x0f8e30ff 0x000fd000
0x06067984 0x00b80000 0x00005800 0x000e2400
0x06297810 0x00002800 0x07ffe027 0x001fca00
0x29287625 0x00006000 0x078e0004 0x000fd000
0x28007386 0x00000005 0x0010e900 0x000fe200
0x00007918 0x00000000 0x00000000 0x000fca00
0x27267984 0x00a40000 0x00005800 0x000e2400
0xff2a7a19 0x00006900 0x00011626 0x001fe400
0x262d7812 0x80000000 0x078e3cff 0x000fe400
0x2a2c7c12 0x00000004 0x0f8e30ff 0x000fd000
0x2c2c7984 0x00b80000 0x00005800 0x000e2400
0x2c2b7810 0x00002900 0x07ffe027 0x001fca00
0x2b2a7625 0x00006000 0x078e0004 0x000fd000
0x2a007386 0x0000002d 0x0010e900 0x000fe200
0x00007918 0x00000000 0x00000000 0x000fca00
0x27057984 0x00a80000 0x00005800 0x000e2400
0xff067a19 0x00006900 0x00011605 0x001fe400
0x05057812 0x80000000 0x078e3cff 0x000fe400
0x06067c12 0x00000004 0x0f8e30ff 0x000fd000
0x06067984 0x00b80000 0x00005800 0x000e2400
0x06297810 0x00002a00 0x07ffe027 0x001fca00
0x29287625 0x00006000 0x078e0004 0x000fd000
0x28007386 0x00000005 0x0010e900 0x000fe200
0x00007918 0x00000000 0x00000000 0x000fca00
0x27267984 0x00ac0000 0x00005800 0x000e2400
0xff2a7a19 0x00006900 0x00011626 0x001fe400
0x262d7812 0x80000000 0x078e3cff 0x000fe400
0x2a2c7c12 0x00000004 0x0f8e30ff 0x000fd000
0x2c2c7984 0x00b80000 0x00005800 0x000e2400
0x2c2b7810 0x00002b00 0x07ffe027 0x001fca00
0x2b2a7625 0x00006000 0x078e0004 0x000fd000
0x2a007386 0x0000002d 0x0010e900 0x000fe200
0x00007918 0x00000000 0x00000000 0x000fca00
0x27057984 0x00b00000 0x00005800 0x000e2400
0xff067a19 0x00006900 0x00011605 0x001fe400
0x052f7812 0x80000000 0x078e3cff 0x000fe400
0x06067c12 0x00000004 0x0f8e30ff 0x000fd000
0x06067984 0x00b80000 0x00005800 0x000e2400
0x06297810 0x00002c00 0x07ffe027 0x001fca00
0x29287625 0x00006000 0x078e0004 0x000fd000
0x28007386 0x0000002f 0x0010e900 0x000fe200
0x00007918 0x00000000 0x00000000 0x000fca00
0x27057984 0x00b40000 0x00005800 0x000e2400
0xff267a19 0x00006900 0x00011605 0x001fe400
0x052d7812 0x80000000 0x078e3cff 0x000fe400
0x26267c12 0x00000004 0x0f8e30ff 0x000fd000
0x26267984 0x00b80000 0x00005800 0x000e2400
0x262b7810 0x00002d00 0x07ffe027 0x001fca00
0x2b047625 0x00006000 0x078e0004 0x000fd000
0x04007386 0x0000002d 0x0010e900 0x0001e200
0x00007918 0x00000000 0x00000000 0x000fca00
0x27047984 0x00000000 0x00005800 0x001e2200
0x8800720c 0x000000ff 0x03f05270 0x000fe200
0x00ff7355 0x00000000 0x00100000 0x000fe200
0x00007945 0x00001770 0x03800000 0x000fe200
0x27057984 0x00040000 0x00005800 0x000e6200
0x27327810 0x00000100 0x07ffe0ff 0x000fc600
0x27067984 0x00080000 0x00005800 0x000ea800
0x27267984 0x000c0000 0x00005800 0x000ee800
0x27287984 0x00100000 0x00005800 0x000f6800
0x27297984 0x00140000 0x00005800 0x000f2800
0x272a7984 0x00180000 0x00005800 0x000f2800
0x272b7984 0x001c0000 0x00005800 0x000f2800
0x272c7984 0x00200000 0x00005800 0x000f2800
0x272d7984 0x00240000 0x00005800 0x000f2800
0x272e7984 0x00280000 0x00005800 0x000f2200
0xff047a19 0x00006900 0x00011604 0x001fc600
0x272f7984 0x002c0000 0x00005800 0x000e2200
0xff057a19 0x00006900 0x00011605 0x002fe400
0x046d7c12 0x00000004 0x0f8e30ff 0x000fe200
0x27307984 0x00300000 0x00005800 0x000e6200
0xff067a19 0x00006900 0x00011606 0x004fe400
0x056c7c12 0x00000004 0x0f8e30ff 0x000fe200
0x27317984 0x00340000 0x00005800 0x000ea200
0xff267a19 0x00006900 0x00011626 0x008fe400
0x066b7c12 0x00000004 0x0f8e30ff 0x000fe200
0x27447984 0x00380000 0x00005800 0x000ee200
0xff287a19 0x00006900 0x00011628 0x020fc400
0x266a7c12 0x00000004 0x0f8e30ff 0x000fe200
0x27457984 0x003c0000 0x00005800 0x000f6200
0xff297a19 0x00006900 0x00011629 0x010fe400
0x28697c12 0x00000004 0x0f8e30ff 0x000fe200
0x27467984 0x00400000 0x00005800 0x000f2200
0xff2a7a19 0x00006900 0x0001162a 0x000fe400
0x29687c12 0x00000004 0x0f8e30ff 0x000fe200
0x27477984 0x00440000 0x00005800 0x000f2200
0xff2b7a19 0x00006900 0x0001162b 0x000fc400
0x2a677c12 0x00000004 0x0f8e30ff 0x000fe200
0x27487984 0x00480000 0x00005800 0x000f2200
0xff2c7a19 0x00006900 0x0001162c 0x000fc600
0x27497984 0x004c0000 0x00005800 0x000f2200
0xff2d7a19 0x00006900 0x0001162d 0x000fc600
0x274a7984 0x00500000 0x00005800 0x000f2200
0xff2e7a19 0x00006900 0x0001162e 0x000fc600
0x274b7984 0x00540000 0x00005800 0x000f2200
0xff2f7a19 0x00006900 0x0001162f 0x001fc600
0x274c7984 0x00580000 0x00005800 0x000e2200
0xff307a19 0x00006900 0x00011630 0x002fc600
0x274d7984 0x005c0000 0x00005800 0x000e6200
0xff317a19 0x00006900 0x00011631 0x004fc600
0x274e7984 0x00600000 0x00005800 0x000ea200
0xff447a19 0x00006900 0x00011644 0x008fc600
0x274f7984 0x00640000 0x00005800 0x000ee200
0xff457a19 0x00006900 0x00011645 0x020fc600
0x27537984 0x00680000 0x00005800 0x000f6200
0xff467a19 0x00006900 0x00011646 0x010fc600
0x27547984 0x006c0000 0x00005800 0x000f2200
0xff477a19 0x00006900 0x00011647 0x000fc600
0x27557984 0x00700000 0x00005800 0x000f2200
0xff487a19 0x00006900 0x00011648 0x000fc600
0x27567984 0x00740000 0x00005800 0x000f2200
0xff497a19 0x00006900 0x00011649 0x000fc600
0x27577984 0x00780000 0x00005800 0x000f2200
0xff4a7a19 0x00006900 0x0001164a 0x000fc600
0x27587984 0x007c0000 0x00005800 0x000f2200
0xff4b7a19 0x00006900 0x0001164b 0x000fc600
0x27597984 0x00800000 0x00005800 0x000f2200
0xff4c7a19 0x00006900 0x0001164c 0x001fc600
0x275a7984 0x00840000 0x00005800 0x000e2200
0xff507a19 0x00006900 0x0001164d 0x002fe400
0x4c4d7c12 0x00000004 0x0f8e30ff 0x000fe200
0x275b7984 0x00880000 0x00005800 0x000e6200
0xff517a19 0x00006900 0x0001164e 0x004fe400
0x4b4e7c12 0x00000004 0x0f8e30ff 0x000fe200
0x275c7984 0x008c0000 0x00005800 0x000ea200
0xff527a19 0x00006900 0x0001164f 0x008fe400
0x4a4f7c12 0x00000004 0x0f8e30ff 0x000fe200
0x275d7984 0x00900000 0x00005800 0x000ee200
0xff537a19 0x00006900 0x00011653 0x020fc400
0x504c7c12 0x00000004 0x0f8e30ff 0x000fe200
0x275e7984 0x00940000 0x00005800 0x000f6200
0xff547a19 0x00006900 0x00011654 0x010fe400
0x514b7c12 0x00000004 0x0f8e30ff 0x000fe200
0x275f7984 0x00980000 0x00005800 0x000f2200
0xff557a19 0x00006900 0x00011655 0x000fe400
0x524a7c12 0x00000004 0x0f8e30ff 0x000fe200
0x27607984 0x009c0000 0x00005800 0x000f2200
0xff567a19 0x00006900 0x00011656 0x000fc600
0x27617984 0x00a00000 0x00005800 0x000f2200
0xff577a19 0x00006900 0x00011657 0x000fc600
0x27627984 0x00a40000 0x00005800 0x000f2200
0xff587a19 0x00006900 0x00011658 0x000fc600
0x27637984 0x00a80000 0x00005800 0x000f2200
0xff597a19 0x00006900 0x00011659 0x000fc600
0x27647984 0x00ac0000 0x00005800 0x000f2200
0xff6e7a19 0x00006900 0x0001165a 0x001fe400
0x495a7c12 0x00000004 0x0f8e30ff 0x000fe200
0x27657984 0x00b00000 0x00005800 0x000e2200
0xff6f7a19 0x00006900 0x0001165b 0x002fe400
0x485b7c12 0x00000004 0x0f8e30ff 0x000fe200
0x27667984 0x00b40000 0x00005800 0x000e6200
0xff707a19 0x00006900 0x0001165c 0x004fe400
0x475c7c12 0x00000004 0x0f8e30ff 0x000fc400
0xff717a19 0x00006900 0x0001165d 0x008fe400
0x465d7c12 0x00000004 0x0f8e30ff 0x000fe400
0xff727a19 0x00006900 0x0001165e 0x020fe400
0x455e7c12 0x00000004 0x0f8e30ff 0x000fe400
0xff737a19 0x00006900 0x0001165f 0x010fe400
0x445f7c12 0x00000004 0x0f8e30ff 0x000fc400
0xff747a19 0x00006900 0x00011660 0x000fe400
0x31607c12 0x00000004 0x0f8e30ff 0x000fe400
0xff757a19 0x00006900 0x00011661 0x000fe400
0x30617c12 0x00000004 0x0f8e30ff 0x000fe400
0xff767a19 0x00006900 0x00011662 0x000fe400
0x2f627c12 0x00000004 0x0f8e30ff 0x000fc400
0xff777a19 0x00006900 0x00011663 0x000fe400
0x2e637c12 0x00000004 0x0f8e30ff 0x000fe400
0xff787a19 0x00006900 0x00011664 0x000fe400
0x2d647c12 0x00000004 0x0f8e30ff 0x000fe400
0xff797a19 0x00006900 0x00011665 0x001fe400
0x2c657c12 0x00000004 0x0f8e30ff 0x000fc400
0xff7a7a19 0x00006900 0x00011666 0x002fe400
0x2b667c12 0x00000004 0x0f8e30ff 0x000fe400
0x53497c12 0x00000004 0x0f8e30ff 0x000fe400
0x54487c12 0x00000004 0x0f8e30ff 0x000fe400
0x55477c12 0x00000004 0x0f8e30ff 0x000fe400
0x56467c12 0x00000004 0x0f8e30ff 0x000fc400
0x57457c12 0x00000004 0x0f8e30ff 0x000fe400
0x58447c12 0x00000004 0x0f8e30ff 0x000fe400
0x59317c12 0x00000004 0x0f8e30ff 0x000fe400
0x6e307c12 0x00000004 0x0f8e30ff 0x000fe400
0x6f2f7c12 0x00000004 0x0f8e30ff 0x000fe400
0x702e7c12 0x00000004 0x0f8e30ff 0x000fc400
0x712d7c12 0x00000004 0x0f8e30ff 0x000fe400
0x722c7c12 0x00000004 0x0f8e30ff 0x000fe400
0x732b7c12 0x00000004 0x0f8e30ff 0x000fe400
0x742a7c12 0x00000004 0x0f8e30ff 0x000fe400
0x75297c12 0x00000004 0x0f8e30ff 0x000fe400
0x76287c12 0x00000004 0x0f8e30ff 0x000fc400
0x77267c12 0x00000004 0x0f8e30ff 0x000fe400
0x78067c12 0x00000004 0x0f8e30ff 0x000fe400
0x79057c12 0x00000004 0x0f8e30ff 0x000fe400
0x7a047c12 0x00000004 0x0f8e30ff 0x000fe200
0x00008947 0x00000bc0 0x03800000 0x000fea00
0x24007824 0x00002e00 0x078e02ff 0x000fe200
0x25517810 0x00000020 0x07ffe0ff 0x040fe200
0x00047ab9 0x00006600 0x00000a00 0x000fe200
0x25537810 0x00000040 0x07ffe0ff 0x000fc400
0x00527a10 0x00006800 0x07ffe1ff 0x000fe400
0x25557810 0x00000060 0x07ffe0ff 0x040fe400
0x2500720c 0x00000052 0x03f66270 0x080fe400
0x5100720c 0x00000052 0x03f06270 0x080fe400
0x25517810 0x00000080 0x07ffe0ff 0x000fe400
0x5300720c 0x00000052 0x03f86270 0x000fc400
0x5100720c 0x00000052 0x03fa6270 0x080fe400
0x25517810 0x000000e0 0x07ffe0ff 0x040fe400
0x25537810 0x000000a0 0x07ffe0ff 0x040fe200
0x026eb981 0x00000004 0x0c1ee900 0x00016200
0x25577810 0x000000c0 0x07ffe0ff 0x000fe400
0x5500720c 0x00000052 0x03fc6270 0x080fe200
0x026f8981 0x00008004 0x0c1ee900 0x00016200
0x5100720c 0x00000052 0x03f66270 0x000fc400
0x25517810 0x00000120 0x07ffe0ff 0x000fe200
0x0270c981 0x00010004 0x0c1ee900 0x00016200
0x5300720c 0x00000052 0x03f46270 0x080fe400
0x5700720c 0x00000052 0x03f26270 0x080fe200
0x0272d981 0x00020004 0x0c1ee900 0x00016200
0x25537810 0x00000100 0x07ffe0ff 0x000fe400
0x5100720c 0x00000052 0x03f86270 0x000fe200
0x0271e981 0x00018004 0x0c1ee900 0x00016200
0x25517810 0x00000160 0x07ffe0ff 0x000fc400
0x5300720c 0x00000052 0x03f06270 0x080fe200
0x0275b981 0x00038004 0x0c1ee900 0x00016200
0x25537810 0x00000140 0x07ffe0ff 0x000fe400
0x5100720c 0x00000052 0x03fa6270 0x080fe200
0x02749981 0x00030004 0x0c1ee900 0x00016200
0x25517810 0x000001a0 0x07ffe0ff 0x000fe400
0x5300720c 0x00000052 0x03fc6270 0x000fe200
0x0273a981 0x00028004 0x0c1ee900 0x00016200
0x25537810 0x00000180 0x07ffe0ff 0x000fc400
0x5100720c 0x00000052 0x03f26270 0x080fe200
0x02768981 0x00040004 0x0c1ee900 0x00016200
0x25517810 0x000001e0 0x07ffe0ff 0x000fe400
0x5300720c 0x00000052 0x03f46270 0x080fe200
0x0277c981 0x00048004 0x0c1ee900 0x00016200
0x25537810 0x000001c0 0x07ffe0ff 0x000fe400
0x5100720c 0x00000052 0x03f06270 0x000fe200
0x0278e981 0x00050004 0x0c1ee900 0x00016200
0x25517810 0x00000220 0x07ffe0ff 0x000fc400
0x5300720c 0x00000052 0x03f66270 0x080fe200
0x0279d981 0x00058004 0x0c1ee900 0x00016200
0x25537810 0x00000200 0x07ffe0ff 0x000fe400
0x5100720c 0x00000052 0x03fc6270 0x080fe200
0x027aa981 0x00060004 0x0c1ee900 0x00016200
0x25517810 0x00000260 0x07ffe0ff 0x000fe400
0x5300720c 0x00000052 0x03f86270 0x000fe200
0x00507919 0x00000000 0x00002100 0x000e6200
0x25537810 0x00000240 0x07ffe0ff 0x000fc400
0x5100720c 0x00000052 0x03f46270 0x080fe200
0x027cb981 0x00070004 0x0c1ee900 0x00016200
0x25517810 0x000002a0 0x07ffe0ff 0x000fe400
0x5300720c 0x00000052 0x03fa6270 0x080fe200
0x027b9981 0x00068004 0x0c1ee900 0x00016200
0x25537810 0x00000280 0x07ffe0ff 0x000fe400
0x5100720c 0x00000052 0x03f66270 0x000fe200
0x027d8981 0x00078004 0x0c1ee900 0x00016200
0x25517810 0x000002c0 0x07ffe0ff 0x000fc400
0x5300720c 0x00000052 0x03f26270 0x080fe200
0x027ec981 0x00080004 0x0c1ee900 0x00016200
0x25537810 0x000002e0 0x07ffe0ff 0x000fe400
0x5100720c 0x00000052 0x03f06270 0x080fe200
0x027fe981 0x00088004 0x0c1ee900 0x00016200
0x25517810 0x00000300 0x07ffe0ff 0x000fe400
0x5300720c 0x00000052 0x03f86270 0x000fe200
0x0280d981 0x00090004 0x0c1ee900 0x00016200
0x25537810 0x00000320 0x07ffe0ff 0x000fc400
0x5100720c 0x00000052 0x03fc6270 0x080fe200
0x0281a981 0x00098004 0x0c1ee900 0x00016200
0x25517810 0x00000340 0x07ffe0ff 0x000fe400
0x5300720c 0x00000052 0x03fa6270 0x080fe200
0x02829981 0x000a0004 0x0c1ee900 0x00016200
0x25537810 0x00000360 0x07ffe0ff 0x000fe400
0x5100720c 0x00000052 0x03f46270 0x000fe200
0x0283b981 0x000a8004 0x0c1ee900 0x00016200
0x25517810 0x00000380 0x07ffe0ff 0x000fc400
0x5300720c 0x00000052 0x03f26270 0x080fe200
0x02848981 0x000b0004 0x0c1ee900 0x00016200
0x25537810 0x000003a0 0x07ffe0ff 0x000fe400
0x5100720c 0x00000052 0x03f66270 0x000fe200
0x0285c981 0x000b8004 0x0c1ee900 0x00016200
0x50547812 0xffffffe0 0x078ec0ff 0x042fe400
0x50557812 0x0000001f 0x078ec0ff 0x000fe200
0x0286e981 0x000c0004 0x0c1ee900 0x00016200
0x25517810 0x000003c0 0x07ffe0ff 0x000fc400
0x5300720c 0x00000052 0x03f06270 0x080fe200
0x02879981 0x000d8004 0x0c1ee900 0x00016200
0x25537810 0x000003e0 0x07ffe0ff 0x000fe200
0x54997824 0x0000002e 0x078e0255 0x000fe200
0x5100720c 0x00000052 0x03f86270 0x080fe200
0x028ab981 0x000e0004 0x0c1ee900 0x00016200
0x25517810 0x00000400 0x07ffe0ff 0x000fe400
0x5300720c 0x00000052 0x03fc6270 0x000fe200
0x0288a981 0x000d0004 0x0c1ee900 0x00016200
0x25537810 0x00000420 0x07ffe0ff 0x000fc400
0x99557810 0x00000480 0x07ffe0ff 0x000fe200
0x0225d981 0x000c8004 0x0c1ee900 0x00016200
0x5100720c 0x00000052 0x03fa6270 0x080fe400
0x99517810 0x00000440 0x07ffe0ff 0x000fe200
0x028cc981 0x000f0004 0x0c1ee900 0x00016200
0x5500720c 0x00000052 0x03f26270 0x080fe400
0x5100720c 0x00000052 0x03f66270 0x000fe200
0x02898981 0x000e8004 0x0c1ee900 0x00016200
0x99517810 0x000004a0 0x07ffe0ff 0x000fc400
0x5300720c 0x00000052 0x03f46270 0x080fe200
0x028be981 0x000f8004 0x0c1ee900 0x00016200
0x99537810 0x00000460 0x07ffe0ff 0x000fe400
0x5100720c 0x00000052 0x03f86270 0x080fe200
0x028ed981 0x00100004 0x0c1ee900 0x00016200
0x5300720c 0x00000052 0x03f06270 0x000fe400
0x99537810 0x000004c0 0x07ffe0ff 0x000fe200
0x0290b981 0x00110004 0x0c1ee900 0x00016200
0x00519210 0x00000099 0x07fbe0ff 0x000fc400
0x5300720c 0x00000052 0x03fc6270 0x000fe200
0x028da981 0x00108004 0x0c1ee900 0x00016200
0x51509a11 0x00006600 0x078410ff 0x000fe400
0x0053c210 0x00000099 0x07f7e0ff 0x000fe400
0x99549211 0x000000ff 0x028f0eff 0x040fe200
0x028f8981 0x00118004 0x0c1ee900 0x00016200
0x99557810 0x000004e0 0x07ffe0ff 0x000fe400
0x51519a11 0x00006700 0x010f1454 0x000fc400
0x0057e210 0x00000099 0x07fbe0ff 0x000fe400
0x9958c211 0x000000ff 0x018f0eff 0x000fe400
0x5354ca11 0x00006600 0x078410ff 0x000fe400
0x5500720c 0x00000052 0x03f06270 0x000fe200
0x50929381 0x00120000 0x001ee900 0x00036200
0x5756ea11 0x00006600 0x078610ff 0x000fe400
0x999ce211 0x000000ff 0x028f0eff 0x000fc400
0x5355ca11 0x00006700 0x010f1458 0x000fe200
0xff537424 0xffffd200 0x078e00ff 0x000fe200
0x5757ea11 0x00006700 0x018f149c 0x000fe400
0x99597810 0x00000500 0x07ffe0ff 0x040fe200
0x249c7624 0x00006800 0x078e0253 0x000fe200
0x99537810 0x00000520 0x07ffe0ff 0x000fe400
0x5900720c 0x00000052 0x03f46270 0x000fe200
0x5491c381 0x00128000 0x001ee900 0x00056200
0x00038210 0x00000099 0x07f3e0ff 0x001fc400
0x5300720c 0x0000009c 0x03f66270 0x080fe200
0x5694e381 0x00130000 0x001ee900 0x00016200
0x03028a11 0x00006600 0x078a10ff 0x000fe400
0x99597810 0x00000540 0x07ffe0ff 0x040fe400
0x99528211 0x000000ff 0x008f0eff 0x000fe400
0x0051a210 0x00000099 0x07f9e0ff 0x002fe400
0x5900720c 0x0000009c 0x03f26270 0x000fc400
0x0053b210 0x00000099 0x07fde0ff 0x0c0fe400
0x03038a11 0x00006700 0x028f1452 0x000fe400
0x5150aa11 0x00006600 0x078a10ff 0x000fe400
0x9952a211 0x000000ff 0x020f0eff 0x040fe400
0x9958b211 0x000000ff 0x030f0eff 0x040fe400
0x99597810 0x00000560 0x07ffe0ff 0x000fe200
0x02938381 0x00138000 0x001ee900 0x00036200
0x00559210 0x00000099 0x07fde0ff 0x004fc400
0x5151aa11 0x00006700 0x028f1452 0x000fe400
0x5352ba11 0x00006600 0x078a10ff 0x000fe400
0x99569211 0x000000ff 0x030f0eff 0x001fe400
0x5900720c 0x0000009c 0x03f86270 0x000fe400
0x55549a11 0x00006600 0x078c10ff 0x000fe200
0x5096a381 0x00140000 0x001ee900 0x00036200
0x99577810 0x00000580 0x07ffe0ff 0x000fc400
0x5353ba11 0x00006700 0x028f1458 0x000fe400
0x5700720c 0x0000009c 0x03fa6270 0x000fe400
0x55559a11 0x00006700 0x030f1456 0x000fc800
0x0057c210 0x00000099 0x07fde0ff 0x000fe200
0x5295b381 0x00148000 0x001ee900 0x00036600
0x9958c211 0x000000ff 0x030f0eff 0x000fe200
0x54989381 0x00150000 0x001ee900 0x00036200
0x5756ca11 0x00006600 0x078c10ff 0x000fc800
0x5757ca11 0x00006700 0x030f1458 0x000fd000
0x0059d210 0x00000099 0x07fde0ff 0x000fe200
0x5697c381 0x00158000 0x001ee900 0x00036600
0x999ed211 0x000000ff 0x030f0eff 0x000fe400
0x5958da11 0x00006600 0x078c10ff 0x000fc800
0x5959da11 0x00006700 0x030f149e 0x000fd000
0x589ad381 0x00160000 0x001ee900 0x00036200
0x999b7810 0x000005a0 0x07ffe0ff 0x000fc800
0x9b00720c 0x0000009c 0x03f06270 0x000fd800
0x00000947 0x00000350 0x03800000 0x000fea00
0x00037210 0x00000099 0x07f1e0ff 0x002fc800
0x99507211 0x000000ff 0x000f0eff 0x000fe400
0x03027a11 0x00006600 0x078010ff 0x000fc800
0x03037a11 0x00006700 0x000f1450 0x000fd000
0x02507381 0x00168000 0x001ee900 0x00016200
0x00007947 0x000002f0 0x03800000 0x000fea00
0x00047ab9 0x00006600 0x00000a00 0x000fe400
0x026e7981 0x00000004 0x0c1ee900 0x00016800
0x026f7981 0x00008004 0x0c1ee900 0x00016800
0x02707981 0x00010004 0x0c1ee900 0x00016800
0x02717981 0x00018004 0x0c1ee900 0x00016800
0x02727981 0x00020004 0x0c1ee900 0x00016800
0x02737981 0x00028004 0x0c1ee900 0x00016800
0x02747981 0x00030004 0x0c1ee900 0x00016800
0x02757981 0x00038004 0x0c1ee900 0x00016800
0x02767981 0x00040004 0x0c1ee900 0x00016800
0x02777981 0x00048004 0x0c1ee900 0x00016800
0x02787981 0x00050004 0x0c1ee900 0x00016800
0x02797981 0x00058004 0x0c1ee900 0x00016800
0x027a7981 0x00060004 0x0c1ee900 0x00016800
0x027b7981 0x00068004 0x0c1ee900 0x00016800
0x027c7981 0x00070004 0x0c1ee900 0x00016800
0x027d7981 0x00078004 0x0c1ee900 0x00016800
0x027e7981 0x00080004 0x0c1ee900 0x00016800
0x027f7981 0x00088004 0x0c1ee900 0x00016800
0x02807981 0x00090004 0x0c1ee900 0x00016800
0x02817981 0x00098004 0x0c1ee900 0x00016800
0x02827981 0x000a0004 0x0c1ee900 0x00016800
0x02837981 0x000a8004 0x0c1ee900 0x00016800
0x02847981 0x000b0004 0x0c1ee900 0x00016800
0x02857981 0x000b8004 0x0c1ee900 0x00016800
0x02867981 0x000c0004 0x0c1ee900 0x00016800
0x02257981 0x000c8004 0x0c1ee900 0x00016800
0x02887981 0x000d0004 0x0c1ee900 0x00016800
0x02877981 0x000d8004 0x0c1ee900 0x00016800
0x028a7981 0x000e0004 0x0c1ee900 0x00016800
0x02897981 0x000e8004 0x0c1ee900 0x00016800
0x028c7981 0x000f0004 0x0c1ee900 0x00016800
0x028b7981 0x000f8004 0x0c1ee900 0x00016800
0x028e7981 0x00100004 0x0c1ee900 0x00016800
0x028d7981 0x00108004 0x0c1ee900 0x00016800
0x02907981 0x00110004 0x0c1ee900 0x00016800
0x028f7981 0x00118004 0x0c1ee900 0x00016800
0x02927981 0x00120004 0x0c1ee900 0x00016800
0x02917981 0x00128004 0x0c1ee900 0x00016800
0x02947981 0x00130004 0x0c1ee900 0x00016800
0x02937981 0x00138004 0x0c1ee900 0x00016800
0x02967981 0x00140004 0x0c1ee900 0x00016800
0x02957981 0x00148004 0x0c1ee900 0x00016800
0x02987981 0x00150004 0x0c1ee900 0x00016800
0x02977981 0x00158004 0x0c1ee900 0x00016800
0x029a7981 0x00160004 0x0c1ee900 0x00016800
0x02507981 0x00168004 0x0c1ee900 0x00016400
0x00007941 0x00000000 0x03800000 0x002fea00
0x00007b1d 0x00000000 0x00000000 0x000fea00
0x07007388 0x0000006e 0x00000800 0x020fe200
0x00007810 0x00002e00 0x07ffe0ff 0x000fc600
0x08007388 0x0000006f 0x00000800 0x000fe200
0x00007a0c 0x00006800 0x03f04270 0x000fc600
0x09007388 0x00000070 0x00000800 0x000fe800
0x0a007388 0x00000071 0x00000800 0x000fe800
0x0b007388 0x00000072 0x00000800 0x000fe800
0x0c007388 0x00000073 0x00000800 0x000fe800
0x0d007388 0x00000074 0x00000800 0x000fe800
0x0e007388 0x00000075 0x00000800 0x000fe800
0x0f007388 0x00000076 0x00000800 0x000fe800
0x10007388 0x00000077 0x00000800 0x000fe800
0x11007388 0x00000078 0x00000800 0x000fe800
0x12007388 0x00000079 0x00000800 0x000fe800
0x13007388 0x0000007a 0x00000800 0x000fe800
0x14007388 0x0000007b 0x00000800 0x000fe800
0x15007388 0x0000007c 0x00000800 0x000fe800
0x16007388 0x0000007d 0x00000800 0x000fe800
0x17007388 0x0000007e 0x00000800 0x000fe800
0x18007388 0x0000007f 0x00000800 0x000fe800
0x19007388 0x00000080 0x00000800 0x000fe800
0x1a007388 0x00000081 0x00000800 0x000fe800
0x1b007388 0x00000082 0x00000800 0x000fe800
0x1c007388 0x00000083 0x00000800 0x000fe800
0x1d007388 0x00000084 0x00000800 0x000fe800
0x1e007388 0x00000085 0x00000800 0x000fe800
0x1f007388 0x00000086 0x00000800 0x000fe800
0x20007388 0x00000025 0x00000800 0x000fe800
0x21007388 0x00000088 0x00000800 0x000fe800
0x22007388 0x00000087 0x00000800 0x000fe800
0x23007388 0x0000008a 0x00000800 0x000fe800
0x42007388 0x00000089 0x00000800 0x000fe800
0x41007388 0x0000008c 0x00000800 0x000fe800
0x3e007388 0x0000008b 0x00000800 0x000fe800
0x3f007388 0x0000008e 0x00000800 0x000fe800
0x40007388 0x0000008d 0x00000800 0x000fe800
0x3d007388 0x00000090 0x00000800 0x000fe800
0x3c007388 0x0000008f 0x00000800 0x000fe800
0x3b007388 0x00000092 0x00000800 0x000fe800
0x3a007388 0x00000091 0x00000800 0x000fe800
0x39007388 0x00000094 0x00000800 0x000fe800
0x36007388 0x00000093 0x00000800 0x000fe800
0x37007388 0x00000096 0x00000800 0x000fe800
0x38007388 0x00000095 0x00000800 0x000fe800
0x35007388 0x00000098 0x00000800 0x000fe800
0x34007388 0x00000097 0x00000800 0x000fe800
0x33007388 0x0000009a 0x00000800 0x000fe800
0x43007388 0xfffffc50 0x00000800 0x000fe800
0x00007b1d 0x00000000 0x00000000 0x000fea00
0x00008947 0x00001a00 0x03800000 0x000fea00
0x00007919 0x00000000 0x00002100 0x000e6200
0xff037424 0xffffd200 0x078e00ff 0x001fc600
0x6d6d7984 0x00b80000 0x00005800 0x000e2200
0x24037624 0x00006800 0x078e0203 0x000fca00
0x3200720c 0x00000003 0x03f26270 0x000fd800
0xff0a9424 0x00000004 0x078e00ff 0x000fe200
0x0000720c 0x00000003 0x03f06270 0x042fe400
0x00027810 0x00000200 0x07ffe0ff 0x000fd400
0x27078984 0x00000000 0x00005800 0x000e6200
0xff098424 0x00000004 0x078e00ff 0x000fe400
0x6d087824 0x00000001 0x078e0200 0x001fc800
0x08088625 0x00006400 0x078e0009 0x000fd000
0x08008386 0x00000007 0x0010e900 0x0021e200
0x00007918 0x00000000 0x00000000 0x000fca00
0x6c0b9984 0x00b80000 0x00005800 0x000e6200
0x0200720c 0x00000003 0x03f06270 0x000fc600
0x270d9984 0x00040000 0x00005800 0x000eb200
0xff098424 0x00000004 0x078e00ff 0x001fe400
0x320b9824 0x00000001 0x078e020b 0x002fc800
0x0b0a9625 0x00006400 0x078e000a 0x000fd000
0x0a009386 0x0000000d 0x0010e900 0x004fe200
0x00007918 0x00000000 0x00000000 0x000fca00
0x6b6b7984 0x00b80000 0x00005800 0x000e2800
0x27078984 0x00080000 0x00005800 0x000e6200
0x02087824 0x00000001 0x078e026b 0x001fe200
0x00027810 0x00000300 0x07ffe0ff 0x000fc600
0x08088625 0x00006400 0x078e0009 0x000fd000
0x08008386 0x00000007 0x0010e900 0x002fe200
0x00007918 0x00000000 0x00000000 0x000fca00
0x6a6a7984 0x00b80000 0x00005800 0x000e2200
0x0200720c 0x00000003 0x03f06270 0x000fd800
0x270d8984 0x000c0000 0x00005800 0x000e6200
0xff0b8424 0x00000004 0x078e00ff 0x000fe400
0x020a7824 0x00000001 0x078e026a 0x001fe200
0x00027810 0x00000400 0x07ffe0ff 0x000fc600
0x0a0a8625 0x00006400 0x078e000b 0x000fd000
0x0a008386 0x0000000d 0x0010e900 0x002fe200
0x00007918 0x00000000 0x00000000 0x000fca00
0x69697984 0x00b80000 0x00005800 0x000e2200
0x0200720c 0x00000003 0x03f06270 0x000fd800
0x27078984 0x00100000 0x00005800 0x000e6200
0xff098424 0x00000004 0x078e00ff 0x000fe400
0x02087824 0x00000001 0x078e0269 0x001fe200
0x00027810 0x00000500 0x07ffe0ff 0x000fc600
0x08088625 0x00006400 0x078e0009 0x000fd000
0x08008386 0x00000007 0x0010e900 0x002fe200
0x00007918 0x00000000 0x00000000 0x000fca00
0x68687984 0x00b80000 0x00005800 0x000e2200
0x0200720c 0x00000003 0x03f06270 0x000fd800
0x270d8984 0x00140000 0x00005800 0x000e6200
0xff0b8424 0x00000004 0x078e00ff 0x000fe400
0x020a7824 0x00000001 0x078e0268 0x001fe200
0x00027810 0x00000600 0x07ffe0ff 0x000fc600
0x0a0a8625 0x00006400 0x078e000b 0x000fd000
0x0a008386 0x0000000d 0x0010e900 0x002fe200
0x00007918 0x00000000 0x00000000 0x000fca00
0x67677984 0x00b80000 0x00005800 0x000e2200
0x0200720c 0x00000003 0x03f06270 0x000fd800
0x27078984 0x00180000 0x00005800 0x000e6200
0xff098424 0x00000004 0x078e00ff 0x000fe400
0x02087824 0x00000001 0x078e0267 0x001fe200
0x00027810 0x00000700 0x07ffe0ff 0x000fc600
0x08088625 0x00006400 0x078e0009 0x000fd000
0x08008386 0x00000007 0x0010e900 0x002fe200
0x00007918 0x00000000 0x00000000 0x000fca00
0x66667984 0x00b80000 0x00005800 0x000e2200
0x0200720c 0x00000003 0x03f06270 0x000fd800
0x270d8984 0x001c0000 0x00005800 0x000e6200
0xff0b8424 0x00000004 0x078e00ff 0x000fe400
0x020a7824 0x00000001 0x078e0266 0x001fe200
0x00027810 0x00000800 0x07ffe0ff 0x000fc600
0x0a0a8625 0x00006400 0x078e000b 0x000fd000
0x0a008386 0x0000000d 0x0010e900 0x002fe200
0x00007918 0x00000000 0x00000000 0x000fca00
0x65657984 0x00b80000 0x00005800 0x000e2200
0x0200720c 0x00000003 0x03f06270 0x000fd800
0x27078984 0x00200000 0x00005800 0x000e6200
0xff098424 0x00000004 0x078e00ff 0x000fe400
0x02087824 0x00000001 0x078e0265 0x001fe200
0x00027810 0x00000900 0x07ffe0ff 0x000fc600
0x08088625 0x00006400 0x078e0009 0x000fd000
0x08008386 0x00000007 0x0010e900 0x002fe200
0x00007918 0x00000000 0x00000000 0x000fca00
0x64647984 0x00b80000 0x00005800 0x000e2200
0x0200720c 0x00000003 0x03f06270 0x000fd800
0x270d8984 0x00240000 0x00005800 0x000e6200
0xff0b8424 0x00000004 0x078e00ff 0x000fe400
0x020a7824 0x00000001 0x078e0264 0x001fe200
0x00027810 0x00000a00 0x07ffe0ff 0x000fc600
0x0a0a8625 0x00006400 0x078e000b 0x000fd000
0x0a008386 0x0000000d 0x0010e900 0x002fe200
0x00007918 0x00000000 0x00000000 0x000fca00
0x63637984 0x00b80000 0x00005800 0x000e2200
0x0200720c 0x00000003 0x03f06270 0x000fd800
0x27078984 0x00280000 0x00005800 0x000e6200
0xff098424 0x00000004 0x078e00ff 0x000fe400
0x02087824 0x00000001 0x078e0263 0x001fe200
0x00027810 0x00000b00 0x07ffe0ff 0x000fc600
0x08088625 0x00006400 0x078e0009 0x000fd000
0x08008386 0x00000007 0x0010e900 0x002fe200
0x00007918 0x00000000 0x00000000 0x000fca00
0x62627984 0x00b80000 0x00005800 0x000e2200
0x0200720c 0x00000003 0x03f06270 0x000fd800
0x270d8984 0x002c0000 0x00005800 0x000e6200
0xff0b8424 0x00000004 0x078e00ff 0x000fe400
0x020a7824 0x00000001 0x078e0262 0x001fe200
0x00027810 0x00000c00 0x07ffe0ff 0x000fc600
0x0a0a8625 0x00006400 0x078e000b 0x000fd000
0x0a008386 0x0000000d 0x0010e900 0x002fe200
0x00007918 0x00000000 0x00000000 0x000fca00
0x61617984 0x00b80000 0x00005800 0x000e2200
0x0200720c 0x00000003 0x03f06270 0x000fd800
0x27078984 0x00300000 0x00005800 0x000e6200
0xff098424 0x00000004 0x078e00ff 0x000fe400
0x02087824 0x00000001 0x078e0261 0x001fe200
0x00027810 0x00000d00 0x07ffe0ff 0x000fc600
0x08088625 0x00006400 0x078e0009 0x000fd000
0x08008386 0x00000007 0x0010e900 0x002fe200
0x00007918 0x00000000 0x00000000 0x000fca00
0x60607984 0x00b80000 0x00005800 0x000e2200
0x0200720c 0x00000003 0x03f06270 0x000fd800
0x270d8984 0x00340000 0x00005800 0x000e6200
0xff0b8424 0x00000004 0x078e00ff 0x000fe400
0x020a7824 0x00000001 0x078e0260 0x001fe200
0x00027810 0x00000e00 0x07ffe0ff 0x000fc600
0x0a0a8625 0x00006400 0x078e000b 0x000fd000
0x0a008386 0x0000000d 0x0010e900 0x002fe200
0x00007918 0x00000000 0x00000000 0x000fca00
0x5f5f7984 0x00b80000 0x00005800 0x000e2200
0x0200720c 0x00000003 0x03f06270 0x000fd800
0x27078984 0x00380000 0x00005800 0x000e6200
0xff098424 0x00000004 0x078e00ff 0x000fe400
0x02087824 0x00000001 0x078e025f 0x001fe200
0x00027810 0x00000f00 0x07ffe0ff 0x000fc600
0x08088625 0x00006400 0x078e0009 0x000fd000
0x08008386 0x00000007 0x0010e900 0x002fe200
0x00007918 0x00000000 0x00000000 0x000fca00
0x5e5e7984 0x00b80000 0x00005800 0x000e2200
0x0200720c 0x00000003 0x03f06270 0x000fd800
0x270d8984 0x003c0000 0x00005800 0x000e6200
0xff0b8424 0x00000004 0x078e00ff 0x000fe400
0x020a7824 0x00000001 0x078e025e 0x001fe200
0x00027810 0x00001000 0x07ffe0ff 0x000fc600
0x0a0a8625 0x00006400 0x078e000b 0x000fd000
0x0a008386 0x0000000d 0x0010e900 0x002fe200
0x00007918 0x00000000 0x00000000 0x000fca00
0x5d5d7984 0x00b80000 0x00005800 0x000e2200
0x0200720c 0x00000003 0x03f06270 0x000fd800
0x27078984 0x00400000 0x00005800 0x000e6200
0xff098424 0x00000004 0x078e00ff 0x000fe400
0x02087824 0x00000001 0x078e025d 0x001fe200
0x00027810 0x00001100 0x07ffe0ff 0x000fc600
0x08088625 0x00006400 0x078e0009 0x000fd000
0x08008386 0x00000007 0x0010e900 0x002fe200
0x00007918 0x00000000 0x00000000 0x000fca00
0x5c5c7984 0x00b80000 0x00005800 0x000e2200
0x0200720c 0x00000003 0x03f06270 0x000fd800
0x270d8984 0x00440000 0x00005800 0x000e6200
0xff0b8424 0x00000004 0x078e00ff 0x000fe400
0x020a7824 0x00000001 0x078e025c 0x001fe200
0x00027810 0x00001200 0x07ffe0ff 0x000fc600
0x0a0a8625 0x00006400 0x078e000b 0x000fd000
0x0a008386 0x0000000d 0x0010e900 0x002fe200
0x00007918 0x00000000 0x00000000 0x000fca00
0x5b5b7984 0x00b80000 0x00005800 0x000e2200
0x0200720c 0x00000003 0x03f06270 0x000fd800
0x27078984 0x00480000 0x00005800 0x000e6200
0xff098424 0x00000004 0x078e00ff 0x000fe400
0x02087824 0x00000001 0x078e025b 0x001fe200
0x00027810 0x00001300 0x07ffe0ff 0x000fc600
0x08088625 0x00006400 0x078e0009 0x000fd000
0x08008386 0x00000007 0x0010e900 0x002fe200
0x00007918 0x00000000 0x00000000 0x000fca00
0x5a5a7984 0x00b80000 0x00005800 0x000e2200
0x0200720c 0x00000003 0x03f06270 0x000fd800
0x270d8984 0x004c0000 0x00005800 0x000e6200
0xff0b8424 0x00000004 0x078e00ff 0x000fe400
0x020a7824 0x00000001 0x078e025a 0x001fe200
0x00027810 0x00001400 0x07ffe0ff 0x000fc600
0x0a0a8625 0x00006400 0x078e000b 0x000fd000
0x0a008386 0x0000000d 0x0010e900 0x002fe200
0x00007918 0x00000000 0x00000000 0x000fca00
0x4f4f7984 0x00b80000 0x00005800 0x000e2200
0x0200720c 0x00000003 0x03f06270 0x000fd800
0x27078984 0x00500000 0x00005800 0x000e6200
0xff098424 0x00000004 0x078e00ff 0x000fe400
0x02087824 0x00000001 0x078e024f 0x001fe200
0x00027810 0x00001500 0x07ffe0ff 0x000fc600
0x08088625 0x00006400 0x078e0009 0x000fd000
0x08008386 0x00000007 0x0010e900 0x002fe200
0x00007918 0x00000000 0x00000000 0x000fca00
0x4e4e7984 0x00b80000 0x00005800 0x000e2200
0x0200720c 0x00000003 0x03f06270 0x000fd800
0x270d8984 0x00540000 0x00005800 0x000e6200
0xff0b8424 0x00000004 0x078e00ff 0x000fe400
0x020a7824 0x00000001 0x078e024e 0x001fe200
0x00027810 0x00001600 0x07ffe0ff 0x000fc600
0x0a0a8625 0x00006400 0x078e000b 0x000fd000
0x0a008386 0x0000000d 0x0010e900 0x002fe200
0x00007918 0x00000000 0x00000000 0x000fca00
0x4d4d7984 0x00b80000 0x00005800 0x000e2200
0x0200720c 0x00000003 0x03f06270 0x000fd800
0x27078984 0x00580000 0x00005800 0x000e6200
0xff098424 0x00000004 0x078e00ff 0x000fe400
0x02087824 0x00000001 0x078e024d 0x001fe200
0x00027810 0x00001700 0x07ffe0ff 0x000fc600
0x08088625 0x00006400 0x078e0009 0x000fd000
0x08008386 0x00000007 0x0010e900 0x002fe200
0x00007918 0x00000000 0x00000000 0x000fca00
0x4c4c7984 0x00b80000 0x00005800 0x000e2200
0x0200720c 0x00000003 0x03f06270 0x000fd800
0x270d8984 0x005c0000 0x00005800 0x000e6200
0xff0b8424 0x00000004 0x078e00ff 0x000fe400
0x020a7824 0x00000001 0x078e024c 0x001fe200
0x00027810 0x00001800 0x07ffe0ff 0x000fc600
0x0a0a8625 0x00006400 0x078e000b 0x000fd000
0x0a008386 0x0000000d 0x0010e900 0x002fe200
0x00007918 0x00000000 0x00000000 0x000fca00
0x4b4b7984 0x00b80000 0x00005800 0x000e2200
0x0200720c 0x00000003 0x03f06270 0x000fd800
0x27078984 0x00600000 0x00005800 0x000e6200
0xff098424 0x00000004 0x078e00ff 0x000fe400
0x02087824 0x00000001 0x078e024b 0x001fe200
0x00027810 0x00001900 0x07ffe0ff 0x000fc600
0x08088625 0x00006400 0x078e0009 0x000fd000
0x08008386 0x00000007 0x0010e900 0x002fe200
0x00007918 0x00000000 0x00000000 0x000fca00
0x4a4a7984 0x00b80000 0x00005800 0x000e2200
0x0200720c 0x00000003 0x03f06270 0x000fd800
0x270d8984 0x00640000 0x00005800 0x000e6200
0xff0b8424 0x00000004 0x078e00ff 0x000fe400
0x020a7824 0x00000001 0x078e024a 0x001fe200
0x00027810 0x00001a00 0x07ffe0ff 0x000fc600
0x0a0a8625 0x00006400 0x078e000b 0x000fd000
0x0a008386 0x0000000d 0x0010e900 0x002fe200
0x00007918 0x00000000 0x00000000 0x000fca00
0x49497984 0x00b80000 0x00005800 0x000e2200
0x0200720c 0x00000003 0x03f06270 0x000fd800
0x27078984 0x00680000 0x00005800 0x000e6200
0xff098424 0x00000004 0x078e00ff 0x000fe400
0x02087824 0x00000001 0x078e0249 0x001fe200
0x00027810 0x00001b00 0x07ffe0ff 0x000fc600
0x08088625 0x00006400 0x078e0009 0x000fd000
0x08008386 0x00000007 0x0010e900 0x002fe200
0x00007918 0x00000000 0x00000000 0x000fca00
0x48487984 0x00b80000 0x00005800 0x000e2200
0x0200720c 0x00000003 0x03f06270 0x000fd800
0x270d8984 0x006c0000 0x00005800 0x000e6200
0xff0b8424 0x00000004 0x078e00ff 0x000fe400
0x020a7824 0x00000001 0x078e0248 0x001fe200
0x00027810 0x00001c00 0x07ffe0ff 0x000fc600
0x0a0a8625 0x00006400 0x078e000b 0x000fd000
0x0a008386 0x0000000d 0x0010e900 0x002fe200
0x00007918 0x00000000 0x00000000 0x000fca00
0x47477984 0x00b80000 0x00005800 0x000e2200
0x0200720c 0x00000003 0x03f06270 0x000fd800
0x27078984 0x00700000 0x00005800 0x000e6200
0xff098424 0x00000004 0x078e00ff 0x000fe400
0x02087824 0x00000001 0x078e0247 0x001fe200
0x00027810 0x00001d00 0x07ffe0ff 0x000fc600
0x08088625 0x00006400 0x078e0009 0x000fd000
0x08008386 0x00000007 0x0010e900 0x002fe200
0x00007918 0x00000000 0x00000000 0x000fca00
0x46467984 0x00b80000 0x00005800 0x000e2200
0x0200720c 0x00000003 0x03f06270 0x000fd800
0x270d8984 0x00740000 0x00005800 0x000e6200
0xff0b8424 0x00000004 0x078e00ff 0x000fe400
0x020a7824 0x00000001 0x078e0246 0x001fe200
0x00027810 0x00001e00 0x07ffe0ff 0x000fc600
0x0a0a8625 0x00006400 0x078e000b 0x000fd000
0x0a008386 0x0000000d 0x0010e900 0x002fe200
0x00007918 0x00000000 0x00000000 0x000fca00
0x45457984 0x00b80000 0x00005800 0x000e2200
0x0200720c 0x00000003 0x03f06270 0x000fd800
0x27078984 0x00780000 0x00005800 0x000e6200
0xff098424 0x00000004 0x078e00ff 0x000fe400
0x02087824 0x00000001 0x078e0245 0x001fe200
0x00027810 0x00001f00 0x07ffe0ff 0x000fc600
0x08088625 0x00006400 0x078e0009 0x000fd000
0x08008386 0x00000007 0x0010e900 0x002fe200
0x00007918 0x00000000 0x00000000 0x000fca00
0x44447984 0x00b80000 0x00005800 0x000e2200
0x0200720c 0x00000003 0x03f06270 0x000fd800
0x270d8984 0x007c0000 0x00005800 0x000e6200
0xff0b8424 0x00000004 0x078e00ff 0x000fe400
0x020a7824 0x00000001 0x078e0244 0x001fe200
0x00027810 0x00002000 0x07ffe0ff 0x000fc600
0x0a0a8625 0x00006400 0x078e000b 0x000fd000
0x0a008386 0x0000000d 0x0010e900 0x002fe200
0x00007918 0x00000000 0x00000000 0x000fca00
0x31317984 0x00b80000 0x00005800 0x000e2200
0x0200720c 0x00000003 0x03f06270 0x000fd800
0x27078984 0x00800000 0x00005800 0x000e6200
0xff098424 0x00000004 0x078e00ff 0x000fe400
0x02087824 0x00000001 0x078e0231 0x001fe200
0x00027810 0x00002100 0x07ffe0ff 0x000fc600
0x08088625 0x00006400 0x078e0009 0x000fd000
0x08008386 0x00000007 0x0010e900 0x002fe200
0x00007918 0x00000000 0x00000000 0x000fca00
0x30307984 0x00b80000 0x00005800 0x000e2200
0x0200720c 0x00000003 0x03f06270 0x000fd800
0x270d8984 0x00840000 0x00005800 0x000e6200
0xff0b8424 0x00000004 0x078e00ff 0x000fe400
0x020a7824 0x00000001 0x078e0230 0x001fe200
0x00027810 0x00002200 0x07ffe0ff 0x000fc600
0x0a0a8625 0x00006400 0x078e000b 0x000fd000
0x0a008386 0x0000000d 0x0010e900 0x002fe200
0x00007918 0x00000000 0x00000000 0x000fca00
0x2f2f7984 0x00b80000 0x00005800 0x000e2200
0x0200720c 0x00000003 0x03f06270 0x000fd800
0x27078984 0x00880000 0x00005800 0x000e6200
0xff098424 0x00000004 0x078e00ff 0x000fe400
0x02087824 0x00000001 0x078e022f 0x001fe200
0x00027810 0x00002300 0x07ffe0ff 0x000fc600
0x08088625 0x00006400 0x078e0009 0x000fd000
0x08008386 0x00000007 0x0010e900 0x002fe200
0x00007918 0x00000000 0x00000000 0x000fca00
0x2e2e7984 0x00b80000 0x00005800 0x000e2200
0x0200720c 0x00000003 0x03f06270 0x000fd800
0x270d8984 0x008c0000 0x00005800 0x000e6200
0xff0b8424 0x00000004 0x078e00ff 0x000fe400
0x020a7824 0x00000001 0x078e022e 0x001fe200
0x00027810 0x00002400 0x07ffe0ff 0x000fc600
0x0a0a8625 0x00006400 0x078e000b 0x000fd000
0x0a008386 0x0000000d 0x0010e900 0x002fe200
0x00007918 0x00000000 0x00000000 0x000fca00
0x2d2d7984 0x00b80000 0x00005800 0x000e2200
0x0200720c 0x00000003 0x03f06270 0x000fd800
0x27078984 0x00900000 0x00005800 0x000e6200
0xff098424 0x00000004 0x078e00ff 0x000fe400
0x02087824 0x00000001 0x078e022d 0x001fe200
0x00027810 0x00002500 0x07ffe0ff 0x000fc600
