
Fatbin elf code:
================
arch = sm_75
code version = [1,7]
host = linux
compile_size = 64bit

64bit elf: type=2, abi=7, sm=75, toolkit=125, flags = 0x4b054b
Sections:
Index Offset   Size ES Align        Type        Flags Link     Info Name
    1     40     5d  0  1            STRTAB       0    0        0 .shstrtab
    2     9d     5d  0  1            STRTAB       0    0        0 .strtab
    3    100     48 18  8            SYMTAB       0    2        3 .symtab
    4    148     20  8  4    CUDA_CALLGRAPH       0    3        0 .nv.callgraph
    5    168     10  8  8    CUDA_RELOCINFO       0    0        0 .nv.rel.action

.section .strtab

.section .shstrtab

.section .symtab
 index           value           size      info    other  shndx    name  
   0               0               0        0        0      0     (null)
 0x1               0               0      0x3        0    0x4     .nv.callgraph
 0x2               0               0      0x3        0    0x5     .nv.rel.action


.nv.callgraph
 <0,-1>
 <0,-2>
 <0,-3>
 <0,-4>


.nv.rel.action
Header : Base Relocation : R_CUDA_CONST_FIELD22_37
Reloc type : Symbol Kind,Addend Shift,Source Position1,length1,Destination Position1,Source Position2,length2,Destination Position2
R_CUDA_CONST_FIELD22_37 : EIVALUE_SYM_KIND_ADDR,0,0,17,37,0,5,54

Fatbin elf code:
================
arch = sm_75
code version = [1,7]
host = linux
compile_size = 64bit

64bit elf: type=2, abi=7, sm=75, toolkit=125, flags = 0x4b054b
Sections:
Index Offset   Size ES Align        Type        Flags Link     Info Name
    1     40   35db  0  1            STRTAB       0    0        0 .shstrtab
    2   361b   471d  0  1            STRTAB       0    0        0 .strtab
    3   7d38    660 18  8            SYMTAB       0    2       39 .symtab
    4   8398    9b0  0  1          PROGBITS       0    0        0 .debug_frame
    5   8d48    2a0  0  4         CUDA_INFO       0    3        0 .nv.info
    6   8fe8     6c  0  4         CUDA_INFO      40    3       21 .nv.info._ZN3cub17CUB_200400_750_NS6detail8for_each13static_kernelINS2_12policy_hub_t12policy_350_tElN6thrust20THRUST_200400_750_NS8cuda_cub11__transform17unary_transform_fINS7_10device_ptrI12storeElementEEPSC_NS9_14no_stencil_tagENS7_8identityISC_EENS9_21always_true_predicateEEEEEvT0_T1_
    7   9054     6c  0  4         CUDA_INFO      40    3       22 .nv.info._ZN3cub17CUB_200400_750_NS6detail8for_each13static_kernelINS2_12policy_hub_t12policy_350_tElN6thrust20THRUST_200400_750_NS8cuda_cub20__uninitialized_copy7functorINS7_10device_ptrI12storeElementEENS7_7pointerISC_NS8_3tagENS7_11use_defaultESG_EEEEEEvT0_T1_
    8   90c0     5c  0  4         CUDA_INFO      40    3       23 .nv.info._ZN3cub17CUB_200400_750_NS6detail8for_each13static_kernelINS2_12policy_hub_t12policy_350_tElNS2_12op_wrapper_tIlN6thrust20THRUST_200400_750_NS6detail23allocator_traits_detail5gozerENS8_7pointerI12storeElementNS8_8cuda_cub3tagENS8_11use_defaultESG_EEEEEEvT0_T1_
    9   911c     64  0  4         CUDA_INFO      40    3       24 .nv.info._ZN3cub17CUB_200400_750_NS6detail8for_each13static_kernelINS2_12policy_hub_t12policy_350_tEmNS2_12op_wrapper_tImN6thrust20THRUST_200400_750_NS6detail23allocator_traits_detail24construct1_via_allocatorINS9_18no_throw_allocatorINS9_19temporary_allocatorI12storeElementNS8_8cuda_cub3tagEEEEEEENS8_7pointerISE_SG_NS8_11use_defaultESL_EEEEEEvT0_T1_
    a   9180    310  0  4         CUDA_INFO      40    3       25 .nv.info._ZN3cub17CUB_200400_750_NS28DeviceReduceSingleTileKernelINS0_18DeviceReducePolicyI14kurtosisResulty18kurtosis_binary_opE9Policy600EPS3_S7_iS4_S3_S3_N4cuda3std3__410__identityEEEvT0_T1_T2_T3_T4_T6_
    b   9490    308  0  4         CUDA_INFO      40    3       26 .nv.info._ZN3cub17CUB_200400_750_NS18DeviceReduceKernelINS0_18DeviceReducePolicyI14kurtosisResulty18kurtosis_binary_opE9Policy600EN6thrust20THRUST_200400_750_NS10device_ptrI12storeElementEEyS4_S3_17kurtosis_unary_opISA_EEEvT0_PT3_T1_NS0_13GridEvenShareISH_EET2_T4_
    c   9798    310  0  4         CUDA_INFO      40    3       27 .nv.info._ZN3cub17CUB_200400_750_NS28DeviceReduceSingleTileKernelINS0_18DeviceReducePolicyI14kurtosisResulty18kurtosis_binary_opE9Policy600EN6thrust20THRUST_200400_750_NS10device_ptrI12storeElementEEPS3_yS4_S3_S3_17kurtosis_unary_opISA_EEEvT0_T1_T2_T3_T4_T6_
    d   9aa8    310  0  4         CUDA_INFO      40    3       28 .nv.info._ZN3cub17CUB_200400_750_NS28DeviceReduceSingleTileKernelINS0_18DeviceReducePolicyI14kurtosisResultj18kurtosis_binary_opE9Policy600EPS3_S7_iS4_S3_S3_N4cuda3std3__410__identityEEEvT0_T1_T2_T3_T4_T6_
    e   9db8    308  0  4         CUDA_INFO      40    3       29 .nv.info._ZN3cub17CUB_200400_750_NS18DeviceReduceKernelINS0_18DeviceReducePolicyI14kurtosisResultj18kurtosis_binary_opE9Policy600EN6thrust20THRUST_200400_750_NS10device_ptrI12storeElementEEjS4_S3_17kurtosis_unary_opISA_EEEvT0_PT3_T1_NS0_13GridEvenShareISH_EET2_T4_
    f   a0c0    310  0  4         CUDA_INFO      40    3       2a .nv.info._ZN3cub17CUB_200400_750_NS28DeviceReduceSingleTileKernelINS0_18DeviceReducePolicyI14kurtosisResultj18kurtosis_binary_opE9Policy600EN6thrust20THRUST_200400_750_NS10device_ptrI12storeElementEEPS3_jS4_S3_S3_17kurtosis_unary_opISA_EEEvT0_T1_T2_T3_T4_T6_
   10   a3d0     1c  0  4         CUDA_INFO      40    3       2b .nv.info._ZN3cub17CUB_200400_750_NS11EmptyKernelIvEEvv
   11   a3ec     20  8  4    CUDA_CALLGRAPH       0    3        0 .nv.callgraph
   12   a410     10  8  8    CUDA_RELOCINFO       0    0        0 .nv.rel.action
   13   a420    110 10  8               REL      40    3       15 .rel.nv.constant4
   14   a530    170 10  8               REL      40    3        4 .rel.debug_frame
   15   a6a0     88  0  8          PROGBITS       2    0        0 .nv.constant4
   16   a728    180  0  4          PROGBITS      42    0       21 .nv.constant0._ZN3cub17CUB_200400_750_NS6detail8for_each13static_kernelINS2_12policy_hub_t12policy_350_tElN6thrust20THRUST_200400_750_NS8cuda_cub11__transform17unary_transform_fINS7_10device_ptrI12storeElementEEPSC_NS9_14no_stencil_tagENS7_8identityISC_EENS9_21always_true_predicateEEEEEvT0_T1_
   17   a8a8    178  0  4          PROGBITS      42    0       22 .nv.constant0._ZN3cub17CUB_200400_750_NS6detail8for_each13static_kernelINS2_12policy_hub_t12policy_350_tElN6thrust20THRUST_200400_750_NS8cuda_cub20__uninitialized_copy7functorINS7_10device_ptrI12storeElementEENS7_7pointerISC_NS8_3tagENS7_11use_defaultESG_EEEEEEvT0_T1_
   18   aa20    178  0  4          PROGBITS      42    0       23 .nv.constant0._ZN3cub17CUB_200400_750_NS6detail8for_each13static_kernelINS2_12policy_hub_t12policy_350_tElNS2_12op_wrapper_tIlN6thrust20THRUST_200400_750_NS6detail23allocator_traits_detail5gozerENS8_7pointerI12storeElementNS8_8cuda_cub3tagENS8_11use_defaultESG_EEEEEEvT0_T1_
   19   ab98    178  0  4          PROGBITS      42    0       24 .nv.constant0._ZN3cub17CUB_200400_750_NS6detail8for_each13static_kernelINS2_12policy_hub_t12policy_350_tEmNS2_12op_wrapper_tImN6thrust20THRUST_200400_750_NS6detail23allocator_traits_detail24construct1_via_allocatorINS9_18no_throw_allocatorINS9_19temporary_allocatorI12storeElementNS8_8cuda_cub3tagEEEEEEENS8_7pointerISE_SG_NS8_11use_defaultESL_EEEEEEvT0_T1_
   1a   ad10    18d  0  4          PROGBITS      42    0       25 .nv.constant0._ZN3cub17CUB_200400_750_NS28DeviceReduceSingleTileKernelINS0_18DeviceReducePolicyI14kurtosisResulty18kurtosis_binary_opE9Policy600EPS3_S7_iS4_S3_S3_N4cuda3std3__410__identityEEEvT0_T1_T2_T3_T4_T6_
   1b   aea0    1c2  0  4          PROGBITS      42    0       26 .nv.constant0._ZN3cub17CUB_200400_750_NS18DeviceReduceKernelINS0_18DeviceReducePolicyI14kurtosisResulty18kurtosis_binary_opE9Policy600EN6thrust20THRUST_200400_750_NS10device_ptrI12storeElementEEyS4_S3_17kurtosis_unary_opISA_EEEvT0_PT3_T1_NS0_13GridEvenShareISH_EET2_T4_
   1c   b064    191  0  4          PROGBITS      42    0       27 .nv.constant0._ZN3cub17CUB_200400_750_NS28DeviceReduceSingleTileKernelINS0_18DeviceReducePolicyI14kurtosisResulty18kurtosis_binary_opE9Policy600EN6thrust20THRUST_200400_750_NS10device_ptrI12storeElementEEPS3_yS4_S3_S3_17kurtosis_unary_opISA_EEEvT0_T1_T2_T3_T4_T6_
   1d   b1f8    18d  0  4          PROGBITS      42    0       28 .nv.constant0._ZN3cub17CUB_200400_750_NS28DeviceReduceSingleTileKernelINS0_18DeviceReducePolicyI14kurtosisResultj18kurtosis_binary_opE9Policy600EPS3_S7_iS4_S3_S3_N4cuda3std3__410__identityEEEvT0_T1_T2_T3_T4_T6_
   1e   b388    19e  0  4          PROGBITS      42    0       29 .nv.constant0._ZN3cub17CUB_200400_750_NS18DeviceReduceKernelINS0_18DeviceReducePolicyI14kurtosisResultj18kurtosis_binary_opE9Policy600EN6thrust20THRUST_200400_750_NS10device_ptrI12storeElementEEjS4_S3_17kurtosis_unary_opISA_EEEvT0_PT3_T1_NS0_13GridEvenShareISH_EET2_T4_
   1f   b528    18d  0  4          PROGBITS      42    0       2a .nv.constant0._ZN3cub17CUB_200400_750_NS28DeviceReduceSingleTileKernelINS0_18DeviceReducePolicyI14kurtosisResultj18kurtosis_binary_opE9Policy600EN6thrust20THRUST_200400_750_NS10device_ptrI12storeElementEEPS3_jS4_S3_S3_17kurtosis_unary_opISA_EEEvT0_T1_T2_T3_T4_T6_
   20   b6b8    160  0  4          PROGBITS      42    0       2b .nv.constant0._ZN3cub17CUB_200400_750_NS11EmptyKernelIvEEvv
   21   b880    380  0 80          PROGBITS       6    3 14000039 .text._ZN3cub17CUB_200400_750_NS6detail8for_each13static_kernelINS2_12policy_hub_t12policy_350_tElN6thrust20THRUST_200400_750_NS8cuda_cub11__transform17unary_transform_fINS7_10device_ptrI12storeElementEEPSC_NS9_14no_stencil_tagENS7_8identityISC_EENS9_21always_true_predicateEEEEEvT0_T1_
   22   bc00    380  0 80          PROGBITS       6    3 1400003a .text._ZN3cub17CUB_200400_750_NS6detail8for_each13static_kernelINS2_12policy_hub_t12policy_350_tElN6thrust20THRUST_200400_750_NS8cuda_cub20__uninitialized_copy7functorINS7_10device_ptrI12storeElementEENS7_7pointerISC_NS8_3tagENS7_11use_defaultESG_EEEEEEvT0_T1_
   23   bf80     80  0 80          PROGBITS       6    3  400003b .text._ZN3cub17CUB_200400_750_NS6detail8for_each13static_kernelINS2_12policy_hub_t12policy_350_tElNS2_12op_wrapper_tIlN6thrust20THRUST_200400_750_NS6detail23allocator_traits_detail5gozerENS8_7pointerI12storeElementNS8_8cuda_cub3tagENS8_11use_defaultESG_EEEEEEvT0_T1_
   24   c000    280  0 80          PROGBITS       6    3  c00003c .text._ZN3cub17CUB_200400_750_NS6detail8for_each13static_kernelINS2_12policy_hub_t12policy_350_tEmNS2_12op_wrapper_tImN6thrust20THRUST_200400_750_NS6detail23allocator_traits_detail24construct1_via_allocatorINS9_18no_throw_allocatorINS9_19temporary_allocatorI12storeElementNS8_8cuda_cub3tagEEEEEEENS8_7pointerISE_SG_NS8_11use_defaultESL_EEEEEEvT0_T1_
   25   c280  1da00  0 80          PROGBITS  100006    3 3100003d .text._ZN3cub17CUB_200400_750_NS28DeviceReduceSingleTileKernelINS0_18DeviceReducePolicyI14kurtosisResulty18kurtosis_binary_opE9Policy600EPS3_S7_iS4_S3_S3_N4cuda3std3__410__identityEEEvT0_T1_T2_T3_T4_T6_
   26  29c80  1cf80  0 80          PROGBITS  100006    3 2700003e .text._ZN3cub17CUB_200400_750_NS18DeviceReduceKernelINS0_18DeviceReducePolicyI14kurtosisResulty18kurtosis_binary_opE9Policy600EN6thrust20THRUST_200400_750_NS10device_ptrI12storeElementEEyS4_S3_17kurtosis_unary_opISA_EEEvT0_PT3_T1_NS0_13GridEvenShareISH_EET2_T4_
   27  46c00  1ed80  0 80          PROGBITS  100006    3 2a00003f .text._ZN3cub17CUB_200400_750_NS28DeviceReduceSingleTileKernelINS0_18DeviceReducePolicyI14kurtosisResulty18kurtosis_binary_opE9Policy600EN6thrust20THRUST_200400_750_NS10device_ptrI12storeElementEEPS3_yS4_S3_S3_17kurtosis_unary_opISA_EEEvT0_T1_T2_T3_T4_T6_
   28  65980  1da00  0 80          PROGBITS  100006    3 31000040 .text._ZN3cub17CUB_200400_750_NS28DeviceReduceSingleTileKernelINS0_18DeviceReducePolicyI14kurtosisResultj18kurtosis_binary_opE9Policy600EPS3_S7_iS4_S3_S3_N4cuda3std3__410__identityEEEvT0_T1_T2_T3_T4_T6_
   29  83380  1cf80  0 80          PROGBITS  100006    3 27000041 .text._ZN3cub17CUB_200400_750_NS18DeviceReduceKernelINS0_18DeviceReducePolicyI14kurtosisResultj18kurtosis_binary_opE9Policy600EN6thrust20THRUST_200400_750_NS10device_ptrI12storeElementEEjS4_S3_17kurtosis_unary_opISA_EEEvT0_PT3_T1_NS0_13GridEvenShareISH_EET2_T4_
   2a  a0300  1ee80  0 80          PROGBITS  100006    3 28000042 .text._ZN3cub17CUB_200400_750_NS28DeviceReduceSingleTileKernelINS0_18DeviceReducePolicyI14kurtosisResultj18kurtosis_binary_opE9Policy600EN6thrust20THRUST_200400_750_NS10device_ptrI12storeElementEEPS3_jS4_S3_S3_17kurtosis_unary_opISA_EEEvT0_T1_T2_T3_T4_T6_
   2b  bf180     80  0 80          PROGBITS       6    3  4000043 .text._ZN3cub17CUB_200400_750_NS11EmptyKernelIvEEvv
   2c  bf200     11  0  1            NOBITS       3    0        0 .nv.global
   2d  bf200     bc  0  4            NOBITS      43    0       25 .nv.shared._ZN3cub17CUB_200400_750_NS28DeviceReduceSingleTileKernelINS0_18DeviceReducePolicyI14kurtosisResulty18kurtosis_binary_opE9Policy600EPS3_S7_iS4_S3_S3_N4cuda3std3__410__identityEEEvT0_T1_T2_T3_T4_T6_
   2e  bf200     bc  0  4            NOBITS      43    0       26 .nv.shared._ZN3cub17CUB_200400_750_NS18DeviceReduceKernelINS0_18DeviceReducePolicyI14kurtosisResulty18kurtosis_binary_opE9Policy600EN6thrust20THRUST_200400_750_NS10device_ptrI12storeElementEEyS4_S3_17kurtosis_unary_opISA_EEEvT0_PT3_T1_NS0_13GridEvenShareISH_EET2_T4_
   2f  bf200     bc  0  4            NOBITS      43    0       27 .nv.shared._ZN3cub17CUB_200400_750_NS28DeviceReduceSingleTileKernelINS0_18DeviceReducePolicyI14kurtosisResulty18kurtosis_binary_opE9Policy600EN6thrust20THRUST_200400_750_NS10device_ptrI12storeElementEEPS3_yS4_S3_S3_17kurtosis_unary_opISA_EEEvT0_T1_T2_T3_T4_T6_
   30  bf200     bc  0  4            NOBITS      43    0       28 .nv.shared._ZN3cub17CUB_200400_750_NS28DeviceReduceSingleTileKernelINS0_18DeviceReducePolicyI14kurtosisResultj18kurtosis_binary_opE9Policy600EPS3_S7_iS4_S3_S3_N4cuda3std3__410__identityEEEvT0_T1_T2_T3_T4_T6_
   31  bf200     bc  0  4            NOBITS      43    0       29 .nv.shared._ZN3cub17CUB_200400_750_NS18DeviceReduceKernelINS0_18DeviceReducePolicyI14kurtosisResultj18kurtosis_binary_opE9Policy600EN6thrust20THRUST_200400_750_NS10device_ptrI12storeElementEEjS4_S3_17kurtosis_unary_opISA_EEEvT0_PT3_T1_NS0_13GridEvenShareISH_EET2_T4_
   32  bf200     bc  0  4            NOBITS      43    0       2a .nv.shared._ZN3cub17CUB_200400_750_NS28DeviceReduceSingleTileKernelINS0_18DeviceReducePolicyI14kurtosisResultj18kurtosis_binary_opE9Policy600EN6thrust20THRUST_200400_750_NS10device_ptrI12storeElementEEPS3_jS4_S3_S3_17kurtosis_unary_opISA_EEEvT0_T1_T2_T3_T4_T6_

.section .strtab

.section .shstrtab

.section .symtab
 index           value           size      info    other  shndx    name  
   0               0               0        0        0      0     (null)
 0x1               0               0      0x3        0   0x21     .text._ZN3cub17CUB_200400_750_NS6detail8for_each13static_kernelINS2_12policy_hub_t12policy_350_tElN6thrust20THRUST_200400_750_NS8cuda_cub11__transform17unary_transform_fINS7_10device_ptrI12storeElementEEPSC_NS9_14no_stencil_tagENS7_8identityISC_EENS9_21always_true_predicateEEEEEvT0_T1_
 0x2               0               0      0x3        0   0x2c     .nv.global
 0x3               0             0x1      0x1        0   0x2c     _ZN37_INTERNAL_30582aa7_7_main_cu_c73275fe4cuda3std3__439_GLOBAL__N__30582aa7_7_main_cu_c73275fe6ignoreE
 0x4               0               0      0x3        0   0x15     .nv.constant4
 0x5             0xe             0x1      0x1        0   0x2c     _ZN37_INTERNAL_30582aa7_7_main_cu_c73275fe4cuda3std3__48in_placeE
 0x6             0x6             0x1      0x1        0   0x2c     _ZN37_INTERNAL_30582aa7_7_main_cu_c73275fe4cuda3std6ranges3__45__cpo4swapE
 0x7             0xa             0x1      0x1        0   0x2c     _ZN37_INTERNAL_30582aa7_7_main_cu_c73275fe6thrust20THRUST_200400_750_NS6system6detail10sequential3seqE
 0x8             0x4             0x1      0x1        0   0x2c     _ZN37_INTERNAL_30582aa7_7_main_cu_c73275fe6thrust20THRUST_200400_750_NS8cuda_cub3parE
 0x9            0x10             0x1      0x1        0   0x2c     _ZN37_INTERNAL_30582aa7_7_main_cu_c73275fe6thrust20THRUST_200400_750_NS8cuda_cub10par_nosyncE
 0xa             0x8             0x1      0x1        0   0x2c     _ZN37_INTERNAL_30582aa7_7_main_cu_c73275fe6thrust20THRUST_200400_750_NS12placeholders2_1E
 0xb             0xc             0x1      0x1        0   0x2c     _ZN37_INTERNAL_30582aa7_7_main_cu_c73275fe6thrust20THRUST_200400_750_NS12placeholders2_2E
 0xc             0x2             0x1      0x1        0   0x2c     _ZN37_INTERNAL_30582aa7_7_main_cu_c73275fe6thrust20THRUST_200400_750_NS12placeholders2_3E
 0xd             0xd             0x1      0x1        0   0x2c     _ZN37_INTERNAL_30582aa7_7_main_cu_c73275fe6thrust20THRUST_200400_750_NS12placeholders2_4E
 0xe             0x5             0x1      0x1        0   0x2c     _ZN37_INTERNAL_30582aa7_7_main_cu_c73275fe6thrust20THRUST_200400_750_NS12placeholders2_5E
 0xf             0x9             0x1      0x1        0   0x2c     _ZN37_INTERNAL_30582aa7_7_main_cu_c73275fe6thrust20THRUST_200400_750_NS12placeholders2_6E
 0x10             0x3             0x1      0x1        0   0x2c     _ZN37_INTERNAL_30582aa7_7_main_cu_c73275fe6thrust20THRUST_200400_750_NS12placeholders2_7E
 0x11             0xf             0x1      0x1        0   0x2c     _ZN37_INTERNAL_30582aa7_7_main_cu_c73275fe6thrust20THRUST_200400_750_NS12placeholders2_8E
 0x12             0x7             0x1      0x1        0   0x2c     _ZN37_INTERNAL_30582aa7_7_main_cu_c73275fe6thrust20THRUST_200400_750_NS12placeholders2_9E
 0x13             0xb             0x1      0x1        0   0x2c     _ZN37_INTERNAL_30582aa7_7_main_cu_c73275fe6thrust20THRUST_200400_750_NS12placeholders3_10E
 0x14             0x1             0x1      0x1        0   0x2c     _ZN37_INTERNAL_30582aa7_7_main_cu_c73275fe6thrust20THRUST_200400_750_NS3seqE
 0x15               0               0      0x3        0   0x16     .nv.constant0._ZN3cub17CUB_200400_750_NS6detail8for_each13static_kernelINS2_12policy_hub_t12policy_350_tElN6thrust20THRUST_200400_750_NS8cuda_cub11__transform17unary_transform_fINS7_10device_ptrI12storeElementEEPSC_NS9_14no_stencil_tagENS7_8identityISC_EENS9_21always_true_predicateEEEEEvT0_T1_
 0x16               0               0      0x3        0   0x22     .text._ZN3cub17CUB_200400_750_NS6detail8for_each13static_kernelINS2_12policy_hub_t12policy_350_tElN6thrust20THRUST_200400_750_NS8cuda_cub20__uninitialized_copy7functorINS7_10device_ptrI12storeElementEENS7_7pointerISC_NS8_3tagENS7_11use_defaultESG_EEEEEEvT0_T1_
 0x17               0               0      0x3        0   0x17     .nv.constant0._ZN3cub17CUB_200400_750_NS6detail8for_each13static_kernelINS2_12policy_hub_t12policy_350_tElN6thrust20THRUST_200400_750_NS8cuda_cub20__uninitialized_copy7functorINS7_10device_ptrI12storeElementEENS7_7pointerISC_NS8_3tagENS7_11use_defaultESG_EEEEEEvT0_T1_
 0x18               0               0      0x3        0   0x23     .text._ZN3cub17CUB_200400_750_NS6detail8for_each13static_kernelINS2_12policy_hub_t12policy_350_tElNS2_12op_wrapper_tIlN6thrust20THRUST_200400_750_NS6detail23allocator_traits_detail5gozerENS8_7pointerI12storeElementNS8_8cuda_cub3tagENS8_11use_defaultESG_EEEEEEvT0_T1_
 0x19               0               0      0x3        0   0x18     .nv.constant0._ZN3cub17CUB_200400_750_NS6detail8for_each13static_kernelINS2_12policy_hub_t12policy_350_tElNS2_12op_wrapper_tIlN6thrust20THRUST_200400_750_NS6detail23allocator_traits_detail5gozerENS8_7pointerI12storeElementNS8_8cuda_cub3tagENS8_11use_defaultESG_EEEEEEvT0_T1_
 0x1a               0               0      0x3        0   0x24     .text._ZN3cub17CUB_200400_750_NS6detail8for_each13static_kernelINS2_12policy_hub_t12policy_350_tEmNS2_12op_wrapper_tImN6thrust20THRUST_200400_750_NS6detail23allocator_traits_detail24construct1_via_allocatorINS9_18no_throw_allocatorINS9_19temporary_allocatorI12storeElementNS8_8cuda_cub3tagEEEEEEENS8_7pointerISE_SG_NS8_11use_defaultESL_EEEEEEvT0_T1_
 0x1b               0               0      0x3        0   0x19     .nv.constant0._ZN3cub17CUB_200400_750_NS6detail8for_each13static_kernelINS2_12policy_hub_t12policy_350_tEmNS2_12op_wrapper_tImN6thrust20THRUST_200400_750_NS6detail23allocator_traits_detail24construct1_via_allocatorINS9_18no_throw_allocatorINS9_19temporary_allocatorI12storeElementNS8_8cuda_cub3tagEEEEEEENS8_7pointerISE_SG_NS8_11use_defaultESL_EEEEEEvT0_T1_
 0x1c               0               0      0x3        0   0x25     .text._ZN3cub17CUB_200400_750_NS28DeviceReduceSingleTileKernelINS0_18DeviceReducePolicyI14kurtosisResulty18kurtosis_binary_opE9Policy600EPS3_S7_iS4_S3_S3_N4cuda3std3__410__identityEEEvT0_T1_T2_T3_T4_T6_
 0x1d               0               0      0x3        0   0x2d     .nv.shared._ZN3cub17CUB_200400_750_NS28DeviceReduceSingleTileKernelINS0_18DeviceReducePolicyI14kurtosisResulty18kurtosis_binary_opE9Policy600EPS3_S7_iS4_S3_S3_N4cuda3std3__410__identityEEEvT0_T1_T2_T3_T4_T6_
 0x1e         0x1d2f0           0x710     0x22        0   0x25     $__internal_0_$__cuda_sm3x_div_rn_noftz_f32_slowpath
 0x1f               0               0      0x3        0   0x1a     .nv.constant0._ZN3cub17CUB_200400_750_NS28DeviceReduceSingleTileKernelINS0_18DeviceReducePolicyI14kurtosisResulty18kurtosis_binary_opE9Policy600EPS3_S7_iS4_S3_S3_N4cuda3std3__410__identityEEEvT0_T1_T2_T3_T4_T6_
 0x20               0               0      0x3        0   0x26     .text._ZN3cub17CUB_200400_750_NS18DeviceReduceKernelINS0_18DeviceReducePolicyI14kurtosisResulty18kurtosis_binary_opE9Policy600EN6thrust20THRUST_200400_750_NS10device_ptrI12storeElementEEyS4_S3_17kurtosis_unary_opISA_EEEvT0_PT3_T1_NS0_13GridEvenShareISH_EET2_T4_
 0x21               0               0      0x3        0   0x2e     .nv.shared._ZN3cub17CUB_200400_750_NS18DeviceReduceKernelINS0_18DeviceReducePolicyI14kurtosisResulty18kurtosis_binary_opE9Policy600EN6thrust20THRUST_200400_750_NS10device_ptrI12storeElementEEyS4_S3_17kurtosis_unary_opISA_EEEvT0_PT3_T1_NS0_13GridEvenShareISH_EET2_T4_
 0x22         0x1c860           0x720     0x22        0   0x26     $__internal_1_$__cuda_sm3x_div_rn_noftz_f32_slowpath
 0x23               0               0      0x3        0   0x1b     .nv.constant0._ZN3cub17CUB_200400_750_NS18DeviceReduceKernelINS0_18DeviceReducePolicyI14kurtosisResulty18kurtosis_binary_opE9Policy600EN6thrust20THRUST_200400_750_NS10device_ptrI12storeElementEEyS4_S3_17kurtosis_unary_opISA_EEEvT0_PT3_T1_NS0_13GridEvenShareISH_EET2_T4_
 0x24               0               0      0x3        0   0x27     .text._ZN3cub17CUB_200400_750_NS28DeviceReduceSingleTileKernelINS0_18DeviceReducePolicyI14kurtosisResulty18kurtosis_binary_opE9Policy600EN6thrust20THRUST_200400_750_NS10device_ptrI12storeElementEEPS3_yS4_S3_S3_17kurtosis_unary_opISA_EEEvT0_T1_T2_T3_T4_T6_
 0x25               0               0      0x3        0   0x2f     .nv.shared._ZN3cub17CUB_200400_750_NS28DeviceReduceSingleTileKernelINS0_18DeviceReducePolicyI14kurtosisResulty18kurtosis_binary_opE9Policy600EN6thrust20THRUST_200400_750_NS10device_ptrI12storeElementEEPS3_yS4_S3_S3_17kurtosis_unary_opISA_EEEvT0_T1_T2_T3_T4_T6_
 0x26         0x1e6c0           0x6c0     0x22        0   0x27     $__internal_2_$__cuda_sm3x_div_rn_noftz_f32_slowpath
 0x27               0               0      0x3        0   0x1c     .nv.constant0._ZN3cub17CUB_200400_750_NS28DeviceReduceSingleTileKernelINS0_18DeviceReducePolicyI14kurtosisResulty18kurtosis_binary_opE9Policy600EN6thrust20THRUST_200400_750_NS10device_ptrI12storeElementEEPS3_yS4_S3_S3_17kurtosis_unary_opISA_EEEvT0_T1_T2_T3_T4_T6_
 0x28               0               0      0x3        0   0x28     .text._ZN3cub17CUB_200400_750_NS28DeviceReduceSingleTileKernelINS0_18DeviceReducePolicyI14kurtosisResultj18kurtosis_binary_opE9Policy600EPS3_S7_iS4_S3_S3_N4cuda3std3__410__identityEEEvT0_T1_T2_T3_T4_T6_
 0x29               0               0      0x3        0   0x30     .nv.shared._ZN3cub17CUB_200400_750_NS28DeviceReduceSingleTileKernelINS0_18DeviceReducePolicyI14kurtosisResultj18kurtosis_binary_opE9Policy600EPS3_S7_iS4_S3_S3_N4cuda3std3__410__identityEEEvT0_T1_T2_T3_T4_T6_
 0x2a         0x1d2f0           0x710     0x22        0   0x28     $__internal_3_$__cuda_sm3x_div_rn_noftz_f32_slowpath
 0x2b               0               0      0x3        0   0x1d     .nv.constant0._ZN3cub17CUB_200400_750_NS28DeviceReduceSingleTileKernelINS0_18DeviceReducePolicyI14kurtosisResultj18kurtosis_binary_opE9Policy600EPS3_S7_iS4_S3_S3_N4cuda3std3__410__identityEEEvT0_T1_T2_T3_T4_T6_
 0x2c               0               0      0x3        0   0x29     .text._ZN3cub17CUB_200400_750_NS18DeviceReduceKernelINS0_18DeviceReducePolicyI14kurtosisResultj18kurtosis_binary_opE9Policy600EN6thrust20THRUST_200400_750_NS10device_ptrI12storeElementEEjS4_S3_17kurtosis_unary_opISA_EEEvT0_PT3_T1_NS0_13GridEvenShareISH_EET2_T4_
 0x2d               0               0      0x3        0   0x31     .nv.shared._ZN3cub17CUB_200400_750_NS18DeviceReduceKernelINS0_18DeviceReducePolicyI14kurtosisResultj18kurtosis_binary_opE9Policy600EN6thrust20THRUST_200400_750_NS10device_ptrI12storeElementEEjS4_S3_17kurtosis_unary_opISA_EEEvT0_PT3_T1_NS0_13GridEvenShareISH_EET2_T4_
 0x2e         0x1c870           0x710     0x22        0   0x29     $__internal_4_$__cuda_sm3x_div_rn_noftz_f32_slowpath
 0x2f               0               0      0x3        0   0x1e     .nv.constant0._ZN3cub17CUB_200400_750_NS18DeviceReduceKernelINS0_18DeviceReducePolicyI14kurtosisResultj18kurtosis_binary_opE9Policy600EN6thrust20THRUST_200400_750_NS10device_ptrI12storeElementEEjS4_S3_17kurtosis_unary_opISA_EEEvT0_PT3_T1_NS0_13GridEvenShareISH_EET2_T4_
 0x30               0               0      0x3        0   0x2a     .text._ZN3cub17CUB_200400_750_NS28DeviceReduceSingleTileKernelINS0_18DeviceReducePolicyI14kurtosisResultj18kurtosis_binary_opE9Policy600EN6thrust20THRUST_200400_750_NS10device_ptrI12storeElementEEPS3_jS4_S3_S3_17kurtosis_unary_opISA_EEEvT0_T1_T2_T3_T4_T6_
 0x31               0               0      0x3        0   0x32     .nv.shared._ZN3cub17CUB_200400_750_NS28DeviceReduceSingleTileKernelINS0_18DeviceReducePolicyI14kurtosisResultj18kurtosis_binary_opE9Policy600EN6thrust20THRUST_200400_750_NS10device_ptrI12storeElementEEPS3_jS4_S3_S3_17kurtosis_unary_opISA_EEEvT0_T1_T2_T3_T4_T6_
 0x32         0x1e780           0x700     0x22        0   0x2a     $__internal_5_$__cuda_sm3x_div_rn_noftz_f32_slowpath
 0x33               0               0      0x3        0   0x1f     .nv.constant0._ZN3cub17CUB_200400_750_NS28DeviceReduceSingleTileKernelINS0_18DeviceReducePolicyI14kurtosisResultj18kurtosis_binary_opE9Policy600EN6thrust20THRUST_200400_750_NS10device_ptrI12storeElementEEPS3_jS4_S3_S3_17kurtosis_unary_opISA_EEEvT0_T1_T2_T3_T4_T6_
 0x34               0               0      0x3        0   0x2b     .text._ZN3cub17CUB_200400_750_NS11EmptyKernelIvEEvv
 0x35               0               0      0x3        0   0x20     .nv.constant0._ZN3cub17CUB_200400_750_NS11EmptyKernelIvEEvv
 0x36               0               0      0x3        0    0x4     .debug_frame
 0x37               0               0      0x3        0   0x11     .nv.callgraph
 0x38               0               0      0x3        0   0x12     .nv.rel.action
 0x39               0           0x380     0x12     0x10   0x21     _ZN3cub17CUB_200400_750_NS6detail8for_each13static_kernelINS2_12policy_hub_t12policy_350_tElN6thrust20THRUST_200400_750_NS8cuda_cub11__transform17unary_transform_fINS7_10device_ptrI12storeElementEEPSC_NS9_14no_stencil_tagENS7_8identityISC_EENS9_21always_true_predicateEEEEEvT0_T1_
 0x3a               0           0x380     0x12     0x10   0x22     _ZN3cub17CUB_200400_750_NS6detail8for_each13static_kernelINS2_12policy_hub_t12policy_350_tElN6thrust20THRUST_200400_750_NS8cuda_cub20__uninitialized_copy7functorINS7_10device_ptrI12storeElementEENS7_7pointerISC_NS8_3tagENS7_11use_defaultESG_EEEEEEvT0_T1_
 0x3b               0            0x80     0x12     0x10   0x23     _ZN3cub17CUB_200400_750_NS6detail8for_each13static_kernelINS2_12policy_hub_t12policy_350_tElNS2_12op_wrapper_tIlN6thrust20THRUST_200400_750_NS6detail23allocator_traits_detail5gozerENS8_7pointerI12storeElementNS8_8cuda_cub3tagENS8_11use_defaultESG_EEEEEEvT0_T1_
 0x3c               0           0x280     0x12     0x10   0x24     _ZN3cub17CUB_200400_750_NS6detail8for_each13static_kernelINS2_12policy_hub_t12policy_350_tEmNS2_12op_wrapper_tImN6thrust20THRUST_200400_750_NS6detail23allocator_traits_detail24construct1_via_allocatorINS9_18no_throw_allocatorINS9_19temporary_allocatorI12storeElementNS8_8cuda_cub3tagEEEEEEENS8_7pointerISE_SG_NS8_11use_defaultESL_EEEEEEvT0_T1_
 0x3d               0         0x1da00     0x12     0x10   0x25     _ZN3cub17CUB_200400_750_NS28DeviceReduceSingleTileKernelINS0_18DeviceReducePolicyI14kurtosisResulty18kurtosis_binary_opE9Policy600EPS3_S7_iS4_S3_S3_N4cuda3std3__410__identityEEEvT0_T1_T2_T3_T4_T6_
 0x3e               0         0x1cf80     0x12     0x10   0x26     _ZN3cub17CUB_200400_750_NS18DeviceReduceKernelINS0_18DeviceReducePolicyI14kurtosisResulty18kurtosis_binary_opE9Policy600EN6thrust20THRUST_200400_750_NS10device_ptrI12storeElementEEyS4_S3_17kurtosis_unary_opISA_EEEvT0_PT3_T1_NS0_13GridEvenShareISH_EET2_T4_
 0x3f               0         0x1ed80     0x12     0x10   0x27     _ZN3cub17CUB_200400_750_NS28DeviceReduceSingleTileKernelINS0_18DeviceReducePolicyI14kurtosisResulty18kurtosis_binary_opE9Policy600EN6thrust20THRUST_200400_750_NS10device_ptrI12storeElementEEPS3_yS4_S3_S3_17kurtosis_unary_opISA_EEEvT0_T1_T2_T3_T4_T6_
 0x40               0         0x1da00     0x12     0x10   0x28     _ZN3cub17CUB_200400_750_NS28DeviceReduceSingleTileKernelINS0_18DeviceReducePolicyI14kurtosisResultj18kurtosis_binary_opE9Policy600EPS3_S7_iS4_S3_S3_N4cuda3std3__410__identityEEEvT0_T1_T2_T3_T4_T6_
 0x41               0         0x1cf80     0x12     0x10   0x29     _ZN3cub17CUB_200400_750_NS18DeviceReduceKernelINS0_18DeviceReducePolicyI14kurtosisResultj18kurtosis_binary_opE9Policy600EN6thrust20THRUST_200400_750_NS10device_ptrI12storeElementEEjS4_S3_17kurtosis_unary_opISA_EEEvT0_PT3_T1_NS0_13GridEvenShareISH_EET2_T4_
 0x42               0         0x1ee80     0x12     0x10   0x2a     _ZN3cub17CUB_200400_750_NS28DeviceReduceSingleTileKernelINS0_18DeviceReducePolicyI14kurtosisResultj18kurtosis_binary_opE9Policy600EN6thrust20THRUST_200400_750_NS10device_ptrI12storeElementEEPS3_jS4_S3_S3_17kurtosis_unary_opISA_EEEvT0_T1_T2_T3_T4_T6_
 0x43               0            0x80     0x12     0x10   0x2b     _ZN3cub17CUB_200400_750_NS11EmptyKernelIvEEvv


.nv.constant4
0x00000000 0x00000000 0x00000000 0x00000000
0x00000000 0x00000000 0x00000000 0x00000000
0x00000000 0x00000000 0x00000000 0x00000000
0x00000000 0x00000000 0x00000000 0x00000000
0x00000000 0x00000000 0x00000000 0x00000000
0x00000000 0x00000000 0x00000000 0x00000000
0x00000000 0x00000000 0x00000000 0x00000000
0x00000000 0x00000000 0x00000000 0x00000000
0x00000000 0x00000000 

.section .rel.nv.constant4	REL
0x80    _ZN37_INTERNAL_30582aa7_7_main_cu_c73275fe6thrust20THRUST_200400_750_NS3seqE    R_CUDA_64
0x78    _ZN37_INTERNAL_30582aa7_7_main_cu_c73275fe6thrust20THRUST_200400_750_NS12placeholders3_10E    R_CUDA_64
0x70    _ZN37_INTERNAL_30582aa7_7_main_cu_c73275fe6thrust20THRUST_200400_750_NS12placeholders2_9E    R_CUDA_64
0x68    _ZN37_INTERNAL_30582aa7_7_main_cu_c73275fe6thrust20THRUST_200400_750_NS12placeholders2_8E    R_CUDA_64
0x60    _ZN37_INTERNAL_30582aa7_7_main_cu_c73275fe6thrust20THRUST_200400_750_NS12placeholders2_7E    R_CUDA_64
0x58    _ZN37_INTERNAL_30582aa7_7_main_cu_c73275fe6thrust20THRUST_200400_750_NS12placeholders2_6E    R_CUDA_64
0x50    _ZN37_INTERNAL_30582aa7_7_main_cu_c73275fe6thrust20THRUST_200400_750_NS12placeholders2_5E    R_CUDA_64
0x48    _ZN37_INTERNAL_30582aa7_7_main_cu_c73275fe6thrust20THRUST_200400_750_NS12placeholders2_4E    R_CUDA_64
0x40    _ZN37_INTERNAL_30582aa7_7_main_cu_c73275fe6thrust20THRUST_200400_750_NS12placeholders2_3E    R_CUDA_64
0x38    _ZN37_INTERNAL_30582aa7_7_main_cu_c73275fe6thrust20THRUST_200400_750_NS12placeholders2_2E    R_CUDA_64
0x30    _ZN37_INTERNAL_30582aa7_7_main_cu_c73275fe6thrust20THRUST_200400_750_NS12placeholders2_1E    R_CUDA_64
0x28    _ZN37_INTERNAL_30582aa7_7_main_cu_c73275fe6thrust20THRUST_200400_750_NS8cuda_cub10par_nosyncE    R_CUDA_64
0x20    _ZN37_INTERNAL_30582aa7_7_main_cu_c73275fe6thrust20THRUST_200400_750_NS8cuda_cub3parE    R_CUDA_64
0x18    _ZN37_INTERNAL_30582aa7_7_main_cu_c73275fe6thrust20THRUST_200400_750_NS6system6detail10sequential3seqE    R_CUDA_64
0x10    _ZN37_INTERNAL_30582aa7_7_main_cu_c73275fe4cuda3std6ranges3__45__cpo4swapE    R_CUDA_64
0x8    _ZN37_INTERNAL_30582aa7_7_main_cu_c73275fe4cuda3std3__48in_placeE    R_CUDA_64
0x0    _ZN37_INTERNAL_30582aa7_7_main_cu_c73275fe4cuda3std3__439_GLOBAL__N__30582aa7_7_main_cu_c73275fe6ignoreE    R_CUDA_64


.nv.constant0._ZN3cub17CUB_200400_750_NS6detail8for_each13static_kernelINS2_12policy_hub_t12policy_350_tElN6thrust20THRUST_200400_750_NS8cuda_cub11__transform17unary_transform_fINS7_10device_ptrI12storeElementEEPSC_NS9_14no_stencil_tagENS7_8identityISC_EENS9_21always_true_predicateEEEEEvT0_T1_
0x00000000 0x00000000 0x00000000 0x00000000
0x00000000 0x00000000 0x00000000 0x00000000
0x00000000 0x00000000 0x00000000 0x00000000
0x00000000 0x00000000 0x00000000 0x00000000
0x00000000 0x00000000 0x00000000 0x00000000
0x00000000 0x00000000 0x00000000 0x00000000
0x00000000 0x00000000 0x00000000 0x00000000
0x00000000 0x00000000 0x00000000 0x00000000
0x00000000 0x00000000 0x00000000 0x00000000
0x00000000 0x00000000 0x00000000 0x00000000
0x00000000 0x00000000 0x00000000 0x00000000
0x00000000 0x00000000 0x00000000 0x00000000
0x00000000 0x00000000 0x00000000 0x00000000
0x00000000 0x00000000 0x00000000 0x00000000
0x00000000 0x00000000 0x00000000 0x00000000
0x00000000 0x00000000 0x00000000 0x00000000
0x00000000 0x00000000 0x00000000 0x00000000
0x00000000 0x00000000 0x00000000 0x00000000
0x00000000 0x00000000 0x00000000 0x00000000
0x00000000 0x00000000 0x00000000 0x00000000
0x00000000 0x00000000 0x00000000 0x00000000
0x00000000 0x00000000 0x00000000 0x00000000
0x00000000 0x00000000 0x00000000 0x00000000
0x00000000 0x00000000 0x00000000 0x00000000



.nv.constant0._ZN3cub17CUB_200400_750_NS6detail8for_each13static_kernelINS2_12policy_hub_t12policy_350_tElN6thrust20THRUST_200400_750_NS8cuda_cub20__uninitialized_copy7functorINS7_10device_ptrI12storeElementEENS7_7pointerISC_NS8_3tagENS7_11use_defaultESG_EEEEEEvT0_T1_
0x00000000 0x00000000 0x00000000 0x00000000
0x00000000 0x00000000 0x00000000 0x00000000
0x00000000 0x00000000 0x00000000 0x00000000
0x00000000 0x00000000 0x00000000 0x00000000
0x00000000 0x00000000 0x00000000 0x00000000
0x00000000 0x00000000 0x00000000 0x00000000
0x00000000 0x00000000 0x00000000 0x00000000
0x00000000 0x00000000 0x00000000 0x00000000
0x00000000 0x00000000 0x00000000 0x00000000
0x00000000 0x00000000 0x00000000 0x00000000
0x00000000 0x00000000 0x00000000 0x00000000
0x00000000 0x00000000 0x00000000 0x00000000
0x00000000 0x00000000 0x00000000 0x00000000
0x00000000 0x00000000 0x00000000 0x00000000
0x00000000 0x00000000 0x00000000 0x00000000
0x00000000 0x00000000 0x00000000 0x00000000
0x00000000 0x00000000 0x00000000 0x00000000
0x00000000 0x00000000 0x00000000 0x00000000
0x00000000 0x00000000 0x00000000 0x00000000
0x00000000 0x00000000 0x00000000 0x00000000
0x00000000 0x00000000 0x00000000 0x00000000
0x00000000 0x00000000 0x00000000 0x00000000
0x00000000 0x00000000 0x00000000 0x00000000
0x00000000 0x00000000 


.nv.constant0._ZN3cub17CUB_200400_750_NS6detail8for_each13static_kernelINS2_12policy_hub_t12policy_350_tElNS2_12op_wrapper_tIlN6thrust20THRUST_200400_750_NS6detail23allocator_traits_detail5gozerENS8_7pointerI12storeElementNS8_8cuda_cub3tagENS8_11use_defaultESG_EEEEEEvT0_T1_
0x00000000 0x00000000 0x00000000 0x00000000
0x00000000 0x00000000 0x00000000 0x00000000
0x00000000 0x00000000 0x00000000 0x00000000
0x00000000 0x00000000 0x00000000 0x00000000
0x00000000 0x00000000 0x00000000 0x00000000
0x00000000 0x00000000 0x00000000 0x00000000
0x00000000 0x00000000 0x00000000 0x00000000
0x00000000 0x00000000 0x00000000 0x00000000
0x00000000 0x00000000 0x00000000 0x00000000
0x00000000 0x00000000 0x00000000 0x00000000
0x00000000 0x00000000 0x00000000 0x00000000
0x00000000 0x00000000 0x00000000 0x00000000
0x00000000 0x00000000 0x00000000 0x00000000
0x00000000 0x00000000 0x00000000 0x00000000
0x00000000 0x00000000 0x00000000 0x00000000
0x00000000 0x00000000 0x00000000 0x00000000
0x00000000 0x00000000 0x00000000 0x00000000
0x00000000 0x00000000 0x00000000 0x00000000
0x00000000 0x00000000 0x00000000 0x00000000
0x00000000 0x00000000 0x00000000 0x00000000
0x00000000 0x00000000 0x00000000 0x00000000
0x00000000 0x00000000 0x00000000 0x00000000
0x00000000 0x00000000 0x00000000 0x00000000
0x00000000 0x00000000 


.nv.constant0._ZN3cub17CUB_200400_750_NS6detail8for_each13static_kernelINS2_12policy_hub_t12policy_350_tEmNS2_12op_wrapper_tImN6thrust20THRUST_200400_750_NS6detail23allocator_traits_detail24construct1_via_allocatorINS9_18no_throw_allocatorINS9_19temporary_allocatorI12storeElementNS8_8cuda_cub3tagEEEEEEENS8_7pointerISE_SG_NS8_11use_defaultESL_EEEEEEvT0_T1_
0x00000000 0x00000000 0x00000000 0x00000000
0x00000000 0x00000000 0x00000000 0x00000000
0x00000000 0x00000000 0x00000000 0x00000000
0x00000000 0x00000000 0x00000000 0x00000000
0x00000000 0x00000000 0x00000000 0x00000000
0x00000000 0x00000000 0x00000000 0x00000000
0x00000000 0x00000000 0x00000000 0x00000000
0x00000000 0x00000000 0x00000000 0x00000000
0x00000000 0x00000000 0x00000000 0x00000000
0x00000000 0x00000000 0x00000000 0x00000000
0x00000000 0x00000000 0x00000000 0x00000000
0x00000000 0x00000000 0x00000000 0x00000000
0x00000000 0x00000000 0x00000000 0x00000000
0x00000000 0x00000000 0x00000000 0x00000000
0x00000000 0x00000000 0x00000000 0x00000000
0x00000000 0x00000000 0x00000000 0x00000000
0x00000000 0x00000000 0x00000000 0x00000000
0x00000000 0x00000000 0x00000000 0x00000000
0x00000000 0x00000000 0x00000000 0x00000000
0x00000000 0x00000000 0x00000000 0x00000000
0x00000000 0x00000000 0x00000000 0x00000000
0x00000000 0x00000000 0x00000000 0x00000000
0x00000000 0x00000000 0x00000000 0x00000000
0x00000000 0x00000000 


.nv.constant0._ZN3cub17CUB_200400_750_NS28DeviceReduceSingleTileKernelINS0_18DeviceReducePolicyI14kurtosisResulty18kurtosis_binary_opE9Policy600EPS3_S7_iS4_S3_S3_N4cuda3std3__410__identityEEEvT0_T1_T2_T3_T4_T6_
0x00000000 0x00000000 0x00000000 0x00000000
0x00000000 0x00000000 0x00000000 0x00000000
0x00000000 0x00000000 0x00000000 0x00000000
0x00000000 0x00000000 0x00000000 0x00000000
0x00000000 0x00000000 0x00000000 0x00000000
0x00000000 0x00000000 0x00000000 0x00000000
0x00000000 0x00000000 0x00000000 0x00000000
0x00000000 0x00000000 0x00000000 0x00000000
0x00000000 0x00000000 0x00000000 0x00000000
0x00000000 0x00000000 0x00000000 0x00000000
0x00000000 0x00000000 0x00000000 0x00000000
0x00000000 0x00000000 0x00000000 0x00000000
0x00000000 0x00000000 0x00000000 0x00000000
0x00000000 0x00000000 0x00000000 0x00000000
0x00000000 0x00000000 0x00000000 0x00000000
0x00000000 0x00000000 0x00000000 0x00000000
0x00000000 0x00000000 0x00000000 0x00000000
0x00000000 0x00000000 0x00000000 0x00000000
0x00000000 0x00000000 0x00000000 0x00000000
0x00000000 0x00000000 0x00000000 0x00000000
0x00000000 0x00000000 0x00000000 0x00000000
0x00000000 0x00000000 0x00000000 0x00000000
0x00000000 0x00000000 0x00000000 0x00000000
0x00000000 0x00000000 0x00000000 0x00000000
0x00000000 0x00000000 0x00000000 0x00 


.nv.constant0._ZN3cub17CUB_200400_750_NS18DeviceReduceKernelINS0_18DeviceReducePolicyI14kurtosisResulty18kurtosis_binary_opE9Policy600EN6thrust20THRUST_200400_750_NS10device_ptrI12storeElementEEyS4_S3_17kurtosis_unary_opISA_EEEvT0_PT3_T1_NS0_13GridEvenShareISH_EET2_T4_
0x00000000 0x00000000 0x00000000 0x00000000
0x00000000 0x00000000 0x00000000 0x00000000
0x00000000 0x00000000 0x00000000 0x00000000
0x00000000 0x00000000 0x00000000 0x00000000
0x00000000 0x00000000 0x00000000 0x00000000
0x00000000 0x00000000 0x00000000 0x00000000
0x00000000 0x00000000 0x00000000 0x00000000
0x00000000 0x00000000 0x00000000 0x00000000
0x00000000 0x00000000 0x00000000 0x00000000
0x00000000 0x00000000 0x00000000 0x00000000
0x00000000 0x00000000 0x00000000 0x00000000
0x00000000 0x00000000 0x00000000 0x00000000
0x00000000 0x00000000 0x00000000 0x00000000
0x00000000 0x00000000 0x00000000 0x00000000
0x00000000 0x00000000 0x00000000 0x00000000
0x00000000 0x00000000 0x00000000 0x00000000
0x00000000 0x00000000 0x00000000 0x00000000
0x00000000 0x00000000 0x00000000 0x00000000
0x00000000 0x00000000 0x00000000 0x00000000
0x00000000 0x00000000 0x00000000 0x00000000
0x00000000 0x00000000 0x00000000 0x00000000
0x00000000 0x00000000 0x00000000 0x00000000
0x00000000 0x00000000 0x00000000 0x00000000
0x00000000 0x00000000 0x00000000 0x00000000
0x00000000 0x00000000 0x00000000 0x00000000
0x00000000 0x00000000 0x00000000 0x00000000
0x00000000 0x00000000 0x00000000 0x00000000
0x00000000 0x00000000 0x00000000 0x00000000
0x00 0x00 


.nv.constant0._ZN3cub17CUB_200400_750_NS28DeviceReduceSingleTileKernelINS0_18DeviceReducePolicyI14kurtosisResulty18kurtosis_binary_opE9Policy600EN6thrust20THRUST_200400_750_NS10device_ptrI12storeElementEEPS3_yS4_S3_S3_17kurtosis_unary_opISA_EEEvT0_T1_T2_T3_T4_T6_
0x00000000 0x00000000 0x00000000 0x00000000
0x00000000 0x00000000 0x00000000 0x00000000
0x00000000 0x00000000 0x00000000 0x00000000
0x00000000 0x00000000 0x00000000 0x00000000
0x00000000 0x00000000 0x00000000 0x00000000
0x00000000 0x00000000 0x00000000 0x00000000
0x00000000 0x00000000 0x00000000 0x00000000
0x00000000 0x00000000 0x00000000 0x00000000
0x00000000 0x00000000 0x00000000 0x00000000
0x00000000 0x00000000 0x00000000 0x00000000
0x00000000 0x00000000 0x00000000 0x00000000
0x00000000 0x00000000 0x00000000 0x00000000
0x00000000 0x00000000 0x00000000 0x00000000
0x00000000 0x00000000 0x00000000 0x00000000
0x00000000 0x00000000 0x00000000 0x00000000
0x00000000 0x00000000 0x00000000 0x00000000
0x00000000 0x00000000 0x00000000 0x00000000
0x00000000 0x00000000 0x00000000 0x00000000
0x00000000 0x00000000 0x00000000 0x00000000
0x00000000 0x00000000 0x00000000 0x00000000
0x00000000 0x00000000 0x00000000 0x00000000
0x00000000 0x00000000 0x00000000 0x00000000
0x00000000 0x00000000 0x00000000 0x00000000
0x00000000 0x00000000 0x00000000 0x00000000
0x00000000 0x00000000 0x00000000 0x00000000
0x00 


.nv.constant0._ZN3cub17CUB_200400_750_NS28DeviceReduceSingleTileKernelINS0_18DeviceReducePolicyI14kurtosisResultj18kurtosis_binary_opE9Policy600EPS3_S7_iS4_S3_S3_N4cuda3std3__410__identityEEEvT0_T1_T2_T3_T4_T6_
0x00000000 0x00000000 0x00000000 0x00000000
0x00000000 0x00000000 0x00000000 0x00000000
0x00000000 0x00000000 0x00000000 0x00000000
0x00000000 0x00000000 0x00000000 0x00000000
0x00000000 0x00000000 0x00000000 0x00000000
0x00000000 0x00000000 0x00000000 0x00000000
0x00000000 0x00000000 0x00000000 0x00000000
0x00000000 0x00000000 0x00000000 0x00000000
0x00000000 0x00000000 0x00000000 0x00000000
0x00000000 0x00000000 0x00000000 0x00000000
0x00000000 0x00000000 0x00000000 0x00000000
0x00000000 0x00000000 0x00000000 0x00000000
0x00000000 0x00000000 0x00000000 0x00000000
0x00000000 0x00000000 0x00000000 0x00000000
0x00000000 0x00000000 0x00000000 0x00000000
0x00000000 0x00000000 0x00000000 0x00000000
0x00000000 0x00000000 0x00000000 0x00000000
0x00000000 0x00000000 0x00000000 0x00000000
0x00000000 0x00000000 0x00000000 0x00000000
0x00000000 0x00000000 0x00000000 0x00000000
0x00000000 0x00000000 0x00000000 0x00000000
0x00000000 0x00000000 0x00000000 0x00000000
0x00000000 0x00000000 0x00000000 0x00000000
0x00000000 0x00000000 0x00000000 0x00000000
0x00000000 0x00000000 0x00000000 0x00 


.nv.constant0._ZN3cub17CUB_200400_750_NS18DeviceReduceKernelINS0_18DeviceReducePolicyI14kurtosisResultj18kurtosis_binary_opE9Policy600EN6thrust20THRUST_200400_750_NS10device_ptrI12storeElementEEjS4_S3_17kurtosis_unary_opISA_EEEvT0_PT3_T1_NS0_13GridEvenShareISH_EET2_T4_
0x00000000 0x00000000 0x00000000 0x00000000
0x00000000 0x00000000 0x00000000 0x00000000
0x00000000 0x00000000 0x00000000 0x00000000
0x00000000 0x00000000 0x00000000 0x00000000
0x00000000 0x00000000 0x00000000 0x00000000
0x00000000 0x00000000 0x00000000 0x00000000
0x00000000 0x00000000 0x00000000 0x00000000
0x00000000 0x00000000 0x00000000 0x00000000
0x00000000 0x00000000 0x00000000 0x00000000
0x00000000 0x00000000 0x00000000 0x00000000
0x00000000 0x00000000 0x00000000 0x00000000
0x00000000 0x00000000 0x00000000 0x00000000
0x00000000 0x00000000 0x00000000 0x00000000
0x00000000 0x00000000 0x00000000 0x00000000
0x00000000 0x00000000 0x00000000 0x00000000
0x00000000 0x00000000 0x00000000 0x00000000
0x00000000 0x00000000 0x00000000 0x00000000
0x00000000 0x00000000 0x00000000 0x00000000
0x00000000 0x00000000 0x00000000 0x00000000
0x00000000 0x00000000 0x00000000 0x00000000
0x00000000 0x00000000 0x00000000 0x00000000
0x00000000 0x00000000 0x00000000 0x00000000
0x00000000 0x00000000 0x00000000 0x00000000
0x00000000 0x00000000 0x00000000 0x00000000
0x00000000 0x00000000 0x00000000 0x00000000
0x00000000 0x00000000 0x00000000 0x00 0x00 


.nv.constant0._ZN3cub17CUB_200400_750_NS28DeviceReduceSingleTileKernelINS0_18DeviceReducePolicyI14kurtosisResultj18kurtosis_binary_opE9Policy600EN6thrust20THRUST_200400_750_NS10device_ptrI12storeElementEEPS3_jS4_S3_S3_17kurtosis_unary_opISA_EEEvT0_T1_T2_T3_T4_T6_
0x00000000 0x00000000 0x00000000 0x00000000
0x00000000 0x00000000 0x00000000 0x00000000
0x00000000 0x00000000 0x00000000 0x00000000
0x00000000 0x00000000 0x00000000 0x00000000
0x00000000 0x00000000 0x00000000 0x00000000
0x00000000 0x00000000 0x00000000 0x00000000
0x00000000 0x00000000 0x00000000 0x00000000
0x00000000 0x00000000 0x00000000 0x00000000
0x00000000 0x00000000 0x00000000 0x00000000
0x00000000 0x00000000 0x00000000 0x00000000
0x00000000 0x00000000 0x00000000 0x00000000
0x00000000 0x00000000 0x00000000 0x00000000
0x00000000 0x00000000 0x00000000 0x00000000
0x00000000 0x00000000 0x00000000 0x00000000
0x00000000 0x00000000 0x00000000 0x00000000
0x00000000 0x00000000 0x00000000 0x00000000
0x00000000 0x00000000 0x00000000 0x00000000
0x00000000 0x00000000 0x00000000 0x00000000
0x00000000 0x00000000 0x00000000 0x00000000
0x00000000 0x00000000 0x00000000 0x00000000
0x00000000 0x00000000 0x00000000 0x00000000
0x00000000 0x00000000 0x00000000 0x00000000
0x00000000 0x00000000 0x00000000 0x00000000
0x00000000 0x00000000 0x00000000 0x00000000
0x00000000 0x00000000 0x00000000 0x00 


.nv.constant0._ZN3cub17CUB_200400_750_NS11EmptyKernelIvEEvv
0x00000000 0x00000000 0x00000000 0x00000000
0x00000000 0x00000000 0x00000000 0x00000000
0x00000000 0x00000000 0x00000000 0x00000000
0x00000000 0x00000000 0x00000000 0x00000000
0x00000000 0x00000000 0x00000000 0x00000000
0x00000000 0x00000000 0x00000000 0x00000000
0x00000000 0x00000000 0x00000000 0x00000000
0x00000000 0x00000000 0x00000000 0x00000000
0x00000000 0x00000000 0x00000000 0x00000000
0x00000000 0x00000000 0x00000000 0x00000000
0x00000000 0x00000000 0x00000000 0x00000000
0x00000000 0x00000000 0x00000000 0x00000000
0x00000000 0x00000000 0x00000000 0x00000000
0x00000000 0x00000000 0x00000000 0x00000000
0x00000000 0x00000000 0x00000000 0x00000000
0x00000000 0x00000000 0x00000000 0x00000000
0x00000000 0x00000000 0x00000000 0x00000000
0x00000000 0x00000000 0x00000000 0x00000000
0x00000000 0x00000000 0x00000000 0x00000000
0x00000000 0x00000000 0x00000000 0x00000000
0x00000000 0x00000000 0x00000000 0x00000000
0x00000000 0x00000000 0x00000000 0x00000000



.nv.shared._ZN3cub17CUB_200400_750_NS28DeviceReduceSingleTileKernelINS0_18DeviceReducePolicyI14kurtosisResulty18kurtosis_binary_opE9Policy600EPS3_S7_iS4_S3_S3_N4cuda3std3__410__identityEEEvT0_T1_T2_T3_T4_T6_
   No data to be dumped. 


.nv.shared._ZN3cub17CUB_200400_750_NS18DeviceReduceKernelINS0_18DeviceReducePolicyI14kurtosisResulty18kurtosis_binary_opE9Policy600EN6thrust20THRUST_200400_750_NS10device_ptrI12storeElementEEyS4_S3_17kurtosis_unary_opISA_EEEvT0_PT3_T1_NS0_13GridEvenShareISH_EET2_T4_
   No data to be dumped. 


.nv.shared._ZN3cub17CUB_200400_750_NS28DeviceReduceSingleTileKernelINS0_18DeviceReducePolicyI14kurtosisResulty18kurtosis_binary_opE9Policy600EN6thrust20THRUST_200400_750_NS10device_ptrI12storeElementEEPS3_yS4_S3_S3_17kurtosis_unary_opISA_EEEvT0_T1_T2_T3_T4_T6_
   No data to be dumped. 


.nv.shared._ZN3cub17CUB_200400_750_NS28DeviceReduceSingleTileKernelINS0_18DeviceReducePolicyI14kurtosisResultj18kurtosis_binary_opE9Policy600EPS3_S7_iS4_S3_S3_N4cuda3std3__410__identityEEEvT0_T1_T2_T3_T4_T6_
   No data to be dumped. 


.nv.shared._ZN3cub17CUB_200400_750_NS18DeviceReduceKernelINS0_18DeviceReducePolicyI14kurtosisResultj18kurtosis_binary_opE9Policy600EN6thrust20THRUST_200400_750_NS10device_ptrI12storeElementEEjS4_S3_17kurtosis_unary_opISA_EEEvT0_PT3_T1_NS0_13GridEvenShareISH_EET2_T4_
   No data to be dumped. 


.nv.shared._ZN3cub17CUB_200400_750_NS28DeviceReduceSingleTileKernelINS0_18DeviceReducePolicyI14kurtosisResultj18kurtosis_binary_opE9Policy600EN6thrust20THRUST_200400_750_NS10device_ptrI12storeElementEEPS3_jS4_S3_S3_17kurtosis_unary_opISA_EEEvT0_T1_T2_T3_T4_T6_
   No data to be dumped. 


.nv.info
	<0x1>
	Attribute:	EIATTR_REGCOUNT
	Format:	EIFMT_SVAL
	Value:	function: _ZN3cub17CUB_200400_750_NS11EmptyKernelIvEEvv(0x43)	register count: 4
	<0x2>
	Attribute:	EIATTR_MIN_STACK_SIZE
	Format:	EIFMT_SVAL
	Value:	function: _ZN3cub17CUB_200400_750_NS11EmptyKernelIvEEvv(0x43)	min stack size: 0x0
	<0x3>
	Attribute:	EIATTR_FRAME_SIZE
	Format:	EIFMT_SVAL
	Value:	function: _ZN3cub17CUB_200400_750_NS11EmptyKernelIvEEvv(0x43)	frame size: 0x0
	<0x4>
	Attribute:	EIATTR_REGCOUNT
	Format:	EIFMT_SVAL
	Value:	function: _ZN3cub17CUB_200400_750_NS28DeviceReduceSingleTileKernelINS0_18DeviceReducePolicyI14kurtosisResultj18kurtosis_binary_opE9Policy600EN6thrust20THRUST_200400_750_NS10device_ptrI12storeElementEEPS3_jS4_S3_S3_17kurtosis_unary_opISA_EEEvT0_T1_T2_T3_T4_T6_(0x42)	register count: 40
	<0x5>
	Attribute:	EIATTR_MIN_STACK_SIZE
	Format:	EIFMT_SVAL
	Value:	function: $__internal_5_$__cuda_sm3x_div_rn_noftz_f32_slowpath(0x32)	min stack size: 0x0
	<0x6>
	Attribute:	EIATTR_FRAME_SIZE
	Format:	EIFMT_SVAL
	Value:	function: $__internal_5_$__cuda_sm3x_div_rn_noftz_f32_slowpath(0x32)	frame size: 0x0
	<0x7>
	Attribute:	EIATTR_MIN_STACK_SIZE
	Format:	EIFMT_SVAL
	Value:	function: _ZN3cub17CUB_200400_750_NS28DeviceReduceSingleTileKernelINS0_18DeviceReducePolicyI14kurtosisResultj18kurtosis_binary_opE9Policy600EN6thrust20THRUST_200400_750_NS10device_ptrI12storeElementEEPS3_jS4_S3_S3_17kurtosis_unary_opISA_EEEvT0_T1_T2_T3_T4_T6_(0x42)	min stack size: 0x0
	<0x8>
	Attribute:	EIATTR_FRAME_SIZE
	Format:	EIFMT_SVAL
	Value:	function: _ZN3cub17CUB_200400_750_NS28DeviceReduceSingleTileKernelINS0_18DeviceReducePolicyI14kurtosisResultj18kurtosis_binary_opE9Policy600EN6thrust20THRUST_200400_750_NS10device_ptrI12storeElementEEPS3_jS4_S3_S3_17kurtosis_unary_opISA_EEEvT0_T1_T2_T3_T4_T6_(0x42)	frame size: 0x0
	<0x9>
	Attribute:	EIATTR_REGCOUNT
	Format:	EIFMT_SVAL
	Value:	function: _ZN3cub17CUB_200400_750_NS18DeviceReduceKernelINS0_18DeviceReducePolicyI14kurtosisResultj18kurtosis_binary_opE9Policy600EN6thrust20THRUST_200400_750_NS10device_ptrI12storeElementEEjS4_S3_17kurtosis_unary_opISA_EEEvT0_PT3_T1_NS0_13GridEvenShareISH_EET2_T4_(0x41)	register count: 39
	<0x10>
	Attribute:	EIATTR_MIN_STACK_SIZE
	Format:	EIFMT_SVAL
	Value:	function: $__internal_4_$__cuda_sm3x_div_rn_noftz_f32_slowpath(0x2e)	min stack size: 0x0
	<0x11>
	Attribute:	EIATTR_FRAME_SIZE
	Format:	EIFMT_SVAL
	Value:	function: $__internal_4_$__cuda_sm3x_div_rn_noftz_f32_slowpath(0x2e)	frame size: 0x0
	<0x12>
	Attribute:	EIATTR_MIN_STACK_SIZE
	Format:	EIFMT_SVAL
	Value:	function: _ZN3cub17CUB_200400_750_NS18DeviceReduceKernelINS0_18DeviceReducePolicyI14kurtosisResultj18kurtosis_binary_opE9Policy600EN6thrust20THRUST_200400_750_NS10device_ptrI12storeElementEEjS4_S3_17kurtosis_unary_opISA_EEEvT0_PT3_T1_NS0_13GridEvenShareISH_EET2_T4_(0x41)	min stack size: 0x0
	<0x13>
	Attribute:	EIATTR_FRAME_SIZE
	Format:	EIFMT_SVAL
	Value:	function: _ZN3cub17CUB_200400_750_NS18DeviceReduceKernelINS0_18DeviceReducePolicyI14kurtosisResultj18kurtosis_binary_opE9Policy600EN6thrust20THRUST_200400_750_NS10device_ptrI12storeElementEEjS4_S3_17kurtosis_unary_opISA_EEEvT0_PT3_T1_NS0_13GridEvenShareISH_EET2_T4_(0x41)	frame size: 0x0
	<0x14>
	Attribute:	EIATTR_REGCOUNT
	Format:	EIFMT_SVAL
	Value:	function: _ZN3cub17CUB_200400_750_NS28DeviceReduceSingleTileKernelINS0_18DeviceReducePolicyI14kurtosisResultj18kurtosis_binary_opE9Policy600EPS3_S7_iS4_S3_S3_N4cuda3std3__410__identityEEEvT0_T1_T2_T3_T4_T6_(0x40)	register count: 49
	<0x15>
	Attribute:	EIATTR_MIN_STACK_SIZE
	Format:	EIFMT_SVAL
	Value:	function: $__internal_3_$__cuda_sm3x_div_rn_noftz_f32_slowpath(0x2a)	min stack size: 0x0
	<0x16>
	Attribute:	EIATTR_FRAME_SIZE
	Format:	EIFMT_SVAL
	Value:	function: $__internal_3_$__cuda_sm3x_div_rn_noftz_f32_slowpath(0x2a)	frame size: 0x0
	<0x17>
	Attribute:	EIATTR_MIN_STACK_SIZE
	Format:	EIFMT_SVAL
	Value:	function: _ZN3cub17CUB_200400_750_NS28DeviceReduceSingleTileKernelINS0_18DeviceReducePolicyI14kurtosisResultj18kurtosis_binary_opE9Policy600EPS3_S7_iS4_S3_S3_N4cuda3std3__410__identityEEEvT0_T1_T2_T3_T4_T6_(0x40)	min stack size: 0x0
	<0x18>
	Attribute:	EIATTR_FRAME_SIZE
	Format:	EIFMT_SVAL
	Value:	function: _ZN3cub17CUB_200400_750_NS28DeviceReduceSingleTileKernelINS0_18DeviceReducePolicyI14kurtosisResultj18kurtosis_binary_opE9Policy600EPS3_S7_iS4_S3_S3_N4cuda3std3__410__identityEEEvT0_T1_T2_T3_T4_T6_(0x40)	frame size: 0x0
	<0x19>
	Attribute:	EIATTR_REGCOUNT
	Format:	EIFMT_SVAL
	Value:	function: _ZN3cub17CUB_200400_750_NS28DeviceReduceSingleTileKernelINS0_18DeviceReducePolicyI14kurtosisResulty18kurtosis_binary_opE9Policy600EN6thrust20THRUST_200400_750_NS10device_ptrI12storeElementEEPS3_yS4_S3_S3_17kurtosis_unary_opISA_EEEvT0_T1_T2_T3_T4_T6_(0x3f)	register count: 42
	<0x20>
	Attribute:	EIATTR_MIN_STACK_SIZE
	Format:	EIFMT_SVAL
	Value:	function: $__internal_2_$__cuda_sm3x_div_rn_noftz_f32_slowpath(0x26)	min stack size: 0x0
	<0x21>
	Attribute:	EIATTR_FRAME_SIZE
	Format:	EIFMT_SVAL
	Value:	function: $__internal_2_$__cuda_sm3x_div_rn_noftz_f32_slowpath(0x26)	frame size: 0x0
	<0x22>
	Attribute:	EIATTR_MIN_STACK_SIZE
	Format:	EIFMT_SVAL
	Value:	function: _ZN3cub17CUB_200400_750_NS28DeviceReduceSingleTileKernelINS0_18DeviceReducePolicyI14kurtosisResulty18kurtosis_binary_opE9Policy600EN6thrust20THRUST_200400_750_NS10device_ptrI12storeElementEEPS3_yS4_S3_S3_17kurtosis_unary_opISA_EEEvT0_T1_T2_T3_T4_T6_(0x3f)	min stack size: 0x0
	<0x23>
	Attribute:	EIATTR_FRAME_SIZE
	Format:	EIFMT_SVAL
	Value:	function: _ZN3cub17CUB_200400_750_NS28DeviceReduceSingleTileKernelINS0_18DeviceReducePolicyI14kurtosisResulty18kurtosis_binary_opE9Policy600EN6thrust20THRUST_200400_750_NS10device_ptrI12storeElementEEPS3_yS4_S3_S3_17kurtosis_unary_opISA_EEEvT0_T1_T2_T3_T4_T6_(0x3f)	frame size: 0x0
	<0x24>
	Attribute:	EIATTR_REGCOUNT
	Format:	EIFMT_SVAL
	Value:	function: _ZN3cub17CUB_200400_750_NS18DeviceReduceKernelINS0_18DeviceReducePolicyI14kurtosisResulty18kurtosis_binary_opE9Policy600EN6thrust20THRUST_200400_750_NS10device_ptrI12storeElementEEyS4_S3_17kurtosis_unary_opISA_EEEvT0_PT3_T1_NS0_13GridEvenShareISH_EET2_T4_(0x3e)	register count: 39
	<0x25>
	Attribute:	EIATTR_MIN_STACK_SIZE
	Format:	EIFMT_SVAL
	Value:	function: $__internal_1_$__cuda_sm3x_div_rn_noftz_f32_slowpath(0x22)	min stack size: 0x0
	<0x26>
	Attribute:	EIATTR_FRAME_SIZE
	Format:	EIFMT_SVAL
	Value:	function: $__internal_1_$__cuda_sm3x_div_rn_noftz_f32_slowpath(0x22)	frame size: 0x0
	<0x27>
	Attribute:	EIATTR_MIN_STACK_SIZE
	Format:	EIFMT_SVAL
	Value:	function: _ZN3cub17CUB_200400_750_NS18DeviceReduceKernelINS0_18DeviceReducePolicyI14kurtosisResulty18kurtosis_binary_opE9Policy600EN6thrust20THRUST_200400_750_NS10device_ptrI12storeElementEEyS4_S3_17kurtosis_unary_opISA_EEEvT0_PT3_T1_NS0_13GridEvenShareISH_EET2_T4_(0x3e)	min stack size: 0x0
	<0x28>
	Attribute:	EIATTR_FRAME_SIZE
	Format:	EIFMT_SVAL
	Value:	function: _ZN3cub17CUB_200400_750_NS18DeviceReduceKernelINS0_18DeviceReducePolicyI14kurtosisResulty18kurtosis_binary_opE9Policy600EN6thrust20THRUST_200400_750_NS10device_ptrI12storeElementEEyS4_S3_17kurtosis_unary_opISA_EEEvT0_PT3_T1_NS0_13GridEvenShareISH_EET2_T4_(0x3e)	frame size: 0x0
	<0x29>
	Attribute:	EIATTR_REGCOUNT
	Format:	EIFMT_SVAL
	Value:	function: _ZN3cub17CUB_200400_750_NS28DeviceReduceSingleTileKernelINS0_18DeviceReducePolicyI14kurtosisResulty18kurtosis_binary_opE9Policy600EPS3_S7_iS4_S3_S3_N4cuda3std3__410__identityEEEvT0_T1_T2_T3_T4_T6_(0x3d)	register count: 49
	<0x30>
	Attribute:	EIATTR_MIN_STACK_SIZE
	Format:	EIFMT_SVAL
	Value:	function: $__internal_0_$__cuda_sm3x_div_rn_noftz_f32_slowpath(0x1e)	min stack size: 0x0
	<0x31>
	Attribute:	EIATTR_FRAME_SIZE
	Format:	EIFMT_SVAL
	Value:	function: $__internal_0_$__cuda_sm3x_div_rn_noftz_f32_slowpath(0x1e)	frame size: 0x0
	<0x32>
	Attribute:	EIATTR_MIN_STACK_SIZE
	Format:	EIFMT_SVAL
	Value:	function: _ZN3cub17CUB_200400_750_NS28DeviceReduceSingleTileKernelINS0_18DeviceReducePolicyI14kurtosisResulty18kurtosis_binary_opE9Policy600EPS3_S7_iS4_S3_S3_N4cuda3std3__410__identityEEEvT0_T1_T2_T3_T4_T6_(0x3d)	min stack size: 0x0
	<0x33>
	Attribute:	EIATTR_FRAME_SIZE
	Format:	EIFMT_SVAL
	Value:	function: _ZN3cub17CUB_200400_750_NS28DeviceReduceSingleTileKernelINS0_18DeviceReducePolicyI14kurtosisResulty18kurtosis_binary_opE9Policy600EPS3_S7_iS4_S3_S3_N4cuda3std3__410__identityEEEvT0_T1_T2_T3_T4_T6_(0x3d)	frame size: 0x0
	<0x34>
	Attribute:	EIATTR_REGCOUNT
	Format:	EIFMT_SVAL
	Value:	function: _ZN3cub17CUB_200400_750_NS6detail8for_each13static_kernelINS2_12policy_hub_t12policy_350_tEmNS2_12op_wrapper_tImN6thrust20THRUST_200400_750_NS6detail23allocator_traits_detail24construct1_via_allocatorINS9_18no_throw_allocatorINS9_19temporary_allocatorI12storeElementNS8_8cuda_cub3tagEEEEEEENS8_7pointerISE_SG_NS8_11use_defaultESL_EEEEEEvT0_T1_(0x3c)	register count: 12
	<0x35>
	Attribute:	EIATTR_MIN_STACK_SIZE
	Format:	EIFMT_SVAL
	Value:	function: _ZN3cub17CUB_200400_750_NS6detail8for_each13static_kernelINS2_12policy_hub_t12policy_350_tEmNS2_12op_wrapper_tImN6thrust20THRUST_200400_750_NS6detail23allocator_traits_detail24construct1_via_allocatorINS9_18no_throw_allocatorINS9_19temporary_allocatorI12storeElementNS8_8cuda_cub3tagEEEEEEENS8_7pointerISE_SG_NS8_11use_defaultESL_EEEEEEvT0_T1_(0x3c)	min stack size: 0x0
	<0x36>
	Attribute:	EIATTR_FRAME_SIZE
	Format:	EIFMT_SVAL
	Value:	function: _ZN3cub17CUB_200400_750_NS6detail8for_each13static_kernelINS2_12policy_hub_t12policy_350_tEmNS2_12op_wrapper_tImN6thrust20THRUST_200400_750_NS6detail23allocator_traits_detail24construct1_via_allocatorINS9_18no_throw_allocatorINS9_19temporary_allocatorI12storeElementNS8_8cuda_cub3tagEEEEEEENS8_7pointerISE_SG_NS8_11use_defaultESL_EEEEEEvT0_T1_(0x3c)	frame size: 0x0
	<0x37>
	Attribute:	EIATTR_REGCOUNT
	Format:	EIFMT_SVAL
	Value:	function: _ZN3cub17CUB_200400_750_NS6detail8for_each13static_kernelINS2_12policy_hub_t12policy_350_tElNS2_12op_wrapper_tIlN6thrust20THRUST_200400_750_NS6detail23allocator_traits_detail5gozerENS8_7pointerI12storeElementNS8_8cuda_cub3tagENS8_11use_defaultESG_EEEEEEvT0_T1_(0x3b)	register count: 4
	<0x38>
	Attribute:	EIATTR_MIN_STACK_SIZE
	Format:	EIFMT_SVAL
	Value:	function: _ZN3cub17CUB_200400_750_NS6detail8for_each13static_kernelINS2_12policy_hub_t12policy_350_tElNS2_12op_wrapper_tIlN6thrust20THRUST_200400_750_NS6detail23allocator_traits_detail5gozerENS8_7pointerI12storeElementNS8_8cuda_cub3tagENS8_11use_defaultESG_EEEEEEvT0_T1_(0x3b)	min stack size: 0x0
	<0x39>
	Attribute:	EIATTR_FRAME_SIZE
	Format:	EIFMT_SVAL
	Value:	function: _ZN3cub17CUB_200400_750_NS6detail8for_each13static_kernelINS2_12policy_hub_t12policy_350_tElNS2_12op_wrapper_tIlN6thrust20THRUST_200400_750_NS6detail23allocator_traits_detail5gozerENS8_7pointerI12storeElementNS8_8cuda_cub3tagENS8_11use_defaultESG_EEEEEEvT0_T1_(0x3b)	frame size: 0x0
	<0x40>
	Attribute:	EIATTR_REGCOUNT
	Format:	EIFMT_SVAL
	Value:	function: _ZN3cub17CUB_200400_750_NS6detail8for_each13static_kernelINS2_12policy_hub_t12policy_350_tElN6thrust20THRUST_200400_750_NS8cuda_cub20__uninitialized_copy7functorINS7_10device_ptrI12storeElementEENS7_7pointerISC_NS8_3tagENS7_11use_defaultESG_EEEEEEvT0_T1_(0x3a)	register count: 20
	<0x41>
	Attribute:	EIATTR_MIN_STACK_SIZE
	Format:	EIFMT_SVAL
	Value:	function: _ZN3cub17CUB_200400_750_NS6detail8for_each13static_kernelINS2_12policy_hub_t12policy_350_tElN6thrust20THRUST_200400_750_NS8cuda_cub20__uninitialized_copy7functorINS7_10device_ptrI12storeElementEENS7_7pointerISC_NS8_3tagENS7_11use_defaultESG_EEEEEEvT0_T1_(0x3a)	min stack size: 0x0
	<0x42>
	Attribute:	EIATTR_FRAME_SIZE
	Format:	EIFMT_SVAL
	Value:	function: _ZN3cub17CUB_200400_750_NS6detail8for_each13static_kernelINS2_12policy_hub_t12policy_350_tElN6thrust20THRUST_200400_750_NS8cuda_cub20__uninitialized_copy7functorINS7_10device_ptrI12storeElementEENS7_7pointerISC_NS8_3tagENS7_11use_defaultESG_EEEEEEvT0_T1_(0x3a)	frame size: 0x0
	<0x43>
	Attribute:	EIATTR_REGCOUNT
	Format:	EIFMT_SVAL
	Value:	function: _ZN3cub17CUB_200400_750_NS6detail8for_each13static_kernelINS2_12policy_hub_t12policy_350_tElN6thrust20THRUST_200400_750_NS8cuda_cub11__transform17unary_transform_fINS7_10device_ptrI12storeElementEEPSC_NS9_14no_stencil_tagENS7_8identityISC_EENS9_21always_true_predicateEEEEEvT0_T1_(0x39)	register count: 20
	<0x44>
	Attribute:	EIATTR_MIN_STACK_SIZE
	Format:	EIFMT_SVAL
	Value:	function: _ZN3cub17CUB_200400_750_NS6detail8for_each13static_kernelINS2_12policy_hub_t12policy_350_tElN6thrust20THRUST_200400_750_NS8cuda_cub11__transform17unary_transform_fINS7_10device_ptrI12storeElementEEPSC_NS9_14no_stencil_tagENS7_8identityISC_EENS9_21always_true_predicateEEEEEvT0_T1_(0x39)	min stack size: 0x0
	<0x45>
	Attribute:	EIATTR_FRAME_SIZE
	Format:	EIFMT_SVAL
	Value:	function: _ZN3cub17CUB_200400_750_NS6detail8for_each13static_kernelINS2_12policy_hub_t12policy_350_tElN6thrust20THRUST_200400_750_NS8cuda_cub11__transform17unary_transform_fINS7_10device_ptrI12storeElementEEPSC_NS9_14no_stencil_tagENS7_8identityISC_EENS9_21always_true_predicateEEEEEvT0_T1_(0x39)	frame size: 0x0
	<0x46>
	Attribute:	EIATTR_MIN_STACK_SIZE
	Format:	EIFMT_SVAL
	Value:	function: _ZN3cub17CUB_200400_750_NS6detail8for_each13static_kernelINS2_12policy_hub_t12policy_350_tElN6thrust20THRUST_200400_750_NS8cuda_cub11__transform17unary_transform_fINS7_10device_ptrI12storeElementEEPSC_NS9_14no_stencil_tagENS7_8identityISC_EENS9_21always_true_predicateEEEEEvT0_T1_(0x39)	min stack size: 0x0
	<0x47>
	Attribute:	EIATTR_MIN_STACK_SIZE
	Format:	EIFMT_SVAL
	Value:	function: _ZN3cub17CUB_200400_750_NS6detail8for_each13static_kernelINS2_12policy_hub_t12policy_350_tElN6thrust20THRUST_200400_750_NS8cuda_cub20__uninitialized_copy7functorINS7_10device_ptrI12storeElementEENS7_7pointerISC_NS8_3tagENS7_11use_defaultESG_EEEEEEvT0_T1_(0x3a)	min stack size: 0x0
	<0x48>
	Attribute:	EIATTR_MIN_STACK_SIZE
	Format:	EIFMT_SVAL
	Value:	function: _ZN3cub17CUB_200400_750_NS6detail8for_each13static_kernelINS2_12policy_hub_t12policy_350_tElNS2_12op_wrapper_tIlN6thrust20THRUST_200400_750_NS6detail23allocator_traits_detail5gozerENS8_7pointerI12storeElementNS8_8cuda_cub3tagENS8_11use_defaultESG_EEEEEEvT0_T1_(0x3b)	min stack size: 0x0
	<0x49>
	Attribute:	EIATTR_MIN_STACK_SIZE
	Format:	EIFMT_SVAL
	Value:	function: _ZN3cub17CUB_200400_750_NS6detail8for_each13static_kernelINS2_12policy_hub_t12policy_350_tEmNS2_12op_wrapper_tImN6thrust20THRUST_200400_750_NS6detail23allocator_traits_detail24construct1_via_allocatorINS9_18no_throw_allocatorINS9_19temporary_allocatorI12storeElementNS8_8cuda_cub3tagEEEEEEENS8_7pointerISE_SG_NS8_11use_defaultESL_EEEEEEvT0_T1_(0x3c)	min stack size: 0x0
	<0x50>
	Attribute:	EIATTR_MIN_STACK_SIZE
	Format:	EIFMT_SVAL
	Value:	function: _ZN3cub17CUB_200400_750_NS28DeviceReduceSingleTileKernelINS0_18DeviceReducePolicyI14kurtosisResulty18kurtosis_binary_opE9Policy600EPS3_S7_iS4_S3_S3_N4cuda3std3__410__identityEEEvT0_T1_T2_T3_T4_T6_(0x3d)	min stack size: 0x0
	<0x51>
	Attribute:	EIATTR_MIN_STACK_SIZE
	Format:	EIFMT_SVAL
	Value:	function: _ZN3cub17CUB_200400_750_NS18DeviceReduceKernelINS0_18DeviceReducePolicyI14kurtosisResulty18kurtosis_binary_opE9Policy600EN6thrust20THRUST_200400_750_NS10device_ptrI12storeElementEEyS4_S3_17kurtosis_unary_opISA_EEEvT0_PT3_T1_NS0_13GridEvenShareISH_EET2_T4_(0x3e)	min stack size: 0x0
	<0x52>
	Attribute:	EIATTR_MIN_STACK_SIZE
	Format:	EIFMT_SVAL
	Value:	function: _ZN3cub17CUB_200400_750_NS28DeviceReduceSingleTileKernelINS0_18DeviceReducePolicyI14kurtosisResulty18kurtosis_binary_opE9Policy600EN6thrust20THRUST_200400_750_NS10device_ptrI12storeElementEEPS3_yS4_S3_S3_17kurtosis_unary_opISA_EEEvT0_T1_T2_T3_T4_T6_(0x3f)	min stack size: 0x0
	<0x53>
	Attribute:	EIATTR_MIN_STACK_SIZE
	Format:	EIFMT_SVAL
	Value:	function: _ZN3cub17CUB_200400_750_NS28DeviceReduceSingleTileKernelINS0_18DeviceReducePolicyI14kurtosisResultj18kurtosis_binary_opE9Policy600EPS3_S7_iS4_S3_S3_N4cuda3std3__410__identityEEEvT0_T1_T2_T3_T4_T6_(0x40)	min stack size: 0x0
	<0x54>
	Attribute:	EIATTR_MIN_STACK_SIZE
	Format:	EIFMT_SVAL
	Value:	function: _ZN3cub17CUB_200400_750_NS18DeviceReduceKernelINS0_18DeviceReducePolicyI14kurtosisResultj18kurtosis_binary_opE9Policy600EN6thrust20THRUST_200400_750_NS10device_ptrI12storeElementEEjS4_S3_17kurtosis_unary_opISA_EEEvT0_PT3_T1_NS0_13GridEvenShareISH_EET2_T4_(0x41)	min stack size: 0x0
	<0x55>
	Attribute:	EIATTR_MIN_STACK_SIZE
	Format:	EIFMT_SVAL
	Value:	function: _ZN3cub17CUB_200400_750_NS28DeviceReduceSingleTileKernelINS0_18DeviceReducePolicyI14kurtosisResultj18kurtosis_binary_opE9Policy600EN6thrust20THRUST_200400_750_NS10device_ptrI12storeElementEEPS3_jS4_S3_S3_17kurtosis_unary_opISA_EEEvT0_T1_T2_T3_T4_T6_(0x42)	min stack size: 0x0
	<0x56>
	Attribute:	EIATTR_MIN_STACK_SIZE
	Format:	EIFMT_SVAL
	Value:	function: _ZN3cub17CUB_200400_750_NS11EmptyKernelIvEEvv(0x43)	min stack size: 0x0


.nv.info._ZN3cub17CUB_200400_750_NS6detail8for_each13static_kernelINS2_12policy_hub_t12policy_350_tElN6thrust20THRUST_200400_750_NS8cuda_cub11__transform17unary_transform_fINS7_10device_ptrI12storeElementEEPSC_NS9_14no_stencil_tagENS7_8identityISC_EENS9_21always_true_predicateEEEEEvT0_T1_
	<0x1>
	Attribute:	EIATTR_SW_WAR
	Format:	EIFMT_SVAL
	Value:	0x1 
	<0x2>
	Attribute:	EIATTR_CUDA_API_VERSION
	Format:	EIFMT_SVAL
	Value:	0x7d 
	<0x3>
	Attribute:	EIATTR_PARAM_CBANK
	Format:	EIFMT_SVAL
	Value:	0x15 0x200160 
	<0x4>
	Attribute:	EIATTR_CBANK_PARAM_SIZE
	Format:	EIFMT_HVAL
	Value:	0x20
	<0x5>
	Attribute:	EIATTR_KPARAM_INFO
	Format:	EIFMT_SVAL
	Value:	Index : 0x0	Ordinal : 0x1	Offset  : 0x8	Size    : 0x18
		Pointee's logAlignment : 0x0	Space : 0x0	cbank : 0x1f	Parameter Space : CBANK	
	<0x6>
	Attribute:	EIATTR_KPARAM_INFO
	Format:	EIFMT_SVAL
	Value:	Index : 0x0	Ordinal : 0x0	Offset  : 0x0	Size    : 0x8
		Pointee's logAlignment : 0x0	Space : 0x0	cbank : 0x1f	Parameter Space : CBANK	
	<0x7>
	Attribute:	EIATTR_MAXREG_COUNT
	Format:	EIFMT_HVAL
	Value:	0xff
	<0x8>
	Attribute:	EIATTR_EXIT_INSTR_OFFSETS
	Format:	EIFMT_SVAL
	Value:	0x210 0x280 0x350 
	<0x9>
	Attribute:	EIATTR_MAX_THREADS
	Format:	EIFMT_SVAL
	Value:	0x100 0x1 0x1 
	<0x10>
	Attribute:	EIATTR_CRS_STACK_SIZE
	Format:	EIFMT_SVAL
	Value:	0x0 


.nv.info._ZN3cub17CUB_200400_750_NS6detail8for_each13static_kernelINS2_12policy_hub_t12policy_350_tElN6thrust20THRUST_200400_750_NS8cuda_cub20__uninitialized_copy7functorINS7_10device_ptrI12storeElementEENS7_7pointerISC_NS8_3tagENS7_11use_defaultESG_EEEEEEvT0_T1_
	<0x1>
	Attribute:	EIATTR_SW_WAR
	Format:	EIFMT_SVAL
	Value:	0x1 
	<0x2>
	Attribute:	EIATTR_CUDA_API_VERSION
	Format:	EIFMT_SVAL
	Value:	0x7d 
	<0x3>
	Attribute:	EIATTR_PARAM_CBANK
	Format:	EIFMT_SVAL
	Value:	0x17 0x180160 
	<0x4>
	Attribute:	EIATTR_CBANK_PARAM_SIZE
	Format:	EIFMT_HVAL
	Value:	0x18
	<0x5>
	Attribute:	EIATTR_KPARAM_INFO
	Format:	EIFMT_SVAL
	Value:	Index : 0x0	Ordinal : 0x1	Offset  : 0x8	Size    : 0x10
		Pointee's logAlignment : 0x0	Space : 0x0	cbank : 0x1f	Parameter Space : CBANK	
	<0x6>
	Attribute:	EIATTR_KPARAM_INFO
	Format:	EIFMT_SVAL
	Value:	Index : 0x0	Ordinal : 0x0	Offset  : 0x0	Size    : 0x8
		Pointee's logAlignment : 0x0	Space : 0x0	cbank : 0x1f	Parameter Space : CBANK	
	<0x7>
	Attribute:	EIATTR_MAXREG_COUNT
	Format:	EIFMT_HVAL
	Value:	0xff
	<0x8>
	Attribute:	EIATTR_EXIT_INSTR_OFFSETS
	Format:	EIFMT_SVAL
	Value:	0x210 0x280 0x350 
	<0x9>
	Attribute:	EIATTR_MAX_THREADS
	Format:	EIFMT_SVAL
	Value:	0x100 0x1 0x1 
	<0x10>
	Attribute:	EIATTR_CRS_STACK_SIZE
	Format:	EIFMT_SVAL
	Value:	0x0 


.nv.info._ZN3cub17CUB_200400_750_NS6detail8for_each13static_kernelINS2_12policy_hub_t12policy_350_tElNS2_12op_wrapper_tIlN6thrust20THRUST_200400_750_NS6detail23allocator_traits_detail5gozerENS8_7pointerI12storeElementNS8_8cuda_cub3tagENS8_11use_defaultESG_EEEEEEvT0_T1_
	<0x1>
	Attribute:	EIATTR_SW_WAR
	Format:	EIFMT_SVAL
	Value:	0x1 
	<0x2>
	Attribute:	EIATTR_CUDA_API_VERSION
	Format:	EIFMT_SVAL
	Value:	0x7d 
	<0x3>
	Attribute:	EIATTR_PARAM_CBANK
	Format:	EIFMT_SVAL
	Value:	0x19 0x180160 
	<0x4>
	Attribute:	EIATTR_CBANK_PARAM_SIZE
	Format:	EIFMT_HVAL
	Value:	0x18
	<0x5>
	Attribute:	EIATTR_KPARAM_INFO
	Format:	EIFMT_SVAL
	Value:	Index : 0x0	Ordinal : 0x1	Offset  : 0x8	Size    : 0x10
		Pointee's logAlignment : 0x0	Space : 0x0	cbank : 0x1f	Parameter Space : CBANK	
	<0x6>
	Attribute:	EIATTR_KPARAM_INFO
	Format:	EIFMT_SVAL
	Value:	Index : 0x0	Ordinal : 0x0	Offset  : 0x0	Size    : 0x8
		Pointee's logAlignment : 0x0	Space : 0x0	cbank : 0x1f	Parameter Space : CBANK	
	<0x7>
	Attribute:	EIATTR_MAXREG_COUNT
	Format:	EIFMT_HVAL
	Value:	0xff
	<0x8>
	Attribute:	EIATTR_EXIT_INSTR_OFFSETS
	Format:	EIFMT_SVAL
	Value:	0x10 
	<0x9>
	Attribute:	EIATTR_MAX_THREADS
	Format:	EIFMT_SVAL
	Value:	0x100 0x1 0x1 


.nv.info._ZN3cub17CUB_200400_750_NS6detail8for_each13static_kernelINS2_12policy_hub_t12policy_350_tEmNS2_12op_wrapper_tImN6thrust20THRUST_200400_750_NS6detail23allocator_traits_detail24construct1_via_allocatorINS9_18no_throw_allocatorINS9_19temporary_allocatorI12storeElementNS8_8cuda_cub3tagEEEEEEENS8_7pointerISE_SG_NS8_11use_defaultESL_EEEEEEvT0_T1_
	<0x1>
	Attribute:	EIATTR_SW_WAR
	Format:	EIFMT_SVAL
	Value:	0x1 
	<0x2>
	Attribute:	EIATTR_CUDA_API_VERSION
	Format:	EIFMT_SVAL
	Value:	0x7d 
	<0x3>
	Attribute:	EIATTR_PARAM_CBANK
	Format:	EIFMT_SVAL
	Value:	0x1b 0x180160 
	<0x4>
	Attribute:	EIATTR_CBANK_PARAM_SIZE
	Format:	EIFMT_HVAL
	Value:	0x18
	<0x5>
	Attribute:	EIATTR_KPARAM_INFO
	Format:	EIFMT_SVAL
	Value:	Index : 0x0	Ordinal : 0x1	Offset  : 0x8	Size    : 0x10
		Pointee's logAlignment : 0x0	Space : 0x0	cbank : 0x1f	Parameter Space : CBANK	
	<0x6>
	Attribute:	EIATTR_KPARAM_INFO
	Format:	EIFMT_SVAL
	Value:	Index : 0x0	Ordinal : 0x0	Offset  : 0x0	Size    : 0x8
		Pointee's logAlignment : 0x0	Space : 0x0	cbank : 0x1f	Parameter Space : CBANK	
	<0x7>
	Attribute:	EIATTR_MAXREG_COUNT
	Format:	EIFMT_HVAL
	Value:	0xff
	<0x8>
	Attribute:	EIATTR_EXIT_INSTR_OFFSETS
	Format:	EIFMT_SVAL
	Value:	0x180 0x1c0 0x230 
	<0x9>
	Attribute:	EIATTR_MAX_THREADS
	Format:	EIFMT_SVAL
	Value:	0x100 0x1 0x1 


.nv.info._ZN3cub17CUB_200400_750_NS28DeviceReduceSingleTileKernelINS0_18DeviceReducePolicyI14kurtosisResulty18kurtosis_binary_opE9Policy600EPS3_S7_iS4_S3_S3_N4cuda3std3__410__identityEEEvT0_T1_T2_T3_T4_T6_
	<0x1>
	Attribute:	EIATTR_SW_WAR
	Format:	EIFMT_SVAL
	Value:	0x1 
	<0x2>
	Attribute:	EIATTR_CUDA_API_VERSION
	Format:	EIFMT_SVAL
	Value:	0x7d 
	<0x3>
	Attribute:	EIATTR_PARAM_CBANK
	Format:	EIFMT_SVAL
	Value:	0x1f 0x2d0160 
	<0x4>
	Attribute:	EIATTR_CBANK_PARAM_SIZE
	Format:	EIFMT_HVAL
	Value:	0x2d
	<0x5>
	Attribute:	EIATTR_KPARAM_INFO
	Format:	EIFMT_SVAL
	Value:	Index : 0x0	Ordinal : 0x5	Offset  : 0x2c	Size    : 0x1
		Pointee's logAlignment : 0x0	Space : 0x0	cbank : 0x1f	Parameter Space : CBANK	
	<0x6>
	Attribute:	EIATTR_KPARAM_INFO
	Format:	EIFMT_SVAL
	Value:	Index : 0x0	Ordinal : 0x4	Offset  : 0x18	Size    : 0x14
		Pointee's logAlignment : 0x0	Space : 0x0	cbank : 0x1f	Parameter Space : CBANK	
	<0x7>
	Attribute:	EIATTR_KPARAM_INFO
	Format:	EIFMT_SVAL
	Value:	Index : 0x0	Ordinal : 0x3	Offset  : 0x14	Size    : 0x1
		Pointee's logAlignment : 0x0	Space : 0x0	cbank : 0x1f	Parameter Space : CBANK	
	<0x8>
	Attribute:	EIATTR_KPARAM_INFO
	Format:	EIFMT_SVAL
	Value:	Index : 0x0	Ordinal : 0x2	Offset  : 0x10	Size    : 0x4
		Pointee's logAlignment : 0x0	Space : 0x0	cbank : 0x1f	Parameter Space : CBANK	
	<0x9>
	Attribute:	EIATTR_KPARAM_INFO
	Format:	EIFMT_SVAL
	Value:	Index : 0x0	Ordinal : 0x1	Offset  : 0x8	Size    : 0x8
		Pointee's logAlignment : 0x0	Space : 0x0	cbank : 0x1f	Parameter Space : CBANK	
	<0x10>
	Attribute:	EIATTR_KPARAM_INFO
	Format:	EIFMT_SVAL
	Value:	Index : 0x0	Ordinal : 0x0	Offset  : 0x0	Size    : 0x8
		Pointee's logAlignment : 0x0	Space : 0x0	cbank : 0x1f	Parameter Space : CBANK	
	<0x11>
	Attribute:	EIATTR_MAXREG_COUNT
	Format:	EIFMT_HVAL
	Value:	0xff
	<0x12>
	Attribute:	EIATTR_COOP_GROUP_MASK_REGIDS
	Format:	EIFMT_SVAL
	Value:	0xffffffff 0xffffffff 0xffffffff 0xffffffff 0xffffffff 0xffffffff 0xffffffff 0xffffffff 0xffffffff 0xffffffff 0xffffffff 0xffffffff 0xffffffff 0xffffffff 0xffffffff 0xffffffff 0xffffffff 0xffffffff 0xffffffff 0xffffffff 0xffffffff 0xffffffff 0xffffffff 0xffffffff 0xffffffff 0xffffffff 0xffffffff 0xffffffff 0xffffffff 0xffffffff 0xffffffff 0xffffffff 0xffffffff 0xffffffff 0xffffffff 0xffffffff 0xffffffff 0xffffffff 0xffffffff 0xffffffff 0xffffffff 0xffffffff 0xffffffff 0xffffffff 0xffffffff 0xffffffff 0xffffffff 0xffffffff 0xffffffff 0xffffffff 0xffffffff 0xffffffff 0xffffffff 0xffffffff 0xffffffff 0xffffffff 0xffffffff 0xffffffff 0xffffffff 0xffffffff 0xffffffff 0xffffffff 0xffffffff 0xffffffff 0xffffffff 0xffffffff 0xffffffff 0xffffffff 0xffffffff 0xffffffff 0xffffffff 0xffffffff 0xffffffff 0xffffffff 0xffffffff 
	<0x13>
	Attribute:	EIATTR_COOP_GROUP_INSTR_OFFSETS
	Format:	EIFMT_SVAL
	Value:	0x4090 0x40a0 0x40b0 0x40c0 0x40d0 0x4b20 0x4b40 0x4b50 0x4b60 0x4b70 0x55b0 0x55d0 0x55e0 0x55f0 0x5600 0x6040 0x6060 0x6070 0x6080 0x6090 0x6af0 0x6b00 0x6b10 0x6b20 0x6b30 0xca90 0xcaa0 0xcab0 0xcac0 0xcad0 0xd530 0xd560 0xd570 0xd580 0xd590 0xdff0 0xe020 0xe030 0xe040 0xe050 0xeab0 0xeae0 0xeaf0 0xeb00 0xeb10 0xf570 0xf5a0 0xf5b0 0xf5c0 0xf5d0 0x14ac0 0x14ae0 0x14af0 0x14b00 0x14b10 0x15570 0x15590 0x155a0 0x155b0 0x155c0 0x16020 0x16040 0x16050 0x16060 0x16070 0x16ad0 0x16af0 0x16b00 0x16b10 0x16b20 0x17580 0x175a0 0x175b0 0x175c0 0x175d0 
	<0x14>
	Attribute:	EIATTR_EXIT_INSTR_OFFSETS
	Format:	EIFMT_SVAL
	Value:	0x1c7a0 0x1d1f0 0x1d220 0x1d2e0 
	<0x15>
	Attribute:	EIATTR_MAX_THREADS
	Format:	EIFMT_SVAL
	Value:	0x100 0x1 0x1 
	<0x16>
	Attribute:	EIATTR_CRS_STACK_SIZE
	Format:	EIFMT_SVAL
	Value:	0x0 


.nv.info._ZN3cub17CUB_200400_750_NS18DeviceReduceKernelINS0_18DeviceReducePolicyI14kurtosisResulty18kurtosis_binary_opE9Policy600EN6thrust20THRUST_200400_750_NS10device_ptrI12storeElementEEyS4_S3_17kurtosis_unary_opISA_EEEvT0_PT3_T1_NS0_13GridEvenShareISH_EET2_T4_
	<0x1>
	Attribute:	EIATTR_SW_WAR
	Format:	EIFMT_SVAL
	Value:	0x1 
	<0x2>
	Attribute:	EIATTR_CUDA_API_VERSION
	Format:	EIFMT_SVAL
	Value:	0x7d 
	<0x3>
	Attribute:	EIATTR_PARAM_CBANK
	Format:	EIFMT_SVAL
	Value:	0x23 0x620160 
	<0x4>
	Attribute:	EIATTR_CBANK_PARAM_SIZE
	Format:	EIFMT_HVAL
	Value:	0x62
	<0x5>
	Attribute:	EIATTR_KPARAM_INFO
	Format:	EIFMT_SVAL
	Value:	Index : 0x0	Ordinal : 0x5	Offset  : 0x61	Size    : 0x1
		Pointee's logAlignment : 0x0	Space : 0x0	cbank : 0x1f	Parameter Space : CBANK	
	<0x6>
	Attribute:	EIATTR_KPARAM_INFO
	Format:	EIFMT_SVAL
	Value:	Index : 0x0	Ordinal : 0x4	Offset  : 0x60	Size    : 0x1
		Pointee's logAlignment : 0x0	Space : 0x0	cbank : 0x1f	Parameter Space : CBANK	
	<0x7>
	Attribute:	EIATTR_KPARAM_INFO
	Format:	EIFMT_SVAL
	Value:	Index : 0x0	Ordinal : 0x3	Offset  : 0x18	Size    : 0x48
		Pointee's logAlignment : 0x0	Space : 0x0	cbank : 0x1f	Parameter Space : CBANK	
	<0x8>
	Attribute:	EIATTR_KPARAM_INFO
	Format:	EIFMT_SVAL
	Value:	Index : 0x0	Ordinal : 0x2	Offset  : 0x10	Size    : 0x8
		Pointee's logAlignment : 0x0	Space : 0x0	cbank : 0x1f	Parameter Space : CBANK	
	<0x9>
	Attribute:	EIATTR_KPARAM_INFO
	Format:	EIFMT_SVAL
	Value:	Index : 0x0	Ordinal : 0x1	Offset  : 0x8	Size    : 0x8
		Pointee's logAlignment : 0x0	Space : 0x0	cbank : 0x1f	Parameter Space : CBANK	
	<0x10>
	Attribute:	EIATTR_KPARAM_INFO
	Format:	EIFMT_SVAL
	Value:	Index : 0x0	Ordinal : 0x0	Offset  : 0x0	Size    : 0x8
		Pointee's logAlignment : 0x0	Space : 0x0	cbank : 0x1f	Parameter Space : CBANK	
	<0x11>
	Attribute:	EIATTR_MAXREG_COUNT
	Format:	EIFMT_HVAL
	Value:	0xff
	<0x12>
	Attribute:	EIATTR_COOP_GROUP_MASK_REGIDS
	Format:	EIFMT_SVAL
	Value:	0xffffffff 0xffffffff 0xffffffff 0xffffffff 0xffffffff 0xffffffff 0xffffffff 0xffffffff 0xffffffff 0xffffffff 0xffffffff 0xffffffff 0xffffffff 0xffffffff 0xffffffff 0xffffffff 0xffffffff 0xffffffff 0xffffffff 0xffffffff 0xffffffff 0xffffffff 0xffffffff 0xffffffff 0xffffffff 0xffffffff 0xffffffff 0xffffffff 0xffffffff 0xffffffff 0xffffffff 0xffffffff 0xffffffff 0xffffffff 0xffffffff 0xffffffff 0xffffffff 0xffffffff 0xffffffff 0xffffffff 0xffffffff 0xffffffff 0xffffffff 0xffffffff 0xffffffff 0xffffffff 0xffffffff 0xffffffff 0xffffffff 0xffffffff 0xffffffff 0xffffffff 0xffffffff 0xffffffff 0xffffffff 0xffffffff 0xffffffff 0xffffffff 0xffffffff 0xffffffff 0xffffffff 0xffffffff 0xffffffff 0xffffffff 0xffffffff 0xffffffff 0xffffffff 0xffffffff 0xffffffff 0xffffffff 0xffffffff 0xffffffff 0xffffffff 0xffffffff 0xffffffff 
	<0x13>
	Attribute:	EIATTR_COOP_GROUP_INSTR_OFFSETS
	Format:	EIFMT_SVAL
	Value:	0x44d0 0x44e0 0x44f0 0x4500 0x4510 0x4ee0 0x4f00 0x4f10 0x4f20 0x4f30 0x58f0 0x5910 0x5920 0x5930 0x5940 0x6300 0x6320 0x6330 0x6340 0x6350 0x6d30 0x6d40 0x6d50 0x6d60 0x6d70 0xd9b0 0xd9c0 0xd9d0 0xd9e0 0xd9f0 0xe3b0 0xe3e0 0xe3f0 0xe400 0xe410 0xedd0 0xee00 0xee10 0xee20 0xee30 0xf7f0 0xf820 0xf830 0xf840 0xf850 0x10210 0x10240 0x10250 0x10260 0x10270 0x151d0 0x151f0 0x15200 0x15210 0x15220 0x15be0 0x15c00 0x15c10 0x15c20 0x15c30 0x165f0 0x16610 0x16620 0x16630 0x16640 0x17000 0x17020 0x17030 0x17040 0x17050 0x17a10 0x17a30 0x17a40 0x17a50 0x17a60 
	<0x14>
	Attribute:	EIATTR_EXIT_INSTR_OFFSETS
	Format:	EIFMT_SVAL
	Value:	0x1c7b0 0x1c850 
	<0x15>
	Attribute:	EIATTR_MAX_THREADS
	Format:	EIFMT_SVAL
	Value:	0x100 0x1 0x1 
	<0x16>
	Attribute:	EIATTR_CRS_STACK_SIZE
	Format:	EIFMT_SVAL
	Value:	0x0 


.nv.info._ZN3cub17CUB_200400_750_NS28DeviceReduceSingleTileKernelINS0_18DeviceReducePolicyI14kurtosisResulty18kurtosis_binary_opE9Policy600EN6thrust20THRUST_200400_750_NS10device_ptrI12storeElementEEPS3_yS4_S3_S3_17kurtosis_unary_opISA_EEEvT0_T1_T2_T3_T4_T6_
	<0x1>
	Attribute:	EIATTR_SW_WAR
	Format:	EIFMT_SVAL
	Value:	0x1 
	<0x2>
	Attribute:	EIATTR_CUDA_API_VERSION
	Format:	EIFMT_SVAL
	Value:	0x7d 
	<0x3>
	Attribute:	EIATTR_PARAM_CBANK
	Format:	EIFMT_SVAL
	Value:	0x27 0x310160 
	<0x4>
	Attribute:	EIATTR_CBANK_PARAM_SIZE
	Format:	EIFMT_HVAL
	Value:	0x31
	<0x5>
	Attribute:	EIATTR_KPARAM_INFO
	Format:	EIFMT_SVAL
	Value:	Index : 0x0	Ordinal : 0x5	Offset  : 0x30	Size    : 0x1
		Pointee's logAlignment : 0x0	Space : 0x0	cbank : 0x1f	Parameter Space : CBANK	
	<0x6>
	Attribute:	EIATTR_KPARAM_INFO
	Format:	EIFMT_SVAL
	Value:	Index : 0x0	Ordinal : 0x4	Offset  : 0x1c	Size    : 0x14
		Pointee's logAlignment : 0x0	Space : 0x0	cbank : 0x1f	Parameter Space : CBANK	
	<0x7>
	Attribute:	EIATTR_KPARAM_INFO
	Format:	EIFMT_SVAL
	Value:	Index : 0x0	Ordinal : 0x3	Offset  : 0x18	Size    : 0x1
		Pointee's logAlignment : 0x0	Space : 0x0	cbank : 0x1f	Parameter Space : CBANK	
	<0x8>
	Attribute:	EIATTR_KPARAM_INFO
	Format:	EIFMT_SVAL
	Value:	Index : 0x0	Ordinal : 0x2	Offset  : 0x10	Size    : 0x8
		Pointee's logAlignment : 0x0	Space : 0x0	cbank : 0x1f	Parameter Space : CBANK	
	<0x9>
	Attribute:	EIATTR_KPARAM_INFO
	Format:	EIFMT_SVAL
	Value:	Index : 0x0	Ordinal : 0x1	Offset  : 0x8	Size    : 0x8
		Pointee's logAlignment : 0x0	Space : 0x0	cbank : 0x1f	Parameter Space : CBANK	
	<0x10>
	Attribute:	EIATTR_KPARAM_INFO
	Format:	EIFMT_SVAL
	Value:	Index : 0x0	Ordinal : 0x0	Offset  : 0x0	Size    : 0x8
		Pointee's logAlignment : 0x0	Space : 0x0	cbank : 0x1f	Parameter Space : CBANK	
	<0x11>
	Attribute:	EIATTR_MAXREG_COUNT
	Format:	EIFMT_HVAL
	Value:	0xff
	<0x12>
	Attribute:	EIATTR_COOP_GROUP_MASK_REGIDS
	Format:	EIFMT_SVAL
	Value:	0xffffffff 0xffffffff 0xffffffff 0xffffffff 0xffffffff 0xffffffff 0xffffffff 0xffffffff 0xffffffff 0xffffffff 0xffffffff 0xffffffff 0xffffffff 0xffffffff 0xffffffff 0xffffffff 0xffffffff 0xffffffff 0xffffffff 0xffffffff 0xffffffff 0xffffffff 0xffffffff 0xffffffff 0xffffffff 0xffffffff 0xffffffff 0xffffffff 0xffffffff 0xffffffff 0xffffffff 0xffffffff 0xffffffff 0xffffffff 0xffffffff 0xffffffff 0xffffffff 0xffffffff 0xffffffff 0xffffffff 0xffffffff 0xffffffff 0xffffffff 0xffffffff 0xffffffff 0xffffffff 0xffffffff 0xffffffff 0xffffffff 0xffffffff 0xffffffff 0xffffffff 0xffffffff 0xffffffff 0xffffffff 0xffffffff 0xffffffff 0xffffffff 0xffffffff 0xffffffff 0xffffffff 0xffffffff 0xffffffff 0xffffffff 0xffffffff 0xffffffff 0xffffffff 0xffffffff 0xffffffff 0xffffffff 0xffffffff 0xffffffff 0xffffffff 0xffffffff 0xffffffff 
	<0x13>
	Attribute:	EIATTR_COOP_GROUP_INSTR_OFFSETS
	Format:	EIFMT_SVAL
	Value:	0x46a0 0x46b0 0x46c0 0x46d0 0x46e0 0x5100 0x5120 0x5130 0x5140 0x5150 0x5b60 0x5b80 0x5b90 0x5ba0 0x5bb0 0x65c0 0x65e0 0x65f0 0x6600 0x6610 0x7040 0x7050 0x7060 0x7070 0x7080 0xe100 0xe110 0xe120 0xe130 0xe140 0xeb80 0xebb0 0xebc0 0xebd0 0xebe0 0xf620 0xf650 0xf660 0xf670 0xf680 0x100c0 0x100f0 0x10100 0x10110 0x10120 0x10b60 0x10b90 0x10ba0 0x10bb0 0x10bc0 0x16040 0x16060 0x16070 0x16080 0x16090 0x16ab0 0x16ad0 0x16ae0 0x16af0 0x16b00 0x17520 0x17540 0x17550 0x17560 0x17570 0x17f90 0x17fb0 0x17fc0 0x17fd0 0x17fe0 0x18a00 0x18a20 0x18a30 0x18a40 0x18a50 
	<0x14>
	Attribute:	EIATTR_EXIT_INSTR_OFFSETS
	Format:	EIFMT_SVAL
	Value:	0x1db80 0x1e5c0 0x1e5f0 0x1e6b0 
	<0x15>
	Attribute:	EIATTR_MAX_THREADS
	Format:	EIFMT_SVAL
	Value:	0x100 0x1 0x1 
	<0x16>
	Attribute:	EIATTR_CRS_STACK_SIZE
	Format:	EIFMT_SVAL
	Value:	0x0 


.nv.info._ZN3cub17CUB_200400_750_NS28DeviceReduceSingleTileKernelINS0_18DeviceReducePolicyI14kurtosisResultj18kurtosis_binary_opE9Policy600EPS3_S7_iS4_S3_S3_N4cuda3std3__410__identityEEEvT0_T1_T2_T3_T4_T6_
	<0x1>
	Attribute:	EIATTR_SW_WAR
	Format:	EIFMT_SVAL
	Value:	0x1 
	<0x2>
	Attribute:	EIATTR_CUDA_API_VERSION
	Format:	EIFMT_SVAL
	Value:	0x7d 
	<0x3>
	Attribute:	EIATTR_PARAM_CBANK
	Format:	EIFMT_SVAL
	Value:	0x2b 0x2d0160 
	<0x4>
	Attribute:	EIATTR_CBANK_PARAM_SIZE
	Format:	EIFMT_HVAL
	Value:	0x2d
	<0x5>
	Attribute:	EIATTR_KPARAM_INFO
	Format:	EIFMT_SVAL
	Value:	Index : 0x0	Ordinal : 0x5	Offset  : 0x2c	Size    : 0x1
		Pointee's logAlignment : 0x0	Space : 0x0	cbank : 0x1f	Parameter Space : CBANK	
	<0x6>
	Attribute:	EIATTR_KPARAM_INFO
	Format:	EIFMT_SVAL
	Value:	Index : 0x0	Ordinal : 0x4	Offset  : 0x18	Size    : 0x14
		Pointee's logAlignment : 0x0	Space : 0x0	cbank : 0x1f	Parameter Space : CBANK	
	<0x7>
	Attribute:	EIATTR_KPARAM_INFO
	Format:	EIFMT_SVAL
	Value:	Index : 0x0	Ordinal : 0x3	Offset  : 0x14	Size    : 0x1
		Pointee's logAlignment : 0x0	Space : 0x0	cbank : 0x1f	Parameter Space : CBANK	
	<0x8>
	Attribute:	EIATTR_KPARAM_INFO
	Format:	EIFMT_SVAL
	Value:	Index : 0x0	Ordinal : 0x2	Offset  : 0x10	Size    : 0x4
		Pointee's logAlignment : 0x0	Space : 0x0	cbank : 0x1f	Parameter Space : CBANK	
	<0x9>
	Attribute:	EIATTR_KPARAM_INFO
	Format:	EIFMT_SVAL
	Value:	Index : 0x0	Ordinal : 0x1	Offset  : 0x8	Size    : 0x8
		Pointee's logAlignment : 0x0	Space : 0x0	cbank : 0x1f	Parameter Space : CBANK	
	<0x10>
	Attribute:	EIATTR_KPARAM_INFO
	Format:	EIFMT_SVAL
	Value:	Index : 0x0	Ordinal : 0x0	Offset  : 0x0	Size    : 0x8
		Pointee's logAlignment : 0x0	Space : 0x0	cbank : 0x1f	Parameter Space : CBANK	
	<0x11>
	Attribute:	EIATTR_MAXREG_COUNT
	Format:	EIFMT_HVAL
	Value:	0xff
	<0x12>
	Attribute:	EIATTR_COOP_GROUP_MASK_REGIDS
	Format:	EIFMT_SVAL
	Value:	0xffffffff 0xffffffff 0xffffffff 0xffffffff 0xffffffff 0xffffffff 0xffffffff 0xffffffff 0xffffffff 0xffffffff 0xffffffff 0xffffffff 0xffffffff 0xffffffff 0xffffffff 0xffffffff 0xffffffff 0xffffffff 0xffffffff 0xffffffff 0xffffffff 0xffffffff 0xffffffff 0xffffffff 0xffffffff 0xffffffff 0xffffffff 0xffffffff 0xffffffff 0xffffffff 0xffffffff 0xffffffff 0xffffffff 0xffffffff 0xffffffff 0xffffffff 0xffffffff 0xffffffff 0xffffffff 0xffffffff 0xffffffff 0xffffffff 0xffffffff 0xffffffff 0xffffffff 0xffffffff 0xffffffff 0xffffffff 0xffffffff 0xffffffff 0xffffffff 0xffffffff 0xffffffff 0xffffffff 0xffffffff 0xffffffff 0xffffffff 0xffffffff 0xffffffff 0xffffffff 0xffffffff 0xffffffff 0xffffffff 0xffffffff 0xffffffff 0xffffffff 0xffffffff 0xffffffff 0xffffffff 0xffffffff 0xffffffff 0xffffffff 0xffffffff 0xffffffff 0xffffffff 
	<0x13>
	Attribute:	EIATTR_COOP_GROUP_INSTR_OFFSETS
	Format:	EIFMT_SVAL
	Value:	0x4090 0x40a0 0x40b0 0x40c0 0x40d0 0x4b20 0x4b40 0x4b50 0x4b60 0x4b70 0x55b0 0x55d0 0x55e0 0x55f0 0x5600 0x6040 0x6060 0x6070 0x6080 0x6090 0x6af0 0x6b00 0x6b10 0x6b20 0x6b30 0xca90 0xcaa0 0xcab0 0xcac0 0xcad0 0xd530 0xd560 0xd570 0xd580 0xd590 0xdff0 0xe020 0xe030 0xe040 0xe050 0xeab0 0xeae0 0xeaf0 0xeb00 0xeb10 0xf570 0xf5a0 0xf5b0 0xf5c0 0xf5d0 0x14ac0 0x14ae0 0x14af0 0x14b00 0x14b10 0x15570 0x15590 0x155a0 0x155b0 0x155c0 0x16020 0x16040 0x16050 0x16060 0x16070 0x16ad0 0x16af0 0x16b00 0x16b10 0x16b20 0x17580 0x175a0 0x175b0 0x175c0 0x175d0 
	<0x14>
	Attribute:	EIATTR_EXIT_INSTR_OFFSETS
	Format:	EIFMT_SVAL
	Value:	0x1c7a0 0x1d1f0 0x1d220 0x1d2e0 
	<0x15>
	Attribute:	EIATTR_MAX_THREADS
	Format:	EIFMT_SVAL
	Value:	0x100 0x1 0x1 
	<0x16>
	Attribute:	EIATTR_CRS_STACK_SIZE
	Format:	EIFMT_SVAL
	Value:	0x0 


.nv.info._ZN3cub17CUB_200400_750_NS18DeviceReduceKernelINS0_18DeviceReducePolicyI14kurtosisResultj18kurtosis_binary_opE9Policy600EN6thrust20THRUST_200400_750_NS10device_ptrI12storeElementEEjS4_S3_17kurtosis_unary_opISA_EEEvT0_PT3_T1_NS0_13GridEvenShareISH_EET2_T4_
	<0x1>
	Attribute:	EIATTR_SW_WAR
	Format:	EIFMT_SVAL
	Value:	0x1 
	<0x2>
	Attribute:	EIATTR_CUDA_API_VERSION
	Format:	EIFMT_SVAL
	Value:	0x7d 
	<0x3>
	Attribute:	EIATTR_PARAM_CBANK
	Format:	EIFMT_SVAL
	Value:	0x2f 0x3e0160 
	<0x4>
	Attribute:	EIATTR_CBANK_PARAM_SIZE
	Format:	EIFMT_HVAL
	Value:	0x3e
	<0x5>
	Attribute:	EIATTR_KPARAM_INFO
	Format:	EIFMT_SVAL
	Value:	Index : 0x0	Ordinal : 0x5	Offset  : 0x3d	Size    : 0x1
		Pointee's logAlignment : 0x0	Space : 0x0	cbank : 0x1f	Parameter Space : CBANK	
	<0x6>
	Attribute:	EIATTR_KPARAM_INFO
	Format:	EIFMT_SVAL
	Value:	Index : 0x0	Ordinal : 0x4	Offset  : 0x3c	Size    : 0x1
		Pointee's logAlignment : 0x0	Space : 0x0	cbank : 0x1f	Parameter Space : CBANK	
	<0x7>
	Attribute:	EIATTR_KPARAM_INFO
	Format:	EIFMT_SVAL
	Value:	Index : 0x0	Ordinal : 0x3	Offset  : 0x14	Size    : 0x28
		Pointee's logAlignment : 0x0	Space : 0x0	cbank : 0x1f	Parameter Space : CBANK	
	<0x8>
	Attribute:	EIATTR_KPARAM_INFO
	Format:	EIFMT_SVAL
	Value:	Index : 0x0	Ordinal : 0x2	Offset  : 0x10	Size    : 0x4
		Pointee's logAlignment : 0x0	Space : 0x0	cbank : 0x1f	Parameter Space : CBANK	
	<0x9>
	Attribute:	EIATTR_KPARAM_INFO
	Format:	EIFMT_SVAL
	Value:	Index : 0x0	Ordinal : 0x1	Offset  : 0x8	Size    : 0x8
		Pointee's logAlignment : 0x0	Space : 0x0	cbank : 0x1f	Parameter Space : CBANK	
	<0x10>
	Attribute:	EIATTR_KPARAM_INFO
	Format:	EIFMT_SVAL
	Value:	Index : 0x0	Ordinal : 0x0	Offset  : 0x0	Size    : 0x8
		Pointee's logAlignment : 0x0	Space : 0x0	cbank : 0x1f	Parameter Space : CBANK	
	<0x11>
	Attribute:	EIATTR_MAXREG_COUNT
	Format:	EIFMT_HVAL
	Value:	0xff
	<0x12>
	Attribute:	EIATTR_COOP_GROUP_MASK_REGIDS
	Format:	EIFMT_SVAL
	Value:	0xffffffff 0xffffffff 0xffffffff 0xffffffff 0xffffffff 0xffffffff 0xffffffff 0xffffffff 0xffffffff 0xffffffff 0xffffffff 0xffffffff 0xffffffff 0xffffffff 0xffffffff 0xffffffff 0xffffffff 0xffffffff 0xffffffff 0xffffffff 0xffffffff 0xffffffff 0xffffffff 0xffffffff 0xffffffff 0xffffffff 0xffffffff 0xffffffff 0xffffffff 0xffffffff 0xffffffff 0xffffffff 0xffffffff 0xffffffff 0xffffffff 0xffffffff 0xffffffff 0xffffffff 0xffffffff 0xffffffff 0xffffffff 0xffffffff 0xffffffff 0xffffffff 0xffffffff 0xffffffff 0xffffffff 0xffffffff 0xffffffff 0xffffffff 0xffffffff 0xffffffff 0xffffffff 0xffffffff 0xffffffff 0xffffffff 0xffffffff 0xffffffff 0xffffffff 0xffffffff 0xffffffff 0xffffffff 0xffffffff 0xffffffff 0xffffffff 0xffffffff 0xffffffff 0xffffffff 0xffffffff 0xffffffff 0xffffffff 0xffffffff 0xffffffff 0xffffffff 0xffffffff 
	<0x13>
	Attribute:	EIATTR_COOP_GROUP_INSTR_OFFSETS
	Format:	EIFMT_SVAL
	Value:	0x4380 0x4390 0x43a0 0x43b0 0x43c0 0x4d90 0x4db0 0x4dc0 0x4dd0 0x4de0 0x57a0 0x57c0 0x57d0 0x57e0 0x57f0 0x61b0 0x61d0 0x61e0 0x61f0 0x6200 0x6be0 0x6bf0 0x6c00 0x6c10 0x6c20 0xd800 0xd810 0xd820 0xd830 0xd840 0xe210 0xe240 0xe250 0xe260 0xe270 0xec40 0xec70 0xec80 0xec90 0xeca0 0xf670 0xf6a0 0xf6b0 0xf6c0 0xf6d0 0x100a0 0x100d0 0x100e0 0x100f0 0x10100 0x15150 0x15170 0x15180 0x15190 0x151a0 0x15b70 0x15b90 0x15ba0 0x15bb0 0x15bc0 0x16590 0x165b0 0x165c0 0x165d0 0x165e0 0x16fb0 0x16fd0 0x16fe0 0x16ff0 0x17000 0x179d0 0x179f0 0x17a00 0x17a10 0x17a20 
	<0x14>
	Attribute:	EIATTR_EXIT_INSTR_OFFSETS
	Format:	EIFMT_SVAL
	Value:	0x1c7c0 0x1c860 
	<0x15>
	Attribute:	EIATTR_MAX_THREADS
	Format:	EIFMT_SVAL
	Value:	0x100 0x1 0x1 
	<0x16>
	Attribute:	EIATTR_CRS_STACK_SIZE
	Format:	EIFMT_SVAL
	Value:	0x0 


.nv.info._ZN3cub17CUB_200400_750_NS28DeviceReduceSingleTileKernelINS0_18DeviceReducePolicyI14kurtosisResultj18kurtosis_binary_opE9Policy600EN6thrust20THRUST_200400_750_NS10device_ptrI12storeElementEEPS3_jS4_S3_S3_17kurtosis_unary_opISA_EEEvT0_T1_T2_T3_T4_T6_
	<0x1>
	Attribute:	EIATTR_SW_WAR
	Format:	EIFMT_SVAL
	Value:	0x1 
	<0x2>
	Attribute:	EIATTR_CUDA_API_VERSION
	Format:	EIFMT_SVAL
	Value:	0x7d 
	<0x3>
	Attribute:	EIATTR_PARAM_CBANK
	Format:	EIFMT_SVAL
	Value:	0x33 0x2d0160 
	<0x4>
	Attribute:	EIATTR_CBANK_PARAM_SIZE
	Format:	EIFMT_HVAL
	Value:	0x2d
	<0x5>
	Attribute:	EIATTR_KPARAM_INFO
	Format:	EIFMT_SVAL
	Value:	Index : 0x0	Ordinal : 0x5	Offset  : 0x2c	Size    : 0x1
		Pointee's logAlignment : 0x0	Space : 0x0	cbank : 0x1f	Parameter Space : CBANK	
	<0x6>
	Attribute:	EIATTR_KPARAM_INFO
	Format:	EIFMT_SVAL
	Value:	Index : 0x0	Ordinal : 0x4	Offset  : 0x18	Size    : 0x14
		Pointee's logAlignment : 0x0	Space : 0x0	cbank : 0x1f	Parameter Space : CBANK	
	<0x7>
	Attribute:	EIATTR_KPARAM_INFO
	Format:	EIFMT_SVAL
	Value:	Index : 0x0	Ordinal : 0x3	Offset  : 0x14	Size    : 0x1
		Pointee's logAlignment : 0x0	Space : 0x0	cbank : 0x1f	Parameter Space : CBANK	
	<0x8>
	Attribute:	EIATTR_KPARAM_INFO
	Format:	EIFMT_SVAL
	Value:	Index : 0x0	Ordinal : 0x2	Offset  : 0x10	Size    : 0x4
		Pointee's logAlignment : 0x0	Space : 0x0	cbank : 0x1f	Parameter Space : CBANK	
	<0x9>
	Attribute:	EIATTR_KPARAM_INFO
	Format:	EIFMT_SVAL
	Value:	Index : 0x0	Ordinal : 0x1	Offset  : 0x8	Size    : 0x8
		Pointee's logAlignment : 0x0	Space : 0x0	cbank : 0x1f	Parameter Space : CBANK	
	<0x10>
	Attribute:	EIATTR_KPARAM_INFO
	Format:	EIFMT_SVAL
	Value:	Index : 0x0	Ordinal : 0x0	Offset  : 0x0	Size    : 0x8
		Pointee's logAlignment : 0x0	Space : 0x0	cbank : 0x1f	Parameter Space : CBANK	
	<0x11>
	Attribute:	EIATTR_MAXREG_COUNT
	Format:	EIFMT_HVAL
	Value:	0xff
	<0x12>
	Attribute:	EIATTR_COOP_GROUP_MASK_REGIDS
	Format:	EIFMT_SVAL
	Value:	0xffffffff 0xffffffff 0xffffffff 0xffffffff 0xffffffff 0xffffffff 0xffffffff 0xffffffff 0xffffffff 0xffffffff 0xffffffff 0xffffffff 0xffffffff 0xffffffff 0xffffffff 0xffffffff 0xffffffff 0xffffffff 0xffffffff 0xffffffff 0xffffffff 0xffffffff 0xffffffff 0xffffffff 0xffffffff 0xffffffff 0xffffffff 0xffffffff 0xffffffff 0xffffffff 0xffffffff 0xffffffff 0xffffffff 0xffffffff 0xffffffff 0xffffffff 0xffffffff 0xffffffff 0xffffffff 0xffffffff 0xffffffff 0xffffffff 0xffffffff 0xffffffff 0xffffffff 0xffffffff 0xffffffff 0xffffffff 0xffffffff 0xffffffff 0xffffffff 0xffffffff 0xffffffff 0xffffffff 0xffffffff 0xffffffff 0xffffffff 0xffffffff 0xffffffff 0xffffffff 0xffffffff 0xffffffff 0xffffffff 0xffffffff 0xffffffff 0xffffffff 0xffffffff 0xffffffff 0xffffffff 0xffffffff 0xffffffff 0xffffffff 0xffffffff 0xffffffff 0xffffffff 
	<0x13>
	Attribute:	EIATTR_COOP_GROUP_INSTR_OFFSETS
	Format:	EIFMT_SVAL
	Value:	0x45e0 0x45f0 0x4600 0x4610 0x4620 0x5050 0x5070 0x5080 0x5090 0x50a0 0x5ac0 0x5ae0 0x5af0 0x5b00 0x5b10 0x6530 0x6550 0x6560 0x6570 0x6580 0x6fc0 0x6fd0 0x6fe0 0x6ff0 0x7000 0xe0d0 0xe0e0 0xe0f0 0xe100 0xe110 0xeb50 0xeb80 0xeb90 0xeba0 0xebb0 0xf5f0 0xf620 0xf630 0xf640 0xf650 0x10090 0x100c0 0x100d0 0x100e0 0x100f0 0x10b30 0x10b60 0x10b70 0x10b80 0x10b90 0x16000 0x16020 0x16030 0x16040 0x16050 0x16a90 0x16ab0 0x16ac0 0x16ad0 0x16ae0 0x17520 0x17540 0x17550 0x17560 0x17570 0x17fb0 0x17fd0 0x17fe0 0x17ff0 0x18000 0x18a40 0x18a60 0x18a70 0x18a80 0x18a90 
	<0x14>
	Attribute:	EIATTR_EXIT_INSTR_OFFSETS
	Format:	EIFMT_SVAL
	Value:	0x1dc30 0x1e680 0x1e6b0 0x1e770 
	<0x15>
	Attribute:	EIATTR_MAX_THREADS
	Format:	EIFMT_SVAL
	Value:	0x100 0x1 0x1 
	<0x16>
	Attribute:	EIATTR_CRS_STACK_SIZE
	Format:	EIFMT_SVAL
	Value:	0x0 


.nv.info._ZN3cub17CUB_200400_750_NS11EmptyKernelIvEEvv
	<0x1>
	Attribute:	EIATTR_SW_WAR
	Format:	EIFMT_SVAL
	Value:	0x1 
	<0x2>
	Attribute:	EIATTR_CUDA_API_VERSION
	Format:	EIFMT_SVAL
	Value:	0x7d 
	<0x3>
	Attribute:	EIATTR_MAXREG_COUNT
	Format:	EIFMT_HVAL
	Value:	0xff
	<0x4>
	Attribute:	EIATTR_EXIT_INSTR_OFFSETS
	Format:	EIFMT_SVAL
	Value:	0x10 


.nv.callgraph
 <0,-1>
 <0,-2>
 <0,-3>
 <0,-4>


.nv.rel.action
Header : Base Relocation : R_CUDA_CONST_FIELD22_37
Reloc type : Symbol Kind,Addend Shift,Source Position1,length1,Destination Position1,Source Position2,length2,Destination Position2
R_CUDA_CONST_FIELD22_37 : EIVALUE_SYM_KIND_ADDR,0,0,17,37,0,5,54


.text._ZN3cub17CUB_200400_750_NS6detail8for_each13static_kernelINS2_12policy_hub_t12policy_350_tElN6thrust20THRUST_200400_750_NS8cuda_cub11__transform17unary_transform_fINS7_10device_ptrI12storeElementEEPSC_NS9_14no_stencil_tagENS7_8identityISC_EENS9_21always_true_predicateEEEEEvT0_T1_
bar = 0	reg = 20	lmem=0	smem=0
0xff017624 0x00000a00 0x078e00ff 0x000fe400
0x00027919 0x00000000 0x00002500 0x000e2200
0xff057424 0x00000018 0x078e00ff 0x000fc600
0x00077919 0x00000000 0x00002100 0x000e6200
0x02027825 0x00000200 0x078e00ff 0x001fca00
0x02067a10 0x00005800 0x07f1e1ff 0x040fe400
0x02047210 0x00000007 0x07f3e0ff 0x002fe400
0x03087a10 0x00005900 0x007fe5ff 0x000fe400
0x0600780c 0x000001ff 0x03f04070 0x000fe200
0xff007224 0x000000ff 0x008e0603 0x000fe400
0x04027625 0x00005a00 0x078e0005 0x000fe200
0x0800720c 0x000000ff 0x03f04300 0x000fc600
0x00097824 0x00000018 0x078e02ff 0x000fe400
0x04047625 0x00005c00 0x078e0005 0x000fc800
0x03037824 0x00000001 0x078e0209 0x000fe400
0x09057824 0x00000001 0x078e0205 0x000fe200
0x00000947 0x00000180 0x03800000 0x000fea00
0x07007810 0x00000100 0x07ffe0ff 0x000fe200
0x00ff7355 0x00000000 0x00100000 0x000fe200
0x0600720c 0x00000007 0x03f04070 0x040fe200
0x00007945 0x000000c0 0x03800000 0x000fe200
0xff077819 0x0000001f 0x00011406 0x000fe400
0x0600720c 0x00000000 0x03f24070 0x000fe400
0x0700720c 0x000000ff 0x03f04300 0x000fc400
0x0700720c 0x000000ff 0x03f24310 0x000fd400
0x00008947 0x00000060 0x03800000 0x000fea00
0x02087381 0x00000000 0x001eeb00 0x000ea800
0x04007386 0x00000008 0x0010eb00 0x0041e800
0x02067381 0x00000800 0x001eeb00 0x000ea800
0x04007386 0x00000806 0x0010eb00 0x0041e800
0x020b7381 0x00001000 0x001ee900 0x000ea800
0x04007386 0x0000100b 0x0010e900 0x0041e400
0x00007941 0x00000000 0x03800000 0x000fea00
0x0000994d 0x00000000 0x03800000 0x000fea00
0x02087381 0x00180000 0x001eeb00 0x001ea800
0x04007386 0x00180008 0x0010eb00 0x004fe800
0x02067381 0x00180800 0x001eeb00 0x000ea800
0x04007386 0x00180806 0x0010eb00 0x004fe800
0x020b7381 0x00181000 0x001ee900 0x000ea800
0x04007386 0x0018100b 0x0010e900 0x004fe200
0x0000794d 0x00000000 0x03800000 0x000fea00
0x020a7381 0x00000000 0x001eeb00 0x000ea800
0x04007386 0x0000000a 0x0010eb00 0x004fe800
0x02067381 0x00000800 0x001eeb00 0x000ea800
0x04007386 0x00000806 0x0010eb00 0x004fe800
0x020d7381 0x00001000 0x001ee900 0x000ea800
0x04007386 0x0000100d 0x0010e900 0x004fe800
0x020e7381 0x00180000 0x001eeb00 0x000ea800
0x04007386 0x0018000e 0x0010eb00 0x004fe800
0x02087381 0x00180800 0x001eeb00 0x000ea800
0x04007386 0x00180808 0x0010eb00 0x004fe800
0x02117381 0x00181000 0x001ee900 0x000ea800
0x04007386 0x00181011 0x0010e900 0x004fe200
0x0000794d 0x00000000 0x03800000 0x000fea00
0x00007947 0xfffffff0 0x0383ffff 0x000fc000
0x00007918 0x00000000 0x00000000 0x000fc000



.text._ZN3cub17CUB_200400_750_NS6detail8for_each13static_kernelINS2_12policy_hub_t12policy_350_tElN6thrust20THRUST_200400_750_NS8cuda_cub20__uninitialized_copy7functorINS7_10device_ptrI12storeElementEENS7_7pointerISC_NS8_3tagENS7_11use_defaultESG_EEEEEEvT0_T1_
bar = 0	reg = 20	lmem=0	smem=0
0xff017624 0x00000a00 0x078e00ff 0x000fe400
0x00027919 0x00000000 0x00002500 0x000e2200
0xff057424 0x00000018 0x078e00ff 0x000fc600
0x00077919 0x00000000 0x00002100 0x000e6200
0x02027825 0x00000200 0x078e00ff 0x001fca00
0x02067a10 0x00005800 0x07f1e1ff 0x040fe400
0x02047210 0x00000007 0x07f3e0ff 0x002fe400
0x03087a10 0x00005900 0x007fe5ff 0x000fe400
0x0600780c 0x000001ff 0x03f04070 0x000fe200
0xff007224 0x000000ff 0x008e0603 0x000fe400
0x04027625 0x00005a00 0x078e0005 0x000fe200
0x0800720c 0x000000ff 0x03f04300 0x000fc600
0x00097824 0x00000018 0x078e02ff 0x000fe400
0x04047625 0x00005c00 0x078e0005 0x000fc800
0x03037824 0x00000001 0x078e0209 0x000fe400
0x09057824 0x00000001 0x078e0205 0x000fe200
0x00000947 0x00000180 0x03800000 0x000fea00
0x07007810 0x00000100 0x07ffe0ff 0x000fe200
0x00ff7355 0x00000000 0x00100000 0x000fe200
0x0600720c 0x00000007 0x03f04070 0x040fe200
0x00007945 0x000000c0 0x03800000 0x000fe200
0xff077819 0x0000001f 0x00011406 0x000fe400
0x0600720c 0x00000000 0x03f24070 0x000fe400
0x0700720c 0x000000ff 0x03f04300 0x000fc400
0x0700720c 0x000000ff 0x03f24310 0x000fd400
0x00008947 0x00000060 0x03800000 0x000fea00
0x02087381 0x00000000 0x001eeb00 0x000ea800
0x04007386 0x00000008 0x0010eb00 0x0041e800
0x02067381 0x00000800 0x001eeb00 0x000ea800
0x04007386 0x00000806 0x0010eb00 0x0041e800
0x020b7381 0x00001000 0x001ee900 0x000ea800
0x04007386 0x0000100b 0x0010e900 0x0041e400
0x00007941 0x00000000 0x03800000 0x000fea00
0x0000994d 0x00000000 0x03800000 0x000fea00
0x02087381 0x00180000 0x001eeb00 0x001ea800
0x04007386 0x00180008 0x0010eb00 0x004fe800
0x02067381 0x00180800 0x001eeb00 0x000ea800
0x04007386 0x00180806 0x0010eb00 0x004fe800
0x020b7381 0x00181000 0x001ee900 0x000ea800
0x04007386 0x0018100b 0x0010e900 0x004fe200
0x0000794d 0x00000000 0x03800000 0x000fea00
0x020a7381 0x00000000 0x001eeb00 0x000ea800
0x04007386 0x0000000a 0x0010eb00 0x004fe800
0x02067381 0x00000800 0x001eeb00 0x000ea800
0x04007386 0x00000806 0x0010eb00 0x004fe800
0x020d7381 0x00001000 0x001ee900 0x000ea800
0x04007386 0x0000100d 0x0010e900 0x004fe800
0x020e7381 0x00180000 0x001eeb00 0x000ea800
0x04007386 0x0018000e 0x0010eb00 0x004fe800
0x02087381 0x00180800 0x001eeb00 0x000ea800
0x04007386 0x00180808 0x0010eb00 0x004fe800
0x02117381 0x00181000 0x001ee900 0x000ea800
0x04007386 0x00181011 0x0010e900 0x004fe200
0x0000794d 0x00000000 0x03800000 0x000fea00
0x00007947 0xfffffff0 0x0383ffff 0x000fc000
0x00007918 0x00000000 0x00000000 0x000fc000



.text._ZN3cub17CUB_200400_750_NS6detail8for_each13static_kernelINS2_12policy_hub_t12policy_350_tElNS2_12op_wrapper_tIlN6thrust20THRUST_200400_750_NS6detail23allocator_traits_detail5gozerENS8_7pointerI12storeElementNS8_8cuda_cub3tagENS8_11use_defaultESG_EEEEEEvT0_T1_
bar = 0	reg = 4	lmem=0	smem=0
0x00017a02 0x00000a00 0x00000f00 0x000fc600
0x0000794d 0x00000000 0x03800000 0x000fea00
0x00007947 0xfffffff0 0x0383ffff 0x000fc000
0x00007918 0x00000000 0x00000000 0x000fc000
0x00007918 0x00000000 0x00000000 0x000fc000
0x00007918 0x00000000 0x00000000 0x000fc000
0x00007918 0x00000000 0x00000000 0x000fc000
0x00007918 0x00000000 0x00000000 0x000fc000



.text._ZN3cub17CUB_200400_750_NS6detail8for_each13static_kernelINS2_12policy_hub_t12policy_350_tEmNS2_12op_wrapper_tImN6thrust20THRUST_200400_750_NS6detail23allocator_traits_detail24construct1_via_allocatorINS9_18no_throw_allocatorINS9_19temporary_allocatorI12storeElementNS8_8cuda_cub3tagEEEEEEENS8_7pointerISE_SG_NS8_11use_defaultESL_EEEEEEvT0_T1_
bar = 0	reg = 12	lmem=0	smem=0
0xff017624 0x00000a00 0x078e00ff 0x000fe400
0x00027919 0x00000000 0x00002500 0x000e2200
0xff097424 0x00000018 0x078e00ff 0x000fc600
0x00057919 0x00000000 0x00002100 0x000e6200
0x02027825 0x00000200 0x078e00ff 0x001fca00
0x02067a10 0x00005800 0x07f1e1ff 0x040fe400
0x02007210 0x00000005 0x07f3e0ff 0x002fe400
0x03077a10 0x00005900 0x007fe5ff 0x000fe400
0x0600780c 0x000001ff 0x03f04070 0x000fe200
0xff047224 0x000000ff 0x008e0603 0x000fe400
0x00027625 0x00005a00 0x078e0009 0x000fe200
0x0700720c 0x000000ff 0x03f04100 0x000fc600
0x04097824 0x00000018 0x078e02ff 0x000fc800
0x03037824 0x00000001 0x078e0209 0x000fca00
0x00000947 0x000000e0 0x03800000 0x000fea00
0x0600720c 0x00000005 0x03f04070 0x000fe400
0xff047819 0x0000001f 0x00011406 0x000fe400
0x05007810 0x00000100 0x07ffe0ff 0x000fe400
0x0400720c 0x000000ff 0x03f04100 0x000fd800
0x02000386 0x000000ff 0x0010eb00 0x0001e800
0x02000386 0x000008ff 0x0010eb00 0x0001e800
0x02000386 0x000010ff 0x0010e900 0x0001e200
0x0600720c 0x00000000 0x03f04070 0x000fc800
0x0400720c 0x000000ff 0x03f04100 0x000fd800
0x0000894d 0x00000000 0x03800000 0x000fea00
0x02007386 0x001800ff 0x0010eb00 0x001fe800
0x02007386 0x001808ff 0x0010eb00 0x000fe800
0x02007386 0x001810ff 0x0010e900 0x000fe200
0x0000794d 0x00000000 0x03800000 0x000fea00
0x02007386 0x000000ff 0x0010eb00 0x000fe800
0x02007386 0x000008ff 0x0010eb00 0x000fe800
0x02007386 0x000010ff 0x0010e900 0x000fe800
0x02007386 0x001800ff 0x0010eb00 0x000fe800
0x02007386 0x001808ff 0x0010eb00 0x000fe800
0x02007386 0x001810ff 0x0010e900 0x000fe200
0x0000794d 0x00000000 0x03800000 0x000fea00
0x00007947 0xfffffff0 0x0383ffff 0x000fc000
0x00007918 0x00000000 0x00000000 0x000fc000
0x00007918 0x00000000 0x00000000 0x000fc000
0x00007918 0x00000000 0x00000000 0x000fc000



.text._ZN3cub17CUB_200400_750_NS28DeviceReduceSingleTileKernelINS0_18DeviceReducePolicyI14kurtosisResulty18kurtosis_binary_opE9Policy600EPS3_S7_iS4_S3_S3_N4cuda3std3__410__identityEEEvT0_T1_T2_T3_T4_T6_
bar = 1	reg = 49	lmem=0	smem=188
0x00017a02 0x00000a00 0x00000f00 0x000fe400
0xff007a0c 0x00005c00 0x03f05270 0x000fd800
0x00008947 0x0001d1d0 0x03800000 0x000fea00
0x00007a02 0x00005c00 0x00000f00 0x000fe200
0x00ff7355 0x00000000 0x00100000 0x000fe200
0x00007945 0x0001c720 0x03800000 0x000fe400
0x0000780c 0x00000300 0x03f06270 0x000fd800
0x00008947 0x0000bcc0 0x03800000 0x000fea00
0x00027919 0x00000000 0x00002100 0x000e2200
0x00087802 0x00000014 0x00000f00 0x000fca00
0x02087625 0x00005800 0x078e0208 0x001fd000
0x08007381 0x00000000 0x001e6900 0x000ea800
0x08137381 0x00140000 0x001e6900 0x000ea800
0x08037381 0x00000400 0x001e6900 0x000ee800
0x08147381 0x00140400 0x001e6900 0x000ee800
0x08047381 0x00000800 0x001e6900 0x00016800
0x08057381 0x00000c00 0x001e6900 0x00016800
0x08077381 0x00001000 0x001e6900 0x00016800
0x08157381 0x00140800 0x001e6900 0x00016800
0x08167381 0x00140c00 0x001e6900 0x00016800
0x08177381 0x00141000 0x001e6900 0x00016800
0x08187381 0x00280000 0x001e6900 0x00016800
0x08197381 0x00280400 0x001e6900 0x00016800
0x081a7381 0x00280800 0x001e6900 0x00016800
0x08067381 0x00280c00 0x001e6900 0x00016800
0x081b7381 0x00281000 0x001e6900 0x00016200
0x03ff7355 0x00000000 0x00100000 0x000fe200
0x00037945 0x00000140 0x03800000 0x000fe200
0x000a7210 0x00000013 0x07ffe0ff 0x004fe200
0x00217306 0x00000013 0x00201400 0x000fe200
0x031e7221 0x00000014 0x00000100 0x008fce00
0x001c7306 0x0000000a 0x00201400 0x000e6200
0x1e1f7220 0x0000001e 0x00400000 0x000fc800
0x1e207220 0x0000001f 0x00400000 0x000fc600
0x000a7308 0x0000001c 0x00001000 0x002e6200
0x1c1d7220 0x0000001c 0x00400000 0x040fe400
0x1c0b7423 0x3f800000 0x0000010a 0x002fc800
0x0a0a7223 0x0000000b 0x0000000a 0x000fe400
0x1e0b7220 0x00000021 0x00400000 0x000fc800
0x0b0c7223 0x0000000a 0x000000ff 0x000fe400
0x0b007302 0x0000001c 0x00000000 0x000e6400
0x1c0d7223 0x0000000c 0x0000010b 0x000fc800
0x0a0c7223 0x0000000d 0x0000000c 0x000fe200
0x00008947 0x00000030 0x03800000 0x002fea00
0x000e7202 0x0000001c 0x00000f00 0x001fe400
0x000a7802 0x000002f0 0x00000f00 0x000fc600
0x00007944 0x0001d000 0x03c00000 0x020fea00
0x00037941 0x00000000 0x03800000 0x001fea00
0x00227306 0x00000000 0x00201400 0x000e2200
0x03ff7355 0x00000000 0x00100000 0x000fe200
0x00037945 0x00000110 0x03800000 0x000fe200
0x03247221 0x0000000c 0x00000000 0x000fca00
0x000a7308 0x0000001c 0x00001000 0x000e6200
0x1f1f7220 0x00000022 0x00400000 0x001fc800
0x210b7220 0x0000001f 0x00400000 0x000fe400
0x041f7221 0x00000015 0x00000000 0x020fe400
0x1c0d7423 0x3f800000 0x0000010a 0x002fe400
0x0b007302 0x0000001c 0x00000000 0x000e2400
0x0a0e7223 0x0000000d 0x0000000a 0x000fc800
0x0e0a7223 0x0000000b 0x000000ff 0x000fc800
0x1c0d7223 0x0000000a 0x0000010b 0x000fc800
0x0e0a7223 0x0000000d 0x0000000a 0x000fe200
0x00008947 0x00000040 0x03800000 0x001fea00
0x000e7202 0x0000001c 0x00000f00 0x000fe400
0x000a7802 0x00000420 0x00000f00 0x000fc600
0x00007944 0x0001ced0 0x03c00000 0x000fea00
0x000a7202 0x0000000c 0x00000f00 0x000fc600
0x00037941 0x00000000 0x03800000 0x000fea00
0x00237210 0x80000013 0x07ffe0ff 0x000fe200
0x000c7308 0x0000001d 0x00001000 0x000e2200
0x20207220 0x00000022 0x00400000 0x000fe200
0x03ff7355 0x00000000 0x00100000 0x000fe200
0x00037945 0x00000100 0x03800000 0x000fe400
0x21207220 0x00000020 0x00400000 0x000fc600
0x000b7306 0x00000023 0x00201400 0x000e6200
0x1d0d7423 0x3f800000 0x0000010c 0x001fc800
0x0c0d7223 0x0000000d 0x0000000c 0x000fe400
0x200b7220 0x0000000b 0x00400000 0x002fe400
0x1f207221 0x0000000a 0x00000000 0x000fe400
0x0b0c7223 0x0000000d 0x000000ff 0x000fe400
0x0b007302 0x0000001d 0x00000000 0x000e2200
0x051f7221 0x00000016 0x00000000 0x000fe400
0x1d0e7223 0x0000000c 0x0000010b 0x000fc800
0x0d0c7223 0x0000000e 0x0000000c 0x000fe200
0x00008947 0x00000030 0x03800000 0x001fea00
0x000e7202 0x0000001d 0x00000f00 0x000fe400
0x000a7802 0x00000580 0x00000f00 0x000fc600
0x00007944 0x0001cd70 0x03c00000 0x000fea00
0x00037941 0x00000000 0x03800000 0x000fea00
0x000d7308 0x0000001c 0x00001000 0x000e2200
0x040b7220 0x00000021 0x00400000 0x000fe200
0x000f7210 0x00000013 0x07ffe0ff 0x000fe200
0x1e0a7820 0x40400000 0x00400000 0x000fe200
0x03ff7355 0x00000000 0x00100000 0x000fe200
0x150b7223 0x00000022 0x0000080b 0x000fe200
0x00037945 0x00000150 0x03800000 0x000fe200
0x031d7221 0x00000014 0x00000100 0x000fe200
0x00267306 0x0000000f 0x00201400 0x000e6200
0x0a0b7220 0x0000000b 0x00400000 0x000fc400
0x1e1e7220 0x0000001e 0x00400000 0x000fe400
0x1c257220 0x0000001c 0x00400000 0x040fe400
0x1d147220 0x0000001e 0x00400000 0x000fe200
0x0b007302 0x0000001c 0x00000000 0x0002a200
0x1c0e7423 0x3f800000 0x0000010d 0x001fe400
0x1f1f7221 0x0000000c 0x00000000 0x000fe400
0x0d0e7223 0x0000000e 0x0000000d 0x000fc400
0x1d147220 0x00000014 0x00400000 0x000fe400
0x0e037223 0x0000000b 0x000000ff 0x000fc800
0x1c0a7223 0x00000003 0x0000010b 0x000fe400
0x261c7220 0x00000025 0x00400000 0x002fe400
0x0e037223 0x0000000a 0x00000003 0x000fe200
0x00008947 0x00000040 0x03800000 0x004fea00
0x000e7202 0x00000026 0x00000f00 0x000fe400
0x000a7802 0x00000730 0x00000f00 0x000fc600
0x00007944 0x0001cbc0 0x03c00000 0x000fea00
0x00037202 0x0000000c 0x00000f00 0x000fc600
0x00037941 0x00000000 0x03800000 0x000fea00
0x13137224 0x00000013 0x078e02ff 0x000fe200
0x000b7308 0x0000001c 0x00001000 0x000e2200
0x220a7220 0x00000014 0x00400000 0x000fe200
0x03ff7355 0x00000000 0x00100000 0x000fe200
0x00237224 0x00000023 0x078e0213 0x000fe200
0x00037945 0x00000110 0x03800000 0x000fe200
0x210a7220 0x0000000a 0x00400000 0x000fc400
0x1f1f7221 0x00000003 0x00000000 0x000fe400
0x00237306 0x00000023 0x00201400 0x000e6200
0x07077221 0x00000017 0x00000000 0x000fe400
0x0b0c7423 0x3f800000 0x0000081c 0x001fc800
0x0b0c7223 0x0000000c 0x0000000b 0x000fe400
0x0a0a7220 0x00000023 0x00400000 0x002fc800
0x0a0b7223 0x0000000c 0x000000ff 0x000fe400
0x0a007302 0x0000001c 0x00000000 0x000e2400
0x0b0d7223 0x8000001c 0x0000000a 0x000fc800
0x0c0c7223 0x0000000d 0x0000000b 0x000fe200
0x00008947 0x00000040 0x03800000 0x001fea00
0x000b7202 0x0000000a 0x00000f00 0x000fe400
0x000e7202 0x0000001c 0x00000f00 0x000fe400
0x000a7802 0x000008b0 0x00000f00 0x000fc600
0x00007944 0x0001ca40 0x03c00000 0x000fea00
0x00037941 0x00000000 0x03800000 0x000fea00
0x00007224 0x00000000 0x078e02ff 0x000fe200
0x00137306 0x00000013 0x00201400 0x000e2200
0x03ff7355 0x00000000 0x00100000 0x000fe200
0x00037945 0x00000140 0x03800000 0x000fe200
0x07077221 0x0000000c 0x00000000 0x000fca00
0x00037306 0x00000000 0x00201400 0x0002b000
0x000a7308 0x00000025 0x00001000 0x000ee200
0x04137220 0x00000013 0x00400000 0x001fe400
0x1e007820 0x40c00000 0x00400000 0x002fc400
0x15037223 0x00000003 0x00000013 0x004fc800
0x00007220 0x00000003 0x00400000 0x000fe400
0x25047423 0x3f800000 0x0000010a 0x008fc800
0x00007302 0x00000025 0x00000000 0x000e2200
0x0a0a7223 0x00000004 0x0000000a 0x000fc800
0x0a037223 0x00000000 0x000000ff 0x000fc800
0x25047223 0x00000003 0x00000100 0x000fc800
0x0a037223 0x00000004 0x00000003 0x000fe200
0x00008947 0x00000050 0x03800000 0x001fea00
0x000b7202 0x00000000 0x00000f00 0x000fe400
0x000e7202 0x00000025 0x00000f00 0x000fe400
0x000a7802 0x00000a20 0x00000f00 0x000fc600
0x00007944 0x0001c8d0 0x03c00000 0x000fea00
0x00037202 0x0000000c 0x00000f00 0x000fc600
0x00037941 0x00000000 0x03800000 0x000fea00
0x00047308 0x00000026 0x00001000 0x000e2200
0x05057220 0x00000021 0x00400000 0x000fe200
0x03ff7355 0x00000000 0x00100000 0x000fe200
0x1d007820 0x40800000 0x00400000 0x000fe200
0x00037945 0x00000110 0x03800000 0x000fe200
0x16057223 0x00000022 0x00000805 0x000fc400
0x07147221 0x00000003 0x00000000 0x000fe200
0x001c7305 0x00000026 0x0020f100 0x000fe200
0x00007220 0x00000005 0x00400000 0x000fce00
0x00007302 0x00000026 0x00000000 0x000e6200
0x260a7423 0x3f800000 0x00000104 0x001fc800
0x040a7223 0x0000000a 0x00000004 0x000fc800
0x0a047223 0x00000000 0x000000ff 0x000fc800
0x26057223 0x00000004 0x00000100 0x000fc800
0x0a047223 0x00000005 0x00000004 0x000fe200
0x00008947 0x00000050 0x03800000 0x002fea00
0x000b7202 0x00000000 0x00000f00 0x000fe400
0x000e7202 0x00000026 0x00000f00 0x000fe400
0x000a7802 0x00000b80 0x00000f00 0x000fc600
0x00007944 0x0001c770 0x03c00000 0x000fea00
0x00047202 0x0000000c 0x00000f00 0x000fc600
0x00037941 0x00000000 0x03800000 0x000fea00
0x18007210 0x0000001c 0x07ffe0ff 0x000fe200
0x00157306 0x00000018 0x00201400 0x000e2200
0x191d7221 0x80000024 0x00000000 0x000fe200
0x03ff7355 0x00000000 0x00100000 0x000fe200
0x00037945 0x00000160 0x03800000 0x000fe200
0x14197221 0x00000004 0x00000000 0x000fc400
0x1d1e7220 0x0000001d 0x00400000 0x040fe400
0x00077306 0x00000000 0x00201400 0x000e6400
0x1d217220 0x0000001e 0x00400000 0x000fc800
0x1d227220 0x00000021 0x00400000 0x040fe400
0x1d0b7220 0x00000015 0x00400000 0x001fe200
0x00007308 0x00000007 0x00001000 0x002e2200
0x07137220 0x00000007 0x00400000 0x000fc800
0x07147220 0x00000013 0x00400000 0x000fc600
0x0b007302 0x00000007 0x00000000 0x000e6200
0x07037423 0x3f800000 0x00000100 0x001fc800
0x00007223 0x00000003 0x00000000 0x000fc600
0x00037305 0x00000007 0x0020f100 0x0000a200
0x0b057223 0x00000000 0x000000ff 0x000fc800
0x070a7223 0x00000005 0x0000010b 0x000fc800
0x00007223 0x0000000a 0x00000005 0x000fe200
0x00008947 0x00000040 0x03800000 0x002fea00
0x000e7202 0x00000007 0x00000f00 0x001fe400
0x000a7802 0x00000d30 0x00000f00 0x000fc600
0x00007944 0x0001c5c0 0x03c00000 0x004fea00
0x00007202 0x0000000c 0x00000f00 0x000fc600
0x00037941 0x00000000 0x03800000 0x001fea00
0x00167306 0x0000001c 0x00201400 0x000e2200
0x03ff7355 0x00000000 0x00100000 0x000fe200
0x00037945 0x00000110 0x03800000 0x000fe200
0x24007221 0x00000000 0x00000000 0x000fe400
0x1a237221 0x00000020 0x00000000 0x000fc600
0x00057308 0x00000007 0x00001000 0x000e6200
0x1e047220 0x00000016 0x00400000 0x001fc800
0x150b7220 0x00000004 0x00400000 0x000fe400
0x070a7423 0x3f800000 0x00000105 0x002fc800
0x0b007302 0x00000007 0x00000000 0x000e2200
0x050a7223 0x0000000a 0x00000005 0x000fc800
0x0a047223 0x0000000b 0x000000ff 0x000fc800
0x07057223 0x00000004 0x0000010b 0x000fc800
0x0a057223 0x00000005 0x00000004 0x000fe200
0x00008947 0x00000040 0x03800000 0x001fea00
0x000e7202 0x00000007 0x00000f00 0x000fe400
0x000a7802 0x00000e70 0x00000f00 0x000fc600
0x00007944 0x0001c480 0x03c00000 0x004fea00
0x00057202 0x0000000c 0x00000f00 0x000fc600
0x00037941 0x00000000 0x03800000 0x000fea00
0x18177210 0x0000001c 0x07ffe1ff 0x000fe200
0x000b7308 0x00000013 0x00001000 0x000e2200
0x21047220 0x00000016 0x00400000 0x000fe200
0x03ff7355 0x00000000 0x00100000 0x000fe200
0x00037945 0x00000110 0x03800000 0x000fe200
0x23057221 0x00000005 0x00000000 0x000fe400
0x15047220 0x00000004 0x00400000 0x000fc400
0x000a7306 0x00000017 0x00201400 0x000e6200
0x06217221 0x0000001f 0x00000000 0x000fe400
0x130c7423 0x3f800000 0x0000010b 0x001fc800
0x0b0c7223 0x0000000c 0x0000000b 0x000fe400
0x040d7220 0x0000000a 0x00400000 0x002fc800
0x0d047223 0x0000000c 0x000000ff 0x000fe400
0x0d007302 0x00000013 0x00000000 0x000e2400
0x130a7223 0x00000004 0x0000010d 0x000fc800
0x0c0c7223 0x0000000a 0x00000004 0x000fe200
0x00008947 0x00000040 0x03800000 0x001fea00
0x000b7202 0x0000000d 0x00000f00 0x000fe400
0x000e7202 0x00000013 0x00000f00 0x000fe400
0x000a7802 0x00000fe0 0x00000f00 0x000fc600
0x00007944 0x0001c310 0x03c00000 0x004fea00
0x00037941 0x00000000 0x03800000 0x000fea00
0x000d7308 0x00000007 0x00001000 0x000e2200
0x200a7220 0x00000015 0x00400000 0x000fe200
0x03ff7355 0x00000000 0x00100000 0x000fe200
0x1d047820 0x40400000 0x00400000 0x000fe200
0x00037945 0x000000f0 0x03800000 0x000fe200
0x1a0a7223 0x00000016 0x0000080a 0x000fc400
0x21217221 0x0000000c 0x00000000 0x000fe400
0x040b7220 0x0000000a 0x00400000 0x000fcc00
0x0b007302 0x00000007 0x00000000 0x000e6200
0x070e7423 0x3f800000 0x0000010d 0x001fc800
0x0d0e7223 0x0000000e 0x0000000d 0x000fc800
0x0e047223 0x0000000b 0x000000ff 0x000fc800
0x070a7223 0x00000004 0x0000010b 0x000fc800
0x0e047223 0x0000000a 0x00000004 0x000fe200
0x00008947 0x00000040 0x03800000 0x002fea00
0x000e7202 0x00000007 0x00000f00 0x000fe400
0x000a7802 0x00001110 0x00000f00 0x000fc600
0x00007944 0x0001c1e0 0x03c00000 0x004fea00
0x00047202 0x0000000c 0x00000f00 0x000fc600
0x00037941 0x00000000 0x03800000 0x000fea00
0x18187224 0x00000018 0x078e02ff 0x000fe200
0x000b7308 0x00000014 0x00001000 0x000e2200
0x220a7220 0x00000016 0x00400000 0x000fe200
0x03ff7355 0x00000000 0x00100000 0x000fe200
0x17177224 0x0000001c 0x078e0218 0x000fe200
0x00037945 0x00000110 0x03800000 0x000fe200
0x150a7220 0x0000000a 0x00400000 0x000fe400
0x21047221 0x00000004 0x00000000 0x000fc400
0x00177306 0x00000017 0x00201400 0x000e6200
0x1b197221 0x00000019 0x00000000 0x000fe400
0x140c7423 0x3f800000 0x0000010b 0x001fc800
0x0b0c7223 0x0000000c 0x0000000b 0x000fe400
0x0a177220 0x00000017 0x00400000 0x002fc800
0x170a7223 0x0000000c 0x000000ff 0x000fe400
0x17007302 0x00000014 0x00000000 0x000e2400
0x140b7223 0x0000000a 0x00000117 0x000fc800
0x0c0c7223 0x0000000b 0x0000000a 0x000fe200
0x00008947 0x00000040 0x03800000 0x001fea00
0x000b7202 0x00000017 0x00000f00 0x000fe400
0x000e7202 0x00000014 0x00000f00 0x000fe400
0x000a7802 0x00001290 0x00000f00 0x000fc600
0x00007944 0x0001c060 0x03c00000 0x004fea00
0x00037941 0x00000000 0x03800000 0x000fea00
0x1c0a7224 0x0000001c 0x078e02ff 0x000fe200
0x00187306 0x00000018 0x00201400 0x000e2200
0x03ff7355 0x00000000 0x00100000 0x000fe200
0x00037945 0x00000140 0x03800000 0x000fe200
0x19197221 0x0000000c 0x00000000 0x000fca00
0x000b7306 0x0000000a 0x00201400 0x0002f000
0x000e7308 0x00000013 0x00001000 0x000f2200
0x20187220 0x00000018 0x00400000 0x001fe400
0x1e0a7820 0x40c00000 0x00400000 0x002fc400
0x1a0b7223 0x0000000b 0x00000018 0x008fc800
0x0a0d7220 0x0000000b 0x00400000 0x000fe400
0x130f7423 0x3f800000 0x0000010e 0x010fc800
0x0d007302 0x00000013 0x00000000 0x000e2200
0x0e0f7223 0x0000000f 0x0000000e 0x000fc800
0x0f0a7223 0x0000000d 0x000000ff 0x000fc800
0x130b7223 0x0000000a 0x0000010d 0x000fc800
0x0f0a7223 0x0000000b 0x0000000a 0x000fe200
0x00008947 0x00000050 0x03800000 0x001fea00
0x000b7202 0x0000000d 0x00000f00 0x000fe400
0x000e7202 0x00000013 0x00000f00 0x000fe400
0x000a7802 0x00001400 0x00000f00 0x000fc600
0x00007944 0x0001bef0 0x03c00000 0x004fea00
0x000a7202 0x0000000c 0x00000f00 0x000fc600
0x00037941 0x00000000 0x03800000 0x000fea00
0x000c7308 0x00000007 0x00001000 0x000e2200
0x1f157220 0x00000015 0x00400000 0x000fe200
0x03ff7355 0x00000000 0x00100000 0x000fe200
0x1d0b7820 0x40800000 0x00400000 0x000fe200
0x00037945 0x00000100 0x03800000 0x000fe200
0x06157223 0x00000016 0x00000815 0x000fc400
0x19197221 0x0000000a 0x00000000 0x000fe400
0x0b157220 0x00000015 0x00400000 0x000fcc00
0x15007302 0x00000007 0x00000000 0x000e6200
0x07067423 0x3f800000 0x0000010c 0x001fc800
0x0c0c7223 0x00000006 0x0000000c 0x000fc800
0x0c067223 0x00000015 0x000000ff 0x000fc800
0x070b7223 0x00000006 0x00000115 0x000fc800
0x0c067223 0x0000000b 0x00000006 0x000fe200
0x00008947 0x00000050 0x03800000 0x002fea00
0x000b7202 0x00000015 0x00000f00 0x000fe400
0x000e7202 0x00000007 0x00000f00 0x000fe400
0x000a7802 0x00001550 0x00000f00 0x000fc600
0x00007944 0x0001bda0 0x03c00000 0x004fea00
0x00067202 0x0000000c 0x00000f00 0x000fc600
0x00037941 0x00000000 0x03800000 0x000fea00
0x00077a02 0x00005c00 0x00000f00 0x000fe200
0x19067221 0x00000006 0x00000000 0x000fe200
0x00137802 0x00000300 0x00000f00 0x000fe400
0x0700780c 0x00000600 0x03f06270 0x000fd800
0x00008947 0x00001f00 0x03800000 0x000fea00
0x07077810 0xfffffd00 0x07ffe0ff 0x000fe400
0x00137802 0x00000300 0x00000f00 0x000fca00
0x130a7825 0x00000014 0x078e0208 0x000fd000
0x0a1a7381 0x00000000 0x001e6900 0x000ee800
0x0a0c7381 0x00000400 0x001e6900 0x000f2800
0x0a1b7381 0x00000800 0x001e6900 0x00016800
0x0a1c7381 0x00000c00 0x001e6900 0x00016800
0x0a1d7381 0x00001000 0x001e6900 0x00016800
0x0a1e7381 0x00140000 0x001e6900 0x00016800
0x0a1f7381 0x00140400 0x001e6900 0x00016800
0x0a207381 0x00140800 0x001e6900 0x00016800
0x0a197381 0x00140c00 0x001e6900 0x00016800
0x0a217381 0x00141000 0x001e6900 0x00016800
0x0a177381 0x00280000 0x001e6900 0x00016800
0x0a187381 0x00280400 0x001e6900 0x00016800
0x0a157381 0x00280800 0x001e6900 0x00016800
0x0a147381 0x00280c00 0x001e6900 0x00016800
0x0a167381 0x00281000 0x001e6900 0x00016200
0x03ff7355 0x00000000 0x00100000 0x000fe200
0x00037945 0x00000180 0x03800000 0x000fe200
0x1a0d7210 0x00000003 0x07ffe0ff 0x00cfe200
0x002a7306 0x0000001a 0x00201400 0x000e6200
0x0c257221 0x80000000 0x00000000 0x010fc800
0x25267220 0x00000025 0x00400000 0x000fc600
0x00227306 0x0000000d 0x00201400 0x00022200
0x25277220 0x00000026 0x00400000 0x000fc800
0x25287220 0x00000027 0x00400000 0x040fe400
0x250d7220 0x0000002a 0x00400000 0x002fe200
0x000a7308 0x00000022 0x00001000 0x001e2200
0x22237220 0x00000022 0x00400000 0x000fc800
0x22247220 0x00000023 0x00400000 0x000fc600
0x0d007302 0x00000022 0x00000000 0x000e6200
0x220b7423 0x3f800000 0x0000010a 0x001fce00
0x00297305 0x00000022 0x0020f100 0x0000a200
0x0a0b7223 0x0000000b 0x0000000a 0x000fc800
0x0d0a7223 0x0000000b 0x000000ff 0x000fc800
0x220c7223 0x0000000a 0x0000010d 0x000fc800
0x0b0c7223 0x0000000c 0x0000000a 0x000fe200
0x00008947 0x00000040 0x03800000 0x002fea00
0x000b7202 0x0000000d 0x00000f00 0x005fe400
0x000e7202 0x00000022 0x00000f00 0x000fe400
0x000a7802 0x00001870 0x00000f00 0x000fc600
0x00007944 0x0001ba80 0x03c00000 0x020fea00
0x00037941 0x00000000 0x03800000 0x005fea00
0x002d7306 0x00000003 0x00201400 0x000e2200
0x03ff7355 0x00000000 0x00100000 0x000fe200
0x00037945 0x00000120 0x03800000 0x000fe200
0x0c2b7221 0x00000000 0x00000000 0x000fe400
0x1b2c7221 0x00000005 0x00000000 0x020fc600
0x000b7308 0x00000022 0x00001000 0x000e6200
0x260a7220 0x0000002d 0x00400000 0x001fc800
0x2a0d7220 0x0000000a 0x00400000 0x000fe400
0x220e7423 0x3f800000 0x0000010b 0x002fc800
0x0d007302 0x00000022 0x00000000 0x000e2200
0x0b0e7223 0x0000000e 0x0000000b 0x000fc800
0x0e0a7223 0x0000000d 0x000000ff 0x000fc800
0x220b7223 0x0000000a 0x0000010d 0x000fc800
0x0e0a7223 0x0000000b 0x0000000a 0x000fe200
0x00008947 0x00000050 0x03800000 0x001fea00
0x000b7202 0x0000000d 0x00000f00 0x000fe400
0x000e7202 0x00000022 0x00000f00 0x000fe400
0x000a7802 0x000019b0 0x00000f00 0x000fc600
0x00007944 0x0001b940 0x03c00000 0x000fea00
0x000a7202 0x0000000c 0x00000f00 0x000fc600
0x00037941 0x00000000 0x03800000 0x000fea00
0x1a2e7210 0x00000003 0x07ffe1ff 0x000fe200
0x000c7308 0x00000023 0x00001000 0x000e2200
0x27007220 0x0000002d 0x00400000 0x000fe200
0x03ff7355 0x00000000 0x00100000 0x000fe200
0x00037945 0x00000120 0x03800000 0x000fe200
0x2c2c7221 0x0000000a 0x00000000 0x000fc400
0x2a007220 0x00000000 0x00400000 0x000fe400
0x000b7306 0x0000002e 0x00201400 0x000e6200
0x1c277221 0x00000004 0x00000000 0x000fe400
0x230d7423 0x3f800000 0x0000010c 0x001fc800
0x0c0d7223 0x0000000d 0x0000000c 0x000fe400
0x000e7220 0x0000000b 0x00400000 0x002fc800
0x0e007223 0x0000000d 0x000000ff 0x000fe400
0x0e007302 0x00000023 0x00000000 0x000e2400
0x230b7223 0x00000000 0x0000010e 0x000fc800
0x0d007223 0x0000000b 0x00000000 0x000fe200
0x00008947 0x00000050 0x03800000 0x001fea00
0x000b7202 0x0000000e 0x00000f00 0x000fe400
0x000e7202 0x00000023 0x00000f00 0x000fe400
0x000a7802 0x00001b20 0x00000f00 0x000fc600
0x00007944 0x0001b7d0 0x03c00000 0x000fea00
0x00007202 0x0000000c 0x00000f00 0x000fc600
0x00037941 0x00000000 0x03800000 0x000fea00
0x000d7308 0x00000022 0x00001000 0x000e2200
0x2a0b7220 0x00000005 0x00400000 0x000fe200
0x03ff7355 0x00000000 0x00100000 0x000fe200
0x250a7820 0x40400000 0x00400000 0x000fe200
0x00037945 0x00000100 0x03800000 0x000fe200
0x1b0b7223 0x0000002d 0x0000080b 0x000fc400
0x27277221 0x00000000 0x00000000 0x000fe400
0x0a0c7220 0x0000000b 0x00400000 0x000fcc00
0x0c007302 0x00000022 0x00000000 0x000e6200
0x220e7423 0x3f800000 0x0000010d 0x001fc800
0x0d0e7223 0x0000000e 0x0000000d 0x000fc800
0x0e0a7223 0x0000000c 0x000000ff 0x000fc800
0x220b7223 0x0000000a 0x0000010c 0x000fc800
0x0e0a7223 0x0000000b 0x0000000a 0x000fe200
0x00008947 0x00000050 0x03800000 0x002fea00
0x000b7202 0x0000000c 0x00000f00 0x000fe400
0x000e7202 0x00000022 0x00000f00 0x000fe400
0x000a7802 0x00001c70 0x00000f00 0x000fc600
0x00007944 0x0001b680 0x03c00000 0x000fea00
0x000a7202 0x0000000c 0x00000f00 0x000fc600
0x00037941 0x00000000 0x03800000 0x000fea00
0x1a1a7224 0x0000001a 0x078e02ff 0x000fe200
0x000c7308 0x00000024 0x00001000 0x000e2200
0x03ff7355 0x00000000 0x00100000 0x000fe200
0x00037945 0x00000140 0x03800000 0x000fe200
0x2e007224 0x00000003 0x078e021a 0x000fe400
0x27277221 0x0000000a 0x00000000 0x000fc400
0x1d1d7221 0x00000006 0x00000000 0x000fe400
0x000b7306 0x00000000 0x00201400 0x0002a200
0x240d7423 0x3f800000 0x0000010c 0x001fe400
0x28007220 0x0000002d 0x00400000 0x002fe400
0x0c0d7223 0x0000000d 0x0000000c 0x000fe400
0x2a007220 0x00000000 0x00400000 0x000fc800
0x000e7220 0x0000000b 0x00400000 0x004fc800
0x0e007223 0x0000000d 0x000000ff 0x000fe400
0x0e007302 0x00000024 0x00000000 0x000e2400
0x240b7223 0x00000000 0x0000010e 0x000fc800
0x0d007223 0x0000000b 0x00000000 0x000fe200
0x00008947 0x00000050 0x03800000 0x001fea00
0x000b7202 0x0000000e 0x00000f00 0x000fe400
0x000e7202 0x00000024 0x00000f00 0x000fe400
0x000a7802 0x00001df0 0x00000f00 0x000fc600
0x00007944 0x0001b500 0x03c00000 0x000fea00
0x00007202 0x0000000c 0x00000f00 0x000fc600
0x00037941 0x00000000 0x03800000 0x000fea00
0x03037224 0x00000003 0x078e02ff 0x000fe200
0x000a7306 0x0000001a 0x00201400 0x000e2200
0x03ff7355 0x00000000 0x00100000 0x000fe200
0x00037945 0x00000140 0x03800000 0x000fe200
0x1d1d7221 0x00000000 0x00000000 0x000fca00
0x00067306 0x00000003 0x00201400 0x0002b000
0x000b7308 0x00000023 0x00001000 0x000ee200
0x0a0a7220 0x00000005 0x00400000 0x001fe400
0x26037820 0x40c00000 0x00400000 0x002fc400
0x1b067223 0x00000006 0x0000000a 0x004fc800
0x03067220 0x00000006 0x00400000 0x000fe400
0x23057423 0x3f800000 0x0000010b 0x008fc800
0x06007302 0x00000023 0x00000000 0x000e2200
0x0b0b7223 0x00000005 0x0000000b 0x000fc800
0x0b037223 0x00000006 0x000000ff 0x000fc800
0x23057223 0x00000003 0x00000106 0x000fc800
0x0b037223 0x00000005 0x00000003 0x000fe200
0x00008947 0x00000050 0x03800000 0x001fea00
0x000b7202 0x00000006 0x00000f00 0x000fe400
0x000e7202 0x00000023 0x00000f00 0x000fe400
0x000a7802 0x00001f70 0x00000f00 0x000fc600
0x00007944 0x0001b380 0x03c00000 0x000fea00
0x00037202 0x0000000c 0x00000f00 0x000fc600
0x00037941 0x00000000 0x03800000 0x000fea00
0x00057308 0x00000022 0x00001000 0x000e2200
0x2a047220 0x00000004 0x00400000 0x000fe200
0x03ff7355 0x00000000 0x00100000 0x000fe200
0x25007820 0x40800000 0x00400000 0x000fe200
0x00037945 0x000000f0 0x03800000 0x000fe200
0x1c047223 0x0000002d 0x00000804 0x000fc400
0x1d1d7221 0x00000003 0x00000000 0x000fe400
0x000b7220 0x00000004 0x00400000 0x000fcc00
0x0b007302 0x00000022 0x00000000 0x000e6200
0x22067423 0x3f800000 0x00000105 0x001fc800
0x05067223 0x00000006 0x00000005 0x000fc800
0x06007223 0x0000000b 0x000000ff 0x000fc800
0x22047223 0x00000000 0x0000010b 0x000fc800
0x06007223 0x00000004 0x00000000 0x000fe200
0x00008947 0x00000040 0x03800000 0x002fea00
0x000e7202 0x00000022 0x00000f00 0x000fe400
0x000a7802 0x000020b0 0x00000f00 0x000fc600
0x00007944 0x0001b240 0x03c00000 0x000fea00
0x00007202 0x0000000c 0x00000f00 0x000fc600
0x00037941 0x00000000 0x03800000 0x000fea00
0x1e037210 0x00000029 0x07ffe0ff 0x000fe200
0x00257306 0x0000001e 0x00201400 0x000e2200
0x1f1f7221 0x8000002b 0x00000000 0x000fe200
0x03ff7355 0x00000000 0x00100000 0x000fe200
0x00037945 0x00000160 0x03800000 0x000fe200
0x1d1d7221 0x00000000 0x00000000 0x000fe400
0x1f227220 0x0000001f 0x00400000 0x000fc400
0x001a7306 0x00000003 0x00201400 0x000e6400
0x1f067220 0x00000022 0x00400000 0x000fc800
0x1f237220 0x00000006 0x00400000 0x040fe400
0x1f0b7220 0x00000025 0x00400000 0x001fe200
0x00037308 0x0000001a 0x00001000 0x002e2200
0x1a1b7220 0x0000001a 0x00400000 0x000fc800
0x1a1c7220 0x0000001b 0x00400000 0x000fc600
0x0b007302 0x0000001a 0x00000000 0x000e6200
0x1a047423 0x3f800000 0x00000103 0x001fce00
0x00247305 0x0000001a 0x0020f100 0x0000a200
0x03047223 0x00000004 0x00000003 0x000fc800
0x0b037223 0x00000004 0x000000ff 0x000fc800
0x1a057223 0x00000003 0x0000010b 0x000fc800
0x04037223 0x00000005 0x00000003 0x000fe200
0x00008947 0x00000040 0x03800000 0x002fea00
0x000e7202 0x0000001a 0x00000f00 0x005fe400
0x000a7802 0x00002260 0x00000f00 0x000fc600
0x00007944 0x0001b090 0x03c00000 0x000fea00
0x00037202 0x0000000c 0x00000f00 0x000fc600
0x00037941 0x00000000 0x03800000 0x005fea00
0x00287306 0x00000029 0x00201400 0x000e2200
0x03ff7355 0x00000000 0x00100000 0x000fe200
0x00037945 0x00000110 0x03800000 0x000fe200
0x2b2b7221 0x00000003 0x00000000 0x000fe400
0x20267221 0x0000002c 0x00000000 0x000fc600
0x00047308 0x0000001a 0x00001000 0x000e6200
0x22007220 0x00000028 0x00400000 0x001fc800
0x250b7220 0x00000000 0x00400000 0x000fe400
0x1a057423 0x3f800000 0x00000104 0x002fc800
0x0b007302 0x0000001a 0x00000000 0x000e2200
0x04057223 0x00000005 0x00000004 0x000fc800
0x05007223 0x0000000b 0x000000ff 0x000fc800
0x1a047223 0x00000000 0x0000010b 0x000fc800
0x05007223 0x00000004 0x00000000 0x000fe200
0x00008947 0x00000040 0x03800000 0x001fea00
0x000e7202 0x0000001a 0x00000f00 0x000fe400
0x000a7802 0x000023a0 0x00000f00 0x000fc600
0x00007944 0x0001af50 0x03c00000 0x000fea00
0x00007202 0x0000000c 0x00000f00 0x000fc600
0x00037941 0x00000000 0x03800000 0x000fea00
0x1e2a7210 0x00000029 0x07ffe1ff 0x000fe200
0x00057308 0x0000001b 0x00001000 0x000e2200
0x06037220 0x00000028 0x00400000 0x000fe200
0x03ff7355 0x00000000 0x00100000 0x000fe200
0x00037945 0x00000110 0x03800000 0x000fe200
0x26267221 0x00000000 0x00000000 0x000fe400
0x25037220 0x00000003 0x00400000 0x000fc400
0x00047306 0x0000002a 0x00201400 0x000e6200
0x1b067423 0x3f800000 0x00000105 0x001fc800
0x05067223 0x00000006 0x00000005 0x000fe400
0x19057221 0x00000027 0x00000000 0x000fe400
0x030b7220 0x00000004 0x00400000 0x002fc800
0x0b037223 0x00000006 0x000000ff 0x000fe400
0x0b007302 0x0000001b 0x00000000 0x000e2400
0x1b047223 0x00000003 0x0000010b 0x000fc800
0x06037223 0x00000004 0x00000003 0x000fe200
0x00008947 0x00000040 0x03800000 0x001fea00
0x000e7202 0x0000001b 0x00000f00 0x000fe400
0x000a7802 0x00002500 0x00000f00 0x000fc600
0x00007944 0x0001adf0 0x03c00000 0x000fea00
0x00037202 0x0000000c 0x00000f00 0x000fc600
0x00037941 0x00000000 0x03800000 0x000fea00
0x00067308 0x0000001a 0x00001000 0x000e2200
0x2c047220 0x00000025 0x00400000 0x000fe200
0x03ff7355 0x00000000 0x00100000 0x000fe200
0x1f007820 0x40400000 0x00400000 0x000fe200
0x00037945 0x000000f0 0x03800000 0x000fe200
0x20047223 0x00000028 0x00000804 0x000fe400
0x052d7221 0x00000003 0x00000000 0x000fc400
0x000b7220 0x00000004 0x00400000 0x000fcc00
0x0b007302 0x0000001a 0x00000000 0x000e6200
0x1a0a7423 0x3f800000 0x00000106 0x001fc800
0x060a7223 0x0000000a 0x00000006 0x000fc800
0x0a007223 0x0000000b 0x000000ff 0x000fc800
0x1a047223 0x00000000 0x0000010b 0x000fc800
0x0a007223 0x00000004 0x00000000 0x000fe200
0x00008947 0x00000040 0x03800000 0x002fea00
0x000e7202 0x0000001a 0x00000f00 0x000fe400
0x000a7802 0x00002640 0x00000f00 0x000fc600
0x00007944 0x0001acb0 0x03c00000 0x000fea00
0x00007202 0x0000000c 0x00000f00 0x000fc600
0x00037941 0x00000000 0x03800000 0x000fea00
0x1e1e7224 0x0000001e 0x078e02ff 0x000fe200
0x00057308 0x0000001c 0x00001000 0x000e2200
0x03ff7355 0x00000000 0x00100000 0x000fe200
0x00037945 0x00000130 0x03800000 0x000fe200
0x29037224 0x0000002a 0x078e021e 0x000fe400
0x2d2d7221 0x00000000 0x00000000 0x000fe400
0x211d7221 0x0000001d 0x00000000 0x000fc400
0x00047306 0x00000003 0x00201400 0x0002a200
0x1c067423 0x3f800000 0x00000105 0x001fe400
0x23037220 0x00000028 0x00400000 0x002fe400
0x05067223 0x00000006 0x00000005 0x000fe400
0x25037220 0x00000003 0x00400000 0x000fc800
0x030b7220 0x00000004 0x00400000 0x004fc800
0x0b037223 0x00000006 0x000000ff 0x000fe400
0x0b007302 0x0000001c 0x00000000 0x000e2400
0x1c047223 0x00000003 0x0000010b 0x000fc800
0x06037223 0x00000004 0x00000003 0x000fe200
0x00008947 0x00000040 0x03800000 0x001fea00
0x000e7202 0x0000001c 0x00000f00 0x000fe400
0x000a7802 0x000027b0 0x00000f00 0x000fc600
0x00007944 0x0001ab40 0x03c00000 0x000fea00
0x00037202 0x0000000c 0x00000f00 0x000fc600
0x00037941 0x00000000 0x03800000 0x000fea00
0x29007224 0x00000029 0x078e02ff 0x000fe200
0x00057306 0x0000001e 0x00201400 0x000e2200
0x03ff7355 0x00000000 0x00100000 0x000fe200
0x00037945 0x00000130 0x03800000 0x000fe200
0x1d1d7221 0x00000003 0x00000000 0x000fca00
0x00047306 0x00000000 0x00201400 0x0002b000
0x00067308 0x0000001b 0x00001000 0x000ee200
0x2c057220 0x00000005 0x00400000 0x001fe400
0x22007820 0x40c00000 0x00400000 0x002fc400
0x20047223 0x00000004 0x00000005 0x004fc800
0x000b7220 0x00000004 0x00400000 0x000fe400
0x1b057423 0x3f800000 0x00000106 0x008fc800
0x0b007302 0x0000001b 0x00000000 0x000e2200
0x06057223 0x00000005 0x00000006 0x000fc800
0x05007223 0x0000000b 0x000000ff 0x000fc800
0x1b047223 0x00000000 0x0000010b 0x000fc800
0x05007223 0x00000004 0x00000000 0x000fe200
0x00008947 0x00000040 0x03800000 0x001fea00
0x000e7202 0x0000001b 0x00000f00 0x000fe400
0x000a7802 0x00002920 0x00000f00 0x000fc600
0x00007944 0x0001a9d0 0x03c00000 0x000fea00
0x00007202 0x0000000c 0x00000f00 0x000fc600
0x00037941 0x00000000 0x03800000 0x000fea00
0x00057308 0x0000001a 0x00001000 0x000e2200
0x27047220 0x00000025 0x00400000 0x000fe200
0x03ff7355 0x00000000 0x00100000 0x000fe200
0x1f037820 0x40800000 0x00400000 0x000fe200
0x00037945 0x000000f0 0x03800000 0x000fe200
0x19047223 0x00000028 0x00000804 0x000fe400
0x1d1d7221 0x00000000 0x00000000 0x000fc400
0x030b7220 0x00000004 0x00400000 0x000fcc00
0x0b007302 0x0000001a 0x00000000 0x000e6200
0x1a067423 0x3f800000 0x00000105 0x001fc800
0x05067223 0x00000006 0x00000005 0x000fc800
0x06037223 0x0000000b 0x000000ff 0x000fc800
0x1a047223 0x00000003 0x0000010b 0x000fc800
0x06047223 0x00000004 0x00000003 0x000fe200
0x00008947 0x00000040 0x03800000 0x002fea00
0x000e7202 0x0000001a 0x00000f00 0x000fe400
0x000a7802 0x00002a60 0x00000f00 0x000fc600
0x00007944 0x0001a890 0x03c00000 0x000fea00
0x00047202 0x0000000c 0x00000f00 0x000fc600
0x00037941 0x00000000 0x03800000 0x000fea00
0x17007210 0x00000024 0x07ffe0ff 0x000fe200
0x00207306 0x00000017 0x00201400 0x000e2200
0x181b7221 0x8000002b 0x00000000 0x000fe200
0x03ff7355 0x00000000 0x00100000 0x000fe200
0x00037945 0x00000160 0x03800000 0x000fe200
0x1d1d7221 0x00000004 0x00000000 0x000fe400
0x1b1c7220 0x0000001b 0x00400000 0x000fc400
0x00197306 0x00000000 0x00201400 0x000e6400
0x1b1e7220 0x0000001c 0x00400000 0x000fc800
0x1b1f7220 0x0000001e 0x00400000 0x040fe400
0x1b0b7220 0x00000020 0x00400000 0x001fe200
0x00007308 0x00000019 0x00001000 0x002e2200
0x19187220 0x00000019 0x00400000 0x000fc800
0x191a7220 0x00000018 0x00400000 0x000fc600
0x0b007302 0x00000019 0x00000000 0x000e6200
0x19037423 0x3f800000 0x00000100 0x001fc800
0x00007223 0x00000003 0x00000000 0x000fc600
0x00037305 0x00000019 0x0020f100 0x0000a200
0x0b057223 0x00000000 0x000000ff 0x000fc800
0x19067223 0x00000005 0x0000010b 0x000fc800
0x00007223 0x00000006 0x00000005 0x000fe200
0x00008947 0x00000040 0x03800000 0x002fea00
0x000e7202 0x00000019 0x00000f00 0x001fe400
0x000a7802 0x00002c10 0x00000f00 0x000fc600
0x00007944 0x0001a6e0 0x03c00000 0x004fea00
0x00007202 0x0000000c 0x00000f00 0x000fc600
0x00037941 0x00000000 0x03800000 0x001fea00
0x00227306 0x00000024 0x00201400 0x000e2200
0x03ff7355 0x00000000 0x00100000 0x000fe200
0x00037945 0x00000110 0x03800000 0x000fe200
0x2b007221 0x00000000 0x00000000 0x000fe400
0x15217221 0x00000026 0x00000000 0x000fc600
0x00057308 0x00000019 0x00001000 0x000e6200
0x1c047220 0x00000022 0x00400000 0x001fc800
0x200b7220 0x00000004 0x00400000 0x000fe400
0x19067423 0x3f800000 0x00000105 0x002fc800
0x0b007302 0x00000019 0x00000000 0x000e2200
0x05067223 0x00000006 0x00000005 0x000fc800
0x06047223 0x0000000b 0x000000ff 0x000fc800
0x19057223 0x00000004 0x0000010b 0x000fc800
0x06057223 0x00000005 0x00000004 0x000fe200
0x00008947 0x00000040 0x03800000 0x001fea00
0x000e7202 0x00000019 0x00000f00 0x000fe400
0x000a7802 0x00002d50 0x00000f00 0x000fc600
0x00007944 0x0001a5a0 0x03c00000 0x004fea00
0x00057202 0x0000000c 0x00000f00 0x000fc600
0x00037941 0x00000000 0x03800000 0x000fea00
0x17237210 0x00000024 0x07ffe1ff 0x000fe200
0x000a7308 0x00000018 0x00001000 0x000e2200
0x1e047220 0x00000022 0x00400000 0x000fe200
0x03ff7355 0x00000000 0x00100000 0x000fe200
0x00037945 0x00000120 0x03800000 0x000fe200
0x21057221 0x00000005 0x00000000 0x000fe400
0x20047220 0x00000004 0x00400000 0x000fc400
0x00067306 0x00000023 0x00201400 0x000e6200
0x141e7221 0x0000002d 0x00000000 0x000fe400
0x180b7423 0x3f800000 0x0000010a 0x001fc800
0x0a0b7223 0x0000000b 0x0000000a 0x000fe400
0x040c7220 0x00000006 0x00400000 0x002fc800
0x0c047223 0x0000000b 0x000000ff 0x000fe400
0x0c007302 0x00000018 0x00000000 0x000e2400
0x18067223 0x00000004 0x0000010c 0x000fc800
0x0b047223 0x00000006 0x00000004 0x000fe200
0x00008947 0x00000050 0x03800000 0x001fea00
0x000b7202 0x0000000c 0x00000f00 0x000fe400
0x000e7202 0x00000018 0x00000f00 0x000fe400
0x000a7802 0x00002ec0 0x00000f00 0x000fc600
0x00007944 0x0001a430 0x03c00000 0x004fea00
0x00047202 0x0000000c 0x00000f00 0x000fc600
0x00037941 0x00000000 0x03800000 0x000fea00
0x000c7308 0x00000019 0x00001000 0x000e2200
0x260a7220 0x00000020 0x00400000 0x000fe200
0x03ff7355 0x00000000 0x00100000 0x000fe200
0x1b067820 0x40400000 0x00400000 0x000fe200
0x00037945 0x000000f0 0x03800000 0x000fe200
0x150a7223 0x00000022 0x0000080a 0x000fc400
0x1e1e7221 0x00000004 0x00000000 0x000fe400
0x060b7220 0x0000000a 0x00400000 0x000fcc00
0x0b007302 0x00000019 0x00000000 0x000e6200
0x190d7423 0x3f800000 0x0000010c 0x001fc800
0x0c0d7223 0x0000000d 0x0000000c 0x000fc800
0x0d067223 0x0000000b 0x000000ff 0x000fc800
0x190a7223 0x00000006 0x0000010b 0x000fc800
0x0d047223 0x0000000a 0x00000006 0x000fe200
0x00008947 0x00000040 0x03800000 0x002fea00
0x000e7202 0x00000019 0x00000f00 0x000fe400
0x000a7802 0x00003000 0x00000f00 0x000fc600
0x00007944 0x0001a2f0 0x03c00000 0x004fea00
0x00047202 0x0000000c 0x00000f00 0x000fc600
0x00037941 0x00000000 0x03800000 0x000fea00
0x17177224 0x00000017 0x078e02ff 0x000fe200
0x000b7308 0x0000001a 0x00001000 0x000e2200
0x03ff7355 0x00000000 0x00100000 0x000fe200
0x00037945 0x00000130 0x03800000 0x000fe200
0x24067224 0x00000023 0x078e0217 0x000fe400
0x1e047221 0x00000004 0x00000000 0x000fe400
0x16167221 0x0000001d 0x00000000 0x000fc400
0x000a7306 0x00000006 0x00201400 0x0002e200
0x1a0c7423 0x3f800000 0x0000010b 0x001fe400
0x1f067220 0x00000022 0x00400000 0x002fe400
0x0b0c7223 0x0000000c 0x0000000b 0x000fe400
0x20067220 0x00000006 0x00400000 0x000fc800
0x060d7220 0x0000000a 0x00400000 0x008fc800
0x0d067223 0x0000000c 0x000000ff 0x000fe400
0x0d007302 0x0000001a 0x00000000 0x000e2400
0x1a0a7223 0x00000006 0x0000010d 0x000fc800
0x0c0c7223 0x0000000a 0x00000006 0x000fe200
0x00008947 0x00000040 0x03800000 0x001fea00
0x000b7202 0x0000000d 0x00000f00 0x000fe400
0x000e7202 0x0000001a 0x00000f00 0x000fe400
0x000a7802 0x00003180 0x00000f00 0x000fc600
0x00007944 0x0001a170 0x03c00000 0x004fea00
0x00037941 0x00000000 0x03800000 0x000fea00
0x24067224 0x00000024 0x078e02ff 0x000fe200
0x000b7306 0x00000017 0x00201400 0x000e2200
0x03ff7355 0x00000000 0x00100000 0x000fe200
0x00037945 0x00000130 0x03800000 0x000fe200
0x16167221 0x0000000c 0x00000000 0x000fca00
0x000a7306 0x00000006 0x00201400 0x0002f000
0x000d7308 0x00000018 0x00001000 0x000f2200
0x260b7220 0x0000000b 0x00400000 0x001fe400
0x1c067820 0x40c00000 0x00400000 0x002fc400
0x150a7223 0x0000000a 0x0000000b 0x008fc800
0x060b7220 0x0000000a 0x00400000 0x000fe400
0x180e7423 0x3f800000 0x0000010d 0x010fc800
0x0b007302 0x00000018 0x00000000 0x000e2200
0x0d0e7223 0x0000000e 0x0000000d 0x000fc800
0x0e067223 0x0000000b 0x000000ff 0x000fc800
0x180a7223 0x00000006 0x0000010b 0x000fc800
0x0e067223 0x0000000a 0x00000006 0x000fe200
0x00008947 0x00000040 0x03800000 0x001fea00
0x000e7202 0x00000018 0x00000f00 0x000fe400
0x000a7802 0x000032e0 0x00000f00 0x000fc600
0x00007944 0x0001a010 0x03c00000 0x004fea00
0x00067202 0x0000000c 0x00000f00 0x000fc600
0x00037941 0x00000000 0x03800000 0x000fea00
0x000d7308 0x00000019 0x00001000 0x000e2200
0x2d0b7220 0x00000020 0x00400000 0x000fe200
0x03ff7355 0x00000000 0x00100000 0x000fe200
0x1b0a7820 0x40800000 0x00400000 0x000fe200
0x00037945 0x00000100 0x03800000 0x000fe200
0x140b7223 0x00000022 0x0000080b 0x000fe400
0x16167221 0x00000006 0x00000000 0x000fc400
0x0a0c7220 0x0000000b 0x00400000 0x000fcc00
0x0c007302 0x00000019 0x00000000 0x000e6200
0x190e7423 0x3f800000 0x0000010d 0x001fc800
0x0d0e7223 0x0000000e 0x0000000d 0x000fc800
0x0e0a7223 0x0000000c 0x000000ff 0x000fc800
0x190b7223 0x0000000a 0x0000010c 0x000fc800
0x0e067223 0x0000000b 0x0000000a 0x000fe200
0x00008947 0x00000050 0x03800000 0x002fea00
0x000b7202 0x0000000c 0x00000f00 0x000fe400
0x000e7202 0x00000019 0x00000f00 0x000fe400
0x000a7802 0x00003430 0x00000f00 0x000fc600
0x00007944 0x00019ec0 0x03c00000 0x004fea00
0x00067202 0x0000000c 0x00000f00 0x000fc600
0x00037941 0x00000000 0x03800000 0x000fea00
0x130a7a10 0x00005c00 0x07ffe1ff 0x000fe200
0x16067221 0x00000006 0x00000000 0x000fc600
0x0a00780c 0x00000300 0x03f06270 0x000fd800
0x00008947 0x00000bd0 0x03800000 0x000fea00
0x13137810 0x00000300 0x07ffe0ff 0x000fc800
0x1300720c 0x00000007 0x03f04270 0x000fd800
0x00008947 0xffffe120 0x0383ffff 0x000fea00
0x13007a0c 0x00005c00 0x03f06270 0x000fd800
0x00000947 0x00000b80 0x03800000 0x000fea00
0x13167a10 0x00005c00 0x07ffe1ff 0x000fe200
0x03ff7355 0x00000000 0x00100000 0x000fe200
0x00037945 0x00000b50 0x03800000 0x000fe400
0x0200720c 0x00000016 0x03f06270 0x000fd800
0x00000947 0x00000b20 0x03800000 0x000fea00
0x02087210 0x00000013 0x07ffe0ff 0x000fe400
0x00097802 0x00000014 0x00000f00 0x000fe400
0x00137202 0x00000003 0x00000f00 0x004fe400
0x00147202 0x00000005 0x00000f00 0x000fe200
0x08087625 0x00005800 0x078e0209 0x000fe200
0x00157202 0x00000004 0x00000f00 0x000fe400
0x00077202 0x00000002 0x00000f00 0x000fca00
0x08177381 0x00000000 0x001e6900 0x000ea800
0x08037381 0x00000400 0x001e6900 0x000ee800
0x08187381 0x00000800 0x001e6900 0x00016800
0x08197381 0x00000c00 0x001e6900 0x00016800
0x081a7381 0x00001000 0x001e6900 0x00016200
0x07077810 0x00000100 0x07ffe0ff 0x000fe200
0x04ff7355 0x00000000 0x00100000 0x000fe200
0x00047945 0x00000190 0x03800000 0x000fe400
0x0700720c 0x00000016 0x03f46270 0x000fc400
0x17047210 0x00000013 0x07ffe0ff 0x004fe200
0x00227306 0x00000017 0x00201400 0x000e6200
0x031e7221 0x80000000 0x00000000 0x008fc800
0x1e1f7220 0x0000001e 0x00400000 0x000fc600
0x001b7306 0x00000004 0x00201400 0x000ea200
0x1e207220 0x0000001f 0x00400000 0x000fc800
0x1e217220 0x00000020 0x00400000 0x040fe400
0x1e0b7220 0x00000022 0x00400000 0x002fe200
0x00047308 0x0000001b 0x00001000 0x004e6200
0x1b1c7220 0x0000001b 0x00400000 0x000fc800
0x1b1d7220 0x0000001c 0x00400000 0x000fc600
0x0b007302 0x0000001b 0x00000000 0x000ea200
0x1b057423 0x3f800000 0x00000104 0x002fce00
0x00037305 0x0000001b 0x0020f100 0x00006200
0x04057223 0x00000005 0x00000004 0x000fc800
0x0b047223 0x00000005 0x000000ff 0x000fc800
0x1b0a7223 0x00000004 0x0000010b 0x000fc800
0x05047223 0x0000000a 0x00000004 0x000fe200
0x00008947 0x00000040 0x03800000 0x004fea00
0x000e7202 0x0000001b 0x00000f00 0x003fe400
0x000a7802 0x00003790 0x00000f00 0x000fc600
0x00007944 0x00019b60 0x03c00000 0x020fea00
0x00047202 0x0000000c 0x00000f00 0x000fc600
0x00047941 0x00000000 0x03800000 0x003fea00
0x00247306 0x00000013 0x00201400 0x000e2200
0x04ff7355 0x00000000 0x00100000 0x000fe200
0x00047945 0x00000110 0x03800000 0x000fe200
0x04007221 0x00000000 0x00000000 0x000fe400
0x18237221 0x00000014 0x00000000 0x020fc600
0x000a7308 0x0000001b 0x00001000 0x000e6200
0x1f057220 0x00000024 0x00400000 0x001fc800
0x220b7220 0x00000005 0x00400000 0x000fe400
0x1b0c7423 0x3f800000 0x0000010a 0x002fc800
0x0b007302 0x0000001b 0x00000000 0x000e2200
0x0a0c7223 0x0000000c 0x0000000a 0x000fc800
0x0c057223 0x0000000b 0x000000ff 0x000fc800
0x1b0a7223 0x00000005 0x0000010b 0x000fc800
0x0c057223 0x0000000a 0x00000005 0x000fe200
0x00008947 0x00000040 0x03800000 0x001fea00
0x000e7202 0x0000001b 0x00000f00 0x000fe400
0x000a7802 0x000038d0 0x00000f00 0x000fc600
0x00007944 0x00019a20 0x03c00000 0x000fea00
0x00057202 0x0000000c 0x00000f00 0x000fc600
0x00047941 0x00000000 0x03800000 0x000fea00
0x17257210 0x00000013 0x07ffe1ff 0x000fe200
0x000b7308 0x0000001c 0x00001000 0x000e2200
0x20047220 0x00000024 0x00400000 0x000fe200
0x04ff7355 0x00000000 0x00100000 0x000fe200
0x00047945 0x00000110 0x03800000 0x000fe200
0x23057221 0x00000005 0x00000000 0x000fe400
0x22047220 0x00000004 0x00400000 0x000fc400
0x000a7306 0x00000025 0x00201400 0x000e6200
0x19207221 0x00000015 0x00000000 0x000fe400
0x1c0c7423 0x3f800000 0x0000010b 0x001fc800
0x0b0c7223 0x0000000c 0x0000000b 0x000fe400
0x040d7220 0x0000000a 0x00400000 0x002fc800
0x0d047223 0x0000000c 0x000000ff 0x000fe400
0x0d007302 0x0000001c 0x00000000 0x000e2400
0x1c0a7223 0x00000004 0x0000010d 0x000fc800
0x0c0c7223 0x0000000a 0x00000004 0x000fe200
0x00008947 0x00000040 0x03800000 0x001fea00
0x000b7202 0x0000000d 0x00000f00 0x000fe400
0x000e7202 0x0000001c 0x00000f00 0x000fe400
0x000a7802 0x00003a40 0x00000f00 0x000fc600
0x00007944 0x000198b0 0x03c00000 0x000fea00
0x00047941 0x00000000 0x03800000 0x000fea00
0x000d7308 0x0000001b 0x00001000 0x000e2200
0x220a7220 0x00000014 0x00400000 0x000fe200
0x04ff7355 0x00000000 0x00100000 0x000fe200
0x1e047820 0x40400000 0x00400000 0x000fe200
0x00047945 0x000000f0 0x03800000 0x000fe200
0x180a7223 0x00000024 0x0000080a 0x000fc400
0x20207221 0x0000000c 0x00000000 0x000fe400
0x040b7220 0x0000000a 0x00400000 0x000fcc00
0x0b007302 0x0000001b 0x00000000 0x000e6200
0x1b0e7423 0x3f800000 0x0000010d 0x001fc800
0x0d0e7223 0x0000000e 0x0000000d 0x000fc800
0x0e047223 0x0000000b 0x000000ff 0x000fc800
0x1b0a7223 0x00000004 0x0000010b 0x000fc800
0x0e047223 0x0000000a 0x00000004 0x000fe200
0x00008947 0x00000040 0x03800000 0x002fea00
0x000e7202 0x0000001b 0x00000f00 0x000fe400
0x000a7802 0x00003b70 0x00000f00 0x000fc600
0x00007944 0x00019780 0x03c00000 0x000fea00
0x00047202 0x0000000c 0x00000f00 0x000fc600
0x00047941 0x00000000 0x03800000 0x000fea00
0x17177224 0x00000017 0x078e02ff 0x000fe200
0x000c7308 0x0000001d 0x00001000 0x000e2200
0x04ff7355 0x00000000 0x00100000 0x000fe200
0x00047945 0x00000140 0x03800000 0x000fe200
0x250a7224 0x00000013 0x078e0217 0x000fe400
0x20047221 0x00000004 0x00000000 0x000fe400
0x1a1a7221 0x00000006 0x00000000 0x000fc400
0x000b7306 0x0000000a 0x00201400 0x0002a200
0x1d0d7423 0x3f800000 0x0000010c 0x001fe400
0x210a7220 0x00000024 0x00400000 0x002fe400
0x0c0d7223 0x0000000d 0x0000000c 0x000fe400
0x220a7220 0x0000000a 0x00400000 0x000fc800
0x0a0e7220 0x0000000b 0x00400000 0x004fc800
0x0e0a7223 0x0000000d 0x000000ff 0x000fe400
0x0e007302 0x0000001d 0x00000000 0x000e2400
0x1d0b7223 0x0000000a 0x0000010e 0x000fc800
0x0d0a7223 0x0000000b 0x0000000a 0x000fe200
0x00008947 0x00000050 0x03800000 0x001fea00
0x000b7202 0x0000000e 0x00000f00 0x000fe400
0x000e7202 0x0000001d 0x00000f00 0x000fe400
0x000a7802 0x00003cf0 0x00000f00 0x000fc600
0x00007944 0x00019600 0x03c00000 0x000fea00
0x000a7202 0x0000000c 0x00000f00 0x000fc600
0x00047941 0x00000000 0x03800000 0x000fea00
0x13067224 0x00000013 0x078e02ff 0x000fe200
0x000c7306 0x00000017 0x00201400 0x000fe200
0x04ff7355 0x00000000 0x00100000 0x000fe200
0x00047945 0x00000140 0x03800000 0x000fe200
0x1a1a7221 0x0000000a 0x00000000 0x000fca00
0x00067306 0x00000006 0x00201400 0x000e3000
0x000d7308 0x0000001c 0x00001000 0x000e6200
0x180b7220 0x00000006 0x00400000 0x001fe400
0x1f067820 0x40c00000 0x00400000 0x000fc400
0x0c0b7223 0x00000014 0x0000000b 0x000fc800
0x060c7220 0x0000000b 0x00400000 0x000fe400
0x1c0e7423 0x3f800000 0x0000010d 0x002fc800
0x0c007302 0x0000001c 0x00000000 0x000e2200
0x0d0e7223 0x0000000e 0x0000000d 0x000fc800
0x0e067223 0x0000000c 0x000000ff 0x000fc800
0x1c0b7223 0x00000006 0x0000010c 0x000fc800
0x0e067223 0x0000000b 0x00000006 0x000fe200
0x00008947 0x00000050 0x03800000 0x001fea00
0x000b7202 0x0000000c 0x00000f00 0x000fe400
0x000e7202 0x0000001c 0x00000f00 0x000fe400
0x000a7802 0x00003e70 0x00000f00 0x000fc600
0x00007944 0x00019480 0x03c00000 0x000fea00
0x00067202 0x0000000c 0x00000f00 0x000fc600
0x00047941 0x00000000 0x03800000 0x000fea00
0x000d7308 0x0000001b 0x00001000 0x000e2200
0x220b7220 0x00000015 0x00400000 0x000fe200
0x04ff7355 0x00000000 0x00100000 0x000fe200
0x1e0a7820 0x40800000 0x00400000 0x000fe200
0x00047945 0x00000100 0x03800000 0x000fe200
0x190b7223 0x00000024 0x0000080b 0x000fc400
0x1a1a7221 0x00000006 0x00000000 0x000fe400
0x0a0c7220 0x0000000b 0x00400000 0x000fcc00
0x0c007302 0x0000001b 0x00000000 0x000e6200
0x1b0e7423 0x3f800000 0x0000010d 0x001fc800
0x0d0e7223 0x0000000e 0x0000000d 0x000fc800
0x0e0a7223 0x0000000c 0x000000ff 0x000fc800
0x1b0b7223 0x0000000a 0x0000010c 0x000fc800
0x0e067223 0x0000000b 0x0000000a 0x000fe200
0x00008947 0x00000050 0x03800000 0x002fea00
0x000b7202 0x0000000c 0x00000f00 0x000fe400
0x000e7202 0x0000001b 0x00000f00 0x000fe400
0x000a7802 0x00003fc0 0x00000f00 0x000fc600
0x00007944 0x00019330 0x03c00000 0x000fea00
0x00067202 0x0000000c 0x00000f00 0x000fc600
0x00047941 0x00000000 0x03800000 0x000fea00
0x08087810 0x00001400 0x07f1e0ff 0x000fe200
0x1a067221 0x00000006 0x00000000 0x000fe200
0x00137202 0x00000003 0x00000f00 0x000fe400
0xff097210 0x00000009 0x007fe4ff 0x000fe400
0x00147202 0x00000005 0x00000f00 0x000fc400
0x00157202 0x00000004 0x00000f00 0x000fe200
0x0000a947 0xfffff550 0x0383ffff 0x000fea00
0x00037941 0x00000000 0x03800000 0x000fea00
0x00137919 0x00000000 0x00000000 0x000e2200
0x03ff7355 0x00000000 0x00100000 0x000fe200
0x00037945 0x00000a70 0x03800000 0x000fe400
0x03147f89 0x08201f00 0x000e0000 0x0042a800
0x00087f89 0x08201f00 0x000e0000 0x0002e800
0x05157f89 0x08201f00 0x000e0000 0x00032800
0x04167f89 0x08201f00 0x000e0000 0x00026800
0x06177f89 0x08201f00 0x000e0000 0x00026200
0x1300780c 0x0000001e 0x03f04270 0x001fd800
0x00000947 0x000009f0 0x03800000 0x000fea00
0x03077210 0x00000014 0x07ffe0ff 0x01cfe200
0x001f7306 0x00000014 0x00201400 0x000e2200
0x001b7221 0x00000008 0x00000100 0x000fe200
0x04ff7355 0x00000000 0x00100000 0x000fe200
0x00047945 0x00000140 0x03800000 0x000fe400
0x1b1c7220 0x0000001b 0x00400000 0x000fc600
0x00187306 0x00000007 0x00201400 0x000ea200
0x1b1d7220 0x0000001c 0x00400000 0x000fc800
0x1b1e7220 0x0000001d 0x00400000 0x040fe400
0x1b0b7220 0x0000001f 0x00400000 0x001fe200
0x00077308 0x00000018 0x00001000 0x004e2200
0x18197220 0x00000018 0x00400000 0x000fc800
0x181a7220 0x00000019 0x00400000 0x000fc600
0x0b007302 0x00000018 0x00000000 0x000ea200
0x18087423 0x3f800000 0x00000107 0x001fc800
0x07087223 0x00000008 0x00000007 0x000fc800
0x0b077223 0x00000008 0x000000ff 0x000fc800
0x18097223 0x00000007 0x0000010b 0x000fc800
0x08077223 0x00000009 0x00000007 0x000fe200
0x00008947 0x00000040 0x03800000 0x004fea00
0x000e7202 0x00000018 0x00000f00 0x000fe400
0x000a7802 0x00004270 0x00000f00 0x000fc600
0x00007944 0x00019080 0x03c00000 0x002fea00
0x00077202 0x0000000c 0x00000f00 0x000fc600
0x00047941 0x00000000 0x03800000 0x000fea00
0x00207306 0x00000003 0x00201400 0x000e2200
0x04ff7355 0x00000000 0x00100000 0x000fe200
0x00047945 0x000000f0 0x03800000 0x000fec00
0x00097308 0x00000018 0x00001000 0x000ea200
0x1c087220 0x00000020 0x00400000 0x001fc800
0x1f0b7220 0x00000008 0x00400000 0x000fe400
0x180a7423 0x3f800000 0x00000109 0x004fc800
0x0b007302 0x00000018 0x00000000 0x000e2200
0x090a7223 0x0000000a 0x00000009 0x000fc800
0x0a087223 0x0000000b 0x000000ff 0x000fc800
0x18097223 0x00000008 0x0000010b 0x000fc800
0x0a087223 0x00000009 0x00000008 0x000fe200
0x00008947 0x00000040 0x03800000 0x001fea00
0x000e7202 0x00000018 0x00000f00 0x000fe400
0x000a7802 0x00004390 0x00000f00 0x000fc600
0x00007944 0x00018f60 0x03c00000 0x002fea00
0x00087202 0x0000000c 0x00000f00 0x000fc600
0x00047941 0x00000000 0x03800000 0x000fea00
0x03217210 0x80000014 0x07ffe0ff 0x000fe200
0x000b7308 0x00000019 0x00001000 0x000e2200
0x1d097220 0x00000020 0x00400000 0x000fe200
0x04ff7355 0x00000000 0x00100000 0x000fe200
0x00047945 0x00000110 0x03800000 0x000fe200
0x051d7221 0x00000015 0x00000000 0x000fe400
0x1f097220 0x00000009 0x00400000 0x000fc400
0x000a7306 0x00000021 0x00201400 0x000ea200
0x190c7423 0x3f800000 0x0000010b 0x001fc800
0x0b0c7223 0x0000000c 0x0000000b 0x000fe400
0x090d7220 0x0000000a 0x00400000 0x004fc800
0x0d097223 0x0000000c 0x000000ff 0x000fe400
0x0d007302 0x00000019 0x00000000 0x000e2400
0x190a7223 0x00000009 0x0000010d 0x000fc800
0x0c097223 0x0000000a 0x00000009 0x000fe200
0x00008947 0x00000050 0x03800000 0x001fea00
0x000b7202 0x0000000d 0x00000f00 0x000fe400
0x000e7202 0x00000019 0x00000f00 0x000fe400
0x000a7802 0x000044f0 0x00000f00 0x000fc600
0x00007944 0x00018e00 0x03c00000 0x002fea00
0x00097202 0x0000000c 0x00000f00 0x000fc600
0x00047941 0x00000000 0x03800000 0x000fea00
0x000c7308 0x00000018 0x00001000 0x000e2200
0x050b7220 0x0000001f 0x00400000 0x000fe200
0x04ff7355 0x00000000 0x00100000 0x000fe200
0x1b0a7820 0x40400000 0x00400000 0x000fe200
0x00047945 0x00000110 0x03800000 0x000fe200
0x150b7223 0x00000020 0x0000080b 0x000fc800
0x0a0d7220 0x0000000b 0x00400000 0x000fe400
0x040a7221 0x00000016 0x00000000 0x002fc800
0x0d007302 0x00000018 0x00000000 0x000e6200
0x180e7423 0x3f800000 0x0000010c 0x001fe400
0x0a227221 0x00000009 0x00000000 0x000fe400
0x0c0e7223 0x0000000e 0x0000000c 0x000fc800
0x0e0b7223 0x0000000d 0x000000ff 0x000fc800
0x180c7223 0x0000000b 0x0000010d 0x000fc800
0x0e097223 0x0000000c 0x0000000b 0x000fe200
0x00008947 0x00000050 0x03800000 0x002fea00
0x000b7202 0x0000000d 0x00000f00 0x000fe400
0x000e7202 0x00000018 0x00000f00 0x000fe400
0x000a7802 0x00004650 0x00000f00 0x000fc600
0x00007944 0x00018ca0 0x03c00000 0x000fea00
0x00097202 0x0000000c 0x00000f00 0x000fc600
0x00047941 0x00000000 0x03800000 0x000fea00
0x14147224 0x00000014 0x078e02ff 0x000fe200
0x000c7308 0x0000001a 0x00001000 0x000e2200
0x04ff7355 0x00000000 0x00100000 0x000fe200
0x00047945 0x00000130 0x03800000 0x000fe200
0x030a7224 0x00000021 0x078e0214 0x000fe400
0x06177221 0x00000017 0x00000000 0x000fc800
0x000b7306 0x0000000a 0x00201400 0x0002a200
0x1a0d7423 0x3f800000 0x0000010c 0x001fe400
0x1e0a7220 0x00000020 0x00400000 0x002fe400
0x0c0d7223 0x0000000d 0x0000000c 0x000fe400
0x1f0a7220 0x0000000a 0x00400000 0x000fc800
0x0a0e7220 0x0000000b 0x00400000 0x004fc800
0x0e0a7223 0x0000000d 0x000000ff 0x000fe400
0x0e007302 0x0000001a 0x00000000 0x000e2400
0x1a0b7223 0x0000000a 0x0000010e 0x000fc800
0x0d0a7223 0x0000000b 0x0000000a 0x000fe200
0x00008947 0x00000050 0x03800000 0x001fea00
0x000b7202 0x0000000e 0x00000f00 0x000fe400
0x000e7202 0x0000001a 0x00000f00 0x000fe400
0x000a7802 0x000047c0 0x00000f00 0x000fc600
0x00007944 0x00018b30 0x03c00000 0x000fea00
0x000a7202 0x0000000c 0x00000f00 0x000fc600
0x00047941 0x00000000 0x03800000 0x000fea00
0x03037224 0x00000003 0x078e02ff 0x000fe200
0x000b7306 0x00000014 0x00201400 0x000e2200
0x04ff7355 0x00000000 0x00100000 0x000fe200
0x00047945 0x00000140 0x03800000 0x000fe200
0x17177221 0x0000000a 0x00000000 0x000fca00
0x00067306 0x00000003 0x00201400 0x0002b000
0x000c7308 0x00000019 0x00001000 0x000ee200
0x050b7220 0x0000000b 0x00400000 0x001fe400
0x1c037820 0x40c00000 0x00400000 0x002fc400
0x15067223 0x00000006 0x0000000b 0x004fc800
0x03067220 0x00000006 0x00400000 0x000fe400
0x19057423 0x3f800000 0x0000010c 0x008fc800
0x06007302 0x00000019 0x00000000 0x000e2200
0x0c0c7223 0x00000005 0x0000000c 0x000fc800
0x0c037223 0x00000006 0x000000ff 0x000fc800
0x19057223 0x00000003 0x00000106 0x000fc800
0x0c037223 0x00000005 0x00000003 0x000fe200
0x00008947 0x00000050 0x03800000 0x001fea00
0x000b7202 0x00000006 0x00000f00 0x000fe400
0x000e7202 0x00000019 0x00000f00 0x000fe400
0x000a7802 0x00004940 0x00000f00 0x000fc600
0x00007944 0x000189b0 0x03c00000 0x000fea00
0x00037202 0x0000000c 0x00000f00 0x000fc600
0x00047941 0x00000000 0x03800000 0x000fea00
0x00067308 0x00000018 0x00001000 0x000e2200
0x04057220 0x0000001f 0x00400000 0x000fe200
0x04ff7355 0x00000000 0x00100000 0x000fe200
0x1b047820 0x40800000 0x00400000 0x000fe200
0x00047945 0x000000f0 0x03800000 0x000fe200
0x16057223 0x00000020 0x00000805 0x000fc400
0x17177221 0x00000003 0x00000000 0x000fe400
0x040b7220 0x00000005 0x00400000 0x000fcc00
0x0b007302 0x00000018 0x00000000 0x000e6200
0x180a7423 0x3f800000 0x00000106 0x001fc800
0x060a7223 0x0000000a 0x00000006 0x000fc800
0x0a047223 0x0000000b 0x000000ff 0x000fc800
0x18057223 0x00000004 0x0000010b 0x000fc800
0x0a057223 0x00000005 0x00000004 0x000fe200
0x00008947 0x00000040 0x03800000 0x002fea00
0x000e7202 0x00000018 0x00000f00 0x000fe400
0x000a7802 0x00004a80 0x00000f00 0x000fc600
0x00007944 0x00018870 0x03c00000 0x000fea00
0x00057202 0x0000000c 0x00000f00 0x000fc600
0x00047941 0x00000000 0x03800000 0x000fea00
0x00037305 0x00000018 0x0020f100 0x00006200
0x17067221 0x00000005 0x00000000 0x000fe400
0x22047221 0x00000009 0x00000000 0x000fe400
0x00007221 0x00000007 0x00000000 0x000fe400
0x1d057221 0x00000008 0x00000000 0x000fc600
0x00037941 0x00000000 0x03800000 0x01cfea00
0x1300780c 0x0000001d 0x03f04270 0x000fe200
0x03ff7355 0x00000000 0x00100000 0x000fe200
0x03147f89 0x08401f00 0x000e0000 0x0022a200
0x00037945 0x00000a50 0x03800000 0x000fe600
0x00087f89 0x08401f00 0x000e0000 0x0002e800
0x05157f89 0x08401f00 0x000e0000 0x00032800
0x04167f89 0x08401f00 0x000e0000 0x00022800
0x06177f89 0x08401f00 0x000e0000 0x00022200
0x00000947 0x000009f0 0x03800000 0x000fea00
0x03077210 0x00000014 0x07ffe0ff 0x004fe200
0x001f7306 0x00000014 0x00201400 0x000ea200
0x001b7221 0x00000008 0x00000100 0x008fe200
0x04ff7355 0x00000000 0x00100000 0x000fe200
0x00047945 0x00000140 0x03800000 0x000fe400
0x1b1c7220 0x0000001b 0x00400000 0x000fc600
0x00187306 0x00000007 0x00201400 0x001e2200
0x1b1d7220 0x0000001c 0x00400000 0x000fc800
0x1b1e7220 0x0000001d 0x00400000 0x040fe400
0x1b0b7220 0x0000001f 0x00400000 0x004fe200
0x00077308 0x00000018 0x00001000 0x001e2200
0x18197220 0x00000018 0x00400000 0x000fc800
0x181a7220 0x00000019 0x00400000 0x000fc600
0x0b007302 0x00000018 0x00000000 0x000ea200
0x18087423 0x3f800000 0x00000107 0x001fc800
0x07087223 0x00000008 0x00000007 0x000fc800
0x0b077223 0x00000008 0x000000ff 0x000fc800
0x18097223 0x00000007 0x0000010b 0x000fc800
0x08077223 0x00000009 0x00000007 0x000fe200
0x00008947 0x00000040 0x03800000 0x004fea00
0x000e7202 0x00000018 0x00000f00 0x000fe400
0x000a7802 0x00004d00 0x00000f00 0x000fc600
0x00007944 0x000185f0 0x03c00000 0x012fea00
0x00077202 0x0000000c 0x00000f00 0x000fc600
0x00047941 0x00000000 0x03800000 0x000fea00
0x00227306 0x00000003 0x00201400 0x000e2200
0x04ff7355 0x00000000 0x00100000 0x000fe200
0x00047945 0x000000f0 0x03800000 0x000fec00
0x00097308 0x00000018 0x00001000 0x000ea200
0x1c087220 0x00000022 0x00400000 0x001fc800
0x1f0b7220 0x00000008 0x00400000 0x000fe400
0x180a7423 0x3f800000 0x00000109 0x004fc800
0x0b007302 0x00000018 0x00000000 0x000e2200
0x090a7223 0x0000000a 0x00000009 0x000fc800
0x0a087223 0x0000000b 0x000000ff 0x000fc800
0x18097223 0x00000008 0x0000010b 0x000fc800
0x0a087223 0x00000009 0x00000008 0x000fe200
0x00008947 0x00000040 0x03800000 0x001fea00
0x000e7202 0x00000018 0x00000f00 0x000fe400
0x000a7802 0x00004e20 0x00000f00 0x000fc600
0x00007944 0x000184d0 0x03c00000 0x012fea00
0x00087202 0x0000000c 0x00000f00 0x000fc600
0x00047941 0x00000000 0x03800000 0x000fea00
0x03207210 0x80000014 0x07ffe0ff 0x000fe200
0x000b7308 0x00000019 0x00001000 0x000e2200
0x1d097220 0x00000022 0x00400000 0x000fe200
0x04ff7355 0x00000000 0x00100000 0x000fe200
0x00047945 0x00000110 0x03800000 0x000fe200
0x051d7221 0x00000015 0x00000000 0x010fe400
0x1f097220 0x00000009 0x00400000 0x000fc400
0x000a7306 0x00000020 0x00201400 0x000ea200
0x190c7423 0x3f800000 0x0000010b 0x001fc800
0x0b0c7223 0x0000000c 0x0000000b 0x000fe400
0x090d7220 0x0000000a 0x00400000 0x004fc800
0x0d097223 0x0000000c 0x000000ff 0x000fe400
0x0d007302 0x00000019 0x00000000 0x000e2400
0x190a7223 0x00000009 0x0000010d 0x000fc800
0x0c097223 0x0000000a 0x00000009 0x000fe200
0x00008947 0x00000050 0x03800000 0x001fea00
0x000b7202 0x0000000d 0x00000f00 0x000fe400
0x000e7202 0x00000019 0x00000f00 0x000fe400
0x000a7802 0x00004f80 0x00000f00 0x000fc600
0x00007944 0x00018370 0x03c00000 0x002fea00
0x00097202 0x0000000c 0x00000f00 0x000fc600
0x00047941 0x00000000 0x03800000 0x000fea00
0x000c7308 0x00000018 0x00001000 0x000e2200
0x050b7220 0x0000001f 0x00400000 0x000fe200
0x04ff7355 0x00000000 0x00100000 0x000fe200
0x1b0a7820 0x40400000 0x00400000 0x000fe200
0x00047945 0x00000110 0x03800000 0x000fe200
0x150b7223 0x00000022 0x0000080b 0x000fc800
0x0a0d7220 0x0000000b 0x00400000 0x000fe400
0x040a7221 0x00000016 0x00000000 0x000fc800
0x0d007302 0x00000018 0x00000000 0x000ea200
0x180e7423 0x3f800000 0x0000010c 0x001fe400
0x0a217221 0x00000009 0x00000000 0x000fe400
0x0c0e7223 0x0000000e 0x0000000c 0x000fc800
0x0e0b7223 0x0000000d 0x000000ff 0x000fc800
0x180c7223 0x0000000b 0x0000010d 0x000fc800
0x0e097223 0x0000000c 0x0000000b 0x000fe200
0x00008947 0x00000050 0x03800000 0x004fea00
0x000b7202 0x0000000d 0x00000f00 0x000fe400
0x000e7202 0x00000018 0x00000f00 0x000fe400
0x000a7802 0x000050e0 0x00000f00 0x000fc600
0x00007944 0x00018210 0x03c00000 0x002fea00
0x00097202 0x0000000c 0x00000f00 0x000fc600
0x00047941 0x00000000 0x03800000 0x000fea00
0x14147224 0x00000014 0x078e02ff 0x000fe200
0x000c7308 0x0000001a 0x00001000 0x000e2200
0x04ff7355 0x00000000 0x00100000 0x000fe200
0x00047945 0x00000130 0x03800000 0x000fe200
0x030a7224 0x00000020 0x078e0214 0x000fe400
0x06177221 0x00000017 0x00000000 0x000fc800
0x000b7306 0x0000000a 0x00201400 0x0004e200
0x1a0d7423 0x3f800000 0x0000010c 0x001fe400
0x1e0a7220 0x00000022 0x00400000 0x004fe400
0x0c0d7223 0x0000000d 0x0000000c 0x000fe400
0x1f0a7220 0x0000000a 0x00400000 0x000fc800
0x0a0e7220 0x0000000b 0x00400000 0x008fc800
0x0e0a7223 0x0000000d 0x000000ff 0x000fe400
0x0e007302 0x0000001a 0x00000000 0x000e2400
0x1a0b7223 0x0000000a 0x0000010e 0x000fc800
0x0d0a7223 0x0000000b 0x0000000a 0x000fe200
0x00008947 0x00000050 0x03800000 0x001fea00
0x000b7202 0x0000000e 0x00000f00 0x000fe400
0x000e7202 0x0000001a 0x00000f00 0x000fe400
0x000a7802 0x00005250 0x00000f00 0x000fc600
0x00007944 0x000180a0 0x03c00000 0x002fea00
0x000a7202 0x0000000c 0x00000f00 0x000fc600
0x00047941 0x00000000 0x03800000 0x000fea00
0x03037224 0x00000003 0x078e02ff 0x002fe200
0x00067306 0x00000014 0x00201400 0x000e2200
0x04ff7355 0x00000000 0x00100000 0x000fe200
0x00047945 0x00000140 0x03800000 0x000fe200
0x17177221 0x0000000a 0x00000000 0x000fca00
0x000b7306 0x00000003 0x00201400 0x0002b000
0x000c7308 0x00000019 0x00001000 0x000ee200
0x05067220 0x00000006 0x00400000 0x001fe400
0x1c037820 0x40c00000 0x00400000 0x002fc400
0x0b067223 0x00000015 0x00000006 0x004fc800
0x03067220 0x00000006 0x00400000 0x000fe400
0x19057423 0x3f800000 0x0000010c 0x008fc800
0x06007302 0x00000019 0x00000000 0x000e2200
0x0c0c7223 0x00000005 0x0000000c 0x000fc800
0x0c037223 0x00000006 0x000000ff 0x000fc800
0x19057223 0x00000003 0x00000106 0x000fc800
0x0c037223 0x00000005 0x00000003 0x000fe200
0x00008947 0x00000050 0x03800000 0x001fea00
0x000b7202 0x00000006 0x00000f00 0x000fe400
0x000e7202 0x00000019 0x00000f00 0x000fe400
0x000a7802 0x000053d0 0x00000f00 0x000fc600
0x00007944 0x00017f20 0x03c00000 0x000fea00
0x00037202 0x0000000c 0x00000f00 0x000fc600
0x00047941 0x00000000 0x03800000 0x000fea00
0x00067308 0x00000018 0x00001000 0x000e2200
0x04057220 0x0000001f 0x00400000 0x000fe200
0x04ff7355 0x00000000 0x00100000 0x000fe200
0x1b047820 0x40800000 0x00400000 0x000fe200
0x00047945 0x000000f0 0x03800000 0x000fe200
0x16057223 0x00000022 0x00000805 0x000fc400
0x17177221 0x00000003 0x00000000 0x000fe400
0x040b7220 0x00000005 0x00400000 0x000fcc00
0x0b007302 0x00000018 0x00000000 0x000e6200
0x180a7423 0x3f800000 0x00000106 0x001fc800
0x060a7223 0x0000000a 0x00000006 0x000fc800
0x0a047223 0x0000000b 0x000000ff 0x000fc800
0x18057223 0x00000004 0x0000010b 0x000fc800
0x0a057223 0x00000005 0x00000004 0x000fe200
0x00008947 0x00000040 0x03800000 0x002fea00
0x000e7202 0x00000018 0x00000f00 0x000fe400
0x000a7802 0x00005510 0x00000f00 0x000fc600
0x00007944 0x00017de0 0x03c00000 0x000fea00
0x00057202 0x0000000c 0x00000f00 0x000fc600
0x00047941 0x00000000 0x03800000 0x000fea00
0x00037305 0x00000018 0x0020f100 0x00006200
0x17067221 0x00000005 0x00000000 0x000fe400
0x21047221 0x00000009 0x00000000 0x000fe400
0x00007221 0x00000007 0x00000000 0x000fe400
0x1d057221 0x00000008 0x00000000 0x000fc600
0x00037941 0x00000000 0x03800000 0x000fea00
0x1300780c 0x0000001b 0x03f04270 0x000fe200
0x03ff7355 0x00000000 0x00100000 0x000fe200
0x03147f89 0x08801f00 0x000e0000 0x0062a200
0x00037945 0x00000a50 0x03800000 0x000fe600
0x00087f89 0x08801f00 0x000e0000 0x0082e800
0x05157f89 0x08801f00 0x000e0000 0x01032800
0x04167f89 0x08801f00 0x000e0000 0x00122800
0x06177f89 0x08801f00 0x000e0000 0x00022200
0x00000947 0x000009f0 0x03800000 0x000fea00
0x03077210 0x00000014 0x07ffe0ff 0x004fe200
0x001f7306 0x00000014 0x00201400 0x000ea200
0x001b7221 0x00000008 0x00000100 0x008fe200
0x04ff7355 0x00000000 0x00100000 0x000fe200
0x00047945 0x00000140 0x03800000 0x000fe400
0x1b1c7220 0x0000001b 0x00400000 0x000fc600
0x00187306 0x00000007 0x00201400 0x000ee200
0x1b1d7220 0x0000001c 0x00400000 0x000fc800
0x1b1e7220 0x0000001d 0x00400000 0x040fe400
0x1b0b7220 0x0000001f 0x00400000 0x004fe200
0x00077308 0x00000018 0x00001000 0x008ea200
0x18197220 0x00000018 0x00400000 0x000fc800
0x181a7220 0x00000019 0x00400000 0x000fc600
0x0b007302 0x00000018 0x00000000 0x000ee200
0x18087423 0x3f800000 0x00000107 0x004fc800
0x07087223 0x00000008 0x00000007 0x000fc800
0x0b077223 0x00000008 0x000000ff 0x000fc800
0x18097223 0x00000007 0x0000010b 0x000fc800
0x08077223 0x00000009 0x00000007 0x000fe200
0x00008947 0x00000040 0x03800000 0x008fea00
0x000e7202 0x00000018 0x00000f00 0x000fe400
0x000a7802 0x00005790 0x00000f00 0x000fc600
0x00007944 0x00017b60 0x03c00000 0x013fea00
0x00077202 0x0000000c 0x00000f00 0x000fc600
0x00047941 0x00000000 0x03800000 0x000fea00
0x00227306 0x00000003 0x00201400 0x000ea200
0x04ff7355 0x00000000 0x00100000 0x000fe200
0x00047945 0x000000f0 0x03800000 0x000fec00
0x00097308 0x00000018 0x00001000 0x000ee200
0x1c087220 0x00000022 0x00400000 0x004fc800
0x1f0b7220 0x00000008 0x00400000 0x000fe400
0x180a7423 0x3f800000 0x00000109 0x008fc800
0x0b007302 0x00000018 0x00000000 0x000ea200
0x090a7223 0x0000000a 0x00000009 0x000fc800
0x0a087223 0x0000000b 0x000000ff 0x000fc800
0x18097223 0x00000008 0x0000010b 0x000fc800
0x0a087223 0x00000009 0x00000008 0x000fe200
0x00008947 0x00000040 0x03800000 0x004fea00
0x000e7202 0x00000018 0x00000f00 0x000fe400
0x000a7802 0x000058b0 0x00000f00 0x000fc600
0x00007944 0x00017a40 0x03c00000 0x013fea00
0x00087202 0x0000000c 0x00000f00 0x000fc600
0x00047941 0x00000000 0x03800000 0x000fea00
0x03207210 0x80000014 0x07ffe0ff 0x000fe200
0x000b7308 0x00000019 0x00001000 0x000ea200
0x1d097220 0x00000022 0x00400000 0x000fe200
0x04ff7355 0x00000000 0x00100000 0x000fe200
0x00047945 0x00000110 0x03800000 0x000fe200
0x051d7221 0x00000015 0x00000000 0x010fe400
0x1f097220 0x00000009 0x00400000 0x000fc400
0x000a7306 0x00000020 0x00201400 0x000ee200
0x190c7423 0x3f800000 0x0000010b 0x004fc800
0x0b0c7223 0x0000000c 0x0000000b 0x000fe400
0x090d7220 0x0000000a 0x00400000 0x008fc800
0x0d097223 0x0000000c 0x000000ff 0x000fe400
0x0d007302 0x00000019 0x00000000 0x000ea400
0x190a7223 0x00000009 0x0000010d 0x000fc800
0x0c097223 0x0000000a 0x00000009 0x000fe200
0x00008947 0x00000050 0x03800000 0x004fea00
0x000b7202 0x0000000d 0x00000f00 0x000fe400
0x000e7202 0x00000019 0x00000f00 0x000fe400
0x000a7802 0x00005a10 0x00000f00 0x000fc600
0x00007944 0x000178e0 0x03c00000 0x003fea00
0x00097202 0x0000000c 0x00000f00 0x000fc600
0x00047941 0x00000000 0x03800000 0x000fea00
0x000c7308 0x00000018 0x00001000 0x000ea200
0x050b7220 0x0000001f 0x00400000 0x000fe200
0x04ff7355 0x00000000 0x00100000 0x000fe200
0x1b0a7820 0x40400000 0x00400000 0x000fe200
0x00047945 0x00000110 0x03800000 0x000fe200
0x150b7223 0x00000022 0x0000080b 0x000fc800
0x0a0d7220 0x0000000b 0x00400000 0x000fe400
0x040a7221 0x00000016 0x00000000 0x001fc800
0x0d007302 0x00000018 0x00000000 0x000e2200
0x180e7423 0x3f800000 0x0000010c 0x004fe400
0x0a217221 0x00000009 0x00000000 0x000fe400
0x0c0e7223 0x0000000e 0x0000000c 0x000fc800
0x0e0b7223 0x0000000d 0x000000ff 0x000fc800
0x180c7223 0x0000000b 0x0000010d 0x000fc800
0x0e097223 0x0000000c 0x0000000b 0x000fe200
0x00008947 0x00000050 0x03800000 0x001fea00
0x000b7202 0x0000000d 0x00000f00 0x000fe400
0x000e7202 0x00000018 0x00000f00 0x000fe400
0x000a7802 0x00005b70 0x00000f00 0x000fc600
0x00007944 0x00017780 0x03c00000 0x002fea00
0x00097202 0x0000000c 0x00000f00 0x000fc600
0x00047941 0x00000000 0x03800000 0x000fea00
0x14147224 0x00000014 0x078e02ff 0x000fe200
0x000c7308 0x0000001a 0x00001000 0x000e2200
0x04ff7355 0x00000000 0x00100000 0x000fe200
0x00047945 0x00000130 0x03800000 0x000fe200
0x030a7224 0x00000020 0x078e0214 0x000fe400
0x06177221 0x00000017 0x00000000 0x000fc800
0x000b7306 0x0000000a 0x00201400 0x0004e200
0x1a0d7423 0x3f800000 0x0000010c 0x001fe400
0x1e0a7220 0x00000022 0x00400000 0x004fe400
0x0c0d7223 0x0000000d 0x0000000c 0x000fe400
0x1f0a7220 0x0000000a 0x00400000 0x000fc800
0x0a0e7220 0x0000000b 0x00400000 0x008fc800
0x0e0a7223 0x0000000d 0x000000ff 0x000fe400
0x0e007302 0x0000001a 0x00000000 0x000e2400
0x1a0b7223 0x0000000a 0x0000010e 0x000fc800
0x0d0a7223 0x0000000b 0x0000000a 0x000fe200
0x00008947 0x00000050 0x03800000 0x001fea00
0x000b7202 0x0000000e 0x00000f00 0x000fe400
0x000e7202 0x0000001a 0x00000f00 0x000fe400
0x000a7802 0x00005ce0 0x00000f00 0x000fc600
0x00007944 0x00017610 0x03c00000 0x002fea00
0x000a7202 0x0000000c 0x00000f00 0x000fc600
0x00047941 0x00000000 0x03800000 0x000fea00
0x03037224 0x00000003 0x078e02ff 0x002fe200
0x00067306 0x00000014 0x00201400 0x000e2200
0x04ff7355 0x00000000 0x00100000 0x000fe200
0x00047945 0x00000140 0x03800000 0x000fe200
0x17177221 0x0000000a 0x00000000 0x000fca00
0x000b7306 0x00000003 0x00201400 0x0002b000
0x000c7308 0x00000019 0x00001000 0x000ee200
0x05067220 0x00000006 0x00400000 0x001fe400
0x1c037820 0x40c00000 0x00400000 0x002fc400
0x0b067223 0x00000015 0x00000006 0x004fc800
0x03067220 0x00000006 0x00400000 0x000fe400
0x19057423 0x3f800000 0x0000010c 0x008fc800
0x06007302 0x00000019 0x00000000 0x000e2200
0x0c0c7223 0x00000005 0x0000000c 0x000fc800
0x0c037223 0x00000006 0x000000ff 0x000fc800
0x19057223 0x00000003 0x00000106 0x000fc800
0x0c037223 0x00000005 0x00000003 0x000fe200
0x00008947 0x00000050 0x03800000 0x001fea00
0x000b7202 0x00000006 0x00000f00 0x000fe400
0x000e7202 0x00000019 0x00000f00 0x000fe400
0x000a7802 0x00005e60 0x00000f00 0x000fc600
0x00007944 0x00017490 0x03c00000 0x000fea00
0x00037202 0x0000000c 0x00000f00 0x000fc600
0x00047941 0x00000000 0x03800000 0x000fea00
0x00067308 0x00000018 0x00001000 0x000e2200
0x04057220 0x0000001f 0x00400000 0x000fe200
0x04ff7355 0x00000000 0x00100000 0x000fe200
0x1b047820 0x40800000 0x00400000 0x000fe200
0x00047945 0x000000f0 0x03800000 0x000fe200
0x16057223 0x00000022 0x00000805 0x000fc400
0x17177221 0x00000003 0x00000000 0x000fe400
0x040b7220 0x00000005 0x00400000 0x000fcc00
0x0b007302 0x00000018 0x00000000 0x000e6200
0x180a7423 0x3f800000 0x00000106 0x001fc800
0x060a7223 0x0000000a 0x00000006 0x000fc800
0x0a047223 0x0000000b 0x000000ff 0x000fc800
0x18057223 0x00000004 0x0000010b 0x000fc800
0x0a057223 0x00000005 0x00000004 0x000fe200
0x00008947 0x00000040 0x03800000 0x002fea00
0x000e7202 0x00000018 0x00000f00 0x000fe400
0x000a7802 0x00005fa0 0x00000f00 0x000fc600
0x00007944 0x00017350 0x03c00000 0x000fea00
0x00057202 0x0000000c 0x00000f00 0x000fc600
0x00047941 0x00000000 0x03800000 0x000fea00
0x00037305 0x00000018 0x0020f100 0x00006200
0x17067221 0x00000005 0x00000000 0x000fe400
0x21047221 0x00000009 0x00000000 0x000fe400
0x00007221 0x00000007 0x00000000 0x000fe400
0x1d057221 0x00000008 0x00000000 0x000fc600
0x00037941 0x00000000 0x03800000 0x000fea00
0x1300780c 0x00000017 0x03f04270 0x000fe200
0x03ff7355 0x00000000 0x00100000 0x000fe200
0x03147f89 0x09001f00 0x000e0000 0x0062a200
0x00037945 0x00000a50 0x03800000 0x000fe600
0x00087f89 0x09001f00 0x000e0000 0x0082e800
0x05157f89 0x09001f00 0x000e0000 0x01032800
0x04167f89 0x09001f00 0x000e0000 0x00122800
0x06177f89 0x09001f00 0x000e0000 0x00022200
0x00000947 0x000009f0 0x03800000 0x000fea00
0x03077210 0x00000014 0x07ffe0ff 0x004fe200
0x001f7306 0x00000014 0x00201400 0x000ea200
0x001b7221 0x00000008 0x00000100 0x008fe200
0x04ff7355 0x00000000 0x00100000 0x000fe200
0x00047945 0x00000140 0x03800000 0x000fe400
0x1b1c7220 0x0000001b 0x00400000 0x000fc600
0x00187306 0x00000007 0x00201400 0x000ee200
0x1b1d7220 0x0000001c 0x00400000 0x000fc800
0x1b1e7220 0x0000001d 0x00400000 0x040fe400
0x1b0b7220 0x0000001f 0x00400000 0x004fe200
0x00077308 0x00000018 0x00001000 0x008ea200
0x18197220 0x00000018 0x00400000 0x000fc800
0x181a7220 0x00000019 0x00400000 0x000fc600
0x0b007302 0x00000018 0x00000000 0x000ee200
0x18087423 0x3f800000 0x00000107 0x004fc800
0x07087223 0x00000008 0x00000007 0x000fc800
0x0b077223 0x00000008 0x000000ff 0x000fc800
0x18097223 0x00000007 0x0000010b 0x000fc800
0x08077223 0x00000009 0x00000007 0x000fe200
0x00008947 0x00000040 0x03800000 0x008fea00
0x000e7202 0x00000018 0x00000f00 0x000fe400
0x000a7802 0x00006220 0x00000f00 0x000fc600
0x00007944 0x000170d0 0x03c00000 0x013fea00
0x00077202 0x0000000c 0x00000f00 0x000fc600
0x00047941 0x00000000 0x03800000 0x000fea00
0x00227306 0x00000003 0x00201400 0x000ea200
0x04ff7355 0x00000000 0x00100000 0x000fe200
0x00047945 0x000000f0 0x03800000 0x000fec00
0x00097308 0x00000018 0x00001000 0x000ee200
0x1c087220 0x00000022 0x00400000 0x004fc800
0x1f0b7220 0x00000008 0x00400000 0x000fe400
0x180a7423 0x3f800000 0x00000109 0x008fc800
0x0b007302 0x00000018 0x00000000 0x000ea200
0x090a7223 0x0000000a 0x00000009 0x000fc800
0x0a087223 0x0000000b 0x000000ff 0x000fc800
0x18097223 0x00000008 0x0000010b 0x000fc800
0x0a087223 0x00000009 0x00000008 0x000fe200
0x00008947 0x00000040 0x03800000 0x004fea00
0x000e7202 0x00000018 0x00000f00 0x000fe400
0x000a7802 0x00006340 0x00000f00 0x000fc600
0x00007944 0x00016fb0 0x03c00000 0x013fea00
0x00087202 0x0000000c 0x00000f00 0x000fc600
0x00047941 0x00000000 0x03800000 0x000fea00
0x03207210 0x80000014 0x07ffe0ff 0x000fe200
0x000b7308 0x00000019 0x00001000 0x000ea200
0x1d097220 0x00000022 0x00400000 0x000fe200
0x04ff7355 0x00000000 0x00100000 0x000fe200
0x00047945 0x00000110 0x03800000 0x000fe200
0x051d7221 0x00000015 0x00000000 0x010fe400
0x1f097220 0x00000009 0x00400000 0x000fc400
0x000a7306 0x00000020 0x00201400 0x000ee200
0x190c7423 0x3f800000 0x0000010b 0x004fc800
0x0b0c7223 0x0000000c 0x0000000b 0x000fe400
0x090d7220 0x0000000a 0x00400000 0x008fc800
0x0d097223 0x0000000c 0x000000ff 0x000fe400
0x0d007302 0x00000019 0x00000000 0x000ea400
0x190a7223 0x00000009 0x0000010d 0x000fc800
0x0c097223 0x0000000a 0x00000009 0x000fe200
0x00008947 0x00000050 0x03800000 0x004fea00
0x000b7202 0x0000000d 0x00000f00 0x000fe400
0x000e7202 0x00000019 0x00000f00 0x000fe400
0x000a7802 0x000064a0 0x00000f00 0x000fc600
0x00007944 0x00016e50 0x03c00000 0x003fea00
0x00097202 0x0000000c 0x00000f00 0x000fc600
0x00047941 0x00000000 0x03800000 0x000fea00
0x000c7308 0x00000018 0x00001000 0x000ea200
0x050b7220 0x0000001f 0x00400000 0x000fe200
0x04ff7355 0x00000000 0x00100000 0x000fe200
0x1b0a7820 0x40400000 0x00400000 0x000fe200
0x00047945 0x00000110 0x03800000 0x000fe200
0x150b7223 0x00000022 0x0000080b 0x000fc800
0x0a0d7220 0x0000000b 0x00400000 0x000fe400
0x040a7221 0x00000016 0x00000000 0x001fc800
0x0d007302 0x00000018 0x00000000 0x000e2200
0x180e7423 0x3f800000 0x0000010c 0x004fe400
0x0a217221 0x00000009 0x00000000 0x000fe400
0x0c0e7223 0x0000000e 0x0000000c 0x000fc800
0x0e0b7223 0x0000000d 0x000000ff 0x000fc800
0x180c7223 0x0000000b 0x0000010d 0x000fc800
0x0e097223 0x0000000c 0x0000000b 0x000fe200
0x00008947 0x00000050 0x03800000 0x001fea00
0x000b7202 0x0000000d 0x00000f00 0x000fe400
0x000e7202 0x00000018 0x00000f00 0x000fe400
0x000a7802 0x00006600 0x00000f00 0x000fc600
0x00007944 0x00016cf0 0x03c00000 0x002fea00
0x00097202 0x0000000c 0x00000f00 0x000fc600
0x00047941 0x00000000 0x03800000 0x000fea00
0x14147224 0x00000014 0x078e02ff 0x000fe200
0x000c7308 0x0000001a 0x00001000 0x000e2200
0x04ff7355 0x00000000 0x00100000 0x000fe200
0x00047945 0x00000130 0x03800000 0x000fe200
0x030a7224 0x00000020 0x078e0214 0x000fe400
0x06177221 0x00000017 0x00000000 0x000fc800
0x000b7306 0x0000000a 0x00201400 0x0004e200
0x1a0d7423 0x3f800000 0x0000010c 0x001fe400
0x1e0a7220 0x00000022 0x00400000 0x004fe400
0x0c0d7223 0x0000000d 0x0000000c 0x000fe400
0x1f0a7220 0x0000000a 0x00400000 0x000fc800
0x0a0e7220 0x0000000b 0x00400000 0x008fc800
0x0e0a7223 0x0000000d 0x000000ff 0x000fe400
0x0e007302 0x0000001a 0x00000000 0x000e2400
0x1a0b7223 0x0000000a 0x0000010e 0x000fc800
0x0d0a7223 0x0000000b 0x0000000a 0x000fe200
0x00008947 0x00000050 0x03800000 0x001fea00
0x000b7202 0x0000000e 0x00000f00 0x000fe400
0x000e7202 0x0000001a 0x00000f00 0x000fe400
0x000a7802 0x00006770 0x00000f00 0x000fc600
0x00007944 0x00016b80 0x03c00000 0x002fea00
0x000a7202 0x0000000c 0x00000f00 0x000fc600
0x00047941 0x00000000 0x03800000 0x000fea00
0x03037224 0x00000003 0x078e02ff 0x002fe200
0x00067306 0x00000014 0x00201400 0x000e2200
0x04ff7355 0x00000000 0x00100000 0x000fe200
0x00047945 0x00000140 0x03800000 0x000fe200
0x17177221 0x0000000a 0x00000000 0x000fca00
0x000b7306 0x00000003 0x00201400 0x0002b000
0x000c7308 0x00000019 0x00001000 0x000ee200
0x05067220 0x00000006 0x00400000 0x001fe400
0x1c037820 0x40c00000 0x00400000 0x002fc400
0x0b067223 0x00000015 0x00000006 0x004fc800
0x03067220 0x00000006 0x00400000 0x000fe400
0x19057423 0x3f800000 0x0000010c 0x008fc800
0x06007302 0x00000019 0x00000000 0x000e2200
0x0c0c7223 0x00000005 0x0000000c 0x000fc800
0x0c037223 0x00000006 0x000000ff 0x000fc800
0x19057223 0x00000003 0x00000106 0x000fc800
0x0c037223 0x00000005 0x00000003 0x000fe200
0x00008947 0x00000050 0x03800000 0x001fea00
0x000b7202 0x00000006 0x00000f00 0x000fe400
0x000e7202 0x00000019 0x00000f00 0x000fe400
0x000a7802 0x000068f0 0x00000f00 0x000fc600
0x00007944 0x00016a00 0x03c00000 0x000fea00
0x00037202 0x0000000c 0x00000f00 0x000fc600
0x00047941 0x00000000 0x03800000 0x000fea00
0x00067308 0x00000018 0x00001000 0x000e2200
0x04057220 0x0000001f 0x00400000 0x000fe200
0x04ff7355 0x00000000 0x00100000 0x000fe200
0x1b047820 0x40800000 0x00400000 0x000fe200
0x00047945 0x000000f0 0x03800000 0x000fe200
0x16057223 0x00000022 0x00000805 0x000fc400
0x17177221 0x00000003 0x00000000 0x000fe400
0x040b7220 0x00000005 0x00400000 0x000fcc00
0x0b007302 0x00000018 0x00000000 0x000e6200
0x180a7423 0x3f800000 0x00000106 0x001fc800
0x060a7223 0x0000000a 0x00000006 0x000fc800
0x0a047223 0x0000000b 0x000000ff 0x000fc800
0x18057223 0x00000004 0x0000010b 0x000fc800
0x0a057223 0x00000005 0x00000004 0x000fe200
0x00008947 0x00000040 0x03800000 0x002fea00
0x000e7202 0x00000018 0x00000f00 0x000fe400
0x000a7802 0x00006a30 0x00000f00 0x000fc600
0x00007944 0x000168c0 0x03c00000 0x000fea00
0x00057202 0x0000000c 0x00000f00 0x000fc600
0x00047941 0x00000000 0x03800000 0x000fea00
0x00037305 0x00000018 0x0020f100 0x00006200
0x17067221 0x00000005 0x00000000 0x000fe400
0x21047221 0x00000009 0x00000000 0x000fe400
0x00007221 0x00000007 0x00000000 0x000fe400
0x1d057221 0x00000008 0x00000000 0x000fc600
0x00037941 0x00000000 0x03800000 0x000fea00
0x00217919 0x00000000 0x00000000 0x000f2200
0x1300780c 0x0000000f 0x03f04270 0x000fe200
0x03ff7355 0x00000000 0x00100000 0x000fe200
0x00037945 0x00000a60 0x03800000 0x000fe200
0x03147f89 0x0a001f00 0x000e0000 0x0062a800
0x00087f89 0x0a001f00 0x000e0000 0x0082e800
0x05157f89 0x0a001f00 0x000e0000 0x01032800
0x04167f89 0x0a001f00 0x000e0000 0x00122800
0x06177f89 0x0a001f00 0x000e0000 0x00022200
0x00000947 0x000009f0 0x03800000 0x000fea00
0x03077210 0x00000014 0x07ffe0ff 0x004fe200
0x001e7306 0x00000014 0x00201400 0x000ea200
0x001a7221 0x00000008 0x00000100 0x008fe200
0x04ff7355 0x00000000 0x00100000 0x000fe200
0x00047945 0x00000140 0x03800000 0x000fe400
0x1a1b7220 0x0000001a 0x00400000 0x000fc600
0x00137306 0x00000007 0x00201400 0x000ee200
0x1a1c7220 0x0000001b 0x00400000 0x000fc800
0x1a1d7220 0x0000001c 0x00400000 0x040fe400
0x1a0b7220 0x0000001e 0x00400000 0x004fe200
0x00077308 0x00000013 0x00001000 0x008ea200
0x13187220 0x00000013 0x00400000 0x000fc800
0x13197220 0x00000018 0x00400000 0x000fc600
0x0b007302 0x00000013 0x00000000 0x000ee200
0x13087423 0x3f800000 0x00000107 0x004fc800
0x07087223 0x00000008 0x00000007 0x000fc800
0x0b077223 0x00000008 0x000000ff 0x000fc800
0x13097223 0x00000007 0x0000010b 0x000fc800
0x08077223 0x00000009 0x00000007 0x000fe200
0x00008947 0x00000040 0x03800000 0x008fea00
0x000e7202 0x00000013 0x00000f00 0x000fe400
0x000a7802 0x00006cc0 0x00000f00 0x000fc600
0x00007944 0x00016630 0x03c00000 0x013fea00
0x00077202 0x0000000c 0x00000f00 0x000fc600
0x00047941 0x00000000 0x03800000 0x000fea00
0x00227306 0x00000003 0x00201400 0x000ea200
0x04ff7355 0x00000000 0x00100000 0x000fe200
0x00047945 0x000000f0 0x03800000 0x000fec00
0x00097308 0x00000013 0x00001000 0x000ee200
0x1b087220 0x00000022 0x00400000 0x004fc800
0x1e0b7220 0x00000008 0x00400000 0x000fe400
0x130a7423 0x3f800000 0x00000109 0x008fc800
0x0b007302 0x00000013 0x00000000 0x000ea200
0x090a7223 0x0000000a 0x00000009 0x000fc800
0x0a087223 0x0000000b 0x000000ff 0x000fc800
0x13097223 0x00000008 0x0000010b 0x000fc800
0x0a087223 0x00000009 0x00000008 0x000fe200
0x00008947 0x00000040 0x03800000 0x004fea00
0x000e7202 0x00000013 0x00000f00 0x000fe400
0x000a7802 0x00006de0 0x00000f00 0x000fc600
0x00007944 0x00016510 0x03c00000 0x013fea00
0x00087202 0x0000000c 0x00000f00 0x000fc600
0x00047941 0x00000000 0x03800000 0x000fea00
0x031f7210 0x80000014 0x07ffe0ff 0x000fe200
0x000b7308 0x00000018 0x00001000 0x000ea200
0x1c097220 0x00000022 0x00400000 0x000fe200
0x04ff7355 0x00000000 0x00100000 0x000fe200
0x00047945 0x00000110 0x03800000 0x000fe200
0x051c7221 0x00000015 0x00000000 0x010fe400
0x1e097220 0x00000009 0x00400000 0x000fc400
0x000a7306 0x0000001f 0x00201400 0x000ee200
0x180c7423 0x3f800000 0x0000010b 0x004fc800
0x0b0c7223 0x0000000c 0x0000000b 0x000fe400
0x090d7220 0x0000000a 0x00400000 0x008fc800
0x0d097223 0x0000000c 0x000000ff 0x000fe400
0x0d007302 0x00000018 0x00000000 0x000ea400
0x180a7223 0x00000009 0x0000010d 0x000fc800
0x0c097223 0x0000000a 0x00000009 0x000fe200
0x00008947 0x00000050 0x03800000 0x004fea00
0x000b7202 0x0000000d 0x00000f00 0x000fe400
0x000e7202 0x00000018 0x00000f00 0x000fe400
0x000a7802 0x00006f40 0x00000f00 0x000fc600
0x00007944 0x000163b0 0x03c00000 0x003fea00
0x00097202 0x0000000c 0x00000f00 0x000fc600
0x00047941 0x00000000 0x03800000 0x000fea00
0x000c7308 0x00000013 0x00001000 0x000ea200
0x050b7220 0x0000001e 0x00400000 0x000fe200
0x04ff7355 0x00000000 0x00100000 0x000fe200
0x1a0a7820 0x40400000 0x00400000 0x000fe200
0x00047945 0x00000110 0x03800000 0x000fe200
0x150b7223 0x00000022 0x0000080b 0x000fc800
0x0a0d7220 0x0000000b 0x00400000 0x000fe400
0x040a7221 0x00000016 0x00000000 0x001fc800
0x0d007302 0x00000013 0x00000000 0x000e2200
0x130e7423 0x3f800000 0x0000010c 0x004fe400
0x0a207221 0x00000009 0x00000000 0x000fe400
0x0c0e7223 0x0000000e 0x0000000c 0x000fc800
0x0e0b7223 0x0000000d 0x000000ff 0x000fc800
0x130c7223 0x0000000b 0x0000010d 0x000fc800
0x0e097223 0x0000000c 0x0000000b 0x000fe200
0x00008947 0x00000050 0x03800000 0x001fea00
0x000b7202 0x0000000d 0x00000f00 0x000fe400
0x000e7202 0x00000013 0x00000f00 0x000fe400
0x000a7802 0x000070a0 0x00000f00 0x000fc600
0x00007944 0x00016250 0x03c00000 0x002fea00
0x00097202 0x0000000c 0x00000f00 0x000fc600
0x00047941 0x00000000 0x03800000 0x000fea00
0x14147224 0x00000014 0x078e02ff 0x000fe200
0x000c7308 0x00000019 0x00001000 0x000e2200
0x04ff7355 0x00000000 0x00100000 0x000fe200
0x00047945 0x00000130 0x03800000 0x000fe200
0x030a7224 0x0000001f 0x078e0214 0x000fe400
0x06177221 0x00000017 0x00000000 0x000fc800
0x000b7306 0x0000000a 0x00201400 0x0004e200
0x190d7423 0x3f800000 0x0000010c 0x001fe400
0x1d0a7220 0x00000022 0x00400000 0x004fe400
0x0c0d7223 0x0000000d 0x0000000c 0x000fe400
0x1e0a7220 0x0000000a 0x00400000 0x000fc800
0x0a0e7220 0x0000000b 0x00400000 0x008fc800
0x0e0a7223 0x0000000d 0x000000ff 0x000fe400
0x0e007302 0x00000019 0x00000000 0x000e2400
0x190b7223 0x0000000a 0x0000010e 0x000fc800
0x0d0a7223 0x0000000b 0x0000000a 0x000fe200
0x00008947 0x00000050 0x03800000 0x001fea00
0x000b7202 0x0000000e 0x00000f00 0x000fe400
0x000e7202 0x00000019 0x00000f00 0x000fe400
0x000a7802 0x00007210 0x00000f00 0x000fc600
0x00007944 0x000160e0 0x03c00000 0x002fea00
0x000a7202 0x0000000c 0x00000f00 0x000fc600
0x00047941 0x00000000 0x03800000 0x000fea00
0x03037224 0x00000003 0x078e02ff 0x002fe200
0x00067306 0x00000014 0x00201400 0x000e2200
0x04ff7355 0x00000000 0x00100000 0x000fe200
0x00047945 0x00000140 0x03800000 0x000fe200
0x17177221 0x0000000a 0x00000000 0x000fca00
0x000b7306 0x00000003 0x00201400 0x0002b000
0x000c7308 0x00000018 0x00001000 0x000ee200
0x05067220 0x00000006 0x00400000 0x001fe400
0x1b037820 0x40c00000 0x00400000 0x002fc400
0x0b067223 0x00000015 0x00000006 0x004fc800
0x03067220 0x00000006 0x00400000 0x000fe400
0x18057423 0x3f800000 0x0000010c 0x008fc800
0x06007302 0x00000018 0x00000000 0x000e2200
0x0c0c7223 0x00000005 0x0000000c 0x000fc800
0x0c037223 0x00000006 0x000000ff 0x000fc800
0x18057223 0x00000003 0x00000106 0x000fc800
0x0c037223 0x00000005 0x00000003 0x000fe200
0x00008947 0x00000050 0x03800000 0x001fea00
0x000b7202 0x00000006 0x00000f00 0x000fe400
0x000e7202 0x00000018 0x00000f00 0x000fe400
0x000a7802 0x00007390 0x00000f00 0x000fc600
0x00007944 0x00015f60 0x03c00000 0x000fea00
0x00037202 0x0000000c 0x00000f00 0x000fc600
0x00047941 0x00000000 0x03800000 0x000fea00
0x00067308 0x00000013 0x00001000 0x000e2200
0x04057220 0x0000001e 0x00400000 0x000fe200
0x04ff7355 0x00000000 0x00100000 0x000fe200
0x1a047820 0x40800000 0x00400000 0x000fe200
0x00047945 0x000000f0 0x03800000 0x000fe200
0x16057223 0x00000022 0x00000805 0x000fc400
0x17177221 0x00000003 0x00000000 0x000fe400
0x040b7220 0x00000005 0x00400000 0x000fcc00
0x0b007302 0x00000013 0x00000000 0x000e6200
0x130a7423 0x3f800000 0x00000106 0x001fc800
0x060a7223 0x0000000a 0x00000006 0x000fc800
0x0a047223 0x0000000b 0x000000ff 0x000fc800
0x13057223 0x00000004 0x0000010b 0x000fc800
0x0a057223 0x00000005 0x00000004 0x000fe200
0x00008947 0x00000040 0x03800000 0x002fea00
0x000e7202 0x00000013 0x00000f00 0x000fe400
0x000a7802 0x000074d0 0x00000f00 0x000fc600
0x00007944 0x00015e20 0x03c00000 0x000fea00
0x00057202 0x0000000c 0x00000f00 0x000fc600
0x00047941 0x00000000 0x03800000 0x000fea00
0x00037305 0x00000013 0x0020f100 0x00006200
0x17067221 0x00000005 0x00000000 0x000fe400
0x20047221 0x00000009 0x00000000 0x000fe400
0x00007221 0x00000007 0x00000000 0x000fe400
0x1c057221 0x00000008 0x00000000 0x000fc600
0x00037941 0x00000000 0x03800000 0x000fea00
0x2100720c 0x000000ff 0x03f05270 0x000fe200
0x01ff7355 0x00000000 0x00100000 0x000fe200
0x00017945 0x000000b0 0x03800000 0x000ff400
0x00000947 0x00000090 0x03800000 0x000fea00
0xff077819 0x0000001f 0x00011402 0x000fc800
0x07077211 0x00000002 0x078f28ff 0x000fc800
0xff077819 0x00000005 0x00011407 0x000fca00
0x07077824 0x00000014 0x078e02ff 0x000fd000
0x07007388 0x00000803 0x00000800 0x0023e800
0x07007388 0x00000c00 0x00000800 0x0003e800
0x07007388 0x00001005 0x00000800 0x0003e800
0x07007388 0x00001404 0x00000800 0x0003e800
0x07007388 0x00001806 0x00000800 0x0003e400
0x00017941 0x00000000 0x03800000 0x000fea00
0x00007b1d 0x00000000 0x00000000 0x000fea00
0x0200720c 0x000000ff 0x03f05270 0x000fd800
0x00000947 0x00015110 0x03800000 0x000fea00
0xff027984 0x00001c00 0x00001800 0x000f6200
0x03ff7355 0x00000000 0x00100000 0x000fe200
0x00037945 0x00000190 0x03800000 0x000fe400
0xff087984 0x00002000 0x00001800 0x008ee200
0x03077210 0x00000002 0x07ffe0ff 0x022fe200
0x00177221 0x00000008 0x00000100 0x009fca00
0x00147306 0x00000007 0x00201400 0x004e2200
0x17187220 0x00000017 0x00400000 0x000fc800
0x17137220 0x00000018 0x00400000 0x000fc600
0x00077306 0x00000002 0x00201400 0x000e6200
0x17197220 0x00000013 0x00400000 0x000fce00
0x00097308 0x00000014 0x00001000 0x001e2200
0x14157220 0x00000014 0x00400000 0x010fc800
0x14167220 0x00000015 0x00400000 0x040fe400
0x170b7220 0x00000007 0x00400000 0x002fe200
0x001a7305 0x00000014 0x0020f100 0x000fe200
0x14087423 0x3f800000 0x00000109 0x001fce00
0x0b007302 0x00000014 0x00000000 0x000e2200
0x09087223 0x00000008 0x00000009 0x000fc800
0x0b097223 0x00000008 0x000000ff 0x000fc800
0x140a7223 0x00000009 0x0000010b 0x000fc800
0x08087223 0x0000000a 0x00000009 0x000fe200
0x00008947 0x00000040 0x03800000 0x001fea00
0x000e7202 0x00000014 0x00000f00 0x000fe400
0x000a7802 0x00007800 0x00000f00 0x000fc600
0x00007944 0x00015af0 0x03c00000 0x000fea00
0x00087202 0x0000000c 0x00000f00 0x000fc600
0x00037941 0x00000000 0x03800000 0x000fea00
0x001f7306 0x00000003 0x00201400 0x000e2200
0xff097984 0x00002400 0x00001800 0x000e6200
0x03ff7355 0x00000000 0x00100000 0x000fe200
0x00037945 0x00000120 0x03800000 0x000fe200
0x001b7221 0x00000008 0x00000000 0x000fc800
0x000b7308 0x00000014 0x00001000 0x000ea200
0x180a7220 0x0000001f 0x00400000 0x001fc800
0x070c7220 0x0000000a 0x00400000 0x000fe400
0x140d7423 0x3f800000 0x0000010b 0x004fc800
0x0c007302 0x00000014 0x00000000 0x000e2200
0x0b0d7223 0x0000000d 0x0000000b 0x000fc800
0x0d0a7223 0x0000000c 0x000000ff 0x000fc800
0x140b7223 0x0000000a 0x0000010c 0x000fc800
0x0d0a7223 0x0000000b 0x0000000a 0x000fe400
0x051c7221 0x00000009 0x00000000 0x002fe200
0x00008947 0x00000050 0x03800000 0x001fea00
0x000b7202 0x0000000c 0x00000f00 0x000fe400
0x000e7202 0x00000014 0x00000f00 0x000fe400
0x000a7802 0x00007960 0x00000f00 0x000fc600
0x00007944 0x00015990 0x03c00000 0x000fea00
0x000a7202 0x0000000c 0x00000f00 0x000fc600
0x00037941 0x00000000 0x03800000 0x000fea00
0x031d7210 0x80000002 0x07ffe0ff 0x000fe200
0xff007984 0x00002800 0x00001800 0x000e2200
0x000c7308 0x00000015 0x00001000 0x000e6200
0x13087220 0x0000001f 0x00400000 0x000fe200
0x03ff7355 0x00000000 0x00100000 0x000fe200
0x00037945 0x00000120 0x03800000 0x000fe200
0x1c1c7221 0x0000000a 0x00000000 0x000fc400
0x07087220 0x00000008 0x00400000 0x000fe400
0x000b7306 0x0000001d 0x00201400 0x000ea200
0x150d7423 0x3f800000 0x0000010c 0x002fc800
0x0c0d7223 0x0000000d 0x0000000c 0x000fe400
0x080e7220 0x0000000b 0x00400000 0x004fc800
0x0e087223 0x0000000d 0x000000ff 0x000fe400
0x0e007302 0x00000015 0x00000000 0x000e6400
0x150b7223 0x00000008 0x0000010e 0x000fc800
0x0d087223 0x0000000b 0x00000008 0x000fe400
0x04137221 0x00000000 0x00000000 0x001fe200
0x00008947 0x00000050 0x03800000 0x002fea00
0x000b7202 0x0000000e 0x00000f00 0x000fe400
0x000e7202 0x00000015 0x00000f00 0x000fe400
0x000a7802 0x00007ae0 0x00000f00 0x000fc600
0x00007944 0x00015810 0x03c00000 0x000fea00
0x00087202 0x0000000c 0x00000f00 0x000fc600
0x00037941 0x00000000 0x03800000 0x000fea00
0x000d7308 0x00000014 0x00001000 0x000e2200
0x050b7220 0x00000007 0x00400000 0x000fe200
0x03ff7355 0x00000000 0x00100000 0x000fe200
0x170a7820 0x40400000 0x00400000 0x000fe200
0x00037945 0x00000100 0x03800000 0x000fe200
0x090b7223 0x0000001f 0x0000080b 0x000fc400
0x131e7221 0x00000008 0x00000000 0x000fe400
0x0a0c7220 0x0000000b 0x00400000 0x000fcc00
0x0c007302 0x00000014 0x00000000 0x000e6200
0x140e7423 0x3f800000 0x0000010d 0x001fc800
0x0d0e7223 0x0000000e 0x0000000d 0x000fc800
0x0e0a7223 0x0000000c 0x000000ff 0x000fc800
0x140b7223 0x0000000a 0x0000010c 0x000fc800
0x0e0a7223 0x0000000b 0x0000000a 0x000fe200
0x00008947 0x00000050 0x03800000 0x002fea00
0x000b7202 0x0000000c 0x00000f00 0x000fe400
0x000e7202 0x00000014 0x00000f00 0x000fe400
0x000a7802 0x00007c30 0x00000f00 0x000fc600
0x00007944 0x000156c0 0x03c00000 0x000fea00
0x000a7202 0x0000000c 0x00000f00 0x000fc600
0x00037941 0x00000000 0x03800000 0x000fea00
0x02137224 0x00000002 0x078e02ff 0x000fe200
0x000c7308 0x00000016 0x00001000 0x000e2200
0xff027984 0x00002c00 0x00001800 0x000e6200
0x03ff7355 0x00000000 0x00100000 0x000fe200
0x03087224 0x0000001d 0x078e0213 0x000fe200
0x00037945 0x00000130 0x03800000 0x000fe200
0x1e1e7221 0x0000000a 0x00000000 0x000fc800
0x000b7306 0x00000008 0x00201400 0x0004e200
0x160d7423 0x3f800000 0x0000010c 0x001fe400
0x19087220 0x0000001f 0x00400000 0x004fe400
0x0c0d7223 0x0000000d 0x0000000c 0x000fe400
0x07087220 0x00000008 0x00400000 0x000fc800
0x080e7220 0x0000000b 0x00400000 0x008fc800
0x0e087223 0x0000000d 0x000000ff 0x000fe400
0x0e007302 0x00000016 0x00000000 0x000e2400
0x160b7223 0x00000008 0x0000010e 0x000fc800
0x0d087223 0x0000000b 0x00000008 0x000fe400
0x06067221 0x00000002 0x00000000 0x002fe200
0x00008947 0x00000050 0x03800000 0x001fea00
0x000b7202 0x0000000e 0x00000f00 0x000fe400
0x000e7202 0x00000016 0x00000f00 0x000fe400
0x000a7802 0x00007dc0 0x00000f00 0x000fc600
0x00007944 0x00015530 0x03c00000 0x000fea00
0x00087202 0x0000000c 0x00000f00 0x000fc600
0x00037941 0x00000000 0x03800000 0x000fea00
0x03037224 0x00000003 0x078e02ff 0x000fe200
0x00137306 0x00000013 0x00201400 0x000e2200
0x18027820 0x40c00000 0x00400000 0x000fe200
0x03ff7355 0x00000000 0x00100000 0x000fe200
0x00037945 0x00000130 0x03800000 0x000fe200
0x06067221 0x00000008 0x00000000 0x000fc800
0x00037306 0x00000003 0x00201400 0x000e7000
0x000a7308 0x00000015 0x00001000 0x000ea200
0x05137220 0x00000013 0x00400000 0x001fc800
0x03137223 0x00000009 0x00000013 0x002fc800
0x02137220 0x00000013 0x00400000 0x000fe400
0x15037423 0x3f800000 0x0000010a 0x004fc800
0x13007302 0x00000015 0x00000000 0x000e2200
0x0a0a7223 0x00000003 0x0000000a 0x000fc800
0x0a027223 0x00000013 0x000000ff 0x000fc800
0x15037223 0x00000002 0x00000113 0x000fc800
0x0a027223 0x00000003 0x00000002 0x000fe200
0x00008947 0x00000050 0x03800000 0x001fea00
0x000b7202 0x00000013 0x00000f00 0x000fe400
0x000e7202 0x00000015 0x00000f00 0x000fe400
0x000a7802 0x00007f40 0x00000f00 0x000fc600
0x00007944 0x000153b0 0x03c00000 0x000fea00
0x00027202 0x0000000c 0x00000f00 0x000fc600
0x00037941 0x00000000 0x03800000 0x000fea00
0x00057308 0x00000014 0x00001000 0x000e2200
0x04047220 0x00000007 0x00400000 0x000fe200
0x03ff7355 0x00000000 0x00100000 0x000fe200
0x17037820 0x40800000 0x00400000 0x000fe200
0x00037945 0x00000100 0x03800000 0x000fe200
0x1f047223 0x00000000 0x00000804 0x000fc400
0x06077221 0x00000002 0x00000000 0x000fe400
0x03047220 0x00000004 0x00400000 0x000fcc00
0x04007302 0x00000014 0x00000000 0x000e6200
0x14007423 0x3f800000 0x00000105 0x001fc800
0x05057223 0x00000000 0x00000005 0x000fc800
0x05007223 0x00000004 0x000000ff 0x000fc800
0x14037223 0x00000000 0x00000104 0x000fc800
0x05007223 0x00000003 0x00000000 0x000fe200
0x00008947 0x00000050 0x03800000 0x002fea00
0x000b7202 0x00000004 0x00000f00 0x000fe400
0x000e7202 0x00000014 0x00000f00 0x000fe400
0x000a7802 0x00008090 0x00000f00 0x000fc600
0x00007944 0x00015260 0x03c00000 0x000fea00
0x00007202 0x0000000c 0x00000f00 0x000fc600
0x00037941 0x00000000 0x03800000 0x000fea00
0xff027984 0x00003000 0x00001a00 0x000e2200
0x03ff7355 0x00000000 0x00100000 0x000fe200
0x00037945 0x00000190 0x03800000 0x000fe200
0x07137221 0x00000000 0x00000000 0x000fe200
0x1a047210 0x00000002 0x07ffe0ff 0x001fe200
0x1b177221 0x00000003 0x00000100 0x000fc800
0x17187220 0x00000017 0x00400000 0x040fe200
0x00147306 0x00000004 0x00201400 0x000e2600
0x17097220 0x00000018 0x00400000 0x000fc800
0x17197220 0x00000009 0x00400000 0x000fe200
0x00047306 0x00000002 0x00201400 0x000e7000
0x00057308 0x00000014 0x00001000 0x001e2200
0x14157220 0x00000014 0x00400000 0x000fc800
0x14167220 0x00000015 0x00400000 0x040fe400
0x170b7220 0x00000004 0x00400000 0x002fe200
0x001d7305 0x00000014 0x0020f100 0x000fe200
0x14037423 0x3f800000 0x00000105 0x001fce00
0x0b007302 0x00000014 0x00000000 0x000e2200
0x05037223 0x00000003 0x00000005 0x000fc800
0x0b057223 0x00000003 0x000000ff 0x000fc800
0x14067223 0x00000005 0x0000010b 0x000fc800
0x03037223 0x00000006 0x00000005 0x000fe200
0x00008947 0x00000040 0x03800000 0x001fea00
0x000e7202 0x00000014 0x00000f00 0x000fe400
0x000a7802 0x00008250 0x00000f00 0x000fc600
0x00007944 0x000150a0 0x03c00000 0x000fea00
0x00037202 0x0000000c 0x00000f00 0x000fc600
0x00037941 0x00000000 0x03800000 0x000fea00
0x00207306 0x0000001a 0x00201400 0x000e2200
0xff007984 0x00003800 0x00001800 0x000e6200
0x03ff7355 0x00000000 0x00100000 0x000fe200
0x00037945 0x00000110 0x03800000 0x000fe200
0x1b1b7221 0x00000003 0x00000000 0x000fc800
0x00067308 0x00000014 0x00001000 0x000ea200
0x18057220 0x00000020 0x00400000 0x001fc800
0x040b7220 0x00000005 0x00400000 0x000fe400
0x14077423 0x3f800000 0x00000106 0x004fc800
0x0b007302 0x00000014 0x00000000 0x000e2200
0x06077223 0x00000007 0x00000006 0x000fc800
0x07057223 0x0000000b 0x000000ff 0x000fc800
0x14067223 0x00000005 0x0000010b 0x000fc800
0x07057223 0x00000006 0x00000005 0x000fe400
0x1c1f7221 0x00000000 0x00000000 0x002fe200
0x00008947 0x00000040 0x03800000 0x001fea00
0x000e7202 0x00000014 0x00000f00 0x000fe400
0x000a7802 0x000083a0 0x00000f00 0x000fc600
0x00007944 0x00014f50 0x03c00000 0x000fea00
0x00057202 0x0000000c 0x00000f00 0x000fc600
0x00037941 0x00000000 0x03800000 0x000fea00
0x1a217210 0x80000002 0x07ffe0ff 0x000fe200
0xff037984 0x00003c00 0x00001800 0x000e2200
0x00087308 0x00000015 0x00001000 0x000e6200
0x09067220 0x00000020 0x00400000 0x000fe200
0x03ff7355 0x00000000 0x00100000 0x000fe200
0x00037945 0x00000110 0x03800000 0x000fe200
0x1f1f7221 0x00000005 0x00000000 0x000fc400
0x04067220 0x00000006 0x00400000 0x000fe400
0x00077306 0x00000021 0x00201400 0x000ea200
0x15097423 0x3f800000 0x00000108 0x002fc800
0x08097223 0x00000009 0x00000008 0x000fe400
0x060b7220 0x00000007 0x00400000 0x004fc800
0x0b067223 0x00000009 0x000000ff 0x000fe400
0x0b007302 0x00000015 0x00000000 0x000e6400
0x15077223 0x00000006 0x0000010b 0x000fc800
0x09067223 0x00000007 0x00000006 0x000fe400
0x1e087221 0x00000003 0x00000000 0x001fe200
0x00008947 0x00000040 0x03800000 0x002fea00
0x000e7202 0x00000015 0x00000f00 0x000fe400
0x000a7802 0x00008510 0x00000f00 0x000fc600
0x00007944 0x00014de0 0x03c00000 0x000fea00
0x00067202 0x0000000c 0x00000f00 0x000fc600
0x00037941 0x00000000 0x03800000 0x000fea00
0x00097308 0x00000014 0x00001000 0x000e2200
0x1c077220 0x00000004 0x00400000 0x000fe200
0x03ff7355 0x00000000 0x00100000 0x000fe200
0x17057820 0x40400000 0x00400000 0x000fe200
0x00037945 0x000000f0 0x03800000 0x000fe200
0x00077223 0x00000020 0x00000807 0x000fc400
0x08227221 0x00000006 0x00000000 0x000fe400
0x050b7220 0x00000007 0x00400000 0x000fcc00
0x0b007302 0x00000014 0x00000000 0x000e6200
0x140a7423 0x3f800000 0x00000109 0x001fc800
0x090a7223 0x0000000a 0x00000009 0x000fc800
0x0a057223 0x0000000b 0x000000ff 0x000fc800
0x14077223 0x00000005 0x0000010b 0x000fc800
0x0a057223 0x00000007 0x00000005 0x000fe200
0x00008947 0x00000040 0x03800000 0x002fea00
0x000e7202 0x00000014 0x00000f00 0x000fe400
0x000a7802 0x00008650 0x00000f00 0x000fc600
0x00007944 0x00014ca0 0x03c00000 0x000fea00
0x00057202 0x0000000c 0x00000f00 0x000fc600
0x00037941 0x00000000 0x03800000 0x000fea00
0x02077224 0x00000002 0x078e02ff 0x000fe200
0x00097308 0x00000016 0x00001000 0x000e2200
0xff027984 0x00004000 0x00001800 0x000e6200
0x03ff7355 0x00000000 0x00100000 0x000fe200
0x1a067224 0x00000021 0x078e0207 0x000fe200
0x00037945 0x00000120 0x03800000 0x000fe200
0x22227221 0x00000005 0x00000000 0x000fc800
0x00087306 0x00000006 0x00201400 0x0004e200
0x160a7423 0x3f800000 0x00000109 0x001fe400
0x19067220 0x00000020 0x00400000 0x004fe400
0x090a7223 0x0000000a 0x00000009 0x000fe400
0x04067220 0x00000006 0x00400000 0x000fc800
0x060b7220 0x00000008 0x00400000 0x008fc800
0x0b067223 0x0000000a 0x000000ff 0x000fe400
0x0b007302 0x00000016 0x00000000 0x000e2400
0x16087223 0x00000006 0x0000010b 0x000fc800
0x0a067223 0x00000008 0x00000006 0x000fe400
0x13137221 0x00000002 0x00000000 0x002fe200
0x00008947 0x00000040 0x03800000 0x001fea00
0x000e7202 0x00000016 0x00000f00 0x000fe400
0x000a7802 0x000087d0 0x00000f00 0x000fc600
0x00007944 0x00014b20 0x03c00000 0x000fea00
0x00067202 0x0000000c 0x00000f00 0x000fc600
0x00037941 0x00000000 0x03800000 0x000fea00
0x1a027224 0x0000001a 0x078e02ff 0x000fe200
0x00077306 0x00000007 0x00201400 0x000e2200
0x03ff7355 0x00000000 0x00100000 0x000fe200
0x00037945 0x00000140 0x03800000 0x000fe200
0x13067221 0x00000006 0x00000000 0x000fca00
0x00057306 0x00000002 0x00201400 0x0002b000
0x00087308 0x00000015 0x00001000 0x000ee200
0x1c077220 0x00000007 0x00400000 0x001fe400
0x18027820 0x40c00000 0x00400000 0x002fc400
0x00057223 0x00000005 0x00000007 0x004fc800
0x02057220 0x00000005 0x00400000 0x000fe400
0x15007423 0x3f800000 0x00000108 0x008fc800
0x05007302 0x00000015 0x00000000 0x000e2200
0x08087223 0x00000000 0x00000008 0x000fc800
0x08007223 0x00000005 0x000000ff 0x000fc800
0x15027223 0x00000000 0x00000105 0x000fc800
0x08007223 0x00000002 0x00000000 0x000fe200
0x00008947 0x00000050 0x03800000 0x001fea00
0x000b7202 0x00000005 0x00000f00 0x000fe400
0x000e7202 0x00000015 0x00000f00 0x000fe400
0x000a7802 0x00008950 0x00000f00 0x000fc600
0x00007944 0x000149a0 0x03c00000 0x000fea00
0x00007202 0x0000000c 0x00000f00 0x000fc600
0x00037941 0x00000000 0x03800000 0x000fea00
0x00057308 0x00000014 0x00001000 0x000e2200
0x1e047220 0x00000004 0x00400000 0x000fe200
0x03ff7355 0x00000000 0x00100000 0x000fe200
0x17027820 0x40800000 0x00400000 0x000fe200
0x00037945 0x00000100 0x03800000 0x000fe200
0x20047223 0x00000003 0x00000804 0x000fc400
0x06077221 0x00000000 0x00000000 0x000fe400
0x02047220 0x00000004 0x00400000 0x000fcc00
0x04007302 0x00000014 0x00000000 0x000e6200
0x14037423 0x3f800000 0x00000105 0x001fc800
0x05057223 0x00000003 0x00000005 0x000fc800
0x05027223 0x00000004 0x000000ff 0x000fc800
0x14037223 0x00000002 0x00000104 0x000fc800
0x05027223 0x00000003 0x00000002 0x000fe200
0x00008947 0x00000050 0x03800000 0x002fea00
0x000b7202 0x00000004 0x00000f00 0x000fe400
0x000e7202 0x00000014 0x00000f00 0x000fe400
0x000a7802 0x00008aa0 0x00000f00 0x000fc600
0x00007944 0x00014850 0x03c00000 0x000fea00
0x00027202 0x0000000c 0x00000f00 0x000fc600
0x00037941 0x00000000 0x03800000 0x000fea00
0xff007984 0x00004400 0x00001800 0x000e2200
0x03ff7355 0x00000000 0x00100000 0x000fe200
0x00037945 0x000001a0 0x03800000 0x000fe200
0x07137221 0x00000002 0x00000000 0x000fe200
0xff057984 0x00004800 0x00001800 0x000e6200
0x1d037210 0x00000000 0x07ffe0ff 0x001fe200
0x1b177221 0x00000005 0x00000100 0x002fca00
0x00147306 0x00000003 0x00201400 0x000e2200
0x17187220 0x00000017 0x00400000 0x000fc800
0x17097220 0x00000018 0x00400000 0x000fc600
0x00037306 0x00000000 0x00201400 0x000e6200
0x17197220 0x00000009 0x00400000 0x000fce00
0x00047308 0x00000014 0x00001000 0x001e2200
0x14157220 0x00000014 0x00400000 0x000fc800
0x14167220 0x00000015 0x00400000 0x040fe400
0x170b7220 0x00000003 0x00400000 0x002fe200
0x001a7305 0x00000014 0x0020f100 0x000fe200
0x14057423 0x3f800000 0x00000104 0x001fce00
0x0b007302 0x00000014 0x00000000 0x000e2200
0x04057223 0x00000005 0x00000004 0x000fc800
0x0b047223 0x00000005 0x000000ff 0x000fc800
0x14067223 0x00000004 0x0000010b 0x000fc800
0x05047223 0x00000006 0x00000004 0x000fe200
0x00008947 0x00000040 0x03800000 0x001fea00
0x000e7202 0x00000014 0x00000f00 0x000fe400
0x000a7802 0x00008c70 0x00000f00 0x000fc600
0x00007944 0x00014680 0x03c00000 0x000fea00
0x00047202 0x0000000c 0x00000f00 0x000fc600
0x00037941 0x00000000 0x03800000 0x000fea00
0x001e7306 0x0000001d 0x00201400 0x000e2200
0xff027984 0x00004c00 0x00001800 0x000e6200
0x03ff7355 0x00000000 0x00100000 0x000fe200
0x00037945 0x00000110 0x03800000 0x000fe200
0x1b1b7221 0x00000004 0x00000000 0x000fc800
0x00067308 0x00000014 0x00001000 0x000ea200
0x18057220 0x0000001e 0x00400000 0x001fc800
0x030b7220 0x00000005 0x00400000 0x000fe400
0x14077423 0x3f800000 0x00000106 0x004fc800
0x0b007302 0x00000014 0x00000000 0x000e2200
0x06077223 0x00000007 0x00000006 0x000fc800
0x07057223 0x0000000b 0x000000ff 0x000fc800
0x14067223 0x00000005 0x0000010b 0x000fc800
0x07057223 0x00000006 0x00000005 0x000fe400
0x1f1c7221 0x00000002 0x00000000 0x002fe200
0x00008947 0x00000040 0x03800000 0x001fea00
0x000e7202 0x00000014 0x00000f00 0x000fe400
0x000a7802 0x00008dc0 0x00000f00 0x000fc600
0x00007944 0x00014530 0x03c00000 0x000fea00
0x00057202 0x0000000c 0x00000f00 0x000fc600
0x00037941 0x00000000 0x03800000 0x000fea00
0x1d207210 0x80000000 0x07ffe0ff 0x000fe200
0xff047984 0x00005000 0x00001800 0x000e2200
0x00087308 0x00000015 0x00001000 0x000e6200
0x09067220 0x0000001e 0x00400000 0x000fe200
0x03ff7355 0x00000000 0x00100000 0x000fe200
0x00037945 0x00000110 0x03800000 0x000fe200
0x1c1c7221 0x00000005 0x00000000 0x000fc400
0x03067220 0x00000006 0x00400000 0x000fe400
0x00077306 0x00000020 0x00201400 0x000ea200
0x15097423 0x3f800000 0x00000108 0x002fc800
0x08097223 0x00000009 0x00000008 0x000fe400
0x060b7220 0x00000007 0x00400000 0x004fc800
0x0b067223 0x00000009 0x000000ff 0x000fe400
0x0b007302 0x00000015 0x00000000 0x000e6400
0x15077223 0x00000006 0x0000010b 0x000fc800
0x09067223 0x00000007 0x00000006 0x000fe400
0x22087221 0x00000004 0x00000000 0x001fe200
0x00008947 0x00000040 0x03800000 0x002fea00
0x000e7202 0x00000015 0x00000f00 0x000fe400
0x000a7802 0x00008f30 0x00000f00 0x000fc600
0x00007944 0x000143c0 0x03c00000 0x000fea00
0x00067202 0x0000000c 0x00000f00 0x000fc600
0x00037941 0x00000000 0x03800000 0x000fea00
0x00097308 0x00000014 0x00001000 0x000e2200
0x1f077220 0x00000003 0x00400000 0x000fe200
0x03ff7355 0x00000000 0x00100000 0x000fe200
0x17057820 0x40400000 0x00400000 0x000fe200
0x00037945 0x000000f0 0x03800000 0x000fe200
0x02077223 0x0000001e 0x00000807 0x000fc400
0x08217221 0x00000006 0x00000000 0x000fe400
0x050b7220 0x00000007 0x00400000 0x000fcc00
0x0b007302 0x00000014 0x00000000 0x000e6200
0x140a7423 0x3f800000 0x00000109 0x001fc800
0x090a7223 0x0000000a 0x00000009 0x000fc800
0x0a057223 0x0000000b 0x000000ff 0x000fc800
0x14077223 0x00000005 0x0000010b 0x000fc800
0x0a057223 0x00000007 0x00000005 0x000fe200
0x00008947 0x00000040 0x03800000 0x002fea00
0x000e7202 0x00000014 0x00000f00 0x000fe400
0x000a7802 0x00009070 0x00000f00 0x000fc600
0x00007944 0x00014280 0x03c00000 0x000fea00
0x00057202 0x0000000c 0x00000f00 0x000fc600
0x00037941 0x00000000 0x03800000 0x000fea00
0x00077224 0x00000000 0x078e02ff 0x000fe200
0x00097308 0x00000016 0x00001000 0x000e2200
0xff007984 0x00005400 0x00001800 0x000e6200
0x03ff7355 0x00000000 0x00100000 0x000fe200
0x1d067224 0x00000020 0x078e0207 0x000fe200
0x00037945 0x00000120 0x03800000 0x000fe200
0x21217221 0x00000005 0x00000000 0x000fc800
0x00087306 0x00000006 0x00201400 0x0004e200
0x160a7423 0x3f800000 0x00000109 0x001fe400
0x19067220 0x0000001e 0x00400000 0x004fe400
0x090a7223 0x0000000a 0x00000009 0x000fe400
0x03067220 0x00000006 0x00400000 0x000fc800
0x060b7220 0x00000008 0x00400000 0x008fc800
0x0b067223 0x0000000a 0x000000ff 0x000fe400
0x0b007302 0x00000016 0x00000000 0x000e2400
0x16087223 0x00000006 0x0000010b 0x000fc800
0x0a067223 0x00000008 0x00000006 0x000fe400
0x13137221 0x00000000 0x00000000 0x002fe200
0x00008947 0x00000040 0x03800000 0x001fea00
0x000e7202 0x00000016 0x00000f00 0x000fe400
0x000a7802 0x000091f0 0x00000f00 0x000fc600
0x00007944 0x00014100 0x03c00000 0x000fea00
0x00067202 0x0000000c 0x00000f00 0x000fc600
0x00037941 0x00000000 0x03800000 0x000fea00
0x1d007224 0x0000001d 0x078e02ff 0x000fe200
0x00077306 0x00000007 0x00201400 0x000e2200
0x03ff7355 0x00000000 0x00100000 0x000fe200
0x00037945 0x00000140 0x03800000 0x000fe200
0x13067221 0x00000006 0x00000000 0x000fca00
0x00057306 0x00000000 0x00201400 0x0002b000
0x00087308 0x00000015 0x00001000 0x000ee200
0x1f077220 0x00000007 0x00400000 0x001fe400
0x18007820 0x40c00000 0x00400000 0x002fc400
0x02057223 0x00000005 0x00000007 0x004fc800
0x00057220 0x00000005 0x00400000 0x000fe400
0x15027423 0x3f800000 0x00000108 0x008fc800
0x05007302 0x00000015 0x00000000 0x000e2200
0x08087223 0x00000002 0x00000008 0x000fc800
0x08007223 0x00000005 0x000000ff 0x000fc800
0x15027223 0x00000000 0x00000105 0x000fc800
0x08007223 0x00000002 0x00000000 0x000fe200
0x00008947 0x00000050 0x03800000 0x001fea00
0x000b7202 0x00000005 0x00000f00 0x000fe400
0x000e7202 0x00000015 0x00000f00 0x000fe400
0x000a7802 0x00009370 0x00000f00 0x000fc600
0x00007944 0x00013f80 0x03c00000 0x000fea00
0x00007202 0x0000000c 0x00000f00 0x000fc600
0x00037941 0x00000000 0x03800000 0x000fea00
0x00057308 0x00000014 0x00001000 0x000e2200
0x22037220 0x00000003 0x00400000 0x000fe200
0x03ff7355 0x00000000 0x00100000 0x000fe200
0x17027820 0x40800000 0x00400000 0x000fe200
0x00037945 0x000000f0 0x03800000 0x000fe200
0x1e037223 0x00000004 0x00000803 0x000fc400
0x06077221 0x00000000 0x00000000 0x000fe400
0x020b7220 0x00000003 0x00400000 0x000fcc00
0x0b007302 0x00000014 0x00000000 0x000e6200
0x14047423 0x3f800000 0x00000105 0x001fc800
0x05047223 0x00000004 0x00000005 0x000fc800
0x04027223 0x0000000b 0x000000ff 0x000fc800
0x14037223 0x00000002 0x0000010b 0x000fc800
0x04027223 0x00000003 0x00000002 0x000fe200
0x00008947 0x00000040 0x03800000 0x002fea00
0x000e7202 0x00000014 0x00000f00 0x000fe400
0x000a7802 0x000094b0 0x00000f00 0x000fc600
0x00007944 0x00013e40 0x03c00000 0x000fea00
0x00027202 0x0000000c 0x00000f00 0x000fc600
0x00037941 0x00000000 0x03800000 0x000fea00
0xff047984 0x00005800 0x00001a00 0x000e2200
0x03ff7355 0x00000000 0x00100000 0x000fe200
0x00037945 0x00000190 0x03800000 0x000fe200
0x07137221 0x00000002 0x00000000 0x000fe200
0x1a007210 0x00000004 0x07ffe0ff 0x001fe200
0x1b177221 0x00000005 0x00000100 0x000fc800
0x17187220 0x00000017 0x00400000 0x040fe200
0x00147306 0x00000000 0x00201400 0x000e2600
0x17097220 0x00000018 0x00400000 0x000fc800
0x17197220 0x00000009 0x00400000 0x000fe200
0x00007306 0x00000004 0x00201400 0x000e7000
0x00037308 0x00000014 0x00001000 0x001e2200
0x14157220 0x00000014 0x00400000 0x000fc800
0x14167220 0x00000015 0x00400000 0x040fe400
0x170b7220 0x00000000 0x00400000 0x002fe200
0x001d7305 0x00000014 0x0020f100 0x000fe200
0x14057423 0x3f800000 0x00000103 0x001fce00
0x0b007302 0x00000014 0x00000000 0x000e2200
0x03057223 0x00000005 0x00000003 0x000fc800
0x0b037223 0x00000005 0x000000ff 0x000fc800
0x14067223 0x00000003 0x0000010b 0x000fc800
0x05037223 0x00000006 0x00000003 0x000fe200
0x00008947 0x00000040 0x03800000 0x001fea00
0x000e7202 0x00000014 0x00000f00 0x000fe400
0x000a7802 0x00009670 0x00000f00 0x000fc600
0x00007944 0x00013c80 0x03c00000 0x000fea00
0x00037202 0x0000000c 0x00000f00 0x000fc600
0x00037941 0x00000000 0x03800000 0x000fea00
0x001f7306 0x0000001a 0x00201400 0x000e2200
0xff027984 0x00006000 0x00001800 0x000e6200
0x03ff7355 0x00000000 0x00100000 0x000fe200
0x00037945 0x00000110 0x03800000 0x000fe200
0x1b1b7221 0x00000003 0x00000000 0x000fc800
0x00067308 0x00000014 0x00001000 0x000ea200
0x18057220 0x0000001f 0x00400000 0x001fc800
0x000b7220 0x00000005 0x00400000 0x000fe400
0x14077423 0x3f800000 0x00000106 0x004fc800
0x0b007302 0x00000014 0x00000000 0x000e2200
0x06077223 0x00000007 0x00000006 0x000fc800
0x07057223 0x0000000b 0x000000ff 0x000fc800
0x14067223 0x00000005 0x0000010b 0x000fc800
0x07057223 0x00000006 0x00000005 0x000fe400
0x1c1e7221 0x00000002 0x00000000 0x002fe200
0x00008947 0x00000040 0x03800000 0x001fea00
0x000e7202 0x00000014 0x00000f00 0x000fe400
0x000a7802 0x000097c0 0x00000f00 0x000fc600
0x00007944 0x00013b30 0x03c00000 0x000fea00
0x00057202 0x0000000c 0x00000f00 0x000fc600
0x00037941 0x00000000 0x03800000 0x000fea00
0x1a207210 0x80000004 0x07ffe0ff 0x000fe200
0xff037984 0x00006400 0x00001800 0x000e2200
0x00087308 0x00000015 0x00001000 0x000e6200
0x09067220 0x0000001f 0x00400000 0x000fe200
0x03ff7355 0x00000000 0x00100000 0x000fe200
0x00037945 0x00000110 0x03800000 0x000fe200
0x1e1e7221 0x00000005 0x00000000 0x000fc400
0x00067220 0x00000006 0x00400000 0x000fe400
0x00077306 0x00000020 0x00201400 0x000ea200
0x15097423 0x3f800000 0x00000108 0x002fc800
0x08097223 0x00000009 0x00000008 0x000fe400
0x060b7220 0x00000007 0x00400000 0x004fc800
0x0b067223 0x00000009 0x000000ff 0x000fe400
0x0b007302 0x00000015 0x00000000 0x000e6400
0x15077223 0x00000006 0x0000010b 0x000fc800
0x09067223 0x00000007 0x00000006 0x000fe400
0x21087221 0x00000003 0x00000000 0x001fe200
0x00008947 0x00000040 0x03800000 0x002fea00
0x000e7202 0x00000015 0x00000f00 0x000fe400
0x000a7802 0x00009930 0x00000f00 0x000fc600
0x00007944 0x000139c0 0x03c00000 0x000fea00
0x00067202 0x0000000c 0x00000f00 0x000fc600
0x00037941 0x00000000 0x03800000 0x000fea00
0x00097308 0x00000014 0x00001000 0x000e2200
0x1c077220 0x00000000 0x00400000 0x000fe200
0x03ff7355 0x00000000 0x00100000 0x000fe200
0x17057820 0x40400000 0x00400000 0x000fe200
0x00037945 0x000000f0 0x03800000 0x000fe200
0x02077223 0x0000001f 0x00000807 0x000fc400
0x08227221 0x00000006 0x00000000 0x000fe400
0x050b7220 0x00000007 0x00400000 0x000fcc00
0x0b007302 0x00000014 0x00000000 0x000e6200
0x140a7423 0x3f800000 0x00000109 0x001fc800
0x090a7223 0x0000000a 0x00000009 0x000fc800
0x0a057223 0x0000000b 0x000000ff 0x000fc800
0x14077223 0x00000005 0x0000010b 0x000fc800
0x0a057223 0x00000007 0x00000005 0x000fe200
0x00008947 0x00000040 0x03800000 0x002fea00
0x000e7202 0x00000014 0x00000f00 0x000fe400
0x000a7802 0x00009a70 0x00000f00 0x000fc600
0x00007944 0x00013880 0x03c00000 0x000fea00
0x00057202 0x0000000c 0x00000f00 0x000fc600
0x00037941 0x00000000 0x03800000 0x000fea00
0x04077224 0x00000004 0x078e02ff 0x000fe200
0x00097308 0x00000016 0x00001000 0x000e2200
0xff047984 0x00006800 0x00001800 0x000e6200
0x03ff7355 0x00000000 0x00100000 0x000fe200
0x1a067224 0x00000020 0x078e0207 0x000fe200
0x00037945 0x00000120 0x03800000 0x000fe200
0x22227221 0x00000005 0x00000000 0x000fc800
0x00087306 0x00000006 0x00201400 0x0004e200
0x160a7423 0x3f800000 0x00000109 0x001fe400
0x19067220 0x0000001f 0x00400000 0x004fe400
0x090a7223 0x0000000a 0x00000009 0x000fe400
0x00067220 0x00000006 0x00400000 0x000fc800
0x060b7220 0x00000008 0x00400000 0x008fc800
0x0b067223 0x0000000a 0x000000ff 0x000fe400
0x0b007302 0x00000016 0x00000000 0x000e2400
0x16087223 0x00000006 0x0000010b 0x000fc800
0x0a067223 0x00000008 0x00000006 0x000fe400
0x13137221 0x00000004 0x00000000 0x002fe200
0x00008947 0x00000040 0x03800000 0x001fea00
0x000e7202 0x00000016 0x00000f00 0x000fe400
0x000a7802 0x00009bf0 0x00000f00 0x000fc600
0x00007944 0x00013700 0x03c00000 0x000fea00
0x00067202 0x0000000c 0x00000f00 0x000fc600
0x00037941 0x00000000 0x03800000 0x000fea00
0x1a047224 0x0000001a 0x078e02ff 0x000fe200
0x00077306 0x00000007 0x00201400 0x000e2200
0x03ff7355 0x00000000 0x00100000 0x000fe200
0x00037945 0x00000140 0x03800000 0x000fe200
0x13067221 0x00000006 0x00000000 0x000fca00
0x00057306 0x00000004 0x00201400 0x0002b000
0x00087308 0x00000015 0x00001000 0x000ee200
0x1c077220 0x00000007 0x00400000 0x001fe400
0x18047820 0x40c00000 0x00400000 0x002fc400
0x02057223 0x00000005 0x00000007 0x004fc800
0x04057220 0x00000005 0x00400000 0x000fe400
0x15027423 0x3f800000 0x00000108 0x008fc800
0x05007302 0x00000015 0x00000000 0x000e2200
0x08087223 0x00000002 0x00000008 0x000fc800
0x08027223 0x00000005 0x000000ff 0x000fc800
0x15047223 0x00000002 0x00000105 0x000fc800
0x08027223 0x00000004 0x00000002 0x000fe200
0x00008947 0x00000050 0x03800000 0x001fea00
0x000b7202 0x00000005 0x00000f00 0x000fe400
0x000e7202 0x00000015 0x00000f00 0x000fe400
0x000a7802 0x00009d70 0x00000f00 0x000fc600
0x00007944 0x00013580 0x03c00000 0x000fea00
0x00027202 0x0000000c 0x00000f00 0x000fc600
0x00037941 0x00000000 0x03800000 0x000fea00
0x00057308 0x00000014 0x00001000 0x000e2200
0x21047220 0x00000000 0x00400000 0x000fe200
0x03ff7355 0x00000000 0x00100000 0x000fe200
0x17007820 0x40800000 0x00400000 0x000fe200
0x00037945 0x00000100 0x03800000 0x000fe200
0x1f047223 0x00000003 0x00000804 0x000fc400
0x06077221 0x00000002 0x00000000 0x000fe400
0x00047220 0x00000004 0x00400000 0x000fcc00
0x04007302 0x00000014 0x00000000 0x000e6200
0x14037423 0x3f800000 0x00000105 0x001fc800
0x05057223 0x00000003 0x00000005 0x000fc800
0x05007223 0x00000004 0x000000ff 0x000fc800
0x14037223 0x00000000 0x00000104 0x000fc800
0x05007223 0x00000003 0x00000000 0x000fe200
0x00008947 0x00000050 0x03800000 0x002fea00
0x000b7202 0x00000004 0x00000f00 0x000fe400
0x000e7202 0x00000014 0x00000f00 0x000fe400
0x000a7802 0x00009ec0 0x00000f00 0x000fc600
0x00007944 0x00013430 0x03c00000 0x000fea00
0x00007202 0x0000000c 0x00000f00 0x000fc600
0x00037941 0x00000000 0x03800000 0x000fea00
0xff027984 0x00006c00 0x00001800 0x000e2200
0x03ff7355 0x00000000 0x00100000 0x000fe200
0x00037945 0x000001a0 0x03800000 0x000fe200
0x07137221 0x00000000 0x00000000 0x000fe200
0xff047984 0x00007000 0x00001800 0x000e6200
0x1d037210 0x00000002 0x07ffe0ff 0x001fe200
0x1b177221 0x00000004 0x00000100 0x002fca00
0x00147306 0x00000003 0x00201400 0x000e2200
0x17187220 0x00000017 0x00400000 0x000fc800
0x17097220 0x00000018 0x00400000 0x000fc600
0x00037306 0x00000002 0x00201400 0x000e6200
0x17197220 0x00000009 0x00400000 0x000fce00
0x00057308 0x00000014 0x00001000 0x001e2200
0x14157220 0x00000014 0x00400000 0x000fc800
0x14167220 0x00000015 0x00400000 0x040fe400
0x170b7220 0x00000003 0x00400000 0x002fe200
0x001a7305 0x00000014 0x0020f100 0x000fe200
0x14047423 0x3f800000 0x00000105 0x001fce00
0x0b007302 0x00000014 0x00000000 0x000e2200
0x05047223 0x00000004 0x00000005 0x000fc800
0x0b057223 0x00000004 0x000000ff 0x000fc800
0x14067223 0x00000005 0x0000010b 0x000fc800
0x04047223 0x00000006 0x00000005 0x000fe200
0x00008947 0x00000040 0x03800000 0x001fea00
0x000e7202 0x00000014 0x00000f00 0x000fe400
0x000a7802 0x0000a090 0x00000f00 0x000fc600
0x00007944 0x00013260 0x03c00000 0x000fea00
0x00047202 0x0000000c 0x00000f00 0x000fc600
0x00037941 0x00000000 0x03800000 0x000fea00
0x001f7306 0x0000001d 0x00201400 0x000e2200
0xff007984 0x00007400 0x00001800 0x000e6200
0x03ff7355 0x00000000 0x00100000 0x000fe200
0x00037945 0x00000110 0x03800000 0x000fe200
0x1b1b7221 0x00000004 0x00000000 0x000fc800
0x00067308 0x00000014 0x00001000 0x000ea200
0x18057220 0x0000001f 0x00400000 0x001fc800
0x030b7220 0x00000005 0x00400000 0x000fe400
0x14077423 0x3f800000 0x00000106 0x004fc800
0x0b007302 0x00000014 0x00000000 0x000e2200
0x06077223 0x00000007 0x00000006 0x000fc800
0x07057223 0x0000000b 0x000000ff 0x000fc800
0x14067223 0x00000005 0x0000010b 0x000fc800
0x07057223 0x00000006 0x00000005 0x000fe400
0x1e1c7221 0x00000000 0x00000000 0x002fe200
0x00008947 0x00000040 0x03800000 0x001fea00
0x000e7202 0x00000014 0x00000f00 0x000fe400
0x000a7802 0x0000a1e0 0x00000f00 0x000fc600
0x00007944 0x00013110 0x03c00000 0x000fea00
0x00057202 0x0000000c 0x00000f00 0x000fc600
0x00037941 0x00000000 0x03800000 0x000fea00
0x1d207210 0x80000002 0x07ffe0ff 0x000fe200
0xff047984 0x00007800 0x00001800 0x000e2200
0x00087308 0x00000015 0x00001000 0x000e6200
0x09067220 0x0000001f 0x00400000 0x000fe200
0x03ff7355 0x00000000 0x00100000 0x000fe200
0x00037945 0x00000110 0x03800000 0x000fe200
0x1c1c7221 0x00000005 0x00000000 0x000fc400
0x03067220 0x00000006 0x00400000 0x000fe400
0x00077306 0x00000020 0x00201400 0x000ea200
0x15097423 0x3f800000 0x00000108 0x002fc800
0x08097223 0x00000009 0x00000008 0x000fe400
0x060b7220 0x00000007 0x00400000 0x004fc800
0x0b067223 0x00000009 0x000000ff 0x000fe400
0x0b007302 0x00000015 0x00000000 0x000e6400
0x15077223 0x00000006 0x0000010b 0x000fc800
0x09067223 0x00000007 0x00000006 0x000fe400
0x22087221 0x00000004 0x00000000 0x001fe200
0x00008947 0x00000040 0x03800000 0x002fea00
0x000e7202 0x00000015 0x00000f00 0x000fe400
0x000a7802 0x0000a350 0x00000f00 0x000fc600
0x00007944 0x00012fa0 0x03c00000 0x000fea00
0x00067202 0x0000000c 0x00000f00 0x000fc600
0x00037941 0x00000000 0x03800000 0x000fea00
0x00097308 0x00000014 0x00001000 0x000e2200
0x1e077220 0x00000003 0x00400000 0x000fe200
0x03ff7355 0x00000000 0x00100000 0x000fe200
0x17057820 0x40400000 0x00400000 0x000fe200
0x00037945 0x000000f0 0x03800000 0x000fe200
0x00077223 0x0000001f 0x00000807 0x000fc400
0x08217221 0x00000006 0x00000000 0x000fe400
0x050b7220 0x00000007 0x00400000 0x000fcc00
0x0b007302 0x00000014 0x00000000 0x000e6200
0x140a7423 0x3f800000 0x00000109 0x001fc800
0x090a7223 0x0000000a 0x00000009 0x000fc800
0x0a057223 0x0000000b 0x000000ff 0x000fc800
0x14077223 0x00000005 0x0000010b 0x000fc800
0x0a057223 0x00000007 0x00000005 0x000fe200
0x00008947 0x00000040 0x03800000 0x002fea00
0x000e7202 0x00000014 0x00000f00 0x000fe400
0x000a7802 0x0000a490 0x00000f00 0x000fc600
0x00007944 0x00012e60 0x03c00000 0x000fea00
0x00057202 0x0000000c 0x00000f00 0x000fc600
0x00037941 0x00000000 0x03800000 0x000fea00
0x02077224 0x00000002 0x078e02ff 0x000fe200
0x00097308 0x00000016 0x00001000 0x000e2200
0xff027984 0x00007c00 0x00001800 0x000e6200
0x03ff7355 0x00000000 0x00100000 0x000fe200
0x1d067224 0x00000020 0x078e0207 0x000fe200
0x00037945 0x00000120 0x03800000 0x000fe200
0x21217221 0x00000005 0x00000000 0x000fc800
0x00087306 0x00000006 0x00201400 0x0004e200
0x160a7423 0x3f800000 0x00000109 0x001fe400
0x19067220 0x0000001f 0x00400000 0x004fe400
0x090a7223 0x0000000a 0x00000009 0x000fe400
0x03067220 0x00000006 0x00400000 0x000fc800
0x060b7220 0x00000008 0x00400000 0x008fc800
0x0b067223 0x0000000a 0x000000ff 0x000fe400
0x0b007302 0x00000016 0x00000000 0x000e2400
0x16087223 0x00000006 0x0000010b 0x000fc800
0x0a067223 0x00000008 0x00000006 0x000fe400
0x13137221 0x00000002 0x00000000 0x002fe200
0x00008947 0x00000040 0x03800000 0x001fea00
0x000e7202 0x00000016 0x00000f00 0x000fe400
0x000a7802 0x0000a610 0x00000f00 0x000fc600
0x00007944 0x00012ce0 0x03c00000 0x000fea00
0x00067202 0x0000000c 0x00000f00 0x000fc600
0x00037941 0x00000000 0x03800000 0x000fea00
0x1d027224 0x0000001d 0x078e02ff 0x000fe200
0x00077306 0x00000007 0x00201400 0x000e2200
0x03ff7355 0x00000000 0x00100000 0x000fe200
0x00037945 0x00000140 0x03800000 0x000fe200
0x13067221 0x00000006 0x00000000 0x000fca00
0x00057306 0x00000002 0x00201400 0x0002b000
0x00087308 0x00000015 0x00001000 0x000ee200
0x1e077220 0x00000007 0x00400000 0x001fe400
0x18027820 0x40c00000 0x00400000 0x002fc400
0x00057223 0x00000005 0x00000007 0x004fc800
0x02057220 0x00000005 0x00400000 0x000fe400
0x15007423 0x3f800000 0x00000108 0x008fc800
0x05007302 0x00000015 0x00000000 0x000e2200
0x08087223 0x00000000 0x00000008 0x000fc800
0x08007223 0x00000005 0x000000ff 0x000fc800
0x15027223 0x00000000 0x00000105 0x000fc800
0x08007223 0x00000002 0x00000000 0x000fe200
0x00008947 0x00000050 0x03800000 0x001fea00
0x000b7202 0x00000005 0x00000f00 0x000fe400
0x000e7202 0x00000015 0x00000f00 0x000fe400
0x000a7802 0x0000a790 0x00000f00 0x000fc600
0x00007944 0x00012b60 0x03c00000 0x000fea00
0x00007202 0x0000000c 0x00000f00 0x000fc600
0x00037941 0x00000000 0x03800000 0x000fea00
0x00057308 0x00000014 0x00001000 0x000e2200
0x22037220 0x00000003 0x00400000 0x000fe200
0x03ff7355 0x00000000 0x00100000 0x000fe200
0x17027820 0x40800000 0x00400000 0x000fe200
0x00037945 0x000000f0 0x03800000 0x000fe200
0x1f037223 0x00000004 0x00000803 0x000fc400
0x06077221 0x00000000 0x00000000 0x000fe400
0x020b7220 0x00000003 0x00400000 0x000fcc00
0x0b007302 0x00000014 0x00000000 0x000e6200
0x14047423 0x3f800000 0x00000105 0x001fc800
0x05047223 0x00000004 0x00000005 0x000fc800
0x04027223 0x0000000b 0x000000ff 0x000fc800
0x14037223 0x00000002 0x0000010b 0x000fc800
0x04027223 0x00000003 0x00000002 0x000fe200
0x00008947 0x00000040 0x03800000 0x002fea00
0x000e7202 0x00000014 0x00000f00 0x000fe400
0x000a7802 0x0000a8d0 0x00000f00 0x000fc600
0x00007944 0x00012a20 0x03c00000 0x000fea00
0x00027202 0x0000000c 0x00000f00 0x000fc600
0x00037941 0x00000000 0x03800000 0x000fea00
0xff047984 0x00008000 0x00001a00 0x000e2200
0x03ff7355 0x00000000 0x00100000 0x000fe200
0x00037945 0x00000190 0x03800000 0x000fe200
0x07137221 0x00000002 0x00000000 0x000fe200
0x1a007210 0x00000004 0x07ffe0ff 0x001fe200
0x1b177221 0x00000005 0x00000100 0x000fc800
0x17187220 0x00000017 0x00400000 0x040fe200
0x00147306 0x00000000 0x00201400 0x000e2600
0x17097220 0x00000018 0x00400000 0x000fc800
0x17197220 0x00000009 0x00400000 0x000fe200
0x00007306 0x00000004 0x00201400 0x000e7000
0x00037308 0x00000014 0x00001000 0x001e2200
0x14157220 0x00000014 0x00400000 0x000fc800
0x14167220 0x00000015 0x00400000 0x040fe400
0x170b7220 0x00000000 0x00400000 0x002fe200
0x001d7305 0x00000014 0x0020f100 0x000fe200
0x14057423 0x3f800000 0x00000103 0x001fce00
0x0b007302 0x00000014 0x00000000 0x000e2200
0x03057223 0x00000005 0x00000003 0x000fc800
0x0b037223 0x00000005 0x000000ff 0x000fc800
0x14067223 0x00000003 0x0000010b 0x000fc800
0x05037223 0x00000006 0x00000003 0x000fe200
0x00008947 0x00000040 0x03800000 0x001fea00
0x000e7202 0x00000014 0x00000f00 0x000fe400
0x000a7802 0x0000aa90 0x00000f00 0x000fc600
0x00007944 0x00012860 0x03c00000 0x000fea00
0x00037202 0x0000000c 0x00000f00 0x000fc600
0x00037941 0x00000000 0x03800000 0x000fea00
0x001f7306 0x0000001a 0x00201400 0x000e2200
0xff027984 0x00008800 0x00001800 0x000e6200
0x03ff7355 0x00000000 0x00100000 0x000fe200
0x00037945 0x00000110 0x03800000 0x000fe200
0x1b1b7221 0x00000003 0x00000000 0x000fc800
0x00067308 0x00000014 0x00001000 0x000ea200
0x18057220 0x0000001f 0x00400000 0x001fc800
0x000b7220 0x00000005 0x00400000 0x000fe400
0x14077423 0x3f800000 0x00000106 0x004fc800
0x0b007302 0x00000014 0x00000000 0x000e2200
0x06077223 0x00000007 0x00000006 0x000fc800
0x07057223 0x0000000b 0x000000ff 0x000fc800
0x14067223 0x00000005 0x0000010b 0x000fc800
0x07057223 0x00000006 0x00000005 0x000fe400
0x1c1e7221 0x00000002 0x00000000 0x002fe200
0x00008947 0x00000040 0x03800000 0x001fea00
0x000e7202 0x00000014 0x00000f00 0x000fe400
0x000a7802 0x0000abe0 0x00000f00 0x000fc600
0x00007944 0x00012710 0x03c00000 0x000fea00
0x00057202 0x0000000c 0x00000f00 0x000fc600
0x00037941 0x00000000 0x03800000 0x000fea00
0x1a207210 0x80000004 0x07ffe0ff 0x000fe200
0xff037984 0x00008c00 0x00001800 0x000e2200
0x00087308 0x00000015 0x00001000 0x000e6200
0x09067220 0x0000001f 0x00400000 0x000fe200
0x03ff7355 0x00000000 0x00100000 0x000fe200
0x00037945 0x00000110 0x03800000 0x000fe200
0x1e1e7221 0x00000005 0x00000000 0x000fc400
0x00067220 0x00000006 0x00400000 0x000fe400
0x00077306 0x00000020 0x00201400 0x000ea200
0x15097423 0x3f800000 0x00000108 0x002fc800
0x08097223 0x00000009 0x00000008 0x000fe400
0x060b7220 0x00000007 0x00400000 0x004fc800
0x0b067223 0x00000009 0x000000ff 0x000fe400
0x0b007302 0x00000015 0x00000000 0x000e6400
0x15077223 0x00000006 0x0000010b 0x000fc800
0x09067223 0x00000007 0x00000006 0x000fe400
0x21087221 0x00000003 0x00000000 0x001fe200
0x00008947 0x00000040 0x03800000 0x002fea00
0x000e7202 0x00000015 0x00000f00 0x000fe400
0x000a7802 0x0000ad50 0x00000f00 0x000fc600
0x00007944 0x000125a0 0x03c00000 0x000fea00
0x00067202 0x0000000c 0x00000f00 0x000fc600
0x00037941 0x00000000 0x03800000 0x000fea00
0x00097308 0x00000014 0x00001000 0x000e2200
0x1c077220 0x00000000 0x00400000 0x000fe200
0x03ff7355 0x00000000 0x00100000 0x000fe200
0x17057820 0x40400000 0x00400000 0x000fe200
0x00037945 0x000000f0 0x03800000 0x000fe200
0x02077223 0x0000001f 0x00000807 0x000fc400
0x08227221 0x00000006 0x00000000 0x000fe400
0x050b7220 0x00000007 0x00400000 0x000fcc00
0x0b007302 0x00000014 0x00000000 0x000e6200
0x140a7423 0x3f800000 0x00000109 0x001fc800
0x090a7223 0x0000000a 0x00000009 0x000fc800
0x0a057223 0x0000000b 0x000000ff 0x000fc800
0x14077223 0x00000005 0x0000010b 0x000fc800
0x0a057223 0x00000007 0x00000005 0x000fe200
0x00008947 0x00000040 0x03800000 0x002fea00
0x000e7202 0x00000014 0x00000f00 0x000fe400
0x000a7802 0x0000ae90 0x00000f00 0x000fc600
0x00007944 0x00012460 0x03c00000 0x000fea00
0x00057202 0x0000000c 0x00000f00 0x000fc600
0x00037941 0x00000000 0x03800000 0x000fea00
0x04077224 0x00000004 0x078e02ff 0x000fe200
0x00097308 0x00000016 0x00001000 0x000e2200
0xff047984 0x00009000 0x00001800 0x000e6200
0x03ff7355 0x00000000 0x00100000 0x000fe200
0x1a067224 0x00000020 0x078e0207 0x000fe200
0x00037945 0x00000120 0x03800000 0x000fe200
0x22227221 0x00000005 0x00000000 0x000fc800
0x00087306 0x00000006 0x00201400 0x0004e200
0x160a7423 0x3f800000 0x00000109 0x001fe400
0x19067220 0x0000001f 0x00400000 0x004fe400
0x090a7223 0x0000000a 0x00000009 0x000fe400
0x00067220 0x00000006 0x00400000 0x000fc800
0x060b7220 0x00000008 0x00400000 0x008fc800
0x0b067223 0x0000000a 0x000000ff 0x000fe400
0x0b007302 0x00000016 0x00000000 0x000e2400
0x16087223 0x00000006 0x0000010b 0x000fc800
0x0a067223 0x00000008 0x00000006 0x000fe400
0x13137221 0x00000004 0x00000000 0x002fe200
0x00008947 0x00000040 0x03800000 0x001fea00
0x000e7202 0x00000016 0x00000f00 0x000fe400
0x000a7802 0x0000b010 0x00000f00 0x000fc600
0x00007944 0x000122e0 0x03c00000 0x000fea00
0x00067202 0x0000000c 0x00000f00 0x000fc600
0x00037941 0x00000000 0x03800000 0x000fea00
0x1a047224 0x0000001a 0x078e02ff 0x000fe200
0x00077306 0x00000007 0x00201400 0x000e2200
0x03ff7355 0x00000000 0x00100000 0x000fe200
0x00037945 0x00000140 0x03800000 0x000fe200
0x13067221 0x00000006 0x00000000 0x000fca00
0x00057306 0x00000004 0x00201400 0x0002b000
0x00087308 0x00000015 0x00001000 0x000ee200
0x1c077220 0x00000007 0x00400000 0x001fe400
0x18047820 0x40c00000 0x00400000 0x002fc400
0x02057223 0x00000005 0x00000007 0x004fc800
0x04057220 0x00000005 0x00400000 0x000fe400
0x15027423 0x3f800000 0x00000108 0x008fc800
0x05007302 0x00000015 0x00000000 0x000e2200
0x08087223 0x00000002 0x00000008 0x000fc800
0x08027223 0x00000005 0x000000ff 0x000fc800
0x15047223 0x00000002 0x00000105 0x000fc800
0x08027223 0x00000004 0x00000002 0x000fe200
0x00008947 0x00000050 0x03800000 0x001fea00
0x000b7202 0x00000005 0x00000f00 0x000fe400
0x000e7202 0x00000015 0x00000f00 0x000fe400
0x000a7802 0x0000b190 0x00000f00 0x000fc600
0x00007944 0x00012160 0x03c00000 0x000fea00
0x00027202 0x0000000c 0x00000f00 0x000fc600
0x00037941 0x00000000 0x03800000 0x000fea00
0x00057308 0x00000014 0x00001000 0x000e2200
0x21047220 0x00000000 0x00400000 0x000fe200
0x03ff7355 0x00000000 0x00100000 0x000fe200
0x17007820 0x40800000 0x00400000 0x000fe200
0x00037945 0x00000100 0x03800000 0x000fe200
0x1f047223 0x00000003 0x00000804 0x000fc400
0x06087221 0x00000002 0x00000000 0x000fe400
0x00047220 0x00000004 0x00400000 0x000fcc00
0x04007302 0x00000014 0x00000000 0x000e6200
0x14037423 0x3f800000 0x00000105 0x001fc800
0x05057223 0x00000003 0x00000005 0x000fc800
0x05007223 0x00000004 0x000000ff 0x000fc800
0x14037223 0x00000000 0x00000104 0x000fc800
0x05007223 0x00000003 0x00000000 0x000fe200
0x00008947 0x00000050 0x03800000 0x002fea00
0x000b7202 0x00000004 0x00000f00 0x000fe400
0x000e7202 0x00000014 0x00000f00 0x000fe400
0x000a7802 0x0000b2e0 0x00000f00 0x000fc600
0x00007944 0x00012010 0x03c00000 0x000fea00
0x00007202 0x0000000c 0x00000f00 0x000fc600
0x00037941 0x00000000 0x03800000 0x000fea00
0xff027984 0x00009400 0x00001800 0x000e2200
0x03ff7355 0x00000000 0x00100000 0x000fe200
0x00037945 0x000001a0 0x03800000 0x000fe200
0x08147221 0x00000000 0x00000000 0x000fe200
0xff057984 0x00009800 0x00001800 0x000e6200
0x1d037210 0x00000002 0x07ffe0ff 0x001fe200
0x00067306 0x00000002 0x00201400 0x000e2200
0x1b187221 0x00000005 0x00000100 0x002fc800
0x18197220 0x00000018 0x00400000 0x000fc600
0x00157306 0x00000003 0x00201400 0x000e6200
0x18137220 0x00000019 0x00400000 0x000fc800
0x181a7220 0x00000013 0x00400000 0x040fe400
0x180b7220 0x00000006 0x00400000 0x001fe200
0x00047308 0x00000015 0x00001000 0x002e2200
0x15167220 0x00000015 0x00400000 0x000fc800
0x15177220 0x00000016 0x00400000 0x000fc600
0x0b007302 0x00000015 0x00000000 0x000e6200
0x15057423 0x3f800000 0x00000104 0x001fce00
0x00037305 0x00000015 0x0020f100 0x0000a200
0x04057223 0x00000005 0x00000004 0x000fc800
0x0b047223 0x00000005 0x000000ff 0x000fc800
0x15077223 0x00000004 0x0000010b 0x000fc800
0x05007223 0x00000007 0x00000004 0x000fe200
0x00008947 0x00000040 0x03800000 0x002fea00
0x000e7202 0x00000015 0x00000f00 0x005fe400
0x000a7802 0x0000b4b0 0x00000f00 0x000fc600
0x00007944 0x00011e40 0x03c00000 0x000fea00
0x00007202 0x0000000c 0x00000f00 0x000fc600
0x00037941 0x00000000 0x03800000 0x005fea00
0x001c7306 0x0000001d 0x00201400 0x000e2200
0xff077984 0x00009c00 0x00001800 0x000e6200
0x03ff7355 0x00000000 0x00100000 0x000fe200
0x00037945 0x00000110 0x03800000 0x000fe200
0x1b007221 0x00000000 0x00000000 0x000fc800
0x00057308 0x00000015 0x00001000 0x000ea200
0x19047220 0x0000001c 0x00400000 0x001fc800
0x060b7220 0x00000004 0x00400000 0x000fe400
0x15087423 0x3f800000 0x00000105 0x004fc800
0x0b007302 0x00000015 0x00000000 0x000e2200
0x05087223 0x00000008 0x00000005 0x000fc800
0x08047223 0x0000000b 0x000000ff 0x000fc800
0x15057223 0x00000004 0x0000010b 0x000fc800
0x08057223 0x00000005 0x00000004 0x000fe400
0x1e1b7221 0x00000007 0x00000000 0x002fe200
0x00008947 0x00000040 0x03800000 0x001fea00
0x000e7202 0x00000015 0x00000f00 0x000fe400
0x000a7802 0x0000b600 0x00000f00 0x000fc600
0x00007944 0x00011cf0 0x03c00000 0x000fea00
0x00057202 0x0000000c 0x00000f00 0x000fc600
0x00037941 0x00000000 0x03800000 0x000fea00
0x1d1f7210 0x80000002 0x07ffe0ff 0x000fe200
0xff087984 0x0000a000 0x00001800 0x000e2200
0x000a7308 0x00000016 0x00001000 0x000e6200
0x13047220 0x0000001c 0x00400000 0x000fe200
0x03ff7355 0x00000000 0x00100000 0x000fe200
0x00037945 0x00000120 0x03800000 0x000fe200
0x1b057221 0x00000005 0x00000000 0x000fc400
0x06047220 0x00000004 0x00400000 0x000fe400
0x00097306 0x0000001f 0x00201400 0x000ea200
0x160b7423 0x3f800000 0x0000010a 0x002fc800
0x0a0b7223 0x0000000b 0x0000000a 0x000fe400
0x040c7220 0x00000009 0x00400000 0x004fc800
0x0c047223 0x0000000b 0x000000ff 0x000fe400
0x0c007302 0x00000016 0x00000000 0x000e6400
0x16097223 0x00000004 0x0000010c 0x000fc800
0x0b047223 0x00000009 0x00000004 0x000fe400
0x22137221 0x00000008 0x00000000 0x001fe200
0x00008947 0x00000050 0x03800000 0x002fea00
0x000b7202 0x0000000c 0x00000f00 0x000fe400
0x000e7202 0x00000016 0x00000f00 0x000fe400
0x000a7802 0x0000b780 0x00000f00 0x000fc600
0x00007944 0x00011b70 0x03c00000 0x000fea00
0x00047202 0x0000000c 0x00000f00 0x000fc600
0x00037941 0x00000000 0x03800000 0x000fea00
0x000c7308 0x00000015 0x00001000 0x000e2200
0x1e0a7220 0x00000006 0x00400000 0x000fe200
0x03ff7355 0x00000000 0x00100000 0x000fe200
0x18097820 0x40400000 0x00400000 0x000fe200
0x00037945 0x000000f0 0x03800000 0x000fe200
0x070a7223 0x0000001c 0x0000080a 0x000fc400
0x131b7221 0x00000004 0x00000000 0x000fe400
0x090b7220 0x0000000a 0x00400000 0x000fcc00
0x0b007302 0x00000015 0x00000000 0x000e6200
0x150d7423 0x3f800000 0x0000010c 0x001fc800
0x0c0d7223 0x0000000d 0x0000000c 0x000fc800
0x0d097223 0x0000000b 0x000000ff 0x000fc800
0x150a7223 0x00000009 0x0000010b 0x000fc800
0x0d047223 0x0000000a 0x00000009 0x000fe200
0x00008947 0x00000040 0x03800000 0x002fea00
0x000e7202 0x00000015 0x00000f00 0x000fe400
0x000a7802 0x0000b8c0 0x00000f00 0x000fc600
0x00007944 0x00011a30 0x03c00000 0x000fea00
0x00047202 0x0000000c 0x00000f00 0x000fc600
0x00037941 0x00000000 0x03800000 0x000fea00
0x02137224 0x00000002 0x078e02ff 0x000fe200
0x000b7308 0x00000017 0x00001000 0x000e2200
0xff027984 0x0000a400 0x00001800 0x000e6200
0x03ff7355 0x00000000 0x00100000 0x000fe200
0x1d097224 0x0000001f 0x078e0213 0x000fe200
0x00037945 0x00000120 0x03800000 0x000fe200
0x1b047221 0x00000004 0x00000000 0x000fc800
0x000a7306 0x00000009 0x00201400 0x0004e200
0x170c7423 0x3f800000 0x0000010b 0x001fe400
0x1a097220 0x0000001c 0x00400000 0x004fe400
0x0b0c7223 0x0000000c 0x0000000b 0x000fe400
0x06097220 0x00000009 0x00400000 0x000fc800
0x090d7220 0x0000000a 0x00400000 0x008fc800
0x0d097223 0x0000000c 0x000000ff 0x000fe400
0x0d007302 0x00000017 0x00000000 0x000e2400
0x170a7223 0x00000009 0x0000010d 0x000fc800
0x0c0c7223 0x0000000a 0x00000009 0x000fe400
0x14147221 0x00000002 0x00000000 0x002fe200
0x00008947 0x00000040 0x03800000 0x001fea00
0x000b7202 0x0000000d 0x00000f00 0x000fe400
0x000e7202 0x00000017 0x00000f00 0x000fe400
0x000a7802 0x0000ba50 0x00000f00 0x000fc600
0x00007944 0x000118a0 0x03c00000 0x000fea00
0x00037941 0x00000000 0x03800000 0x000fea00
0x1d027224 0x0000001d 0x078e02ff 0x000fe200
0x00137306 0x00000013 0x00201400 0x000e2200
0x03ff7355 0x00000000 0x00100000 0x000fe200
0x00037945 0x00000140 0x03800000 0x000fe200
0x14147221 0x0000000c 0x00000000 0x000fca00
0x00097306 0x00000002 0x00201400 0x0002b000
0x000a7308 0x00000016 0x00001000 0x000ee200
0x1e137220 0x00000013 0x00400000 0x001fe400
0x19027820 0x40c00000 0x00400000 0x002fc400
0x07097223 0x00000009 0x00000013 0x004fc800
0x02097220 0x00000009 0x00400000 0x000fe400
0x16077423 0x3f800000 0x0000010a 0x008fc800
0x09007302 0x00000016 0x00000000 0x000e2200
0x0a0a7223 0x00000007 0x0000000a 0x000fc800
0x0a027223 0x00000009 0x000000ff 0x000fc800
0x16077223 0x00000002 0x00000109 0x000fc800
0x0a027223 0x00000007 0x00000002 0x000fe200
0x00008947 0x00000050 0x03800000 0x001fea00
0x000b7202 0x00000009 0x00000f00 0x000fe400
0x000e7202 0x00000016 0x00000f00 0x000fe400
0x000a7802 0x0000bbc0 0x00000f00 0x000fc600
0x00007944 0x00011730 0x03c00000 0x000fea00
0x00027202 0x0000000c 0x00000f00 0x000fc600
0x00037941 0x00000000 0x03800000 0x000fea00
0x00097308 0x00000015 0x00001000 0x000e2200
0x22077220 0x00000006 0x00400000 0x000fe200
0x03ff7355 0x00000000 0x00100000 0x000fe200
0x18067820 0x40800000 0x00400000 0x000fe200
0x00037945 0x000000f0 0x03800000 0x000fe200
0x1c077223 0x00000008 0x00000807 0x000fc400
0x14027221 0x00000002 0x00000000 0x000fe400
0x060b7220 0x00000007 0x00400000 0x000fcc00
0x0b007302 0x00000015 0x00000000 0x000e6200
0x15087423 0x3f800000 0x00000109 0x001fc800
0x09087223 0x00000008 0x00000009 0x000fc800
0x08067223 0x0000000b 0x000000ff 0x000fc800
0x15077223 0x00000006 0x0000010b 0x000fc800
0x08067223 0x00000007 0x00000006 0x000fe200
0x00008947 0x00000040 0x03800000 0x002fea00
0x000e7202 0x00000015 0x00000f00 0x000fe400
0x000a7802 0x0000bd00 0x00000f00 0x000fc600
0x00007944 0x000115f0 0x03c00000 0x000fea00
0x00067202 0x0000000c 0x00000f00 0x000fc600
0x00037941 0x00000000 0x03800000 0x000fea00
0x02067221 0x00000006 0x00000000 0x000fe200
0x00007947 0x00010a30 0x03800000 0x000fea00
0x00027919 0x00000000 0x00002100 0x000e2200
0x00037202 0x000000ff 0x00000f00 0x000fe200
0x00047805 0x00000000 0x0001ff00 0x000fe200
0x00007202 0x000000ff 0x00000f00 0x000fe400
0x00067202 0x000000ff 0x00000f00 0x000fe400
0x02007a0c 0x00005c00 0x03f06270 0x001fc400
0x00077202 0x00000002 0x00000f00 0x000fd400
0x00088802 0x00000014 0x00000f00 0x000fca00
0x02088625 0x00005800 0x078e0208 0x040fe200
0x02078810 0x00000100 0x07ffe0ff 0x000fce00
0x08038381 0x00000000 0x001e6900 0x00016800
0x08008381 0x00000400 0x001e6900 0x00016800
0x08058381 0x00000800 0x001e6900 0x00016800
0x08048381 0x00000c00 0x001e6900 0x00016800
0x08068381 0x00001000 0x001e6900 0x00016200
0x07007a0c 0x00005c00 0x03f06270 0x000fe200
0x03ff7355 0x00000000 0x00100000 0x000fe200
0x00037945 0x00000b20 0x03800000 0x000ff400
0x00000947 0x00000b00 0x03800000 0x000fea00
0x00087802 0x00000014 0x00000f00 0x001fe400
0x00137202 0x00000003 0x00000f00 0x020fc400
0x00147202 0x00000005 0x00000f00 0x000fe200
0x07087625 0x00005800 0x078e0208 0x000fe200
0x00157202 0x00000004 0x00000f00 0x000fce00
0x08167381 0x00000000 0x001e6900 0x000ea800
0x08037381 0x00000400 0x001e6900 0x000ee800
0x08177381 0x00000800 0x001e6900 0x00016800
0x08187381 0x00000c00 0x001e6900 0x00016800
0x08197381 0x00001000 0x001e6900 0x00016200
0x04ff7355 0x00000000 0x00100000 0x000fe200
0x00047945 0x00000180 0x03800000 0x000fe200
0x16047210 0x00000013 0x07ffe0ff 0x004fe200
0x00217306 0x00000016 0x00201400 0x000e6200
0x031d7221 0x80000000 0x00000000 0x008fc800
0x1d1e7220 0x0000001d 0x00400000 0x000fc600
0x001a7306 0x00000004 0x00201400 0x000ea200
0x1d1f7220 0x0000001e 0x00400000 0x000fc800
0x1d207220 0x0000001f 0x00400000 0x040fe400
0x1d0b7220 0x00000021 0x00400000 0x002fe200
0x00047308 0x0000001a 0x00001000 0x004e6200
0x1a1b7220 0x0000001a 0x00400000 0x000fc800
0x1a1c7220 0x0000001b 0x00400000 0x000fc600
0x0b007302 0x0000001a 0x00000000 0x000ea200
0x1a057423 0x3f800000 0x00000104 0x002fce00
0x00037305 0x0000001a 0x0020f100 0x00006200
0x04057223 0x00000005 0x00000004 0x000fc800
0x0b047223 0x00000005 0x000000ff 0x000fc800
0x1a0a7223 0x00000004 0x0000010b 0x000fc800
0x05047223 0x0000000a 0x00000004 0x000fe200
0x00008947 0x00000040 0x03800000 0x004fea00
0x000e7202 0x0000001a 0x00000f00 0x003fe400
0x000a7802 0x0000c090 0x00000f00 0x000fc600
0x00007944 0x00011260 0x03c00000 0x020fea00
0x00047202 0x0000000c 0x00000f00 0x000fc600
0x00047941 0x00000000 0x03800000 0x003fea00
0x00237306 0x00000013 0x00201400 0x000e2200
0x04ff7355 0x00000000 0x00100000 0x000fe200
0x00047945 0x00000110 0x03800000 0x000fe200
0x04007221 0x00000000 0x00000000 0x000fe400
0x17227221 0x00000014 0x00000000 0x020fc600
0x000a7308 0x0000001a 0x00001000 0x000e6200
0x1e057220 0x00000023 0x00400000 0x001fc800
0x210b7220 0x00000005 0x00400000 0x000fe400
0x1a0c7423 0x3f800000 0x0000010a 0x002fc800
0x0b007302 0x0000001a 0x00000000 0x000e2200
0x0a0c7223 0x0000000c 0x0000000a 0x000fc800
0x0c057223 0x0000000b 0x000000ff 0x000fc800
0x1a0a7223 0x00000005 0x0000010b 0x000fc800
0x0c057223 0x0000000a 0x00000005 0x000fe200
0x00008947 0x00000040 0x03800000 0x001fea00
0x000e7202 0x0000001a 0x00000f00 0x000fe400
0x000a7802 0x0000c1d0 0x00000f00 0x000fc600
0x00007944 0x00011120 0x03c00000 0x000fea00
0x00057202 0x0000000c 0x00000f00 0x000fc600
0x00047941 0x00000000 0x03800000 0x000fea00
0x16247210 0x00000013 0x07ffe1ff 0x000fe200
0x000b7308 0x0000001b 0x00001000 0x000e2200
0x1f047220 0x00000023 0x00400000 0x000fe200
0x04ff7355 0x00000000 0x00100000 0x000fe200
0x00047945 0x00000110 0x03800000 0x000fe200
0x22057221 0x00000005 0x00000000 0x000fe400
0x21047220 0x00000004 0x00400000 0x000fc400
0x000a7306 0x00000024 0x00201400 0x000e6200
0x181f7221 0x00000015 0x00000000 0x000fe400
0x1b0c7423 0x3f800000 0x0000010b 0x001fc800
0x0b0c7223 0x0000000c 0x0000000b 0x000fe400
0x040d7220 0x0000000a 0x00400000 0x002fc800
0x0d047223 0x0000000c 0x000000ff 0x000fe400
0x0d007302 0x0000001b 0x00000000 0x000e2400
0x1b0a7223 0x00000004 0x0000010d 0x000fc800
0x0c0c7223 0x0000000a 0x00000004 0x000fe200
0x00008947 0x00000040 0x03800000 0x001fea00
0x000b7202 0x0000000d 0x00000f00 0x000fe400
0x000e7202 0x0000001b 0x00000f00 0x000fe400
0x000a7802 0x0000c340 0x00000f00 0x000fc600
0x00007944 0x00010fb0 0x03c00000 0x000fea00
0x00047941 0x00000000 0x03800000 0x000fea00
0x000d7308 0x0000001a 0x00001000 0x000e2200
0x210a7220 0x00000014 0x00400000 0x000fe200
0x04ff7355 0x00000000 0x00100000 0x000fe200
0x1d047820 0x40400000 0x00400000 0x000fe200
0x00047945 0x000000f0 0x03800000 0x000fe200
0x170a7223 0x00000023 0x0000080a 0x000fc400
0x1f1f7221 0x0000000c 0x00000000 0x000fe400
0x040b7220 0x0000000a 0x00400000 0x000fcc00
0x0b007302 0x0000001a 0x00000000 0x000e6200
0x1a0e7423 0x3f800000 0x0000010d 0x001fc800
0x0d0e7223 0x0000000e 0x0000000d 0x000fc800
0x0e047223 0x0000000b 0x000000ff 0x000fc800
0x1a0a7223 0x00000004 0x0000010b 0x000fc800
0x0e047223 0x0000000a 0x00000004 0x000fe200
0x00008947 0x00000040 0x03800000 0x002fea00
0x000e7202 0x0000001a 0x00000f00 0x000fe400
0x000a7802 0x0000c470 0x00000f00 0x000fc600
0x00007944 0x00010e80 0x03c00000 0x000fea00
0x00047202 0x0000000c 0x00000f00 0x000fc600
0x00047941 0x00000000 0x03800000 0x000fea00
0x16167224 0x00000016 0x078e02ff 0x000fe200
0x000c7308 0x0000001c 0x00001000 0x000e2200
0x04ff7355 0x00000000 0x00100000 0x000fe200
0x00047945 0x00000140 0x03800000 0x000fe200
0x240a7224 0x00000013 0x078e0216 0x000fe400
0x1f047221 0x00000004 0x00000000 0x000fe400
0x19197221 0x00000006 0x00000000 0x000fc400
0x000b7306 0x0000000a 0x00201400 0x0002a200
0x1c0d7423 0x3f800000 0x0000010c 0x001fe400
0x200a7220 0x00000023 0x00400000 0x002fe400
0x0c0d7223 0x0000000d 0x0000000c 0x000fe400
0x210a7220 0x0000000a 0x00400000 0x000fc800
0x0a0e7220 0x0000000b 0x00400000 0x004fc800
0x0e0a7223 0x0000000d 0x000000ff 0x000fe400
0x0e007302 0x0000001c 0x00000000 0x000e2400
0x1c0b7223 0x0000000a 0x0000010e 0x000fc800
0x0d0a7223 0x0000000b 0x0000000a 0x000fe200
0x00008947 0x00000050 0x03800000 0x001fea00
0x000b7202 0x0000000e 0x00000f00 0x000fe400
0x000e7202 0x0000001c 0x00000f00 0x000fe400
0x000a7802 0x0000c5f0 0x00000f00 0x000fc600
0x00007944 0x00010d00 0x03c00000 0x000fea00
0x000a7202 0x0000000c 0x00000f00 0x000fc600
0x00047941 0x00000000 0x03800000 0x000fea00
0x13067224 0x00000013 0x078e02ff 0x000fe200
0x000c7306 0x00000016 0x00201400 0x000fe200
0x04ff7355 0x00000000 0x00100000 0x000fe200
0x00047945 0x00000140 0x03800000 0x000fe200
0x19197221 0x0000000a 0x00000000 0x000fca00
0x00067306 0x00000006 0x00201400 0x000e3000
0x000d7308 0x0000001b 0x00001000 0x000e6200
0x170b7220 0x00000006 0x00400000 0x001fe400
0x1e067820 0x40c00000 0x00400000 0x000fc400
0x0c0b7223 0x00000014 0x0000000b 0x000fc800
0x060c7220 0x0000000b 0x00400000 0x000fe400
0x1b0e7423 0x3f800000 0x0000010d 0x002fc800
0x0c007302 0x0000001b 0x00000000 0x000e2200
0x0d0e7223 0x0000000e 0x0000000d 0x000fc800
0x0e067223 0x0000000c 0x000000ff 0x000fc800
0x1b0b7223 0x00000006 0x0000010c 0x000fc800
0x0e067223 0x0000000b 0x00000006 0x000fe200
0x00008947 0x00000050 0x03800000 0x001fea00
0x000b7202 0x0000000c 0x00000f00 0x000fe400
0x000e7202 0x0000001b 0x00000f00 0x000fe400
0x000a7802 0x0000c770 0x00000f00 0x000fc600
0x00007944 0x00010b80 0x03c00000 0x000fea00
0x00067202 0x0000000c 0x00000f00 0x000fc600
0x00047941 0x00000000 0x03800000 0x000fea00
0x000d7308 0x0000001a 0x00001000 0x000e2200
0x210b7220 0x00000015 0x00400000 0x000fe200
0x04ff7355 0x00000000 0x00100000 0x000fe200
0x1d0a7820 0x40800000 0x00400000 0x000fe200
0x00047945 0x00000100 0x03800000 0x000fe200
0x180b7223 0x00000023 0x0000080b 0x000fc400
0x19197221 0x00000006 0x00000000 0x000fe400
0x0a0c7220 0x0000000b 0x00400000 0x000fcc00
0x0c007302 0x0000001a 0x00000000 0x000e6200
0x1a0e7423 0x3f800000 0x0000010d 0x001fc800
0x0d0e7223 0x0000000e 0x0000000d 0x000fc800
0x0e0a7223 0x0000000c 0x000000ff 0x000fc800
0x1a0b7223 0x0000000a 0x0000010c 0x000fc800
0x0e067223 0x0000000b 0x0000000a 0x000fe200
0x00008947 0x00000050 0x03800000 0x002fea00
0x000b7202 0x0000000c 0x00000f00 0x000fe400
0x000e7202 0x0000001a 0x00000f00 0x000fe400
0x000a7802 0x0000c8c0 0x00000f00 0x000fc600
0x00007944 0x00010a30 0x03c00000 0x000fea00
0x00067202 0x0000000c 0x00000f00 0x000fc600
0x00047941 0x00000000 0x03800000 0x000fea00
0x07077810 0x00000100 0x07ffe0ff 0x000fe200
0x19067221 0x00000006 0x00000000 0x000fe200
0x08087810 0x00001400 0x07f3e0ff 0x000fe400
0x07007a0c 0x00005c00 0x03f06270 0x000fe400
0xff097210 0x00000009 0x00ffe4ff 0x000fc400
0x00137202 0x00000003 0x00000f00 0x000fe400
0x00147202 0x00000005 0x00000f00 0x000fe400
0x00157202 0x00000004 0x00000f00 0x000fc800
0x00008947 0xfffff550 0x0383ffff 0x000fea00
0x00037941 0x00000000 0x03800000 0x001fea00
0x00077919 0x00000000 0x00000000 0x000e2200
0x000a7a02 0x00005c00 0x00000f00 0x000fe400
0xff087819 0x0000001f 0x00011402 0x000fe400
0x0a00780c 0x000000ff 0x03f04270 0x000fe400
0x08087211 0x00000002 0x078f28ff 0x000fc800
0xff097819 0x00000005 0x00011408 0x000fca00
0x09087824 0x00000014 0x078e02ff 0x000fe200
0x00000947 0x000080a0 0x03800000 0x000fea00
0x09027819 0x00000005 0x000006ff 0x000fe200
0x03ff7355 0x00000000 0x00100000 0x000fe200
0x00037945 0x00000ae0 0x03800000 0x000fe400
0x02097810 0x00000020 0x07ffe0ff 0x000fe400
0xff027212 0x00000002 0x078e33ff 0x000fe400
0x09007a0c 0x00005c00 0x03f04270 0x000fe400
0x02027a10 0x00005c00 0x07ffe0ff 0x000fc800
0x02027807 0x0000001f 0x00000000 0x000fc800
0x0700720c 0x00000002 0x03f06270 0x001fc800
0x03157989 0x08200000 0x000e0002 0x02006800
0x000a7989 0x08200000 0x000e0002 0x0000a800
0x05167989 0x08200000 0x000e0002 0x0000e800
0x04177989 0x08200000 0x000e0002 0x00012800
0x06187989 0x08200000 0x000e0002 0x00002200
0x00000947 0x00000a10 0x03800000 0x000fea00
0x03097210 0x00000015 0x07ffe0ff 0x002fe200
0x001f7306 0x00000015 0x00201400 0x000e6200
0x001c7221 0x0000000a 0x00000100 0x004fe200
0x04ff7355 0x00000000 0x00100000 0x000fe200
0x00047945 0x00000150 0x03800000 0x000fe400
0x1c1d7220 0x0000001c 0x00400000 0x000fc600
0x00197306 0x00000009 0x00201400 0x000ea200
0x1c147220 0x0000001d 0x00400000 0x000fc800
0x1c1e7220 0x00000014 0x00400000 0x040fe400
0x1c0c7220 0x0000001f 0x00400000 0x002fe200
0x00097308 0x00000019 0x00001000 0x004e6200
0x191a7220 0x00000019 0x00400000 0x000fc800
0x191b7220 0x0000001a 0x00400000 0x000fc600
0x0c007302 0x00000019 0x00000000 0x000ea200
0x190a7423 0x3f800000 0x00000109 0x002fc800
0x090a7223 0x0000000a 0x00000009 0x000fc800
0x0c097223 0x0000000a 0x000000ff 0x000fc800
0x190b7223 0x00000009 0x0000010c 0x000fc800
0x0a097223 0x0000000b 0x00000009 0x000fe200
0x00008947 0x00000050 0x03800000 0x004fea00
0x000b7202 0x0000000c 0x00000f00 0x000fe400
0x000e7202 0x00000019 0x00000f00 0x000fe400
0x000a7802 0x0000cc70 0x00000f00 0x000fc600
0x00007944 0x00010680 0x03c00000 0x019fea00
0x00097202 0x0000000c 0x00000f00 0x000fc600
0x00047941 0x00000000 0x03800000 0x000fea00
0x00237306 0x00000003 0x00201400 0x000e6200
0x04ff7355 0x00000000 0x00100000 0x000fe200
0x00047945 0x00000100 0x03800000 0x000fec00
0x000b7308 0x00000019 0x00001000 0x000ea200
0x1d0a7220 0x00000023 0x00400000 0x002fc800
0x1f0c7220 0x0000000a 0x00400000 0x000fe400
0x190d7423 0x3f800000 0x0000010b 0x004fc800
0x0c007302 0x00000019 0x00000000 0x000e6200
0x0b0d7223 0x0000000d 0x0000000b 0x000fc800
0x0d0a7223 0x0000000c 0x000000ff 0x000fc800
0x190b7223 0x0000000a 0x0000010c 0x000fc800
0x0d137223 0x0000000b 0x0000000a 0x000fe200
0x00008947 0x00000050 0x03800000 0x002fea00
0x000b7202 0x0000000c 0x00000f00 0x000fe400
0x000e7202 0x00000019 0x00000f00 0x000fe400
0x000a7802 0x0000cda0 0x00000f00 0x000fc600
0x00007944 0x00010550 0x03c00000 0x019fea00
0x00137202 0x0000000c 0x00000f00 0x000fc600
0x00047941 0x00000000 0x03800000 0x000fea00
0x03217210 0x80000015 0x07ffe0ff 0x000fe200
0x000c7308 0x0000001a 0x00001000 0x000e6200
0x140a7220 0x00000023 0x00400000 0x000fe200
0x04ff7355 0x00000000 0x00100000 0x000fe200
0x00047945 0x00000110 0x03800000 0x000fe200
0x05207221 0x00000016 0x00000000 0x008fc400
0x1f0a7220 0x0000000a 0x00400000 0x000fe400
0x000b7306 0x00000021 0x00201400 0x000ea200
0x1a0d7423 0x3f800000 0x0000010c 0x002fc800
0x0c0d7223 0x0000000d 0x0000000c 0x000fe400
0x0a0e7220 0x0000000b 0x00400000 0x004fc800
0x0e0a7223 0x0000000d 0x000000ff 0x000fe400
0x0e007302 0x0000001a 0x00000000 0x000e6400
0x1a0b7223 0x0000000a 0x0000010e 0x000fc800
0x0d0a7223 0x0000000b 0x0000000a 0x000fe200
0x00008947 0x00000050 0x03800000 0x002fea00
0x000b7202 0x0000000e 0x00000f00 0x000fe400
0x000e7202 0x0000001a 0x00000f00 0x000fe400
0x000a7802 0x0000cf00 0x00000f00 0x000fc600
0x00007944 0x000103f0 0x03c00000 0x011fea00
0x000a7202 0x0000000c 0x00000f00 0x000fc600
0x00047941 0x00000000 0x03800000 0x000fea00
0x000d7308 0x00000019 0x00001000 0x000e6200
0x050c7220 0x0000001f 0x00400000 0x000fe200
0x04ff7355 0x00000000 0x00100000 0x000fe200
0x1c0b7820 0x40400000 0x00400000 0x000fe200
0x00047945 0x00000110 0x03800000 0x000fe200
0x160c7223 0x00000023 0x0000080c 0x000fc800
0x0b0e7220 0x0000000c 0x00400000 0x000fe400
0x040b7221 0x00000017 0x00000000 0x010fc800
0x0e007302 0x00000019 0x00000000 0x000ea200
0x190f7423 0x3f800000 0x0000010d 0x002fe400
0x0b227221 0x0000000a 0x00000000 0x000fe400
0x0d0f7223 0x0000000f 0x0000000d 0x000fc800
0x0f0c7223 0x0000000e 0x000000ff 0x000fc800
0x190d7223 0x0000000c 0x0000010e 0x000fc800
0x0f147223 0x0000000d 0x0000000c 0x000fe200
0x00008947 0x00000050 0x03800000 0x004fea00
0x000b7202 0x0000000e 0x00000f00 0x000fe400
0x000e7202 0x00000019 0x00000f00 0x000fe400
0x000a7802 0x0000d060 0x00000f00 0x000fc600
0x00007944 0x00010290 0x03c00000 0x001fea00
0x00147202 0x0000000c 0x00000f00 0x000fc600
0x00047941 0x00000000 0x03800000 0x000fea00
0x15157224 0x00000015 0x078e02ff 0x000fe200
0x000c7308 0x0000001b 0x00001000 0x000e6200
0x04ff7355 0x00000000 0x00100000 0x000fe200
0x00047945 0x00000130 0x03800000 0x000fe200
0x030a7224 0x00000021 0x078e0215 0x000fe400
0x06187221 0x00000018 0x00000000 0x001fc800
0x000b7306 0x0000000a 0x00201400 0x0000a200
0x1b0d7423 0x3f800000 0x0000010c 0x002fe400
0x1e0a7220 0x00000023 0x00400000 0x001fe400
0x0c0d7223 0x0000000d 0x0000000c 0x000fe400
0x1f0a7220 0x0000000a 0x00400000 0x000fc800
0x0a0e7220 0x0000000b 0x00400000 0x004fc800
0x0e0a7223 0x0000000d 0x000000ff 0x000fe400
0x0e007302 0x0000001b 0x00000000 0x000e2400
0x1b0b7223 0x0000000a 0x0000010e 0x000fc800
0x0d0a7223 0x0000000b 0x0000000a 0x000fe200
0x00008947 0x00000050 0x03800000 0x001fea00
0x000b7202 0x0000000e 0x00000f00 0x000fe400
0x000e7202 0x0000001b 0x00000f00 0x000fe400
0x000a7802 0x0000d1d0 0x00000f00 0x000fc600
0x00007944 0x00010120 0x03c00000 0x000fea00
0x000a7202 0x0000000c 0x00000f00 0x000fc600
0x00047941 0x00000000 0x03800000 0x000fea00
0x03037224 0x00000003 0x078e02ff 0x000fe200
0x00067306 0x00000015 0x00201400 0x000e2200
0x04ff7355 0x00000000 0x00100000 0x000fe200
0x00047945 0x00000140 0x03800000 0x000fe200
0x18187221 0x0000000a 0x00000000 0x000fca00
0x000b7306 0x00000003 0x00201400 0x0002b000
0x000c7308 0x0000001a 0x00001000 0x000ee200
0x05067220 0x00000006 0x00400000 0x001fe400
0x1d037820 0x40c00000 0x00400000 0x002fc400
0x0b067223 0x00000016 0x00000006 0x004fc800
0x03067220 0x00000006 0x00400000 0x000fe400
0x1a057423 0x3f800000 0x0000010c 0x008fc800
0x06007302 0x0000001a 0x00000000 0x000e2200
0x0c0c7223 0x00000005 0x0000000c 0x000fc800
0x0c037223 0x00000006 0x000000ff 0x000fc800
0x1a057223 0x00000003 0x00000106 0x000fc800
0x0c037223 0x00000005 0x00000003 0x000fe200
0x00008947 0x00000050 0x03800000 0x001fea00
0x000b7202 0x00000006 0x00000f00 0x000fe400
0x000e7202 0x0000001a 0x00000f00 0x000fe400
0x000a7802 0x0000d350 0x00000f00 0x000fc600
0x00007944 0x0000ffa0 0x03c00000 0x000fea00
0x00037202 0x0000000c 0x00000f00 0x000fc600
0x00047941 0x00000000 0x03800000 0x000fea00
0x00067308 0x00000019 0x00001000 0x000e2200
0x04057220 0x0000001f 0x00400000 0x000fe200
0x04ff7355 0x00000000 0x00100000 0x000fe200
0x1c047820 0x40800000 0x00400000 0x000fe200
0x00047945 0x000000f0 0x03800000 0x000fe200
0x17057223 0x00000023 0x00000805 0x000fc400
0x18187221 0x00000003 0x00000000 0x000fe400
0x040b7220 0x00000005 0x00400000 0x000fcc00
0x0b007302 0x00000019 0x00000000 0x000e6200
0x190a7423 0x3f800000 0x00000106 0x001fc800
0x060a7223 0x0000000a 0x00000006 0x000fc800
0x0a047223 0x0000000b 0x000000ff 0x000fc800
0x19057223 0x00000004 0x0000010b 0x000fc800
0x0a057223 0x00000005 0x00000004 0x000fe200
0x00008947 0x00000040 0x03800000 0x002fea00
0x000e7202 0x00000019 0x00000f00 0x000fe400
0x000a7802 0x0000d490 0x00000f00 0x000fc600
0x00007944 0x0000fe60 0x03c00000 0x000fea00
0x00057202 0x0000000c 0x00000f00 0x000fc600
0x00047941 0x00000000 0x03800000 0x000fea00
0x00037305 0x00000019 0x0020f100 0x00006200
0x18067221 0x00000005 0x00000000 0x000fe400
0x22047221 0x00000014 0x00000000 0x000fe400
0x00007221 0x00000009 0x00000000 0x000fe400
0x20057221 0x00000013 0x00000000 0x000fc600
0x00037941 0x00000000 0x03800000 0x000fea00
0x07097810 0x00000002 0x07ffe0ff 0x000fe200
0x03ff7355 0x00000000 0x00100000 0x000fe200
0x03157989 0x08400000 0x000e0002 0x00232200
0x00037945 0x00000a80 0x03800000 0x000fe200
0x0900720c 0x00000002 0x03f04270 0x000fc400
0x000a7989 0x08400000 0x000e0002 0x0042a800
0x05167989 0x08400000 0x000e0002 0x0082e800
0x04177989 0x08400000 0x000e0002 0x01032800
0x06187989 0x08400000 0x000e0002 0x00122200
0x00000947 0x00000a10 0x03800000 0x000fea00
0x03097210 0x00000015 0x07ffe0ff 0x000fe200
0x001f7306 0x00000015 0x00201400 0x000f6200
0x001c7221 0x0000000a 0x00000100 0x004fe200
0x04ff7355 0x00000000 0x00100000 0x000fe200
0x00047945 0x00000150 0x03800000 0x000fe400
0x1c1d7220 0x0000001c 0x00400000 0x000fc600
0x00197306 0x00000009 0x00201400 0x000ea200
0x1c147220 0x0000001d 0x00400000 0x000fc800
0x1c1e7220 0x00000014 0x00400000 0x040fe400
0x1c0c7220 0x0000001f 0x00400000 0x020fe200
0x00097308 0x00000019 0x00001000 0x004ea200
0x191a7220 0x00000019 0x00400000 0x000fc800
0x191b7220 0x0000001a 0x00400000 0x000fc600
0x0c007302 0x00000019 0x00000000 0x000f6200
0x190a7423 0x3f800000 0x00000109 0x004fc800
0x090a7223 0x0000000a 0x00000009 0x000fc800
0x0c097223 0x0000000a 0x000000ff 0x000fc800
0x190b7223 0x00000009 0x0000010c 0x000fc800
0x0a097223 0x0000000b 0x00000009 0x000fe200
0x00008947 0x00000050 0x03800000 0x020fea00
0x000b7202 0x0000000c 0x00000f00 0x000fe400
0x000e7202 0x00000019 0x00000f00 0x000fe400
0x000a7802 0x0000d730 0x00000f00 0x000fc600
0x00007944 0x0000fbc0 0x03c00000 0x01bfea00
0x00097202 0x0000000c 0x00000f00 0x000fc600
0x00047941 0x00000000 0x03800000 0x000fea00
0x00237306 0x00000003 0x00201400 0x000ea200
0x04ff7355 0x00000000 0x00100000 0x000fe200
0x00047945 0x00000100 0x03800000 0x000fec00
0x000b7308 0x00000019 0x00001000 0x000f6200
0x1d0a7220 0x00000023 0x00400000 0x004fc800
0x1f0c7220 0x0000000a 0x00400000 0x000fe400
0x190d7423 0x3f800000 0x0000010b 0x020fc800
0x0c007302 0x00000019 0x00000000 0x000ea200
0x0b0d7223 0x0000000d 0x0000000b 0x000fc800
0x0d0a7223 0x0000000c 0x000000ff 0x000fc800
0x190b7223 0x0000000a 0x0000010c 0x000fc800
0x0d137223 0x0000000b 0x0000000a 0x000fe200
0x00008947 0x00000050 0x03800000 0x004fea00
0x000b7202 0x0000000c 0x00000f00 0x000fe400
0x000e7202 0x00000019 0x00000f00 0x000fe400
0x000a7802 0x0000d860 0x00000f00 0x000fc600
0x00007944 0x0000fa90 0x03c00000 0x01bfea00
0x00137202 0x0000000c 0x00000f00 0x000fc600
0x00047941 0x00000000 0x03800000 0x000fea00
0x03217210 0x80000015 0x07ffe0ff 0x000fe200
0x000c7308 0x0000001a 0x00001000 0x000ea200
0x140a7220 0x00000023 0x00400000 0x000fe200
0x04ff7355 0x00000000 0x00100000 0x000fe200
0x00047945 0x00000110 0x03800000 0x000fe200
0x05207221 0x00000016 0x00000000 0x008fc400
0x1f0a7220 0x0000000a 0x00400000 0x000fe400
0x000b7306 0x00000021 0x00201400 0x000ee200
0x1a0d7423 0x3f800000 0x0000010c 0x004fc800
0x0c0d7223 0x0000000d 0x0000000c 0x000fe400
0x0a0e7220 0x0000000b 0x00400000 0x008fc800
0x0e0a7223 0x0000000d 0x000000ff 0x000fe400
0x0e007302 0x0000001a 0x00000000 0x000ea400
0x1a0b7223 0x0000000a 0x0000010e 0x000fc800
0x0d0a7223 0x0000000b 0x0000000a 0x000fe200
0x00008947 0x00000050 0x03800000 0x004fea00
0x000b7202 0x0000000e 0x00000f00 0x000fe400
0x000e7202 0x0000001a 0x00000f00 0x000fe400
0x000a7802 0x0000d9c0 0x00000f00 0x000fc600
0x00007944 0x0000f930 0x03c00000 0x013fea00
0x000a7202 0x0000000c 0x00000f00 0x000fc600
0x00047941 0x00000000 0x03800000 0x000fea00
0x000d7308 0x00000019 0x00001000 0x000ea200
0x050c7220 0x0000001f 0x00400000 0x000fe200
0x04ff7355 0x00000000 0x00100000 0x000fe200
0x1c0b7820 0x40400000 0x00400000 0x000fe200
0x00047945 0x00000110 0x03800000 0x000fe200
0x160c7223 0x00000023 0x0000080c 0x000fc800
0x0b0e7220 0x0000000c 0x00400000 0x000fe400
0x040b7221 0x00000017 0x00000000 0x010fc800
0x0e007302 0x00000019 0x00000000 0x000ee200
0x190f7423 0x3f800000 0x0000010d 0x004fe400
0x0b227221 0x0000000a 0x00000000 0x000fe400
0x0d0f7223 0x0000000f 0x0000000d 0x000fc800
0x0f0c7223 0x0000000e 0x000000ff 0x000fc800
0x190d7223 0x0000000c 0x0000010e 0x000fc800
0x0f147223 0x0000000d 0x0000000c 0x000fe200
0x00008947 0x00000050 0x03800000 0x008fea00
0x000b7202 0x0000000e 0x00000f00 0x000fe400
0x000e7202 0x00000019 0x00000f00 0x000fe400
0x000a7802 0x0000db20 0x00000f00 0x000fc600
0x00007944 0x0000f7d0 0x03c00000 0x003fea00
0x00147202 0x0000000c 0x00000f00 0x000fc600
0x00047941 0x00000000 0x03800000 0x000fea00
0x15157224 0x00000015 0x078e02ff 0x000fe200
0x000c7308 0x0000001b 0x00001000 0x000ea200
0x04ff7355 0x00000000 0x00100000 0x000fe200
0x00047945 0x00000130 0x03800000 0x000fe200
0x030a7224 0x00000021 0x078e0215 0x000fe400
0x06187221 0x00000018 0x00000000 0x001fc800
0x000b7306 0x0000000a 0x00201400 0x0000e200
0x1b0d7423 0x3f800000 0x0000010c 0x004fe400
0x1e0a7220 0x00000023 0x00400000 0x001fe400
0x0c0d7223 0x0000000d 0x0000000c 0x000fe400
0x1f0a7220 0x0000000a 0x00400000 0x000fc800
0x0a0e7220 0x0000000b 0x00400000 0x008fc800
0x0e0a7223 0x0000000d 0x000000ff 0x000fe400
0x0e007302 0x0000001b 0x00000000 0x000e2400
0x1b0b7223 0x0000000a 0x0000010e 0x000fc800
0x0d0a7223 0x0000000b 0x0000000a 0x000fe200
0x00008947 0x00000050 0x03800000 0x001fea00
0x000b7202 0x0000000e 0x00000f00 0x000fe400
0x000e7202 0x0000001b 0x00000f00 0x000fe400
0x000a7802 0x0000dc90 0x00000f00 0x000fc600
0x00007944 0x0000f660 0x03c00000 0x002fea00
0x000a7202 0x0000000c 0x00000f00 0x000fc600
0x00047941 0x00000000 0x03800000 0x000fea00
0x03037224 0x00000003 0x078e02ff 0x002fe200
0x00067306 0x00000015 0x00201400 0x000e2200
0x04ff7355 0x00000000 0x00100000 0x000fe200
0x00047945 0x00000140 0x03800000 0x000fe200
0x18187221 0x0000000a 0x00000000 0x000fca00
0x000b7306 0x00000003 0x00201400 0x0002b000
0x000c7308 0x0000001a 0x00001000 0x000ee200
0x05067220 0x00000006 0x00400000 0x001fe400
0x1d037820 0x40c00000 0x00400000 0x002fc400
0x0b067223 0x00000016 0x00000006 0x004fc800
0x03067220 0x00000006 0x00400000 0x000fe400
0x1a057423 0x3f800000 0x0000010c 0x008fc800
0x06007302 0x0000001a 0x00000000 0x000e2200
0x0c0c7223 0x00000005 0x0000000c 0x000fc800
0x0c037223 0x00000006 0x000000ff 0x000fc800
0x1a057223 0x00000003 0x00000106 0x000fc800
0x0c037223 0x00000005 0x00000003 0x000fe200
0x00008947 0x00000050 0x03800000 0x001fea00
0x000b7202 0x00000006 0x00000f00 0x000fe400
0x000e7202 0x0000001a 0x00000f00 0x000fe400
0x000a7802 0x0000de10 0x00000f00 0x000fc600
0x00007944 0x0000f4e0 0x03c00000 0x000fea00
0x00037202 0x0000000c 0x00000f00 0x000fc600
0x00047941 0x00000000 0x03800000 0x000fea00
0x00067308 0x00000019 0x00001000 0x000e2200
0x04057220 0x0000001f 0x00400000 0x000fe200
0x04ff7355 0x00000000 0x00100000 0x000fe200
0x1c047820 0x40800000 0x00400000 0x000fe200
0x00047945 0x000000f0 0x03800000 0x000fe200
0x17057223 0x00000023 0x00000805 0x000fc400
0x18187221 0x00000003 0x00000000 0x000fe400
0x040b7220 0x00000005 0x00400000 0x000fcc00
0x0b007302 0x00000019 0x00000000 0x000e6200
0x190a7423 0x3f800000 0x00000106 0x001fc800
0x060a7223 0x0000000a 0x00000006 0x000fc800
0x0a047223 0x0000000b 0x000000ff 0x000fc800
0x19057223 0x00000004 0x0000010b 0x000fc800
0x0a057223 0x00000005 0x00000004 0x000fe200
0x00008947 0x00000040 0x03800000 0x002fea00
0x000e7202 0x00000019 0x00000f00 0x000fe400
0x000a7802 0x0000df50 0x00000f00 0x000fc600
0x00007944 0x0000f3a0 0x03c00000 0x000fea00
0x00057202 0x0000000c 0x00000f00 0x000fc600
0x00047941 0x00000000 0x03800000 0x000fea00
0x00037305 0x00000019 0x0020f100 0x00006200
0x18067221 0x00000005 0x00000000 0x000fe400
0x22047221 0x00000014 0x00000000 0x000fe400
0x00007221 0x00000009 0x00000000 0x000fe400
0x20057221 0x00000013 0x00000000 0x000fc600
0x00037941 0x00000000 0x03800000 0x000fea00
0x07097810 0x00000004 0x07ffe0ff 0x000fe200
0x03ff7355 0x00000000 0x00100000 0x000fe200
0x03157989 0x08800000 0x000e0002 0x00232200
0x00037945 0x00000a80 0x03800000 0x000fe200
0x0900720c 0x00000002 0x03f04270 0x000fc400
0x000a7989 0x08800000 0x000e0002 0x0042a800
0x05167989 0x08800000 0x000e0002 0x0082e800
0x04177989 0x08800000 0x000e0002 0x01032800
0x06187989 0x08800000 0x000e0002 0x00122200
0x00000947 0x00000a10 0x03800000 0x000fea00
0x03097210 0x00000015 0x07ffe0ff 0x000fe200
0x001f7306 0x00000015 0x00201400 0x000f6200
0x001c7221 0x0000000a 0x00000100 0x004fe200
0x04ff7355 0x00000000 0x00100000 0x000fe200
0x00047945 0x00000150 0x03800000 0x000fe400
0x1c1d7220 0x0000001c 0x00400000 0x000fc600
0x00197306 0x00000009 0x00201400 0x000ea200
0x1c147220 0x0000001d 0x00400000 0x000fc800
0x1c1e7220 0x00000014 0x00400000 0x040fe400
0x1c0c7220 0x0000001f 0x00400000 0x020fe200
0x00097308 0x00000019 0x00001000 0x004ea200
0x191a7220 0x00000019 0x00400000 0x000fc800
0x191b7220 0x0000001a 0x00400000 0x000fc600
0x0c007302 0x00000019 0x00000000 0x000f6200
0x190a7423 0x3f800000 0x00000109 0x004fc800
0x090a7223 0x0000000a 0x00000009 0x000fc800
0x0c097223 0x0000000a 0x000000ff 0x000fc800
0x190b7223 0x00000009 0x0000010c 0x000fc800
0x0a097223 0x0000000b 0x00000009 0x000fe200
0x00008947 0x00000050 0x03800000 0x020fea00
0x000b7202 0x0000000c 0x00000f00 0x000fe400
0x000e7202 0x00000019 0x00000f00 0x000fe400
0x000a7802 0x0000e1f0 0x00000f00 0x000fc600
0x00007944 0x0000f100 0x03c00000 0x01bfea00
0x00097202 0x0000000c 0x00000f00 0x000fc600
0x00047941 0x00000000 0x03800000 0x000fea00
0x00237306 0x00000003 0x00201400 0x000ea200
0x04ff7355 0x00000000 0x00100000 0x000fe200
0x00047945 0x00000100 0x03800000 0x000fec00
0x000b7308 0x00000019 0x00001000 0x000f6200
0x1d0a7220 0x00000023 0x00400000 0x004fc800
0x1f0c7220 0x0000000a 0x00400000 0x000fe400
0x190d7423 0x3f800000 0x0000010b 0x020fc800
0x0c007302 0x00000019 0x00000000 0x000ea200
0x0b0d7223 0x0000000d 0x0000000b 0x000fc800
0x0d0a7223 0x0000000c 0x000000ff 0x000fc800
0x190b7223 0x0000000a 0x0000010c 0x000fc800
0x0d137223 0x0000000b 0x0000000a 0x000fe200
0x00008947 0x00000050 0x03800000 0x004fea00
0x000b7202 0x0000000c 0x00000f00 0x000fe400
0x000e7202 0x00000019 0x00000f00 0x000fe400
0x000a7802 0x0000e320 0x00000f00 0x000fc600
0x00007944 0x0000efd0 0x03c00000 0x01bfea00
0x00137202 0x0000000c 0x00000f00 0x000fc600
0x00047941 0x00000000 0x03800000 0x000fea00
0x03217210 0x80000015 0x07ffe0ff 0x000fe200
0x000c7308 0x0000001a 0x00001000 0x000ea200
0x140a7220 0x00000023 0x00400000 0x000fe200
0x04ff7355 0x00000000 0x00100000 0x000fe200
0x00047945 0x00000110 0x03800000 0x000fe200
0x05207221 0x00000016 0x00000000 0x008fc400
0x1f0a7220 0x0000000a 0x00400000 0x000fe400
0x000b7306 0x00000021 0x00201400 0x000ee200
0x1a0d7423 0x3f800000 0x0000010c 0x004fc800
0x0c0d7223 0x0000000d 0x0000000c 0x000fe400
0x0a0e7220 0x0000000b 0x00400000 0x008fc800
0x0e0a7223 0x0000000d 0x000000ff 0x000fe400
0x0e007302 0x0000001a 0x00000000 0x000ea400
0x1a0b7223 0x0000000a 0x0000010e 0x000fc800
0x0d0a7223 0x0000000b 0x0000000a 0x000fe200
0x00008947 0x00000050 0x03800000 0x004fea00
0x000b7202 0x0000000e 0x00000f00 0x000fe400
0x000e7202 0x0000001a 0x00000f00 0x000fe400
0x000a7802 0x0000e480 0x00000f00 0x000fc600
0x00007944 0x0000ee70 0x03c00000 0x013fea00
0x000a7202 0x0000000c 0x00000f00 0x000fc600
0x00047941 0x00000000 0x03800000 0x000fea00
0x000d7308 0x00000019 0x00001000 0x000ea200
0x050c7220 0x0000001f 0x00400000 0x000fe200
0x04ff7355 0x00000000 0x00100000 0x000fe200
0x1c0b7820 0x40400000 0x00400000 0x000fe200
0x00047945 0x00000110 0x03800000 0x000fe200
0x160c7223 0x00000023 0x0000080c 0x000fc800
0x0b0e7220 0x0000000c 0x00400000 0x000fe400
0x040b7221 0x00000017 0x00000000 0x010fc800
0x0e007302 0x00000019 0x00000000 0x000ee200
0x190f7423 0x3f800000 0x0000010d 0x004fe400
0x0b227221 0x0000000a 0x00000000 0x000fe400
0x0d0f7223 0x0000000f 0x0000000d 0x000fc800
0x0f0c7223 0x0000000e 0x000000ff 0x000fc800
0x190d7223 0x0000000c 0x0000010e 0x000fc800
0x0f147223 0x0000000d 0x0000000c 0x000fe200
0x00008947 0x00000050 0x03800000 0x008fea00
0x000b7202 0x0000000e 0x00000f00 0x000fe400
0x000e7202 0x00000019 0x00000f00 0x000fe400
0x000a7802 0x0000e5e0 0x00000f00 0x000fc600
0x00007944 0x0000ed10 0x03c00000 0x003fea00
0x00147202 0x0000000c 0x00000f00 0x000fc600
0x00047941 0x00000000 0x03800000 0x000fea00
0x15157224 0x00000015 0x078e02ff 0x000fe200
0x000c7308 0x0000001b 0x00001000 0x000ea200
0x04ff7355 0x00000000 0x00100000 0x000fe200
0x00047945 0x00000130 0x03800000 0x000fe200
0x030a7224 0x00000021 0x078e0215 0x000fe400
0x06187221 0x00000018 0x00000000 0x001fc800
0x000b7306 0x0000000a 0x00201400 0x0000e200
0x1b0d7423 0x3f800000 0x0000010c 0x004fe400
0x1e0a7220 0x00000023 0x00400000 0x001fe400
0x0c0d7223 0x0000000d 0x0000000c 0x000fe400
0x1f0a7220 0x0000000a 0x00400000 0x000fc800
0x0a0e7220 0x0000000b 0x00400000 0x008fc800
0x0e0a7223 0x0000000d 0x000000ff 0x000fe400
0x0e007302 0x0000001b 0x00000000 0x000e2400
0x1b0b7223 0x0000000a 0x0000010e 0x000fc800
0x0d0a7223 0x0000000b 0x0000000a 0x000fe200
0x00008947 0x00000050 0x03800000 0x001fea00
0x000b7202 0x0000000e 0x00000f00 0x000fe400
0x000e7202 0x0000001b 0x00000f00 0x000fe400
0x000a7802 0x0000e750 0x00000f00 0x000fc600
0x00007944 0x0000eba0 0x03c00000 0x002fea00
0x000a7202 0x0000000c 0x00000f00 0x000fc600
0x00047941 0x00000000 0x03800000 0x000fea00
0x03037224 0x00000003 0x078e02ff 0x002fe200
0x00067306 0x00000015 0x00201400 0x000e2200
0x04ff7355 0x00000000 0x00100000 0x000fe200
0x00047945 0x00000140 0x03800000 0x000fe200
0x18187221 0x0000000a 0x00000000 0x000fca00
0x000b7306 0x00000003 0x00201400 0x0002b000
0x000c7308 0x0000001a 0x00001000 0x000ee200
0x05067220 0x00000006 0x00400000 0x001fe400
0x1d037820 0x40c00000 0x00400000 0x002fc400
0x0b067223 0x00000016 0x00000006 0x004fc800
0x03067220 0x00000006 0x00400000 0x000fe400
0x1a057423 0x3f800000 0x0000010c 0x008fc800
0x06007302 0x0000001a 0x00000000 0x000e2200
0x0c0c7223 0x00000005 0x0000000c 0x000fc800
0x0c037223 0x00000006 0x000000ff 0x000fc800
0x1a057223 0x00000003 0x00000106 0x000fc800
0x0c037223 0x00000005 0x00000003 0x000fe200
0x00008947 0x00000050 0x03800000 0x001fea00
0x000b7202 0x00000006 0x00000f00 0x000fe400
0x000e7202 0x0000001a 0x00000f00 0x000fe400
0x000a7802 0x0000e8d0 0x00000f00 0x000fc600
0x00007944 0x0000ea20 0x03c00000 0x000fea00
0x00037202 0x0000000c 0x00000f00 0x000fc600
0x00047941 0x00000000 0x03800000 0x000fea00
0x00067308 0x00000019 0x00001000 0x000e2200
0x04057220 0x0000001f 0x00400000 0x000fe200
0x04ff7355 0x00000000 0x00100000 0x000fe200
0x1c047820 0x40800000 0x00400000 0x000fe200
0x00047945 0x000000f0 0x03800000 0x000fe200
0x17057223 0x00000023 0x00000805 0x000fc400
0x18187221 0x00000003 0x00000000 0x000fe400
0x040b7220 0x00000005 0x00400000 0x000fcc00
0x0b007302 0x00000019 0x00000000 0x000e6200
0x190a7423 0x3f800000 0x00000106 0x001fc800
0x060a7223 0x0000000a 0x00000006 0x000fc800
0x0a047223 0x0000000b 0x000000ff 0x000fc800
0x19057223 0x00000004 0x0000010b 0x000fc800
0x0a057223 0x00000005 0x00000004 0x000fe200
0x00008947 0x00000040 0x03800000 0x002fea00
0x000e7202 0x00000019 0x00000f00 0x000fe400
0x000a7802 0x0000ea10 0x00000f00 0x000fc600
0x00007944 0x0000e8e0 0x03c00000 0x000fea00
0x00057202 0x0000000c 0x00000f00 0x000fc600
0x00047941 0x00000000 0x03800000 0x000fea00
0x00037305 0x00000019 0x0020f100 0x00006200
0x18067221 0x00000005 0x00000000 0x000fe400
0x22047221 0x00000014 0x00000000 0x000fe400
0x00007221 0x00000009 0x00000000 0x000fe400
0x20057221 0x00000013 0x00000000 0x000fc600
0x00037941 0x00000000 0x03800000 0x000fea00
0x07097810 0x00000008 0x07ffe0ff 0x000fe200
0x03ff7355 0x00000000 0x00100000 0x000fe200
0x03157989 0x09000000 0x000e0002 0x00232200
0x00037945 0x00000a80 0x03800000 0x000fe200
0x0900720c 0x00000002 0x03f04270 0x000fc400
0x000a7989 0x09000000 0x000e0002 0x0042a800
0x05167989 0x09000000 0x000e0002 0x0082e800
0x04177989 0x09000000 0x000e0002 0x01032800
0x06187989 0x09000000 0x000e0002 0x00122200
0x00000947 0x00000a10 0x03800000 0x000fea00
0x03097210 0x00000015 0x07ffe0ff 0x000fe200
0x001f7306 0x00000015 0x00201400 0x000f6200
0x001c7221 0x0000000a 0x00000100 0x004fe200
0x04ff7355 0x00000000 0x00100000 0x000fe200
0x00047945 0x00000150 0x03800000 0x000fe400
0x1c1d7220 0x0000001c 0x00400000 0x000fc600
0x00197306 0x00000009 0x00201400 0x000ea200
0x1c147220 0x0000001d 0x00400000 0x000fc800
0x1c1e7220 0x00000014 0x00400000 0x040fe400
0x1c0c7220 0x0000001f 0x00400000 0x020fe200
0x00097308 0x00000019 0x00001000 0x004ea200
0x191a7220 0x00000019 0x00400000 0x000fc800
0x191b7220 0x0000001a 0x00400000 0x000fc600
0x0c007302 0x00000019 0x00000000 0x000f6200
0x190a7423 0x3f800000 0x00000109 0x004fc800
0x090a7223 0x0000000a 0x00000009 0x000fc800
0x0c097223 0x0000000a 0x000000ff 0x000fc800
0x190b7223 0x00000009 0x0000010c 0x000fc800
0x0a097223 0x0000000b 0x00000009 0x000fe200
0x00008947 0x00000050 0x03800000 0x020fea00
0x000b7202 0x0000000c 0x00000f00 0x000fe400
0x000e7202 0x00000019 0x00000f00 0x000fe400
0x000a7802 0x0000ecb0 0x00000f00 0x000fc600
0x00007944 0x0000e640 0x03c00000 0x01bfea00
0x00097202 0x0000000c 0x00000f00 0x000fc600
0x00047941 0x00000000 0x03800000 0x000fea00
0x00237306 0x00000003 0x00201400 0x000ea200
0x04ff7355 0x00000000 0x00100000 0x000fe200
0x00047945 0x00000100 0x03800000 0x000fec00
0x000b7308 0x00000019 0x00001000 0x000f6200
0x1d0a7220 0x00000023 0x00400000 0x004fc800
0x1f0c7220 0x0000000a 0x00400000 0x000fe400
0x190d7423 0x3f800000 0x0000010b 0x020fc800
0x0c007302 0x00000019 0x00000000 0x000ea200
0x0b0d7223 0x0000000d 0x0000000b 0x000fc800
0x0d0a7223 0x0000000c 0x000000ff 0x000fc800
0x190b7223 0x0000000a 0x0000010c 0x000fc800
0x0d137223 0x0000000b 0x0000000a 0x000fe200
0x00008947 0x00000050 0x03800000 0x004fea00
0x000b7202 0x0000000c 0x00000f00 0x000fe400
0x000e7202 0x00000019 0x00000f00 0x000fe400
0x000a7802 0x0000ede0 0x00000f00 0x000fc600
0x00007944 0x0000e510 0x03c00000 0x01bfea00
0x00137202 0x0000000c 0x00000f00 0x000fc600
0x00047941 0x00000000 0x03800000 0x000fea00
0x03217210 0x80000015 0x07ffe0ff 0x000fe200
0x000c7308 0x0000001a 0x00001000 0x000ea200
0x140a7220 0x00000023 0x00400000 0x000fe200
0x04ff7355 0x00000000 0x00100000 0x000fe200
0x00047945 0x00000110 0x03800000 0x000fe200
0x05207221 0x00000016 0x00000000 0x008fc400
0x1f0a7220 0x0000000a 0x00400000 0x000fe400
0x000b7306 0x00000021 0x00201400 0x000ee200
0x1a0d7423 0x3f800000 0x0000010c 0x004fc800
0x0c0d7223 0x0000000d 0x0000000c 0x000fe400
0x0a0e7220 0x0000000b 0x00400000 0x008fc800
0x0e0a7223 0x0000000d 0x000000ff 0x000fe400
0x0e007302 0x0000001a 0x00000000 0x000ea400
0x1a0b7223 0x0000000a 0x0000010e 0x000fc800
0x0d0a7223 0x0000000b 0x0000000a 0x000fe200
0x00008947 0x00000050 0x03800000 0x004fea00
0x000b7202 0x0000000e 0x00000f00 0x000fe400
0x000e7202 0x0000001a 0x00000f00 0x000fe400
0x000a7802 0x0000ef40 0x00000f00 0x000fc600
0x00007944 0x0000e3b0 0x03c00000 0x013fea00
0x000a7202 0x0000000c 0x00000f00 0x000fc600
0x00047941 0x00000000 0x03800000 0x000fea00
0x000d7308 0x00000019 0x00001000 0x000ea200
0x050c7220 0x0000001f 0x00400000 0x000fe200
0x04ff7355 0x00000000 0x00100000 0x000fe200
0x1c0b7820 0x40400000 0x00400000 0x000fe200
0x00047945 0x00000110 0x03800000 0x000fe200
0x160c7223 0x00000023 0x0000080c 0x000fc800
0x0b0e7220 0x0000000c 0x00400000 0x000fe400
0x040b7221 0x00000017 0x00000000 0x010fc800
0x0e007302 0x00000019 0x00000000 0x000ee200
0x190f7423 0x3f800000 0x0000010d 0x004fe400
0x0b227221 0x0000000a 0x00000000 0x000fe400
0x0d0f7223 0x0000000f 0x0000000d 0x000fc800
0x0f0c7223 0x0000000e 0x000000ff 0x000fc800
0x190d7223 0x0000000c 0x0000010e 0x000fc800
0x0f147223 0x0000000d 0x0000000c 0x000fe200
0x00008947 0x00000050 0x03800000 0x008fea00
0x000b7202 0x0000000e 0x00000f00 0x000fe400
0x000e7202 0x00000019 0x00000f00 0x000fe400
0x000a7802 0x0000f0a0 0x00000f00 0x000fc600
0x00007944 0x0000e250 0x03c00000 0x003fea00
0x00147202 0x0000000c 0x00000f00 0x000fc600
0x00047941 0x00000000 0x03800000 0x000fea00
0x15157224 0x00000015 0x078e02ff 0x000fe200
0x000c7308 0x0000001b 0x00001000 0x000ea200
0x04ff7355 0x00000000 0x00100000 0x000fe200
0x00047945 0x00000130 0x03800000 0x000fe200
0x030a7224 0x00000021 0x078e0215 0x000fe400
0x06187221 0x00000018 0x00000000 0x001fc800
0x000b7306 0x0000000a 0x00201400 0x0000e200
0x1b0d7423 0x3f800000 0x0000010c 0x004fe400
0x1e0a7220 0x00000023 0x00400000 0x001fe400
0x0c0d7223 0x0000000d 0x0000000c 0x000fe400
0x1f0a7220 0x0000000a 0x00400000 0x000fc800
0x0a0e7220 0x0000000b 0x00400000 0x008fc800
0x0e0a7223 0x0000000d 0x000000ff 0x000fe400
0x0e007302 0x0000001b 0x00000000 0x000e2400
0x1b0b7223 0x0000000a 0x0000010e 0x000fc800
0x0d0a7223 0x0000000b 0x0000000a 0x000fe200
0x00008947 0x00000050 0x03800000 0x001fea00
0x000b7202 0x0000000e 0x00000f00 0x000fe400
0x000e7202 0x0000001b 0x00000f00 0x000fe400
0x000a7802 0x0000f210 0x00000f00 0x000fc600
0x00007944 0x0000e0e0 0x03c00000 0x002fea00
0x000a7202 0x0000000c 0x00000f00 0x000fc600
0x00047941 0x00000000 0x03800000 0x000fea00
0x03037224 0x00000003 0x078e02ff 0x002fe200
0x00067306 0x00000015 0x00201400 0x000e2200
0x04ff7355 0x00000000 0x00100000 0x000fe200
0x00047945 0x00000140 0x03800000 0x000fe200
0x18187221 0x0000000a 0x00000000 0x000fca00
0x000b7306 0x00000003 0x00201400 0x0002b000
0x000c7308 0x0000001a 0x00001000 0x000ee200
0x05067220 0x00000006 0x00400000 0x001fe400
0x1d037820 0x40c00000 0x00400000 0x002fc400
0x0b067223 0x00000016 0x00000006 0x004fc800
0x03067220 0x00000006 0x00400000 0x000fe400
0x1a057423 0x3f800000 0x0000010c 0x008fc800
0x06007302 0x0000001a 0x00000000 0x000e2200
0x0c0c7223 0x00000005 0x0000000c 0x000fc800
0x0c037223 0x00000006 0x000000ff 0x000fc800
0x1a057223 0x00000003 0x00000106 0x000fc800
0x0c037223 0x00000005 0x00000003 0x000fe200
0x00008947 0x00000050 0x03800000 0x001fea00
0x000b7202 0x00000006 0x00000f00 0x000fe400
0x000e7202 0x0000001a 0x00000f00 0x000fe400
0x000a7802 0x0000f390 0x00000f00 0x000fc600
0x00007944 0x0000df60 0x03c00000 0x000fea00
0x00037202 0x0000000c 0x00000f00 0x000fc600
0x00047941 0x00000000 0x03800000 0x000fea00
0x00067308 0x00000019 0x00001000 0x000e2200
0x04057220 0x0000001f 0x00400000 0x000fe200
0x04ff7355 0x00000000 0x00100000 0x000fe200
0x1c047820 0x40800000 0x00400000 0x000fe200
0x00047945 0x000000f0 0x03800000 0x000fe200
0x17057223 0x00000023 0x00000805 0x000fc400
0x18187221 0x00000003 0x00000000 0x000fe400
0x040b7220 0x00000005 0x00400000 0x000fcc00
0x0b007302 0x00000019 0x00000000 0x000e6200
0x190a7423 0x3f800000 0x00000106 0x001fc800
0x060a7223 0x0000000a 0x00000006 0x000fc800
0x0a047223 0x0000000b 0x000000ff 0x000fc800
0x19057223 0x00000004 0x0000010b 0x000fc800
0x0a057223 0x00000005 0x00000004 0x000fe200
0x00008947 0x00000040 0x03800000 0x002fea00
0x000e7202 0x00000019 0x00000f00 0x000fe400
0x000a7802 0x0000f4d0 0x00000f00 0x000fc600
0x00007944 0x0000de20 0x03c00000 0x000fea00
0x00057202 0x0000000c 0x00000f00 0x000fc600
0x00047941 0x00000000 0x03800000 0x000fea00
0x00037305 0x00000019 0x0020f100 0x00006200
0x18067221 0x00000005 0x00000000 0x000fe400
0x22047221 0x00000014 0x00000000 0x000fe400
0x00007221 0x00000009 0x00000000 0x000fe400
0x20057221 0x00000013 0x00000000 0x000fc600
0x00037941 0x00000000 0x03800000 0x000fea00
0x07097810 0x00000010 0x07ffe0ff 0x000fe200
0x03ff7355 0x00000000 0x00100000 0x000fe200
0x03147989 0x0a000000 0x000e0002 0x00232200
0x00037945 0x00000a60 0x03800000 0x000fe200
0x0900720c 0x00000002 0x03f04270 0x000fc400
0x000a7989 0x0a000000 0x000e0002 0x0042a800
0x05157989 0x0a000000 0x000e0002 0x0002e800
0x04167989 0x0a000000 0x000e0002 0x0082e800
0x06177989 0x0a000000 0x000e0002 0x01032200
0x00000947 0x000009f0 0x03800000 0x000fea00
0x03027210 0x00000014 0x07ffe0ff 0x002fe200
0x001e7306 0x00000014 0x00201400 0x000e6200
0x001b7221 0x0000000a 0x00000100 0x004fe200
0x04ff7355 0x00000000 0x00100000 0x000fe200
0x00047945 0x00000140 0x03800000 0x000fe400
0x1b1c7220 0x0000001b 0x00400000 0x000fc600
0x00187306 0x00000002 0x00201400 0x001e2200
0x1b137220 0x0000001c 0x00400000 0x000fc800
0x1b1d7220 0x00000013 0x00400000 0x040fe400
0x1b0b7220 0x0000001e 0x00400000 0x002fe200
0x00027308 0x00000018 0x00001000 0x001e2200
0x18197220 0x00000018 0x00400000 0x000fc800
0x181a7220 0x00000019 0x00400000 0x000fc600
0x0b007302 0x00000018 0x00000000 0x000e6200
0x18097423 0x3f800000 0x00000102 0x001fc800
0x02097223 0x00000009 0x00000002 0x000fc800
0x0b027223 0x00000009 0x000000ff 0x000fc800
0x180a7223 0x00000002 0x0000010b 0x000fc800
0x09027223 0x0000000a 0x00000002 0x000fe200
0x00008947 0x00000040 0x03800000 0x002fea00
0x000e7202 0x00000018 0x00000f00 0x000fe400
0x000a7802 0x0000f760 0x00000f00 0x000fc600
0x00007944 0x0000db90 0x03c00000 0x018fea00
0x00027202 0x0000000c 0x00000f00 0x000fc600
0x00047941 0x00000000 0x03800000 0x000fea00
0x00227306 0x00000003 0x00201400 0x000e2200
0x04ff7355 0x00000000 0x00100000 0x000fe200
0x00047945 0x000000f0 0x03800000 0x000fec00
0x000a7308 0x00000018 0x00001000 0x000e6200
0x1c097220 0x00000022 0x00400000 0x001fc800
0x1e0b7220 0x00000009 0x00400000 0x000fe400
0x180c7423 0x3f800000 0x0000010a 0x002fc800
0x0b007302 0x00000018 0x00000000 0x000e2200
0x0a0c7223 0x0000000c 0x0000000a 0x000fc800
0x0c097223 0x0000000b 0x000000ff 0x000fc800
0x180a7223 0x00000009 0x0000010b 0x000fc800
0x0c097223 0x0000000a 0x00000009 0x000fe200
0x00008947 0x00000040 0x03800000 0x001fea00
0x000e7202 0x00000018 0x00000f00 0x000fe400
0x000a7802 0x0000f880 0x00000f00 0x000fc600
0x00007944 0x0000da70 0x03c00000 0x018fea00
0x00097202 0x0000000c 0x00000f00 0x000fc600
0x00047941 0x00000000 0x03800000 0x000fea00
0x03207210 0x80000014 0x07ffe0ff 0x000fe200
0x000c7308 0x00000019 0x00001000 0x000e2200
0x130a7220 0x00000022 0x00400000 0x000fe200
0x04ff7355 0x00000000 0x00100000 0x000fe200
0x00047945 0x00000110 0x03800000 0x000fe200
0x051f7221 0x00000015 0x00000000 0x000fe400
0x1e0a7220 0x0000000a 0x00400000 0x000fc400
0x000b7306 0x00000020 0x00201400 0x000e6200
0x190d7423 0x3f800000 0x0000010c 0x001fc800
0x0c0d7223 0x0000000d 0x0000000c 0x000fe400
0x0a0e7220 0x0000000b 0x00400000 0x002fc800
0x0e0a7223 0x0000000d 0x000000ff 0x000fe400
0x0e007302 0x00000019 0x00000000 0x000e2400
0x190b7223 0x0000000a 0x0000010e 0x000fc800
0x0d0a7223 0x0000000b 0x0000000a 0x000fe200
0x00008947 0x00000050 0x03800000 0x001fea00
0x000b7202 0x0000000e 0x00000f00 0x000fe400
0x000e7202 0x00000019 0x00000f00 0x000fe400
0x000a7802 0x0000f9e0 0x00000f00 0x000fc600
0x00007944 0x0000d910 0x03c00000 0x018fea00
0x000a7202 0x0000000c 0x00000f00 0x000fc600
0x00047941 0x00000000 0x03800000 0x000fea00
0x000d7308 0x00000018 0x00001000 0x000e2200
0x050c7220 0x0000001e 0x00400000 0x000fe200
0x04ff7355 0x00000000 0x00100000 0x000fe200
0x1b0b7820 0x40400000 0x00400000 0x000fe200
0x00047945 0x00000110 0x03800000 0x000fe200
0x150c7223 0x00000022 0x0000080c 0x000fc800
0x0b0e7220 0x0000000c 0x00400000 0x000fe400
0x040b7221 0x00000016 0x00000000 0x008fc800
0x0e007302 0x00000018 0x00000000 0x000e6200
0x180f7423 0x3f800000 0x0000010d 0x001fe400
0x0b217221 0x0000000a 0x00000000 0x000fe400
0x0d0f7223 0x0000000f 0x0000000d 0x000fc800
0x0f0c7223 0x0000000e 0x000000ff 0x000fc800
0x180d7223 0x0000000c 0x0000010e 0x000fc800
0x0f137223 0x0000000d 0x0000000c 0x000fe200
0x00008947 0x00000050 0x03800000 0x002fea00
0x000b7202 0x0000000e 0x00000f00 0x000fe400
0x000e7202 0x00000018 0x00000f00 0x000fe400
0x000a7802 0x0000fb40 0x00000f00 0x000fc600
0x00007944 0x0000d7b0 0x03c00000 0x010fea00
0x00137202 0x0000000c 0x00000f00 0x000fc600
0x00047941 0x00000000 0x03800000 0x000fea00
0x14147224 0x00000014 0x078e02ff 0x000fe200
0x000c7308 0x0000001a 0x00001000 0x000e2200
0x04ff7355 0x00000000 0x00100000 0x000fe200
0x00047945 0x00000130 0x03800000 0x000fe200
0x030a7224 0x00000020 0x078e0214 0x000fe400
0x06177221 0x00000017 0x00000000 0x010fc800
0x000b7306 0x0000000a 0x00201400 0x0002a200
0x1a0d7423 0x3f800000 0x0000010c 0x001fe400
0x1d0a7220 0x00000022 0x00400000 0x002fe400
0x0c0d7223 0x0000000d 0x0000000c 0x000fe400
0x1e0a7220 0x0000000a 0x00400000 0x000fc800
0x0a0e7220 0x0000000b 0x00400000 0x004fc800
0x0e0a7223 0x0000000d 0x000000ff 0x000fe400
0x0e007302 0x0000001a 0x00000000 0x000e2400
0x1a0b7223 0x0000000a 0x0000010e 0x000fc800
0x0d0a7223 0x0000000b 0x0000000a 0x000fe200
0x00008947 0x00000050 0x03800000 0x001fea00
0x000b7202 0x0000000e 0x00000f00 0x000fe400
0x000e7202 0x0000001a 0x00000f00 0x000fe400
0x000a7802 0x0000fcb0 0x00000f00 0x000fc600
0x00007944 0x0000d640 0x03c00000 0x000fea00
0x000a7202 0x0000000c 0x00000f00 0x000fc600
0x00047941 0x00000000 0x03800000 0x000fea00
0x03037224 0x00000003 0x078e02ff 0x000fe200
0x00067306 0x00000014 0x00201400 0x000e2200
0x04ff7355 0x00000000 0x00100000 0x000fe200
0x00047945 0x00000140 0x03800000 0x000fe200
0x17177221 0x0000000a 0x00000000 0x000fca00
0x000b7306 0x00000003 0x00201400 0x0002b000
0x000c7308 0x00000019 0x00001000 0x000ee200
0x05067220 0x00000006 0x00400000 0x001fe400
0x1c037820 0x40c00000 0x00400000 0x002fc400
0x0b067223 0x00000015 0x00000006 0x004fc800
0x03067220 0x00000006 0x00400000 0x000fe400
0x19057423 0x3f800000 0x0000010c 0x008fc800
0x06007302 0x00000019 0x00000000 0x000e2200
0x0c0c7223 0x00000005 0x0000000c 0x000fc800
0x0c037223 0x00000006 0x000000ff 0x000fc800
0x19057223 0x00000003 0x00000106 0x000fc800
0x0c037223 0x00000005 0x00000003 0x000fe200
0x00008947 0x00000050 0x03800000 0x001fea00
0x000b7202 0x00000006 0x00000f00 0x000fe400
0x000e7202 0x00000019 0x00000f00 0x000fe400
0x000a7802 0x0000fe30 0x00000f00 0x000fc600
0x00007944 0x0000d4c0 0x03c00000 0x000fea00
0x00037202 0x0000000c 0x00000f00 0x000fc600
0x00047941 0x00000000 0x03800000 0x000fea00
0x00067308 0x00000018 0x00001000 0x000e2200
0x04057220 0x0000001e 0x00400000 0x000fe200
0x04ff7355 0x00000000 0x00100000 0x000fe200
0x1b047820 0x40800000 0x00400000 0x000fe200
0x00047945 0x000000f0 0x03800000 0x000fe200
0x16057223 0x00000022 0x00000805 0x000fc400
0x17177221 0x00000003 0x00000000 0x000fe400
0x040b7220 0x00000005 0x00400000 0x000fcc00
0x0b007302 0x00000018 0x00000000 0x000e6200
0x180a7423 0x3f800000 0x00000106 0x001fc800
0x060a7223 0x0000000a 0x00000006 0x000fc800
0x0a047223 0x0000000b 0x000000ff 0x000fc800
0x18057223 0x00000004 0x0000010b 0x000fc800
0x0a057223 0x00000005 0x00000004 0x000fe200
0x00008947 0x00000040 0x03800000 0x002fea00
0x000e7202 0x00000018 0x00000f00 0x000fe400
0x000a7802 0x0000ff70 0x00000f00 0x000fc600
0x00007944 0x0000d380 0x03c00000 0x000fea00
0x00057202 0x0000000c 0x00000f00 0x000fc600
0x00047941 0x00000000 0x03800000 0x000fea00
0x00037305 0x00000018 0x0020f100 0x00006200
0x17067221 0x00000005 0x00000000 0x000fe400
0x21047221 0x00000013 0x00000000 0x000fe400
0x00007221 0x00000002 0x00000000 0x000fe400
0x1f057221 0x00000009 0x00000000 0x000fc600
0x00037941 0x00000000 0x03800000 0x000fea00
0x00027919 0x00000000 0x00002100 0x002e6200
0x0700720c 0x000000ff 0x03f05270 0x000fd800
0x08008388 0x00000803 0x00000800 0x000fe800
0x08008388 0x00000c00 0x00000800 0x000fe800
0x08008388 0x00001005 0x00000800 0x000fe800
0x08008388 0x00001404 0x00000800 0x000fe800
0x08008388 0x00001806 0x00000800 0x000fe800
0x00007b1d 0x00000000 0x00000000 0x000fea00
0x0200720c 0x000000ff 0x03f05270 0x002fd800
0x00000947 0x0000c6e0 0x03800000 0x000fea00
0x00027a02 0x00005c00 0x00000f00 0x000fc800
0x0200780c 0x00000021 0x03f06270 0x000fd800
0x00008947 0x00000a70 0x03800000 0x000fea00
0xff027984 0x00001c00 0x00001800 0x000e6200
0x03ff7355 0x00000000 0x00100000 0x000fe200
0x00037945 0x00000190 0x03800000 0x000fe400
0xff087984 0x00002000 0x00001800 0x000f6200
0x03077210 0x00000002 0x07ffe0ff 0x002fe200
0x00177221 0x00000008 0x00000100 0x030fca00
0x00147306 0x00000007 0x00201400 0x000e6200
0x17187220 0x00000017 0x00400000 0x001fc800
0x17137220 0x00000018 0x00400000 0x000fc600
0x00077306 0x00000002 0x00201400 0x000e2200
0x17197220 0x00000013 0x00400000 0x000fce00
0x00097308 0x00000014 0x00001000 0x002e6200
0x14157220 0x00000014 0x00400000 0x000fc800
0x14167220 0x00000015 0x00400000 0x048fe400
0x170b7220 0x00000007 0x00400000 0x001fe200
0x001a7305 0x00000014 0x0020f100 0x000fe200
0x14087423 0x3f800000 0x00000109 0x002fce00
0x0b007302 0x00000014 0x00000000 0x000e2200
0x09087223 0x00000008 0x00000009 0x000fc800
0x0b097223 0x00000008 0x000000ff 0x000fc800
0x140a7223 0x00000009 0x0000010b 0x004fc800
0x08087223 0x0000000a 0x00000009 0x000fe200
0x00008947 0x00000040 0x03800000 0x001fea00
0x000e7202 0x00000014 0x00000f00 0x000fe400
0x000a7802 0x00010260 0x00000f00 0x000fc600
0x00007944 0x0000d090 0x03c00000 0x000fea00
0x00087202 0x0000000c 0x00000f00 0x000fc600
0x00037941 0x00000000 0x03800000 0x000fea00
0x001e7306 0x00000003 0x00201400 0x000e2200
0xff097984 0x00002400 0x00001800 0x000e6200
0x03ff7355 0x00000000 0x00100000 0x000fe200
0x00037945 0x00000120 0x03800000 0x000fe200
0x00007221 0x00000008 0x00000000 0x000fc800
0x000b7308 0x00000014 0x00001000 0x000ea200
0x180a7220 0x0000001e 0x00400000 0x001fc800
0x070c7220 0x0000000a 0x00400000 0x000fe400
0x140d7423 0x3f800000 0x0000010b 0x004fc800
0x0c007302 0x00000014 0x00000000 0x000e2200
0x0b0d7223 0x0000000d 0x0000000b 0x000fc800
0x0d0a7223 0x0000000c 0x000000ff 0x000fc800
0x140b7223 0x0000000a 0x0000010c 0x000fc800
0x0d0a7223 0x0000000b 0x0000000a 0x000fe400
0x051b7221 0x00000009 0x00000000 0x002fe200
0x00008947 0x00000050 0x03800000 0x001fea00
0x000b7202 0x0000000c 0x00000f00 0x000fe400
0x000e7202 0x00000014 0x00000f00 0x000fe400
0x000a7802 0x000103c0 0x00000f00 0x000fc600
0x00007944 0x0000cf30 0x03c00000 0x000fea00
0x000a7202 0x0000000c 0x00000f00 0x000fc600
0x00037941 0x00000000 0x03800000 0x000fea00
0x031c7210 0x80000002 0x07ffe0ff 0x000fe200
0xff087984 0x00002800 0x00001800 0x000e2200
0x000d7308 0x00000015 0x00001000 0x000e6200
0x130b7220 0x0000001e 0x00400000 0x000fe200
0x03ff7355 0x00000000 0x00100000 0x000fe200
0x00037945 0x00000110 0x03800000 0x000fe200
0x1b1b7221 0x0000000a 0x00000000 0x000fc400
0x070b7220 0x0000000b 0x00400000 0x000fe400
0x000c7306 0x0000001c 0x00201400 0x000ea200
0x150e7423 0x3f800000 0x0000010d 0x002fc800
0x0d0e7223 0x0000000e 0x0000000d 0x000fe400
0x0b0f7220 0x0000000c 0x00400000 0x004fc800
0x0f0b7223 0x0000000e 0x000000ff 0x000fe400
0x0f007302 0x00000015 0x00000000 0x000e6400
0x150c7223 0x0000000b 0x0000010f 0x000fc800
0x0e0c7223 0x0000000c 0x0000000b 0x000fe400
0x04137221 0x00000008 0x00000000 0x001fe200
0x00008947 0x00000040 0x03800000 0x002fea00
0x000b7202 0x0000000f 0x00000f00 0x000fe400
0x000e7202 0x00000015 0x00000f00 0x000fe400
0x000a7802 0x00010540 0x00000f00 0x000fc600
0x00007944 0x0000cdb0 0x03c00000 0x000fea00
0x00037941 0x00000000 0x03800000 0x000fea00
0x000e7308 0x00000014 0x00001000 0x000e2200
0x050b7220 0x00000007 0x00400000 0x000fe200
0x03ff7355 0x00000000 0x00100000 0x000fe200
0x170a7820 0x40400000 0x00400000 0x000fe200
0x00037945 0x00000100 0x03800000 0x000fe200
0x090b7223 0x0000001e 0x0000080b 0x000fc400
0x131d7221 0x0000000c 0x00000000 0x000fe400
0x0a0d7220 0x0000000b 0x00400000 0x000fcc00
0x0d007302 0x00000014 0x00000000 0x000e6200
0x140f7423 0x3f800000 0x0000010e 0x001fc800
0x0e0f7223 0x0000000f 0x0000000e 0x000fc800
0x0f0a7223 0x0000000d 0x000000ff 0x000fc800
0x140b7223 0x0000000a 0x0000010d 0x000fc800
0x0f0a7223 0x0000000b 0x0000000a 0x000fe200
0x00008947 0x00000050 0x03800000 0x002fea00
0x000b7202 0x0000000d 0x00000f00 0x000fe400
0x000e7202 0x00000014 0x00000f00 0x000fe400
0x000a7802 0x00010680 0x00000f00 0x000fc600
0x00007944 0x0000cc70 0x03c00000 0x000fea00
0x000a7202 0x0000000c 0x00000f00 0x000fc600
0x00037941 0x00000000 0x03800000 0x000fea00
0x02137224 0x00000002 0x078e02ff 0x000fe200
0x000d7308 0x00000016 0x00001000 0x000e2200
0xff027984 0x00002c00 0x00001800 0x000e6200
0x03ff7355 0x00000000 0x00100000 0x000fe200
0x030b7224 0x0000001c 0x078e0213 0x000fe200
0x00037945 0x00000120 0x03800000 0x000fe200
0x1d1d7221 0x0000000a 0x00000000 0x000fc800
0x000c7306 0x0000000b 0x00201400 0x0004e200
0x160e7423 0x3f800000 0x0000010d 0x001fe400
0x190b7220 0x0000001e 0x00400000 0x004fe400
0x0d0e7223 0x0000000e 0x0000000d 0x000fe400
0x070b7220 0x0000000b 0x00400000 0x000fc800
0x0b0f7220 0x0000000c 0x00400000 0x008fc800
0x0f0b7223 0x0000000e 0x000000ff 0x000fe400
0x0f007302 0x00000016 0x00000000 0x000e2400
0x160c7223 0x0000000b 0x0000010f 0x000fc800
0x0e0c7223 0x0000000c 0x0000000b 0x000fe400
0x06067221 0x00000002 0x00000000 0x002fe200
0x00008947 0x00000040 0x03800000 0x001fea00
0x000b7202 0x0000000f 0x00000f00 0x000fe400
0x000e7202 0x00000016 0x00000f00 0x000fe400
0x000a7802 0x00010810 0x00000f00 0x000fc600
0x00007944 0x0000cae0 0x03c00000 0x000fea00
0x00037941 0x00000000 0x03800000 0x000fea00
0x03027224 0x00000003 0x078e02ff 0x000fe200
0x00137306 0x00000013 0x00201400 0x000e2200
0x03ff7355 0x00000000 0x00100000 0x000fe200
0x00037945 0x00000140 0x03800000 0x000fe200
0x06067221 0x0000000c 0x00000000 0x000fca00
0x00037306 0x00000002 0x00201400 0x0002b000
0x000a7308 0x00000015 0x00001000 0x000ee200
0x05137220 0x00000013 0x00400000 0x001fe400
0x18027820 0x40c00000 0x00400000 0x002fc400
0x03137223 0x00000009 0x00000013 0x004fc800
0x02137220 0x00000013 0x00400000 0x000fe400
0x15037423 0x3f800000 0x0000010a 0x008fc800
0x13007302 0x00000015 0x00000000 0x000e2200
0x0a0a7223 0x00000003 0x0000000a 0x000fc800
0x0a027223 0x00000013 0x000000ff 0x000fc800
0x15037223 0x00000002 0x00000113 0x000fc800
0x0a027223 0x00000003 0x00000002 0x000fe200
0x00008947 0x00000050 0x03800000 0x001fea00
0x000b7202 0x00000013 0x00000f00 0x000fe400
0x000e7202 0x00000015 0x00000f00 0x000fe400
0x000a7802 0x00010980 0x00000f00 0x000fc600
0x00007944 0x0000c970 0x03c00000 0x000fea00
0x00027202 0x0000000c 0x00000f00 0x000fc600
0x00037941 0x00000000 0x03800000 0x000fea00
0x00057308 0x00000014 0x00001000 0x000e2200
0x04077220 0x00000007 0x00400000 0x000fe200
0x03ff7355 0x00000000 0x00100000 0x000fe200
0x17037820 0x40800000 0x00400000 0x000fe200
0x00037945 0x00000100 0x03800000 0x000fe200
0x1e077223 0x00000008 0x00000807 0x000fc400
0x06067221 0x00000002 0x00000000 0x000fe400
0x03077220 0x00000007 0x00400000 0x000fcc00
0x07007302 0x00000014 0x00000000 0x000e6200
0x14047423 0x3f800000 0x00000105 0x001fc800
0x05057223 0x00000004 0x00000005 0x000fc800
0x05037223 0x00000007 0x000000ff 0x000fc800
0x14047223 0x00000003 0x00000107 0x000fc800
0x05037223 0x00000004 0x00000003 0x000fe200
0x00008947 0x00000050 0x03800000 0x002fea00
0x000b7202 0x00000007 0x00000f00 0x000fe400
0x000e7202 0x00000014 0x00000f00 0x000fe400
0x000a7802 0x00010ad0 0x00000f00 0x000fc600
0x00007944 0x0000c820 0x03c00000 0x000fea00
0x00037202 0x0000000c 0x00000f00 0x000fc600
0x00037941 0x00000000 0x03800000 0x000fea00
0x06067221 0x00000003 0x00000000 0x000fe200
0x00037202 0x0000001a 0x00000f00 0x000fe400
0x00057202 0x0000001b 0x00000f00 0x000fe400
0x00047202 0x0000001d 0x00000f00 0x000fc400
0x00027a02 0x00005c00 0x00000f00 0x000fc800
0x0200780c 0x00000041 0x03f06270 0x000fd800
0x00008947 0x00000a50 0x03800000 0x000fea00
0xff087984 0x00003000 0x00001a00 0x000e6200
0x03ff7355 0x00000000 0x00100000 0x000fe200
0x00037945 0x00000180 0x03800000 0x000fe200
0x03027210 0x00000008 0x07ffe0ff 0x002fe200
0x00177221 0x00000009 0x00000100 0x010fc800
0x17187220 0x00000017 0x00400000 0x041fe200
0x00147306 0x00000002 0x00201400 0x000e2600
0x17137220 0x00000018 0x00400000 0x000fc800
0x17197220 0x00000013 0x00400000 0x000fe200
0x00027306 0x00000008 0x00201400 0x000e7000
0x00077308 0x00000014 0x00001000 0x001e2200
0x14157220 0x00000014 0x00400000 0x000fc800
0x14167220 0x00000015 0x00400000 0x048fe400
0x170b7220 0x00000002 0x00400000 0x002fe200
0x001a7305 0x00000014 0x0020f100 0x000fe200
0x14097423 0x3f800000 0x00000107 0x001fce00
0x0b007302 0x00000014 0x00000000 0x000e2200
0x07097223 0x00000009 0x00000007 0x000fc800
0x0b077223 0x00000009 0x000000ff 0x000fc800
0x140a7223 0x00000007 0x0000010b 0x004fc800
0x09077223 0x0000000a 0x00000007 0x000fe200
0x00008947 0x00000040 0x03800000 0x001fea00
0x000e7202 0x00000014 0x00000f00 0x000fe400
0x000a7802 0x00010cf0 0x00000f00 0x000fc600
0x00007944 0x0000c600 0x03c00000 0x000fea00
0x00077202 0x0000000c 0x00000f00 0x000fc600
0x00037941 0x00000000 0x03800000 0x000fea00
0x001e7306 0x00000003 0x00201400 0x000e2200
0xff097984 0x00003800 0x00001800 0x000e6200
0x03ff7355 0x00000000 0x00100000 0x000fe200
0x00037945 0x00000120 0x03800000 0x000fe200
0x00007221 0x00000007 0x00000000 0x000fc800
0x000b7308 0x00000014 0x00001000 0x000ea200
0x180a7220 0x0000001e 0x00400000 0x001fc800
0x020c7220 0x0000000a 0x00400000 0x000fe400
0x140d7423 0x3f800000 0x0000010b 0x004fc800
0x0c007302 0x00000014 0x00000000 0x000e2200
0x0b0d7223 0x0000000d 0x0000000b 0x000fc800
0x0d0a7223 0x0000000c 0x000000ff 0x000fc800
0x140b7223 0x0000000a 0x0000010c 0x000fc800
0x0d0a7223 0x0000000b 0x0000000a 0x000fe400
0x051b7221 0x00000009 0x00000000 0x002fe200
0x00008947 0x00000050 0x03800000 0x001fea00
0x000b7202 0x0000000c 0x00000f00 0x000fe400
0x000e7202 0x00000014 0x00000f00 0x000fe400
0x000a7802 0x00010e50 0x00000f00 0x000fc600
0x00007944 0x0000c4a0 0x03c00000 0x000fea00
0x000a7202 0x0000000c 0x00000f00 0x000fc600
0x00037941 0x00000000 0x03800000 0x000fea00
0x031c7210 0x80000008 0x07ffe0ff 0x000fe200
0xff077984 0x00003c00 0x00001800 0x000e2200
0x000d7308 0x00000015 0x00001000 0x000e6200
0x130b7220 0x0000001e 0x00400000 0x000fe200
0x03ff7355 0x00000000 0x00100000 0x000fe200
0x00037945 0x00000110 0x03800000 0x000fe200
0x1b1b7221 0x0000000a 0x00000000 0x000fc400
0x020b7220 0x0000000b 0x00400000 0x000fe400
0x000c7306 0x0000001c 0x00201400 0x000ea200
0x150e7423 0x3f800000 0x0000010d 0x002fc800
0x0d0e7223 0x0000000e 0x0000000d 0x000fe400
0x0b0f7220 0x0000000c 0x00400000 0x004fc800
0x0f0b7223 0x0000000e 0x000000ff 0x000fe400
0x0f007302 0x00000015 0x00000000 0x000e6400
0x150c7223 0x0000000b 0x0000010f 0x000fc800
0x0e0c7223 0x0000000c 0x0000000b 0x000fe400
0x04137221 0x00000007 0x00000000 0x001fe200
0x00008947 0x00000040 0x03800000 0x002fea00
0x000b7202 0x0000000f 0x00000f00 0x000fe400
0x000e7202 0x00000015 0x00000f00 0x000fe400
0x000a7802 0x00010fd0 0x00000f00 0x000fc600
0x00007944 0x0000c320 0x03c00000 0x000fea00
0x00037941 0x00000000 0x03800000 0x000fea00
0x000e7308 0x00000014 0x00001000 0x000e2200
0x050b7220 0x00000002 0x00400000 0x000fe200
0x03ff7355 0x00000000 0x00100000 0x000fe200
0x170a7820 0x40400000 0x00400000 0x000fe200
0x00037945 0x00000100 0x03800000 0x000fe200
0x090b7223 0x0000001e 0x0000080b 0x000fc400
0x131d7221 0x0000000c 0x00000000 0x000fe400
0x0a0d7220 0x0000000b 0x00400000 0x000fcc00
0x0d007302 0x00000014 0x00000000 0x000e6200
0x140f7423 0x3f800000 0x0000010e 0x001fc800
0x0e0f7223 0x0000000f 0x0000000e 0x000fc800
0x0f0a7223 0x0000000d 0x000000ff 0x000fc800
0x140b7223 0x0000000a 0x0000010d 0x000fc800
0x0f0a7223 0x0000000b 0x0000000a 0x000fe200
0x00008947 0x00000050 0x03800000 0x002fea00
0x000b7202 0x0000000d 0x00000f00 0x000fe400
0x000e7202 0x00000014 0x00000f00 0x000fe400
0x000a7802 0x00011110 0x00000f00 0x000fc600
0x00007944 0x0000c1e0 0x03c00000 0x000fea00
0x000a7202 0x0000000c 0x00000f00 0x000fc600
0x00037941 0x00000000 0x03800000 0x000fea00
0x08137224 0x00000008 0x078e02ff 0x000fe200
0x000d7308 0x00000016 0x00001000 0x000e2200
0xff087984 0x00004000 0x00001800 0x000e6200
0x03ff7355 0x00000000 0x00100000 0x000fe200
0x030b7224 0x0000001c 0x078e0213 0x000fe200
0x00037945 0x00000120 0x03800000 0x000fe200
0x1d1d7221 0x0000000a 0x00000000 0x000fc800
0x000c7306 0x0000000b 0x00201400 0x0004e200
0x160e7423 0x3f800000 0x0000010d 0x001fe400
0x190b7220 0x0000001e 0x00400000 0x004fe400
0x0d0e7223 0x0000000e 0x0000000d 0x000fe400
0x020b7220 0x0000000b 0x00400000 0x000fc800
0x0b0f7220 0x0000000c 0x00400000 0x008fc800
0x0f0b7223 0x0000000e 0x000000ff 0x000fe400
0x0f007302 0x00000016 0x00000000 0x000e2400
0x160c7223 0x0000000b 0x0000010f 0x000fc800
0x0e0c7223 0x0000000c 0x0000000b 0x000fe400
0x06087221 0x00000008 0x00000000 0x002fe200
0x00008947 0x00000040 0x03800000 0x001fea00
0x000b7202 0x0000000f 0x00000f00 0x000fe400
0x000e7202 0x00000016 0x00000f00 0x000fe400
0x000a7802 0x000112a0 0x00000f00 0x000fc600
0x00007944 0x0000c050 0x03c00000 0x000fea00
0x00037941 0x00000000 0x03800000 0x000fea00
0x03037224 0x00000003 0x078e02ff 0x000fe200
0x00137306 0x00000013 0x00201400 0x000e2200
0x03ff7355 0x00000000 0x00100000 0x000fe200
0x00037945 0x00000140 0x03800000 0x000fe200
0x08087221 0x0000000c 0x00000000 0x000fca00
0x00067306 0x00000003 0x00201400 0x0002b000
0x000a7308 0x00000015 0x00001000 0x000ee200
0x05137220 0x00000013 0x00400000 0x001fe400
0x18037820 0x40c00000 0x00400000 0x002fc400
0x06137223 0x00000009 0x00000013 0x004fc800
0x03137220 0x00000013 0x00400000 0x000fe400
0x15057423 0x3f800000 0x0000010a 0x008fc800
0x13007302 0x00000015 0x00000000 0x000e2200
0x0a0a7223 0x00000005 0x0000000a 0x000fc800
0x0a037223 0x00000013 0x000000ff 0x000fc800
0x15057223 0x00000003 0x00000113 0x000fc800
0x0a037223 0x00000005 0x00000003 0x000fe200
0x00008947 0x00000050 0x03800000 0x001fea00
0x000b7202 0x00000013 0x00000f00 0x000fe400
0x000e7202 0x00000015 0x00000f00 0x000fe400
0x000a7802 0x00011410 0x00000f00 0x000fc600
0x00007944 0x0000bee0 0x03c00000 0x000fea00
0x00037202 0x0000000c 0x00000f00 0x000fc600
0x00037941 0x00000000 0x03800000 0x000fea00
0x00057308 0x00000014 0x00001000 0x000e2200
0x04047220 0x00000002 0x00400000 0x000fe200
0x03ff7355 0x00000000 0x00100000 0x000fe200
0x17027820 0x40800000 0x00400000 0x000fe200
0x00037945 0x000000f0 0x03800000 0x000fe200
0x1e047223 0x00000007 0x00000804 0x000fc400
0x08037221 0x00000003 0x00000000 0x000fe400
0x020b7220 0x00000004 0x00400000 0x000fcc00
0x0b007302 0x00000014 0x00000000 0x000e6200
0x14067423 0x3f800000 0x00000105 0x001fc800
0x05067223 0x00000006 0x00000005 0x000fc800
0x06027223 0x0000000b 0x000000ff 0x000fc800
0x14047223 0x00000002 0x0000010b 0x000fc800
0x06027223 0x00000004 0x00000002 0x000fe200
0x00008947 0x00000040 0x03800000 0x002fea00
0x000e7202 0x00000014 0x00000f00 0x000fe400
0x000a7802 0x00011550 0x00000f00 0x000fc600
0x00007944 0x0000bda0 0x03c00000 0x000fea00
0x00027202 0x0000000c 0x00000f00 0x000fc600
0x00037941 0x00000000 0x03800000 0x000fea00
0x03067221 0x00000002 0x00000000 0x000fe200
0x00037202 0x0000001a 0x00000f00 0x000fe400
0x00057202 0x0000001b 0x00000f00 0x000fe400
0x00047202 0x0000001d 0x00000f00 0x000fe400
0x00027a02 0x00005c00 0x00000f00 0x000fc800
0x0200780c 0x00000061 0x03f06270 0x000fd800
0x00008947 0x00000a70 0x03800000 0x000fea00
0xff027984 0x00004400 0x00001800 0x000e6200
0x03ff7355 0x00000000 0x00100000 0x000fe200
0x00037945 0x00000190 0x03800000 0x000fe400
0xff097984 0x00004800 0x00001800 0x000f6200
0x03077210 0x00000002 0x07ffe0ff 0x002fe200
0x00177221 0x00000009 0x00000100 0x030fca00
0x00147306 0x00000007 0x00201400 0x000e6200
0x17187220 0x00000017 0x00400000 0x001fc800
0x17137220 0x00000018 0x00400000 0x000fc600
0x00077306 0x00000002 0x00201400 0x000e2200
0x17197220 0x00000013 0x00400000 0x000fce00
0x00087308 0x00000014 0x00001000 0x002e6200
0x14157220 0x00000014 0x00400000 0x000fc800
0x14167220 0x00000015 0x00400000 0x048fe400
0x170b7220 0x00000007 0x00400000 0x001fe200
0x001a7305 0x00000014 0x0020f100 0x000fe200
0x14097423 0x3f800000 0x00000108 0x002fce00
0x0b007302 0x00000014 0x00000000 0x000e2200
0x08097223 0x00000009 0x00000008 0x000fc800
0x0b087223 0x00000009 0x000000ff 0x000fc800
0x140a7223 0x00000008 0x0000010b 0x004fc800
0x09087223 0x0000000a 0x00000008 0x000fe200
0x00008947 0x00000040 0x03800000 0x001fea00
0x000e7202 0x00000014 0x00000f00 0x000fe400
0x000a7802 0x00011780 0x00000f00 0x000fc600
0x00007944 0x0000bb70 0x03c00000 0x000fea00
0x00087202 0x0000000c 0x00000f00 0x000fc600
0x00037941 0x00000000 0x03800000 0x000fea00
0x001e7306 0x00000003 0x00201400 0x000e2200
0xff097984 0x00004c00 0x00001800 0x000e6200
0x03ff7355 0x00000000 0x00100000 0x000fe200
0x00037945 0x00000120 0x03800000 0x000fe200
0x00007221 0x00000008 0x00000000 0x000fc800
0x000b7308 0x00000014 0x00001000 0x000ea200
0x180a7220 0x0000001e 0x00400000 0x001fc800
0x070c7220 0x0000000a 0x00400000 0x000fe400
0x140d7423 0x3f800000 0x0000010b 0x004fc800
0x0c007302 0x00000014 0x00000000 0x000e2200
0x0b0d7223 0x0000000d 0x0000000b 0x000fc800
0x0d0a7223 0x0000000c 0x000000ff 0x000fc800
0x140b7223 0x0000000a 0x0000010c 0x000fc800
0x0d0a7223 0x0000000b 0x0000000a 0x000fe400
0x051b7221 0x00000009 0x00000000 0x002fe200
0x00008947 0x00000050 0x03800000 0x001fea00
0x000b7202 0x0000000c 0x00000f00 0x000fe400
0x000e7202 0x00000014 0x00000f00 0x000fe400
0x000a7802 0x000118e0 0x00000f00 0x000fc600
0x00007944 0x0000ba10 0x03c00000 0x000fea00
0x000a7202 0x0000000c 0x00000f00 0x000fc600
0x00037941 0x00000000 0x03800000 0x000fea00
0x031c7210 0x80000002 0x07ffe0ff 0x000fe200
0xff087984 0x00005000 0x00001800 0x000e2200
0x000d7308 0x00000015 0x00001000 0x000e6200
0x130b7220 0x0000001e 0x00400000 0x000fe200
0x03ff7355 0x00000000 0x00100000 0x000fe200
0x00037945 0x00000110 0x03800000 0x000fe200
0x1b1b7221 0x0000000a 0x00000000 0x000fc400
0x070b7220 0x0000000b 0x00400000 0x000fe400
0x000c7306 0x0000001c 0x00201400 0x000ea200
0x150e7423 0x3f800000 0x0000010d 0x002fc800
0x0d0e7223 0x0000000e 0x0000000d 0x000fe400
0x0b0f7220 0x0000000c 0x00400000 0x004fc800
0x0f0b7223 0x0000000e 0x000000ff 0x000fe400
0x0f007302 0x00000015 0x00000000 0x000e6400
0x150c7223 0x0000000b 0x0000010f 0x000fc800
0x0e0c7223 0x0000000c 0x0000000b 0x000fe400
0x04137221 0x00000008 0x00000000 0x001fe200
0x00008947 0x00000040 0x03800000 0x002fea00
0x000b7202 0x0000000f 0x00000f00 0x000fe400
0x000e7202 0x00000015 0x00000f00 0x000fe400
0x000a7802 0x00011a60 0x00000f00 0x000fc600
0x00007944 0x0000b890 0x03c00000 0x000fea00
0x00037941 0x00000000 0x03800000 0x000fea00
0x000e7308 0x00000014 0x00001000 0x000e2200
0x050b7220 0x00000007 0x00400000 0x000fe200
0x03ff7355 0x00000000 0x00100000 0x000fe200
0x170a7820 0x40400000 0x00400000 0x000fe200
0x00037945 0x00000100 0x03800000 0x000fe200
0x090b7223 0x0000001e 0x0000080b 0x000fc400
0x131d7221 0x0000000c 0x00000000 0x000fe400
0x0a0d7220 0x0000000b 0x00400000 0x000fcc00
0x0d007302 0x00000014 0x00000000 0x000e6200
0x140f7423 0x3f800000 0x0000010e 0x001fc800
0x0e0f7223 0x0000000f 0x0000000e 0x000fc800
0x0f0a7223 0x0000000d 0x000000ff 0x000fc800
0x140b7223 0x0000000a 0x0000010d 0x000fc800
0x0f0a7223 0x0000000b 0x0000000a 0x000fe200
0x00008947 0x00000050 0x03800000 0x002fea00
0x000b7202 0x0000000d 0x00000f00 0x000fe400
0x000e7202 0x00000014 0x00000f00 0x000fe400
0x000a7802 0x00011ba0 0x00000f00 0x000fc600
0x00007944 0x0000b750 0x03c00000 0x000fea00
0x000a7202 0x0000000c 0x00000f00 0x000fc600
0x00037941 0x00000000 0x03800000 0x000fea00
0x02137224 0x00000002 0x078e02ff 0x000fe200
0x000d7308 0x00000016 0x00001000 0x000e2200
0xff027984 0x00005400 0x00001800 0x000e6200
0x03ff7355 0x00000000 0x00100000 0x000fe200
0x030b7224 0x0000001c 0x078e0213 0x000fe200
0x00037945 0x00000120 0x03800000 0x000fe200
0x1d1d7221 0x0000000a 0x00000000 0x000fc800
0x000c7306 0x0000000b 0x00201400 0x0004e200
0x160e7423 0x3f800000 0x0000010d 0x001fe400
0x190b7220 0x0000001e 0x00400000 0x004fe400
0x0d0e7223 0x0000000e 0x0000000d 0x000fe400
0x070b7220 0x0000000b 0x00400000 0x000fc800
0x0b0f7220 0x0000000c 0x00400000 0x008fc800
0x0f0b7223 0x0000000e 0x000000ff 0x000fe400
0x0f007302 0x00000016 0x00000000 0x000e2400
0x160c7223 0x0000000b 0x0000010f 0x000fc800
0x0e0c7223 0x0000000c 0x0000000b 0x000fe400
0x06067221 0x00000002 0x00000000 0x002fe200
0x00008947 0x00000040 0x03800000 0x001fea00
0x000b7202 0x0000000f 0x00000f00 0x000fe400
0x000e7202 0x00000016 0x00000f00 0x000fe400
0x000a7802 0x00011d30 0x00000f00 0x000fc600
0x00007944 0x0000b5c0 0x03c00000 0x000fea00
0x00037941 0x00000000 0x03800000 0x000fea00
0x03027224 0x00000003 0x078e02ff 0x000fe200
0x00137306 0x00000013 0x00201400 0x000e2200
0x03ff7355 0x00000000 0x00100000 0x000fe200
0x00037945 0x00000140 0x03800000 0x000fe200
0x06067221 0x0000000c 0x00000000 0x000fca00
0x00037306 0x00000002 0x00201400 0x0002b000
0x000a7308 0x00000015 0x00001000 0x000ee200
0x05137220 0x00000013 0x00400000 0x001fe400
0x18027820 0x40c00000 0x00400000 0x002fc400
0x03137223 0x00000009 0x00000013 0x004fc800
0x02137220 0x00000013 0x00400000 0x000fe400
0x15037423 0x3f800000 0x0000010a 0x008fc800
0x13007302 0x00000015 0x00000000 0x000e2200
0x0a0a7223 0x00000003 0x0000000a 0x000fc800
0x0a027223 0x00000013 0x000000ff 0x000fc800
0x15037223 0x00000002 0x00000113 0x000fc800
0x0a027223 0x00000003 0x00000002 0x000fe200
0x00008947 0x00000050 0x03800000 0x001fea00
0x000b7202 0x00000013 0x00000f00 0x000fe400
0x000e7202 0x00000015 0x00000f00 0x000fe400
0x000a7802 0x00011ea0 0x00000f00 0x000fc600
0x00007944 0x0000b450 0x03c00000 0x000fea00
0x00027202 0x0000000c 0x00000f00 0x000fc600
0x00037941 0x00000000 0x03800000 0x000fea00
0x00057308 0x00000014 0x00001000 0x000e2200
0x04077220 0x00000007 0x00400000 0x000fe200
0x03ff7355 0x00000000 0x00100000 0x000fe200
0x17037820 0x40800000 0x00400000 0x000fe200
0x00037945 0x00000100 0x03800000 0x000fe200
0x1e077223 0x00000008 0x00000807 0x000fc400
0x06067221 0x00000002 0x00000000 0x000fe400
0x03077220 0x00000007 0x00400000 0x000fcc00
0x07007302 0x00000014 0x00000000 0x000e6200
0x14047423 0x3f800000 0x00000105 0x001fc800
0x05057223 0x00000004 0x00000005 0x000fc800
0x05037223 0x00000007 0x000000ff 0x000fc800
0x14047223 0x00000003 0x00000107 0x000fc800
0x05037223 0x00000004 0x00000003 0x000fe200
0x00008947 0x00000050 0x03800000 0x002fea00
0x000b7202 0x00000007 0x00000f00 0x000fe400
0x000e7202 0x00000014 0x00000f00 0x000fe400
0x000a7802 0x00011ff0 0x00000f00 0x000fc600
0x00007944 0x0000b300 0x03c00000 0x000fea00
0x00037202 0x0000000c 0x00000f00 0x000fc600
0x00037941 0x00000000 0x03800000 0x000fea00
0x06067221 0x00000003 0x00000000 0x000fe200
0x00037202 0x0000001a 0x00000f00 0x000fe400
0x00057202 0x0000001b 0x00000f00 0x000fe400
0x00047202 0x0000001d 0x00000f00 0x000fc400
0x00027a02 0x00005c00 0x00000f00 0x000fc800
0x0200780c 0x00000081 0x03f06270 0x000fd800
0x00008947 0x00000a50 0x03800000 0x000fea00
0xff087984 0x00005800 0x00001a00 0x000e6200
0x03ff7355 0x00000000 0x00100000 0x000fe200
0x00037945 0x00000180 0x03800000 0x000fe200
0x03027210 0x00000008 0x07ffe0ff 0x002fe200
0x00177221 0x00000009 0x00000100 0x010fc800
0x17187220 0x00000017 0x00400000 0x041fe200
0x00147306 0x00000002 0x00201400 0x000e2600
0x17137220 0x00000018 0x00400000 0x000fc800
0x17197220 0x00000013 0x00400000 0x000fe200
0x00027306 0x00000008 0x00201400 0x000e7000
0x00077308 0x00000014 0x00001000 0x001e2200
0x14157220 0x00000014 0x00400000 0x000fc800
0x14167220 0x00000015 0x00400000 0x048fe400
0x170b7220 0x00000002 0x00400000 0x002fe200
0x001a7305 0x00000014 0x0020f100 0x000fe200
0x14097423 0x3f800000 0x00000107 0x001fce00
0x0b007302 0x00000014 0x00000000 0x000e2200
0x07097223 0x00000009 0x00000007 0x000fc800
0x0b077223 0x00000009 0x000000ff 0x000fc800
0x140a7223 0x00000007 0x0000010b 0x004fc800
0x09077223 0x0000000a 0x00000007 0x000fe200
0x00008947 0x00000040 0x03800000 0x001fea00
0x000e7202 0x00000014 0x00000f00 0x000fe400
0x000a7802 0x00012210 0x00000f00 0x000fc600
0x00007944 0x0000b0e0 0x03c00000 0x000fea00
0x00077202 0x0000000c 0x00000f00 0x000fc600
0x00037941 0x00000000 0x03800000 0x000fea00
0x001e7306 0x00000003 0x00201400 0x000e2200
0xff097984 0x00006000 0x00001800 0x000e6200
0x03ff7355 0x00000000 0x00100000 0x000fe200
0x00037945 0x00000120 0x03800000 0x000fe200
0x00007221 0x00000007 0x00000000 0x000fc800
0x000b7308 0x00000014 0x00001000 0x000ea200
0x180a7220 0x0000001e 0x00400000 0x001fc800
0x020c7220 0x0000000a 0x00400000 0x000fe400
0x140d7423 0x3f800000 0x0000010b 0x004fc800
0x0c007302 0x00000014 0x00000000 0x000e2200
0x0b0d7223 0x0000000d 0x0000000b 0x000fc800
0x0d0a7223 0x0000000c 0x000000ff 0x000fc800
0x140b7223 0x0000000a 0x0000010c 0x000fc800
0x0d0a7223 0x0000000b 0x0000000a 0x000fe400
0x051b7221 0x00000009 0x00000000 0x002fe200
0x00008947 0x00000050 0x03800000 0x001fea00
0x000b7202 0x0000000c 0x00000f00 0x000fe400
0x000e7202 0x00000014 0x00000f00 0x000fe400
0x000a7802 0x00012370 0x00000f00 0x000fc600
0x00007944 0x0000af80 0x03c00000 0x000fea00
0x000a7202 0x0000000c 0x00000f00 0x000fc600
0x00037941 0x00000000 0x03800000 0x000fea00
0x031c7210 0x80000008 0x07ffe0ff 0x000fe200
0xff077984 0x00006400 0x00001800 0x000e2200
0x000d7308 0x00000015 0x00001000 0x000e6200
0x130b7220 0x0000001e 0x00400000 0x000fe200
0x03ff7355 0x00000000 0x00100000 0x000fe200
0x00037945 0x00000110 0x03800000 0x000fe200
0x1b1b7221 0x0000000a 0x00000000 0x000fc400
0x020b7220 0x0000000b 0x00400000 0x000fe400
0x000c7306 0x0000001c 0x00201400 0x000ea200
0x150e7423 0x3f800000 0x0000010d 0x002fc800
0x0d0e7223 0x0000000e 0x0000000d 0x000fe400
0x0b0f7220 0x0000000c 0x00400000 0x004fc800
0x0f0b7223 0x0000000e 0x000000ff 0x000fe400
0x0f007302 0x00000015 0x00000000 0x000e6400
0x150c7223 0x0000000b 0x0000010f 0x000fc800
0x0e0c7223 0x0000000c 0x0000000b 0x000fe400
0x04137221 0x00000007 0x00000000 0x001fe200
0x00008947 0x00000040 0x03800000 0x002fea00
0x000b7202 0x0000000f 0x00000f00 0x000fe400
0x000e7202 0x00000015 0x00000f00 0x000fe400
0x000a7802 0x000124f0 0x00000f00 0x000fc600
0x00007944 0x0000ae00 0x03c00000 0x000fea00
0x00037941 0x00000000 0x03800000 0x000fea00
0x000e7308 0x00000014 0x00001000 0x000e2200
0x050b7220 0x00000002 0x00400000 0x000fe200
0x03ff7355 0x00000000 0x00100000 0x000fe200
0x170a7820 0x40400000 0x00400000 0x000fe200
0x00037945 0x00000100 0x03800000 0x000fe200
0x090b7223 0x0000001e 0x0000080b 0x000fc400
0x131d7221 0x0000000c 0x00000000 0x000fe400
0x0a0d7220 0x0000000b 0x00400000 0x000fcc00
0x0d007302 0x00000014 0x00000000 0x000e6200
0x140f7423 0x3f800000 0x0000010e 0x001fc800
0x0e0f7223 0x0000000f 0x0000000e 0x000fc800
0x0f0a7223 0x0000000d 0x000000ff 0x000fc800
0x140b7223 0x0000000a 0x0000010d 0x000fc800
0x0f0a7223 0x0000000b 0x0000000a 0x000fe200
0x00008947 0x00000050 0x03800000 0x002fea00
0x000b7202 0x0000000d 0x00000f00 0x000fe400
0x000e7202 0x00000014 0x00000f00 0x000fe400
0x000a7802 0x00012630 0x00000f00 0x000fc600
0x00007944 0x0000acc0 0x03c00000 0x000fea00
0x000a7202 0x0000000c 0x00000f00 0x000fc600
0x00037941 0x00000000 0x03800000 0x000fea00
0x08137224 0x00000008 0x078e02ff 0x000fe200
0x000d7308 0x00000016 0x00001000 0x000e2200
0xff087984 0x00006800 0x00001800 0x000e6200
0x03ff7355 0x00000000 0x00100000 0x000fe200
0x030b7224 0x0000001c 0x078e0213 0x000fe200
0x00037945 0x00000120 0x03800000 0x000fe200
0x1d1d7221 0x0000000a 0x00000000 0x000fc800
0x000c7306 0x0000000b 0x00201400 0x0004e200
0x160e7423 0x3f800000 0x0000010d 0x001fe400
0x190b7220 0x0000001e 0x00400000 0x004fe400
0x0d0e7223 0x0000000e 0x0000000d 0x000fe400
0x020b7220 0x0000000b 0x00400000 0x000fc800
0x0b0f7220 0x0000000c 0x00400000 0x008fc800
0x0f0b7223 0x0000000e 0x000000ff 0x000fe400
0x0f007302 0x00000016 0x00000000 0x000e2400
0x160c7223 0x0000000b 0x0000010f 0x000fc800
0x0e0c7223 0x0000000c 0x0000000b 0x000fe400
0x06087221 0x00000008 0x00000000 0x002fe200
0x00008947 0x00000040 0x03800000 0x001fea00
0x000b7202 0x0000000f 0x00000f00 0x000fe400
0x000e7202 0x00000016 0x00000f00 0x000fe400
0x000a7802 0x000127c0 0x00000f00 0x000fc600
0x00007944 0x0000ab30 0x03c00000 0x000fea00
0x00037941 0x00000000 0x03800000 0x000fea00
0x03037224 0x00000003 0x078e02ff 0x000fe200
0x00137306 0x00000013 0x00201400 0x000e2200
0x03ff7355 0x00000000 0x00100000 0x000fe200
0x00037945 0x00000140 0x03800000 0x000fe200
0x08087221 0x0000000c 0x00000000 0x000fca00
0x00067306 0x00000003 0x00201400 0x0002b000
0x000a7308 0x00000015 0x00001000 0x000ee200
0x05137220 0x00000013 0x00400000 0x001fe400
0x18037820 0x40c00000 0x00400000 0x002fc400
0x06137223 0x00000009 0x00000013 0x004fc800
0x03137220 0x00000013 0x00400000 0x000fe400
0x15057423 0x3f800000 0x0000010a 0x008fc800
0x13007302 0x00000015 0x00000000 0x000e2200
0x0a0a7223 0x00000005 0x0000000a 0x000fc800
0x0a037223 0x00000013 0x000000ff 0x000fc800
0x15057223 0x00000003 0x00000113 0x000fc800
0x0a037223 0x00000005 0x00000003 0x000fe200
0x00008947 0x00000050 0x03800000 0x001fea00
0x000b7202 0x00000013 0x00000f00 0x000fe400
0x000e7202 0x00000015 0x00000f00 0x000fe400
0x000a7802 0x00012930 0x00000f00 0x000fc600
0x00007944 0x0000a9c0 0x03c00000 0x000fea00
0x00037202 0x0000000c 0x00000f00 0x000fc600
0x00037941 0x00000000 0x03800000 0x000fea00
0x00057308 0x00000014 0x00001000 0x000e2200
0x04047220 0x00000002 0x00400000 0x000fe200
0x03ff7355 0x00000000 0x00100000 0x000fe200
0x17027820 0x40800000 0x00400000 0x000fe200
0x00037945 0x000000f0 0x03800000 0x000fe200
0x1e047223 0x00000007 0x00000804 0x000fc400
0x08037221 0x00000003 0x00000000 0x000fe400
0x020b7220 0x00000004 0x00400000 0x000fcc00
0x0b007302 0x00000014 0x00000000 0x000e6200
0x14067423 0x3f800000 0x00000105 0x001fc800
0x05067223 0x00000006 0x00000005 0x000fc800
0x06027223 0x0000000b 0x000000ff 0x000fc800
0x14047223 0x00000002 0x0000010b 0x000fc800
0x06027223 0x00000004 0x00000002 0x000fe200
0x00008947 0x00000040 0x03800000 0x002fea00
0x000e7202 0x00000014 0x00000f00 0x000fe400
0x000a7802 0x00012a70 0x00000f00 0x000fc600
0x00007944 0x0000a880 0x03c00000 0x000fea00
0x00027202 0x0000000c 0x00000f00 0x000fc600
0x00037941 0x00000000 0x03800000 0x000fea00
0x03067221 0x00000002 0x00000000 0x000fe200
0x00037202 0x0000001a 0x00000f00 0x000fe400
0x00057202 0x0000001b 0x00000f00 0x000fe400
0x00047202 0x0000001d 0x00000f00 0x000fe400
0x00027a02 0x00005c00 0x00000f00 0x000fc800
0x0200780c 0x000000a1 0x03f06270 0x000fd800
0x00008947 0x00000a70 0x03800000 0x000fea00
0xff027984 0x00006c00 0x00001800 0x000e6200
0x03ff7355 0x00000000 0x00100000 0x000fe200
0x00037945 0x00000190 0x03800000 0x000fe400
0xff087984 0x00007000 0x00001800 0x000f6200
0x03077210 0x00000002 0x07ffe0ff 0x002fe200
0x00177221 0x00000008 0x00000100 0x030fca00
0x00147306 0x00000007 0x00201400 0x000e6200
0x17187220 0x00000017 0x00400000 0x001fc800
0x17137220 0x00000018 0x00400000 0x000fc600
0x00077306 0x00000002 0x00201400 0x000e2200
0x17197220 0x00000013 0x00400000 0x000fce00
0x00097308 0x00000014 0x00001000 0x002e6200
0x14157220 0x00000014 0x00400000 0x000fc800
0x14167220 0x00000015 0x00400000 0x048fe400
0x170b7220 0x00000007 0x00400000 0x001fe200
0x001a7305 0x00000014 0x0020f100 0x000fe200
0x14087423 0x3f800000 0x00000109 0x002fce00
0x0b007302 0x00000014 0x00000000 0x000e2200
0x09087223 0x00000008 0x00000009 0x000fc800
0x0b097223 0x00000008 0x000000ff 0x000fc800
0x140a7223 0x00000009 0x0000010b 0x004fc800
0x08087223 0x0000000a 0x00000009 0x000fe200
0x00008947 0x00000040 0x03800000 0x001fea00
0x000e7202 0x00000014 0x00000f00 0x000fe400
0x000a7802 0x00012ca0 0x00000f00 0x000fc600
0x00007944 0x0000a650 0x03c00000 0x000fea00
0x00087202 0x0000000c 0x00000f00 0x000fc600
0x00037941 0x00000000 0x03800000 0x000fea00
0x001e7306 0x00000003 0x00201400 0x000e2200
0xff097984 0x00007400 0x00001800 0x000e6200
0x03ff7355 0x00000000 0x00100000 0x000fe200
0x00037945 0x00000120 0x03800000 0x000fe200
0x00007221 0x00000008 0x00000000 0x000fc800
0x000b7308 0x00000014 0x00001000 0x000ea200
0x180a7220 0x0000001e 0x00400000 0x001fc800
0x070c7220 0x0000000a 0x00400000 0x000fe400
0x140d7423 0x3f800000 0x0000010b 0x004fc800
0x0c007302 0x00000014 0x00000000 0x000e2200
0x0b0d7223 0x0000000d 0x0000000b 0x000fc800
0x0d0a7223 0x0000000c 0x000000ff 0x000fc800
0x140b7223 0x0000000a 0x0000010c 0x000fc800
0x0d0a7223 0x0000000b 0x0000000a 0x000fe400
0x051b7221 0x00000009 0x00000000 0x002fe200
0x00008947 0x00000050 0x03800000 0x001fea00
0x000b7202 0x0000000c 0x00000f00 0x000fe400
0x000e7202 0x00000014 0x00000f00 0x000fe400
0x000a7802 0x00012e00 0x00000f00 0x000fc600
0x00007944 0x0000a4f0 0x03c00000 0x000fea00
0x000a7202 0x0000000c 0x00000f00 0x000fc600
0x00037941 0x00000000 0x03800000 0x000fea00
0x031c7210 0x80000002 0x07ffe0ff 0x000fe200
0xff087984 0x00007800 0x00001800 0x000e2200
0x000d7308 0x00000015 0x00001000 0x000e6200
0x130b7220 0x0000001e 0x00400000 0x000fe200
0x03ff7355 0x00000000 0x00100000 0x000fe200
0x00037945 0x00000110 0x03800000 0x000fe200
0x1b1b7221 0x0000000a 0x00000000 0x000fc400
0x070b7220 0x0000000b 0x00400000 0x000fe400
0x000c7306 0x0000001c 0x00201400 0x000ea200
0x150e7423 0x3f800000 0x0000010d 0x002fc800
0x0d0e7223 0x0000000e 0x0000000d 0x000fe400
0x0b0f7220 0x0000000c 0x00400000 0x004fc800
0x0f0b7223 0x0000000e 0x000000ff 0x000fe400
0x0f007302 0x00000015 0x00000000 0x000e6400
0x150c7223 0x0000000b 0x0000010f 0x000fc800
0x0e0c7223 0x0000000c 0x0000000b 0x000fe400
0x04137221 0x00000008 0x00000000 0x001fe200
0x00008947 0x00000040 0x03800000 0x002fea00
0x000b7202 0x0000000f 0x00000f00 0x000fe400
0x000e7202 0x00000015 0x00000f00 0x000fe400
0x000a7802 0x00012f80 0x00000f00 0x000fc600
0x00007944 0x0000a370 0x03c00000 0x000fea00
0x00037941 0x00000000 0x03800000 0x000fea00
0x000e7308 0x00000014 0x00001000 0x000e2200
0x050b7220 0x00000007 0x00400000 0x000fe200
0x03ff7355 0x00000000 0x00100000 0x000fe200
0x170a7820 0x40400000 0x00400000 0x000fe200
0x00037945 0x00000100 0x03800000 0x000fe200
0x090b7223 0x0000001e 0x0000080b 0x000fc400
0x131d7221 0x0000000c 0x00000000 0x000fe400
0x0a0d7220 0x0000000b 0x00400000 0x000fcc00
0x0d007302 0x00000014 0x00000000 0x000e6200
0x140f7423 0x3f800000 0x0000010e 0x001fc800
0x0e0f7223 0x0000000f 0x0000000e 0x000fc800
0x0f0a7223 0x0000000d 0x000000ff 0x000fc800
0x140b7223 0x0000000a 0x0000010d 0x000fc800
0x0f0a7223 0x0000000b 0x0000000a 0x000fe200
0x00008947 0x00000050 0x03800000 0x002fea00
0x000b7202 0x0000000d 0x00000f00 0x000fe400
0x000e7202 0x00000014 0x00000f00 0x000fe400
0x000a7802 0x000130c0 0x00000f00 0x000fc600
0x00007944 0x0000a230 0x03c00000 0x000fea00
0x000a7202 0x0000000c 0x00000f00 0x000fc600
0x00037941 0x00000000 0x03800000 0x000fea00
0x02137224 0x00000002 0x078e02ff 0x000fe200
0x000d7308 0x00000016 0x00001000 0x000e2200
0xff027984 0x00007c00 0x00001800 0x000e6200
0x03ff7355 0x00000000 0x00100000 0x000fe200
0x030b7224 0x0000001c 0x078e0213 0x000fe200
0x00037945 0x00000120 0x03800000 0x000fe200
0x1d1d7221 0x0000000a 0x00000000 0x000fc800
0x000c7306 0x0000000b 0x00201400 0x0004e200
0x160e7423 0x3f800000 0x0000010d 0x001fe400
0x190b7220 0x0000001e 0x00400000 0x004fe400
0x0d0e7223 0x0000000e 0x0000000d 0x000fe400
0x070b7220 0x0000000b 0x00400000 0x000fc800
0x0b0f7220 0x0000000c 0x00400000 0x008fc800
0x0f0b7223 0x0000000e 0x000000ff 0x000fe400
0x0f007302 0x00000016 0x00000000 0x000e2400
0x160c7223 0x0000000b 0x0000010f 0x000fc800
0x0e0c7223 0x0000000c 0x0000000b 0x000fe400
0x06067221 0x00000002 0x00000000 0x002fe200
0x00008947 0x00000040 0x03800000 0x001fea00
0x000b7202 0x0000000f 0x00000f00 0x000fe400
0x000e7202 0x00000016 0x00000f00 0x000fe400
0x000a7802 0x00013250 0x00000f00 0x000fc600
0x00007944 0x0000a0a0 0x03c00000 0x000fea00
0x00037941 0x00000000 0x03800000 0x000fea00
0x03027224 0x00000003 0x078e02ff 0x000fe200
0x00137306 0x00000013 0x00201400 0x000e2200
0x03ff7355 0x00000000 0x00100000 0x000fe200
0x00037945 0x00000140 0x03800000 0x000fe200
0x06067221 0x0000000c 0x00000000 0x000fca00
0x00037306 0x00000002 0x00201400 0x0002b000
0x000a7308 0x00000015 0x00001000 0x000ee200
0x05137220 0x00000013 0x00400000 0x001fe400
0x18027820 0x40c00000 0x00400000 0x002fc400
0x03137223 0x00000009 0x00000013 0x004fc800
0x02137220 0x00000013 0x00400000 0x000fe400
0x15037423 0x3f800000 0x0000010a 0x008fc800
0x13007302 0x00000015 0x00000000 0x000e2200
0x0a0a7223 0x00000003 0x0000000a 0x000fc800
0x0a027223 0x00000013 0x000000ff 0x000fc800
0x15037223 0x00000002 0x00000113 0x000fc800
0x0a027223 0x00000003 0x00000002 0x000fe200
0x00008947 0x00000050 0x03800000 0x001fea00
0x000b7202 0x00000013 0x00000f00 0x000fe400
0x000e7202 0x00000015 0x00000f00 0x000fe400
0x000a7802 0x000133c0 0x00000f00 0x000fc600
0x00007944 0x00009f30 0x03c00000 0x000fea00
0x00027202 0x0000000c 0x00000f00 0x000fc600
0x00037941 0x00000000 0x03800000 0x000fea00
0x00057308 0x00000014 0x00001000 0x000e2200
0x04077220 0x00000007 0x00400000 0x000fe200
0x03ff7355 0x00000000 0x00100000 0x000fe200
0x17037820 0x40800000 0x00400000 0x000fe200
0x00037945 0x00000100 0x03800000 0x000fe200
0x1e077223 0x00000008 0x00000807 0x000fc400
0x06067221 0x00000002 0x00000000 0x000fe400
0x03077220 0x00000007 0x00400000 0x000fcc00
0x07007302 0x00000014 0x00000000 0x000e6200
0x14047423 0x3f800000 0x00000105 0x001fc800
0x05057223 0x00000004 0x00000005 0x000fc800
0x05037223 0x00000007 0x000000ff 0x000fc800
0x14047223 0x00000003 0x00000107 0x000fc800
0x05037223 0x00000004 0x00000003 0x000fe200
0x00008947 0x00000050 0x03800000 0x002fea00
0x000b7202 0x00000007 0x00000f00 0x000fe400
0x000e7202 0x00000014 0x00000f00 0x000fe400
0x000a7802 0x00013510 0x00000f00 0x000fc600
0x00007944 0x00009de0 0x03c00000 0x000fea00
0x00037202 0x0000000c 0x00000f00 0x000fc600
0x00037941 0x00000000 0x03800000 0x000fea00
0x06067221 0x00000003 0x00000000 0x000fe200
0x00037202 0x0000001a 0x00000f00 0x000fe400
0x00057202 0x0000001b 0x00000f00 0x000fe400
0x00047202 0x0000001d 0x00000f00 0x000fc400
0x00027a02 0x00005c00 0x00000f00 0x000fc800
0x0200780c 0x000000c1 0x03f06270 0x000fd800
0x00008947 0x00000a50 0x03800000 0x000fea00
0xff087984 0x00008000 0x00001a00 0x000e6200
0x03ff7355 0x00000000 0x00100000 0x000fe200
0x00037945 0x00000180 0x03800000 0x000fe200
0x03027210 0x00000008 0x07ffe0ff 0x002fe200
0x00177221 0x00000009 0x00000100 0x010fc800
0x17187220 0x00000017 0x00400000 0x041fe200
0x00147306 0x00000002 0x00201400 0x000e2600
0x17137220 0x00000018 0x00400000 0x000fc800
0x17197220 0x00000013 0x00400000 0x000fe200
0x00027306 0x00000008 0x00201400 0x000e7000
0x00077308 0x00000014 0x00001000 0x001e2200
0x14157220 0x00000014 0x00400000 0x000fc800
0x14167220 0x00000015 0x00400000 0x048fe400
0x170b7220 0x00000002 0x00400000 0x002fe200
0x001a7305 0x00000014 0x0020f100 0x000fe200
0x14097423 0x3f800000 0x00000107 0x001fce00
0x0b007302 0x00000014 0x00000000 0x000e2200
0x07097223 0x00000009 0x00000007 0x000fc800
0x0b077223 0x00000009 0x000000ff 0x000fc800
0x140a7223 0x00000007 0x0000010b 0x004fc800
0x09077223 0x0000000a 0x00000007 0x000fe200
0x00008947 0x00000040 0x03800000 0x001fea00
0x000e7202 0x00000014 0x00000f00 0x000fe400
0x000a7802 0x00013730 0x00000f00 0x000fc600
0x00007944 0x00009bc0 0x03c00000 0x000fea00
0x00077202 0x0000000c 0x00000f00 0x000fc600
0x00037941 0x00000000 0x03800000 0x000fea00
0x001e7306 0x00000003 0x00201400 0x000e2200
0xff097984 0x00008800 0x00001800 0x000e6200
0x03ff7355 0x00000000 0x00100000 0x000fe200
0x00037945 0x00000120 0x03800000 0x000fe200
0x00007221 0x00000007 0x00000000 0x000fc800
0x000b7308 0x00000014 0x00001000 0x000ea200
0x180a7220 0x0000001e 0x00400000 0x001fc800
0x020c7220 0x0000000a 0x00400000 0x000fe400
0x140d7423 0x3f800000 0x0000010b 0x004fc800
0x0c007302 0x00000014 0x00000000 0x000e2200
0x0b0d7223 0x0000000d 0x0000000b 0x000fc800
0x0d0a7223 0x0000000c 0x000000ff 0x000fc800
0x140b7223 0x0000000a 0x0000010c 0x000fc800
0x0d0a7223 0x0000000b 0x0000000a 0x000fe400
0x051b7221 0x00000009 0x00000000 0x002fe200
0x00008947 0x00000050 0x03800000 0x001fea00
0x000b7202 0x0000000c 0x00000f00 0x000fe400
0x000e7202 0x00000014 0x00000f00 0x000fe400
0x000a7802 0x00013890 0x00000f00 0x000fc600
0x00007944 0x00009a60 0x03c00000 0x000fea00
0x000a7202 0x0000000c 0x00000f00 0x000fc600
0x00037941 0x00000000 0x03800000 0x000fea00
0x031c7210 0x80000008 0x07ffe0ff 0x000fe200
0xff077984 0x00008c00 0x00001800 0x000e2200
0x000d7308 0x00000015 0x00001000 0x000e6200
0x130b7220 0x0000001e 0x00400000 0x000fe200
0x03ff7355 0x00000000 0x00100000 0x000fe200
0x00037945 0x00000110 0x03800000 0x000fe200
0x1b1b7221 0x0000000a 0x00000000 0x000fc400
0x020b7220 0x0000000b 0x00400000 0x000fe400
0x000c7306 0x0000001c 0x00201400 0x000ea200
0x150e7423 0x3f800000 0x0000010d 0x002fc800
0x0d0e7223 0x0000000e 0x0000000d 0x000fe400
0x0b0f7220 0x0000000c 0x00400000 0x004fc800
0x0f0b7223 0x0000000e 0x000000ff 0x000fe400
0x0f007302 0x00000015 0x00000000 0x000e6400
0x150c7223 0x0000000b 0x0000010f 0x000fc800
0x0e0c7223 0x0000000c 0x0000000b 0x000fe400
0x04137221 0x00000007 0x00000000 0x001fe200
0x00008947 0x00000040 0x03800000 0x002fea00
0x000b7202 0x0000000f 0x00000f00 0x000fe400
0x000e7202 0x00000015 0x00000f00 0x000fe400
0x000a7802 0x00013a10 0x00000f00 0x000fc600
0x00007944 0x000098e0 0x03c00000 0x000fea00
0x00037941 0x00000000 0x03800000 0x000fea00
0x000e7308 0x00000014 0x00001000 0x000e2200
0x050b7220 0x00000002 0x00400000 0x000fe200
0x03ff7355 0x00000000 0x00100000 0x000fe200
0x170a7820 0x40400000 0x00400000 0x000fe200
0x00037945 0x00000100 0x03800000 0x000fe200
0x090b7223 0x0000001e 0x0000080b 0x000fc400
0x131d7221 0x0000000c 0x00000000 0x000fe400
0x0a0d7220 0x0000000b 0x00400000 0x000fcc00
0x0d007302 0x00000014 0x00000000 0x000e6200
0x140f7423 0x3f800000 0x0000010e 0x001fc800
0x0e0f7223 0x0000000f 0x0000000e 0x000fc800
0x0f0a7223 0x0000000d 0x000000ff 0x000fc800
0x140b7223 0x0000000a 0x0000010d 0x000fc800
0x0f0a7223 0x0000000b 0x0000000a 0x000fe200
0x00008947 0x00000050 0x03800000 0x002fea00
0x000b7202 0x0000000d 0x00000f00 0x000fe400
0x000e7202 0x00000014 0x00000f00 0x000fe400
0x000a7802 0x00013b50 0x00000f00 0x000fc600
0x00007944 0x000097a0 0x03c00000 0x000fea00
0x000a7202 0x0000000c 0x00000f00 0x000fc600
0x00037941 0x00000000 0x03800000 0x000fea00
0x08137224 0x00000008 0x078e02ff 0x000fe200
0x000d7308 0x00000016 0x00001000 0x000e2200
0xff087984 0x00009000 0x00001800 0x000e6200
0x03ff7355 0x00000000 0x00100000 0x000fe200
0x030b7224 0x0000001c 0x078e0213 0x000fe200
0x00037945 0x00000120 0x03800000 0x000fe200
0x1d1d7221 0x0000000a 0x00000000 0x000fc800
0x000c7306 0x0000000b 0x00201400 0x0004e200
0x160e7423 0x3f800000 0x0000010d 0x001fe400
0x190b7220 0x0000001e 0x00400000 0x004fe400
0x0d0e7223 0x0000000e 0x0000000d 0x000fe400
0x020b7220 0x0000000b 0x00400000 0x000fc800
0x0b0f7220 0x0000000c 0x00400000 0x008fc800
0x0f0b7223 0x0000000e 0x000000ff 0x000fe400
0x0f007302 0x00000016 0x00000000 0x000e2400
0x160c7223 0x0000000b 0x0000010f 0x000fc800
0x0e0c7223 0x0000000c 0x0000000b 0x000fe400
0x06087221 0x00000008 0x00000000 0x002fe200
0x00008947 0x00000040 0x03800000 0x001fea00
0x000b7202 0x0000000f 0x00000f00 0x000fe400
0x000e7202 0x00000016 0x00000f00 0x000fe400
0x000a7802 0x00013ce0 0x00000f00 0x000fc600
0x00007944 0x00009610 0x03c00000 0x000fea00
0x00037941 0x00000000 0x03800000 0x000fea00
0x03037224 0x00000003 0x078e02ff 0x000fe200
0x00137306 0x00000013 0x00201400 0x000e2200
0x03ff7355 0x00000000 0x00100000 0x000fe200
0x00037945 0x00000140 0x03800000 0x000fe200
0x08087221 0x0000000c 0x00000000 0x000fca00
0x00067306 0x00000003 0x00201400 0x0002b000
0x000a7308 0x00000015 0x00001000 0x000ee200
0x05137220 0x00000013 0x00400000 0x001fe400
0x18037820 0x40c00000 0x00400000 0x002fc400
0x06137223 0x00000009 0x00000013 0x004fc800
0x03137220 0x00000013 0x00400000 0x000fe400
0x15057423 0x3f800000 0x0000010a 0x008fc800
0x13007302 0x00000015 0x00000000 0x000e2200
0x0a0a7223 0x00000005 0x0000000a 0x000fc800
0x0a037223 0x00000013 0x000000ff 0x000fc800
0x15057223 0x00000003 0x00000113 0x000fc800
0x0a037223 0x00000005 0x00000003 0x000fe200
0x00008947 0x00000050 0x03800000 0x001fea00
0x000b7202 0x00000013 0x00000f00 0x000fe400
0x000e7202 0x00000015 0x00000f00 0x000fe400
0x000a7802 0x00013e50 0x00000f00 0x000fc600
0x00007944 0x000094a0 0x03c00000 0x000fea00
0x00037202 0x0000000c 0x00000f00 0x000fc600
0x00037941 0x00000000 0x03800000 0x000fea00
0x00057308 0x00000014 0x00001000 0x000e2200
0x04047220 0x00000002 0x00400000 0x000fe200
0x03ff7355 0x00000000 0x00100000 0x000fe200
0x17027820 0x40800000 0x00400000 0x000fe200
0x00037945 0x000000f0 0x03800000 0x000fe200
0x1e047223 0x00000007 0x00000804 0x000fc400
0x08037221 0x00000003 0x00000000 0x000fe400
0x020b7220 0x00000004 0x00400000 0x000fcc00
0x0b007302 0x00000014 0x00000000 0x000e6200
0x14067423 0x3f800000 0x00000105 0x001fc800
0x05067223 0x00000006 0x00000005 0x000fc800
0x06027223 0x0000000b 0x000000ff 0x000fc800
0x14047223 0x00000002 0x0000010b 0x000fc800
0x06027223 0x00000004 0x00000002 0x000fe200
0x00008947 0x00000040 0x03800000 0x002fea00
0x000e7202 0x00000014 0x00000f00 0x000fe400
0x000a7802 0x00013f90 0x00000f00 0x000fc600
0x00007944 0x00009360 0x03c00000 0x000fea00
0x00027202 0x0000000c 0x00000f00 0x000fc600
0x00037941 0x00000000 0x03800000 0x000fea00
0x03067221 0x00000002 0x00000000 0x000fe200
0x00037202 0x0000001a 0x00000f00 0x000fe400
0x00057202 0x0000001b 0x00000f00 0x000fe400
0x00047202 0x0000001d 0x00000f00 0x000fe400
0x00027a02 0x00005c00 0x00000f00 0x000fc800
0x0200780c 0x000000e1 0x03f06270 0x000fd800
0x00008947 0x00008750 0x03800000 0x000fea00
0xff027984 0x00009400 0x00001800 0x000e6200
0x03ff7355 0x00000000 0x00100000 0x000fe200
0x00037945 0x00000190 0x03800000 0x000fe400
0xff097984 0x00009800 0x00001800 0x000f6200
0x03077210 0x00000002 0x07ffe0ff 0x002fe200
0x00177221 0x00000009 0x00000100 0x030fca00
0x00147306 0x00000007 0x00201400 0x000e6200
0x17187220 0x00000017 0x00400000 0x001fc800
0x17137220 0x00000018 0x00400000 0x000fc600
0x00077306 0x00000002 0x00201400 0x000e2200
0x17197220 0x00000013 0x00400000 0x000fce00
0x00087308 0x00000014 0x00001000 0x002e6200
0x14157220 0x00000014 0x00400000 0x000fc800
0x14167220 0x00000015 0x00400000 0x048fe400
0x170b7220 0x00000007 0x00400000 0x001fe200
0x001a7305 0x00000014 0x0020f100 0x000fe200
0x14097423 0x3f800000 0x00000108 0x002fce00
0x0b007302 0x00000014 0x00000000 0x000e2200
0x08097223 0x00000009 0x00000008 0x000fc800
0x0b087223 0x00000009 0x000000ff 0x000fc800
0x140a7223 0x00000008 0x0000010b 0x004fc800
0x09087223 0x0000000a 0x00000008 0x000fe200
0x00008947 0x00000040 0x03800000 0x001fea00
0x000e7202 0x00000014 0x00000f00 0x000fe400
0x000a7802 0x000141c0 0x00000f00 0x000fc600
0x00007944 0x00009130 0x03c00000 0x000fea00
0x00087202 0x0000000c 0x00000f00 0x000fc600
0x00037941 0x00000000 0x03800000 0x000fea00
0x001e7306 0x00000003 0x00201400 0x000e2200
0xff097984 0x00009c00 0x00001800 0x000e6200
0x03ff7355 0x00000000 0x00100000 0x000fe200
0x00037945 0x00000120 0x03800000 0x000fe200
0x00007221 0x00000008 0x00000000 0x000fc800
0x000b7308 0x00000014 0x00001000 0x000ea200
0x180a7220 0x0000001e 0x00400000 0x001fc800
0x070c7220 0x0000000a 0x00400000 0x000fe400
0x140d7423 0x3f800000 0x0000010b 0x004fc800
0x0c007302 0x00000014 0x00000000 0x000e2200
0x0b0d7223 0x0000000d 0x0000000b 0x000fc800
0x0d0a7223 0x0000000c 0x000000ff 0x000fc800
0x140b7223 0x0000000a 0x0000010c 0x000fc800
0x0d0a7223 0x0000000b 0x0000000a 0x000fe400
0x051b7221 0x00000009 0x00000000 0x002fe200
0x00008947 0x00000050 0x03800000 0x001fea00
0x000b7202 0x0000000c 0x00000f00 0x000fe400
0x000e7202 0x00000014 0x00000f00 0x000fe400
0x000a7802 0x00014320 0x00000f00 0x000fc600
0x00007944 0x00008fd0 0x03c00000 0x000fea00
0x000a7202 0x0000000c 0x00000f00 0x000fc600
0x00037941 0x00000000 0x03800000 0x000fea00
0x031c7210 0x80000002 0x07ffe0ff 0x000fe200
0xff087984 0x0000a000 0x00001800 0x000e2200
0x000d7308 0x00000015 0x00001000 0x000e6200
0x130b7220 0x0000001e 0x00400000 0x000fe200
0x03ff7355 0x00000000 0x00100000 0x000fe200
0x00037945 0x00000110 0x03800000 0x000fe200
0x1b1b7221 0x0000000a 0x00000000 0x000fc400
0x070b7220 0x0000000b 0x00400000 0x000fe400
0x000c7306 0x0000001c 0x00201400 0x000ea200
0x150e7423 0x3f800000 0x0000010d 0x002fc800
0x0d0e7223 0x0000000e 0x0000000d 0x000fe400
0x0b0f7220 0x0000000c 0x00400000 0x004fc800
0x0f0b7223 0x0000000e 0x000000ff 0x000fe400
0x0f007302 0x00000015 0x00000000 0x000e6400
0x150c7223 0x0000000b 0x0000010f 0x000fc800
0x0e0c7223 0x0000000c 0x0000000b 0x000fe400
0x04137221 0x00000008 0x00000000 0x001fe200
0x00008947 0x00000040 0x03800000 0x002fea00
0x000b7202 0x0000000f 0x00000f00 0x000fe400
0x000e7202 0x00000015 0x00000f00 0x000fe400
0x000a7802 0x000144a0 0x00000f00 0x000fc600
0x00007944 0x00008e50 0x03c00000 0x000fea00
0x00037941 0x00000000 0x03800000 0x000fea00
0x000e7308 0x00000014 0x00001000 0x000e2200
0x050b7220 0x00000007 0x00400000 0x000fe200
0x03ff7355 0x00000000 0x00100000 0x000fe200
0x170a7820 0x40400000 0x00400000 0x000fe200
0x00037945 0x00000100 0x03800000 0x000fe200
0x090b7223 0x0000001e 0x0000080b 0x000fc400
0x131d7221 0x0000000c 0x00000000 0x000fe400
0x0a0d7220 0x0000000b 0x00400000 0x000fcc00
0x0d007302 0x00000014 0x00000000 0x000e6200
0x140f7423 0x3f800000 0x0000010e 0x001fc800
0x0e0f7223 0x0000000f 0x0000000e 0x000fc800
0x0f0a7223 0x0000000d 0x000000ff 0x000fc800
0x140b7223 0x0000000a 0x0000010d 0x000fc800
0x0f0a7223 0x0000000b 0x0000000a 0x000fe200
0x00008947 0x00000050 0x03800000 0x002fea00
0x000b7202 0x0000000d 0x00000f00 0x000fe400
0x000e7202 0x00000014 0x00000f00 0x000fe400
0x000a7802 0x000145e0 0x00000f00 0x000fc600
0x00007944 0x00008d10 0x03c00000 0x000fea00
0x000a7202 0x0000000c 0x00000f00 0x000fc600
0x00037941 0x00000000 0x03800000 0x000fea00
0x02137224 0x00000002 0x078e02ff 0x000fe200
0x000d7308 0x00000016 0x00001000 0x000e2200
0xff027984 0x0000a400 0x00001800 0x000e6200
0x03ff7355 0x00000000 0x00100000 0x000fe200
0x030b7224 0x0000001c 0x078e0213 0x000fe200
0x00037945 0x00000120 0x03800000 0x000fe200
0x1d1d7221 0x0000000a 0x00000000 0x000fc800
0x000c7306 0x0000000b 0x00201400 0x0004e200
0x160e7423 0x3f800000 0x0000010d 0x001fe400
0x190b7220 0x0000001e 0x00400000 0x004fe400
0x0d0e7223 0x0000000e 0x0000000d 0x000fe400
0x070b7220 0x0000000b 0x00400000 0x000fc800
0x0b0f7220 0x0000000c 0x00400000 0x008fc800
0x0f0b7223 0x0000000e 0x000000ff 0x000fe400
0x0f007302 0x00000016 0x00000000 0x000e2400
0x160c7223 0x0000000b 0x0000010f 0x000fc800
0x0e0c7223 0x0000000c 0x0000000b 0x000fe400
0x06067221 0x00000002 0x00000000 0x002fe200
0x00008947 0x00000040 0x03800000 0x001fea00
0x000b7202 0x0000000f 0x00000f00 0x000fe400
0x000e7202 0x00000016 0x00000f00 0x000fe400
0x000a7802 0x00014770 0x00000f00 0x000fc600
0x00007944 0x00008b80 0x03c00000 0x000fea00
0x00037941 0x00000000 0x03800000 0x000fea00
0x03027224 0x00000003 0x078e02ff 0x000fe200
0x00137306 0x00000013 0x00201400 0x000e2200
0x03ff7355 0x00000000 0x00100000 0x000fe200
0x00037945 0x00000140 0x03800000 0x000fe200
0x06067221 0x0000000c 0x00000000 0x000fca00
0x00037306 0x00000002 0x00201400 0x0002b000
0x000a7308 0x00000015 0x00001000 0x000ee200
0x05137220 0x00000013 0x00400000 0x001fe400
0x18027820 0x40c00000 0x00400000 0x002fc400
0x03137223 0x00000009 0x00000013 0x004fc800
0x02137220 0x00000013 0x00400000 0x000fe400
0x15037423 0x3f800000 0x0000010a 0x008fc800
0x13007302 0x00000015 0x00000000 0x000e2200
0x0a0a7223 0x00000003 0x0000000a 0x000fc800
0x0a027223 0x00000013 0x000000ff 0x000fc800
0x15037223 0x00000002 0x00000113 0x000fc800
0x0a027223 0x00000003 0x00000002 0x000fe200
0x00008947 0x00000050 0x03800000 0x001fea00
0x000b7202 0x00000013 0x00000f00 0x000fe400
0x000e7202 0x00000015 0x00000f00 0x000fe400
0x000a7802 0x000148e0 0x00000f00 0x000fc600
0x00007944 0x00008a10 0x03c00000 0x000fea00
0x00027202 0x0000000c 0x00000f00 0x000fc600
0x00037941 0x00000000 0x03800000 0x000fea00
0x00057308 0x00000014 0x00001000 0x000e2200
0x04077220 0x00000007 0x00400000 0x000fe200
0x03ff7355 0x00000000 0x00100000 0x000fe200
0x17037820 0x40800000 0x00400000 0x000fe200
0x00037945 0x00000100 0x03800000 0x000fe200
0x1e077223 0x00000008 0x00000807 0x000fc400
0x06067221 0x00000002 0x00000000 0x000fe400
0x03077220 0x00000007 0x00400000 0x000fcc00
0x07007302 0x00000014 0x00000000 0x000e6200
0x14047423 0x3f800000 0x00000105 0x001fc800
0x05057223 0x00000004 0x00000005 0x000fc800
0x05037223 0x00000007 0x000000ff 0x000fc800
0x14047223 0x00000003 0x00000107 0x000fc800
0x05037223 0x00000004 0x00000003 0x000fe200
0x00008947 0x00000050 0x03800000 0x002fea00
0x000b7202 0x00000007 0x00000f00 0x000fe400
0x000e7202 0x00000014 0x00000f00 0x000fe400
0x000a7802 0x00014a30 0x00000f00 0x000fc600
0x00007944 0x000088c0 0x03c00000 0x000fea00
0x00037202 0x0000000c 0x00000f00 0x000fc600
0x00037941 0x00000000 0x03800000 0x000fea00
0x06067221 0x00000003 0x00000000 0x000fe200
0x00037202 0x0000001a 0x00000f00 0x000fe400
0x00057202 0x0000001b 0x00000f00 0x000fe400
0x00047202 0x0000001d 0x00000f00 0x000fe200
0x00007947 0x00007cd0 0x03800000 0x000fea00
0x0700780c 0x0000001e 0x03f04270 0x001fe200
0x03ff7355 0x00000000 0x00100000 0x000fe200
0x03157f89 0x08201f00 0x000e0000 0x02006200
0x00037945 0x00000a70 0x03800000 0x000fe600
0x000a7f89 0x08201f00 0x000e0000 0x0000a800
0x05167f89 0x08201f00 0x000e0000 0x0000e800
0x04177f89 0x08201f00 0x000e0000 0x00012800
0x06187f89 0x08201f00 0x000e0000 0x00002200
0x00000947 0x00000a10 0x03800000 0x000fea00
0x03097210 0x00000015 0x07ffe0ff 0x002fe200
0x001f7306 0x00000015 0x00201400 0x000e6200
0x001c7221 0x0000000a 0x00000100 0x004fe200
0x04ff7355 0x00000000 0x00100000 0x000fe200
0x00047945 0x00000150 0x03800000 0x000fe400
0x1c1d7220 0x0000001c 0x00400000 0x000fc600
0x00197306 0x00000009 0x00201400 0x000ea200
0x1c147220 0x0000001d 0x00400000 0x000fc800
0x1c1e7220 0x00000014 0x00400000 0x040fe400
0x1c0c7220 0x0000001f 0x00400000 0x002fe200
0x00097308 0x00000019 0x00001000 0x004e6200
0x191a7220 0x00000019 0x00400000 0x000fc800
0x191b7220 0x0000001a 0x00400000 0x000fc600
0x0c007302 0x00000019 0x00000000 0x000ea200
0x190a7423 0x3f800000 0x00000109 0x002fc800
0x090a7223 0x0000000a 0x00000009 0x000fc800
0x0c097223 0x0000000a 0x000000ff 0x000fc800
0x190b7223 0x00000009 0x0000010c 0x000fc800
0x0a097223 0x0000000b 0x00000009 0x000fe200
0x00008947 0x00000050 0x03800000 0x004fea00
0x000b7202 0x0000000c 0x00000f00 0x000fe400
0x000e7202 0x00000019 0x00000f00 0x000fe400
0x000a7802 0x00014cb0 0x00000f00 0x000fc600
0x00007944 0x00008640 0x03c00000 0x019fea00
0x00097202 0x0000000c 0x00000f00 0x000fc600
0x00047941 0x00000000 0x03800000 0x000fea00
0x00237306 0x00000003 0x00201400 0x000e6200
0x04ff7355 0x00000000 0x00100000 0x000fe200
0x00047945 0x00000100 0x03800000 0x000fec00
0x000b7308 0x00000019 0x00001000 0x000ea200
0x1d0a7220 0x00000023 0x00400000 0x002fc800
0x1f0c7220 0x0000000a 0x00400000 0x000fe400
0x190d7423 0x3f800000 0x0000010b 0x004fc800
0x0c007302 0x00000019 0x00000000 0x000e6200
0x0b0d7223 0x0000000d 0x0000000b 0x000fc800
0x0d0a7223 0x0000000c 0x000000ff 0x000fc800
0x190b7223 0x0000000a 0x0000010c 0x000fc800
0x0d137223 0x0000000b 0x0000000a 0x000fe200
0x00008947 0x00000050 0x03800000 0x002fea00
0x000b7202 0x0000000c 0x00000f00 0x000fe400
0x000e7202 0x00000019 0x00000f00 0x000fe400
0x000a7802 0x00014de0 0x00000f00 0x000fc600
0x00007944 0x00008510 0x03c00000 0x019fea00
0x00137202 0x0000000c 0x00000f00 0x000fc600
0x00047941 0x00000000 0x03800000 0x000fea00
0x03217210 0x80000015 0x07ffe0ff 0x000fe200
0x000c7308 0x0000001a 0x00001000 0x000e6200
0x140a7220 0x00000023 0x00400000 0x000fe200
0x04ff7355 0x00000000 0x00100000 0x000fe200
0x00047945 0x00000110 0x03800000 0x000fe200
0x05207221 0x00000016 0x00000000 0x008fc400
0x1f0a7220 0x0000000a 0x00400000 0x000fe400
0x000b7306 0x00000021 0x00201400 0x000ea200
0x1a0d7423 0x3f800000 0x0000010c 0x002fc800
0x0c0d7223 0x0000000d 0x0000000c 0x000fe400
0x0a0e7220 0x0000000b 0x00400000 0x004fc800
0x0e0a7223 0x0000000d 0x000000ff 0x000fe400
0x0e007302 0x0000001a 0x00000000 0x000e6400
0x1a0b7223 0x0000000a 0x0000010e 0x000fc800
0x0d0a7223 0x0000000b 0x0000000a 0x000fe200
0x00008947 0x00000050 0x03800000 0x002fea00
0x000b7202 0x0000000e 0x00000f00 0x000fe400
0x000e7202 0x0000001a 0x00000f00 0x000fe400
0x000a7802 0x00014f40 0x00000f00 0x000fc600
0x00007944 0x000083b0 0x03c00000 0x011fea00
0x000a7202 0x0000000c 0x00000f00 0x000fc600
0x00047941 0x00000000 0x03800000 0x000fea00
0x000d7308 0x00000019 0x00001000 0x000e6200
0x050c7220 0x0000001f 0x00400000 0x000fe200
0x04ff7355 0x00000000 0x00100000 0x000fe200
0x1c0b7820 0x40400000 0x00400000 0x000fe200
0x00047945 0x00000110 0x03800000 0x000fe200
0x160c7223 0x00000023 0x0000080c 0x000fc800
0x0b0e7220 0x0000000c 0x00400000 0x000fe400
0x040b7221 0x00000017 0x00000000 0x010fc800
0x0e007302 0x00000019 0x00000000 0x000ea200
0x190f7423 0x3f800000 0x0000010d 0x002fe400
0x0b227221 0x0000000a 0x00000000 0x000fe400
0x0d0f7223 0x0000000f 0x0000000d 0x000fc800
0x0f0c7223 0x0000000e 0x000000ff 0x000fc800
0x190d7223 0x0000000c 0x0000010e 0x000fc800
0x0f147223 0x0000000d 0x0000000c 0x000fe200
0x00008947 0x00000050 0x03800000 0x004fea00
0x000b7202 0x0000000e 0x00000f00 0x000fe400
0x000e7202 0x00000019 0x00000f00 0x000fe400
0x000a7802 0x000150a0 0x00000f00 0x000fc600
0x00007944 0x00008250 0x03c00000 0x001fea00
0x00147202 0x0000000c 0x00000f00 0x000fc600
0x00047941 0x00000000 0x03800000 0x000fea00
0x15157224 0x00000015 0x078e02ff 0x000fe200
0x000c7308 0x0000001b 0x00001000 0x000e6200
0x04ff7355 0x00000000 0x00100000 0x000fe200
0x00047945 0x00000130 0x03800000 0x000fe200
0x030a7224 0x00000021 0x078e0215 0x000fe400
0x06187221 0x00000018 0x00000000 0x001fc800
0x000b7306 0x0000000a 0x00201400 0x0000a200
0x1b0d7423 0x3f800000 0x0000010c 0x002fe400
0x1e0a7220 0x00000023 0x00400000 0x001fe400
0x0c0d7223 0x0000000d 0x0000000c 0x000fe400
0x1f0a7220 0x0000000a 0x00400000 0x000fc800
0x0a0e7220 0x0000000b 0x00400000 0x004fc800
0x0e0a7223 0x0000000d 0x000000ff 0x000fe400
0x0e007302 0x0000001b 0x00000000 0x000e2400
0x1b0b7223 0x0000000a 0x0000010e 0x000fc800
0x0d0a7223 0x0000000b 0x0000000a 0x000fe200
0x00008947 0x00000050 0x03800000 0x001fea00
0x000b7202 0x0000000e 0x00000f00 0x000fe400
0x000e7202 0x0000001b 0x00000f00 0x000fe400
0x000a7802 0x00015210 0x00000f00 0x000fc600
0x00007944 0x000080e0 0x03c00000 0x000fea00
0x000a7202 0x0000000c 0x00000f00 0x000fc600
0x00047941 0x00000000 0x03800000 0x000fea00
0x03037224 0x00000003 0x078e02ff 0x000fe200
0x00067306 0x00000015 0x00201400 0x000e2200
0x04ff7355 0x00000000 0x00100000 0x000fe200
0x00047945 0x00000140 0x03800000 0x000fe200
0x18187221 0x0000000a 0x00000000 0x000fca00
0x000b7306 0x00000003 0x00201400 0x0002b000
0x000c7308 0x0000001a 0x00001000 0x000ee200
0x05067220 0x00000006 0x00400000 0x001fe400
0x1d037820 0x40c00000 0x00400000 0x002fc400
0x16067223 0x0000000b 0x00000006 0x004fc800
0x03067220 0x00000006 0x00400000 0x000fe400
0x1a057423 0x3f800000 0x0000010c 0x008fc800
0x06007302 0x0000001a 0x00000000 0x000e2200
0x0c0c7223 0x00000005 0x0000000c 0x000fc800
0x0c037223 0x00000006 0x000000ff 0x000fc800
0x1a057223 0x00000003 0x00000106 0x000fc800
0x0c037223 0x00000005 0x00000003 0x000fe200
0x00008947 0x00000050 0x03800000 0x001fea00
0x000b7202 0x00000006 0x00000f00 0x000fe400
0x000e7202 0x0000001a 0x00000f00 0x000fe400
0x000a7802 0x00015390 0x00000f00 0x000fc600
0x00007944 0x00007f60 0x03c00000 0x000fea00
0x00037202 0x0000000c 0x00000f00 0x000fc600
0x00047941 0x00000000 0x03800000 0x000fea00
0x00067308 0x00000019 0x00001000 0x000e2200
0x04057220 0x0000001f 0x00400000 0x000fe200
0x04ff7355 0x00000000 0x00100000 0x000fe200
0x1c047820 0x40800000 0x00400000 0x000fe200
0x00047945 0x000000f0 0x03800000 0x000fe200
0x17057223 0x00000023 0x00000805 0x000fc400
0x18187221 0x00000003 0x00000000 0x000fe400
0x040b7220 0x00000005 0x00400000 0x000fcc00
0x0b007302 0x00000019 0x00000000 0x000e6200
0x190a7423 0x3f800000 0x00000106 0x001fc800
0x060a7223 0x0000000a 0x00000006 0x000fc800
0x0a047223 0x0000000b 0x000000ff 0x000fc800
0x19057223 0x00000004 0x0000010b 0x000fc800
0x0a057223 0x00000005 0x00000004 0x000fe200
0x00008947 0x00000040 0x03800000 0x002fea00
0x000e7202 0x00000019 0x00000f00 0x000fe400
0x000a7802 0x000154d0 0x00000f00 0x000fc600
0x00007944 0x00007e20 0x03c00000 0x000fea00
0x00057202 0x0000000c 0x00000f00 0x000fc600
0x00047941 0x00000000 0x03800000 0x000fea00
0x00037305 0x00000019 0x0020f100 0x00006200
0x18067221 0x00000005 0x00000000 0x000fe400
0x22047221 0x00000014 0x00000000 0x000fe400
0x00007221 0x00000009 0x00000000 0x000fe400
0x20057221 0x00000013 0x00000000 0x000fc600
0x00037941 0x00000000 0x03800000 0x000fea00
0x0700780c 0x0000001d 0x03f04270 0x000fe200
0x03ff7355 0x00000000 0x00100000 0x000fe200
0x03157f89 0x08401f00 0x000e0000 0x00232200
0x00037945 0x00000a70 0x03800000 0x000fe600
0x000a7f89 0x08401f00 0x000e0000 0x0042a800
0x05167f89 0x08401f00 0x000e0000 0x0082e800
0x04177f89 0x08401f00 0x000e0000 0x01032800
0x06187f89 0x08401f00 0x000e0000 0x00122200
0x00000947 0x00000a10 0x03800000 0x000fea00
0x03097210 0x00000015 0x07ffe0ff 0x000fe200
0x001f7306 0x00000015 0x00201400 0x000f6200
0x001c7221 0x0000000a 0x00000100 0x004fe200
0x04ff7355 0x00000000 0x00100000 0x000fe200
0x00047945 0x00000150 0x03800000 0x000fe400
0x1c1d7220 0x0000001c 0x00400000 0x000fc600
0x00197306 0x00000009 0x00201400 0x000ea200
0x1c147220 0x0000001d 0x00400000 0x000fc800
0x1c1e7220 0x00000014 0x00400000 0x040fe400
0x1c0c7220 0x0000001f 0x00400000 0x020fe200
0x00097308 0x00000019 0x00001000 0x004ea200
0x191a7220 0x00000019 0x00400000 0x000fc800
0x191b7220 0x0000001a 0x00400000 0x000fc600
0x0c007302 0x00000019 0x00000000 0x000f6200
0x190a7423 0x3f800000 0x00000109 0x004fc800
0x090a7223 0x0000000a 0x00000009 0x000fc800
0x0c097223 0x0000000a 0x000000ff 0x000fc800
0x190b7223 0x00000009 0x0000010c 0x000fc800
0x0a097223 0x0000000b 0x00000009 0x000fe200
0x00008947 0x00000050 0x03800000 0x020fea00
0x000b7202 0x0000000c 0x00000f00 0x000fe400
0x000e7202 0x00000019 0x00000f00 0x000fe400
0x000a7802 0x00015760 0x00000f00 0x000fc600
0x00007944 0x00007b90 0x03c00000 0x01bfea00
0x00097202 0x0000000c 0x00000f00 0x000fc600
0x00047941 0x00000000 0x03800000 0x000fea00
0x00237306 0x00000003 0x00201400 0x000ea200
0x04ff7355 0x00000000 0x00100000 0x000fe200
0x00047945 0x00000100 0x03800000 0x000fec00
0x000b7308 0x00000019 0x00001000 0x000f6200
0x1d0a7220 0x00000023 0x00400000 0x004fc800
0x1f0c7220 0x0000000a 0x00400000 0x000fe400
0x190d7423 0x3f800000 0x0000010b 0x020fc800
0x0c007302 0x00000019 0x00000000 0x000ea200
0x0b0d7223 0x0000000d 0x0000000b 0x000fc800
0x0d0a7223 0x0000000c 0x000000ff 0x000fc800
0x190b7223 0x0000000a 0x0000010c 0x000fc800
0x0d137223 0x0000000b 0x0000000a 0x000fe200
0x00008947 0x00000050 0x03800000 0x004fea00
0x000b7202 0x0000000c 0x00000f00 0x000fe400
0x000e7202 0x00000019 0x00000f00 0x000fe400
0x000a7802 0x00015890 0x00000f00 0x000fc600
0x00007944 0x00007a60 0x03c00000 0x01bfea00
0x00137202 0x0000000c 0x00000f00 0x000fc600
0x00047941 0x00000000 0x03800000 0x000fea00
0x03217210 0x80000015 0x07ffe0ff 0x000fe200
0x000c7308 0x0000001a 0x00001000 0x000ea200
0x140a7220 0x00000023 0x00400000 0x000fe200
0x04ff7355 0x00000000 0x00100000 0x000fe200
0x00047945 0x00000110 0x03800000 0x000fe200
0x05207221 0x00000016 0x00000000 0x008fc400
0x1f0a7220 0x0000000a 0x00400000 0x000fe400
0x000b7306 0x00000021 0x00201400 0x000ee200
0x1a0d7423 0x3f800000 0x0000010c 0x004fc800
0x0c0d7223 0x0000000d 0x0000000c 0x000fe400
0x0a0e7220 0x0000000b 0x00400000 0x008fc800
0x0e0a7223 0x0000000d 0x000000ff 0x000fe400
0x0e007302 0x0000001a 0x00000000 0x000ea400
0x1a0b7223 0x0000000a 0x0000010e 0x000fc800
0x0d0a7223 0x0000000b 0x0000000a 0x000fe200
0x00008947 0x00000050 0x03800000 0x004fea00
0x000b7202 0x0000000e 0x00000f00 0x000fe400
0x000e7202 0x0000001a 0x00000f00 0x000fe400
0x000a7802 0x000159f0 0x00000f00 0x000fc600
0x00007944 0x00007900 0x03c00000 0x013fea00
0x000a7202 0x0000000c 0x00000f00 0x000fc600
0x00047941 0x00000000 0x03800000 0x000fea00
0x000d7308 0x00000019 0x00001000 0x000ea200
0x050c7220 0x0000001f 0x00400000 0x000fe200
0x04ff7355 0x00000000 0x00100000 0x000fe200
0x1c0b7820 0x40400000 0x00400000 0x000fe200
0x00047945 0x00000110 0x03800000 0x000fe200
0x160c7223 0x00000023 0x0000080c 0x000fc800
0x0b0e7220 0x0000000c 0x00400000 0x000fe400
0x040b7221 0x00000017 0x00000000 0x010fc800
0x0e007302 0x00000019 0x00000000 0x000ee200
0x190f7423 0x3f800000 0x0000010d 0x004fe400
0x0b227221 0x0000000a 0x00000000 0x000fe400
0x0d0f7223 0x0000000f 0x0000000d 0x000fc800
0x0f0c7223 0x0000000e 0x000000ff 0x000fc800
0x190d7223 0x0000000c 0x0000010e 0x000fc800
0x0f147223 0x0000000d 0x0000000c 0x000fe200
0x00008947 0x00000050 0x03800000 0x008fea00
0x000b7202 0x0000000e 0x00000f00 0x000fe400
0x000e7202 0x00000019 0x00000f00 0x000fe400
0x000a7802 0x00015b50 0x00000f00 0x000fc600
0x00007944 0x000077a0 0x03c00000 0x003fea00
0x00147202 0x0000000c 0x00000f00 0x000fc600
0x00047941 0x00000000 0x03800000 0x000fea00
0x15157224 0x00000015 0x078e02ff 0x000fe200
0x000c7308 0x0000001b 0x00001000 0x000ea200
0x04ff7355 0x00000000 0x00100000 0x000fe200
0x00047945 0x00000130 0x03800000 0x000fe200
0x030a7224 0x00000021 0x078e0215 0x000fe400
0x06187221 0x00000018 0x00000000 0x001fc800
0x000b7306 0x0000000a 0x00201400 0x0000e200
0x1b0d7423 0x3f800000 0x0000010c 0x004fe400
0x1e0a7220 0x00000023 0x00400000 0x001fe400
0x0c0d7223 0x0000000d 0x0000000c 0x000fe400
0x1f0a7220 0x0000000a 0x00400000 0x000fc800
0x0a0e7220 0x0000000b 0x00400000 0x008fc800
0x0e0a7223 0x0000000d 0x000000ff 0x000fe400
0x0e007302 0x0000001b 0x00000000 0x000e2400
0x1b0b7223 0x0000000a 0x0000010e 0x000fc800
0x0d0a7223 0x0000000b 0x0000000a 0x000fe200
0x00008947 0x00000050 0x03800000 0x001fea00
0x000b7202 0x0000000e 0x00000f00 0x000fe400
0x000e7202 0x0000001b 0x00000f00 0x000fe400
0x000a7802 0x00015cc0 0x00000f00 0x000fc600
0x00007944 0x00007630 0x03c00000 0x002fea00
0x000a7202 0x0000000c 0x00000f00 0x000fc600
0x00047941 0x00000000 0x03800000 0x000fea00
0x03037224 0x00000003 0x078e02ff 0x002fe200
0x00067306 0x00000015 0x00201400 0x000e2200
0x04ff7355 0x00000000 0x00100000 0x000fe200
0x00047945 0x00000140 0x03800000 0x000fe200
0x18187221 0x0000000a 0x00000000 0x000fca00
0x000b7306 0x00000003 0x00201400 0x0002b000
0x000c7308 0x0000001a 0x00001000 0x000ee200
0x05067220 0x00000006 0x00400000 0x001fe400
0x1d037820 0x40c00000 0x00400000 0x002fc400
0x16067223 0x0000000b 0x00000006 0x004fc800
0x03067220 0x00000006 0x00400000 0x000fe400
0x1a057423 0x3f800000 0x0000010c 0x008fc800
0x06007302 0x0000001a 0x00000000 0x000e2200
0x0c0c7223 0x00000005 0x0000000c 0x000fc800
0x0c037223 0x00000006 0x000000ff 0x000fc800
0x1a057223 0x00000003 0x00000106 0x000fc800
0x0c037223 0x00000005 0x00000003 0x000fe200
0x00008947 0x00000050 0x03800000 0x001fea00
0x000b7202 0x00000006 0x00000f00 0x000fe400
0x000e7202 0x0000001a 0x00000f00 0x000fe400
0x000a7802 0x00015e40 0x00000f00 0x000fc600
0x00007944 0x000074b0 0x03c00000 0x000fea00
0x00037202 0x0000000c 0x00000f00 0x000fc600
0x00047941 0x00000000 0x03800000 0x000fea00
0x00067308 0x00000019 0x00001000 0x000e2200
0x04057220 0x0000001f 0x00400000 0x000fe200
0x04ff7355 0x00000000 0x00100000 0x000fe200
0x1c047820 0x40800000 0x00400000 0x000fe200
0x00047945 0x000000f0 0x03800000 0x000fe200
0x17057223 0x00000023 0x00000805 0x000fc400
0x18187221 0x00000003 0x00000000 0x000fe400
0x040b7220 0x00000005 0x00400000 0x000fcc00
0x0b007302 0x00000019 0x00000000 0x000e6200
0x190a7423 0x3f800000 0x00000106 0x001fc800
0x060a7223 0x0000000a 0x00000006 0x000fc800
0x0a047223 0x0000000b 0x000000ff 0x000fc800
0x19057223 0x00000004 0x0000010b 0x000fc800
0x0a057223 0x00000005 0x00000004 0x000fe200
0x00008947 0x00000040 0x03800000 0x002fea00
0x000e7202 0x00000019 0x00000f00 0x000fe400
0x000a7802 0x00015f80 0x00000f00 0x000fc600
0x00007944 0x00007370 0x03c00000 0x000fea00
0x00057202 0x0000000c 0x00000f00 0x000fc600
0x00047941 0x00000000 0x03800000 0x000fea00
0x00037305 0x00000019 0x0020f100 0x00006200
0x18067221 0x00000005 0x00000000 0x000fe400
0x22047221 0x00000014 0x00000000 0x000fe400
0x00007221 0x00000009 0x00000000 0x000fe400
0x20057221 0x00000013 0x00000000 0x000fc600
0x00037941 0x00000000 0x03800000 0x000fea00
0x0700780c 0x0000001b 0x03f04270 0x000fe200
0x03ff7355 0x00000000 0x00100000 0x000fe200
0x03157f89 0x08801f00 0x000e0000 0x00232200
0x00037945 0x00000a70 0x03800000 0x000fe600
0x000a7f89 0x08801f00 0x000e0000 0x0042a800
0x05167f89 0x08801f00 0x000e0000 0x0082e800
0x04177f89 0x08801f00 0x000e0000 0x01032800
0x06187f89 0x08801f00 0x000e0000 0x00122200
0x00000947 0x00000a10 0x03800000 0x000fea00
0x03097210 0x00000015 0x07ffe0ff 0x000fe200
0x001f7306 0x00000015 0x00201400 0x000f6200
0x001c7221 0x0000000a 0x00000100 0x004fe200
0x04ff7355 0x00000000 0x00100000 0x000fe200
0x00047945 0x00000150 0x03800000 0x000fe400
0x1c1d7220 0x0000001c 0x00400000 0x000fc600
0x00197306 0x00000009 0x00201400 0x000ea200
0x1c147220 0x0000001d 0x00400000 0x000fc800
0x1c1e7220 0x00000014 0x00400000 0x040fe400
0x1c0c7220 0x0000001f 0x00400000 0x020fe200
0x00097308 0x00000019 0x00001000 0x004ea200
0x191a7220 0x00000019 0x00400000 0x000fc800
0x191b7220 0x0000001a 0x00400000 0x000fc600
0x0c007302 0x00000019 0x00000000 0x000f6200
0x190a7423 0x3f800000 0x00000109 0x004fc800
0x090a7223 0x0000000a 0x00000009 0x000fc800
0x0c097223 0x0000000a 0x000000ff 0x000fc800
0x190b7223 0x00000009 0x0000010c 0x000fc800
0x0a097223 0x0000000b 0x00000009 0x000fe200
0x00008947 0x00000050 0x03800000 0x020fea00
0x000b7202 0x0000000c 0x00000f00 0x000fe400
0x000e7202 0x00000019 0x00000f00 0x000fe400
0x000a7802 0x00016210 0x00000f00 0x000fc600
0x00007944 0x000070e0 0x03c00000 0x01bfea00
0x00097202 0x0000000c 0x00000f00 0x000fc600
0x00047941 0x00000000 0x03800000 0x000fea00
0x00237306 0x00000003 0x00201400 0x000ea200
0x04ff7355 0x00000000 0x00100000 0x000fe200
0x00047945 0x00000100 0x03800000 0x000fec00
0x000b7308 0x00000019 0x00001000 0x000f6200
0x1d0a7220 0x00000023 0x00400000 0x004fc800
0x1f0c7220 0x0000000a 0x00400000 0x000fe400
0x190d7423 0x3f800000 0x0000010b 0x020fc800
0x0c007302 0x00000019 0x00000000 0x000ea200
0x0b0d7223 0x0000000d 0x0000000b 0x000fc800
0x0d0a7223 0x0000000c 0x000000ff 0x000fc800
0x190b7223 0x0000000a 0x0000010c 0x000fc800
0x0d137223 0x0000000b 0x0000000a 0x000fe200
0x00008947 0x00000050 0x03800000 0x004fea00
0x000b7202 0x0000000c 0x00000f00 0x000fe400
0x000e7202 0x00000019 0x00000f00 0x000fe400
0x000a7802 0x00016340 0x00000f00 0x000fc600
0x00007944 0x00006fb0 0x03c00000 0x01bfea00
0x00137202 0x0000000c 0x00000f00 0x000fc600
0x00047941 0x00000000 0x03800000 0x000fea00
0x03217210 0x80000015 0x07ffe0ff 0x000fe200
0x000c7308 0x0000001a 0x00001000 0x000ea200
0x140a7220 0x00000023 0x00400000 0x000fe200
0x04ff7355 0x00000000 0x00100000 0x000fe200
0x00047945 0x00000110 0x03800000 0x000fe200
0x05207221 0x00000016 0x00000000 0x008fc400
0x1f0a7220 0x0000000a 0x00400000 0x000fe400
0x000b7306 0x00000021 0x00201400 0x000ee200
0x1a0d7423 0x3f800000 0x0000010c 0x004fc800
0x0c0d7223 0x0000000d 0x0000000c 0x000fe400
0x0a0e7220 0x0000000b 0x00400000 0x008fc800
0x0e0a7223 0x0000000d 0x000000ff 0x000fe400
0x0e007302 0x0000001a 0x00000000 0x000ea400
0x1a0b7223 0x0000000a 0x0000010e 0x000fc800
0x0d0a7223 0x0000000b 0x0000000a 0x000fe200
0x00008947 0x00000050 0x03800000 0x004fea00
0x000b7202 0x0000000e 0x00000f00 0x000fe400
0x000e7202 0x0000001a 0x00000f00 0x000fe400
0x000a7802 0x000164a0 0x00000f00 0x000fc600
0x00007944 0x00006e50 0x03c00000 0x013fea00
0x000a7202 0x0000000c 0x00000f00 0x000fc600
0x00047941 0x00000000 0x03800000 0x000fea00
0x000d7308 0x00000019 0x00001000 0x000ea200
0x050c7220 0x0000001f 0x00400000 0x000fe200
0x04ff7355 0x00000000 0x00100000 0x000fe200
0x1c0b7820 0x40400000 0x00400000 0x000fe200
0x00047945 0x00000110 0x03800000 0x000fe200
0x160c7223 0x00000023 0x0000080c 0x000fc800
0x0b0e7220 0x0000000c 0x00400000 0x000fe400
0x040b7221 0x00000017 0x00000000 0x010fc800
0x0e007302 0x00000019 0x00000000 0x000ee200
0x190f7423 0x3f800000 0x0000010d 0x004fe400
0x0b227221 0x0000000a 0x00000000 0x000fe400
0x0d0f7223 0x0000000f 0x0000000d 0x000fc800
0x0f0c7223 0x0000000e 0x000000ff 0x000fc800
0x190d7223 0x0000000c 0x0000010e 0x000fc800
0x0f147223 0x0000000d 0x0000000c 0x000fe200
0x00008947 0x00000050 0x03800000 0x008fea00
0x000b7202 0x0000000e 0x00000f00 0x000fe400
0x000e7202 0x00000019 0x00000f00 0x000fe400
0x000a7802 0x00016600 0x00000f00 0x000fc600
0x00007944 0x00006cf0 0x03c00000 0x003fea00
0x00147202 0x0000000c 0x00000f00 0x000fc600
0x00047941 0x00000000 0x03800000 0x000fea00
0x15157224 0x00000015 0x078e02ff 0x000fe200
0x000c7308 0x0000001b 0x00001000 0x000ea200
0x04ff7355 0x00000000 0x00100000 0x000fe200
0x00047945 0x00000130 0x03800000 0x000fe200
0x030a7224 0x00000021 0x078e0215 0x000fe400
0x06187221 0x00000018 0x00000000 0x001fc800
0x000b7306 0x0000000a 0x00201400 0x0000e200
0x1b0d7423 0x3f800000 0x0000010c 0x004fe400
0x1e0a7220 0x00000023 0x00400000 0x001fe400
0x0c0d7223 0x0000000d 0x0000000c 0x000fe400
0x1f0a7220 0x0000000a 0x00400000 0x000fc800
0x0a0e7220 0x0000000b 0x00400000 0x008fc800
0x0e0a7223 0x0000000d 0x000000ff 0x000fe400
0x0e007302 0x0000001b 0x00000000 0x000e2400
0x1b0b7223 0x0000000a 0x0000010e 0x000fc800
0x0d0a7223 0x0000000b 0x0000000a 0x000fe200
0x00008947 0x00000050 0x03800000 0x001fea00
0x000b7202 0x0000000e 0x00000f00 0x000fe400
0x000e7202 0x0000001b 0x00000f00 0x000fe400
0x000a7802 0x00016770 0x00000f00 0x000fc600
0x00007944 0x00006b80 0x03c00000 0x002fea00
0x000a7202 0x0000000c 0x00000f00 0x000fc600
0x00047941 0x00000000 0x03800000 0x000fea00
0x03037224 0x00000003 0x078e02ff 0x002fe200
0x00067306 0x00000015 0x00201400 0x000e2200
0x04ff7355 0x00000000 0x00100000 0x000fe200
0x00047945 0x00000140 0x03800000 0x000fe200
0x18187221 0x0000000a 0x00000000 0x000fca00
0x000b7306 0x00000003 0x00201400 0x0002b000
0x000c7308 0x0000001a 0x00001000 0x000ee200
0x05067220 0x00000006 0x00400000 0x001fe400
0x1d037820 0x40c00000 0x00400000 0x002fc400
0x16067223 0x0000000b 0x00000006 0x004fc800
0x03067220 0x00000006 0x00400000 0x000fe400
0x1a057423 0x3f800000 0x0000010c 0x008fc800
0x06007302 0x0000001a 0x00000000 0x000e2200
0x0c0c7223 0x00000005 0x0000000c 0x000fc800
0x0c037223 0x00000006 0x000000ff 0x000fc800
0x1a057223 0x00000003 0x00000106 0x000fc800
0x0c037223 0x00000005 0x00000003 0x000fe200
0x00008947 0x00000050 0x03800000 0x001fea00
0x000b7202 0x00000006 0x00000f00 0x000fe400
0x000e7202 0x0000001a 0x00000f00 0x000fe400
0x000a7802 0x000168f0 0x00000f00 0x000fc600
0x00007944 0x00006a00 0x03c00000 0x000fea00
0x00037202 0x0000000c 0x00000f00 0x000fc600
0x00047941 0x00000000 0x03800000 0x000fea00
0x00067308 0x00000019 0x00001000 0x000e2200
0x04057220 0x0000001f 0x00400000 0x000fe200
0x04ff7355 0x00000000 0x00100000 0x000fe200
0x1c047820 0x40800000 0x00400000 0x000fe200
0x00047945 0x000000f0 0x03800000 0x000fe200
0x17057223 0x00000023 0x00000805 0x000fc400
0x18187221 0x00000003 0x00000000 0x000fe400
0x040b7220 0x00000005 0x00400000 0x000fcc00
0x0b007302 0x00000019 0x00000000 0x000e6200
0x190a7423 0x3f800000 0x00000106 0x001fc800
0x060a7223 0x0000000a 0x00000006 0x000fc800
0x0a047223 0x0000000b 0x000000ff 0x000fc800
0x19057223 0x00000004 0x0000010b 0x000fc800
0x0a057223 0x00000005 0x00000004 0x000fe200
0x00008947 0x00000040 0x03800000 0x002fea00
0x000e7202 0x00000019 0x00000f00 0x000fe400
0x000a7802 0x00016a30 0x00000f00 0x000fc600
0x00007944 0x000068c0 0x03c00000 0x000fea00
0x00057202 0x0000000c 0x00000f00 0x000fc600
0x00047941 0x00000000 0x03800000 0x000fea00
0x00037305 0x00000019 0x0020f100 0x00006200
0x18067221 0x00000005 0x00000000 0x000fe400
0x22047221 0x00000014 0x00000000 0x000fe400
0x00007221 0x00000009 0x00000000 0x000fe400
0x20057221 0x00000013 0x00000000 0x000fc600
0x00037941 0x00000000 0x03800000 0x000fea00
0x0700780c 0x00000017 0x03f04270 0x000fe200
0x03ff7355 0x00000000 0x00100000 0x000fe200
0x03157f89 0x09001f00 0x000e0000 0x00232200
0x00037945 0x00000a70 0x03800000 0x000fe600
0x000a7f89 0x09001f00 0x000e0000 0x0042a800
0x05167f89 0x09001f00 0x000e0000 0x0082e800
0x04177f89 0x09001f00 0x000e0000 0x01032800
0x06187f89 0x09001f00 0x000e0000 0x00122200
0x00000947 0x00000a10 0x03800000 0x000fea00
0x03097210 0x00000015 0x07ffe0ff 0x000fe200
0x001f7306 0x00000015 0x00201400 0x000f6200
0x001c7221 0x0000000a 0x00000100 0x004fe200
0x04ff7355 0x00000000 0x00100000 0x000fe200
0x00047945 0x00000150 0x03800000 0x000fe400
0x1c1d7220 0x0000001c 0x00400000 0x000fc600
0x00197306 0x00000009 0x00201400 0x000ea200
0x1c147220 0x0000001d 0x00400000 0x000fc800
0x1c1e7220 0x00000014 0x00400000 0x040fe400
0x1c0c7220 0x0000001f 0x00400000 0x020fe200
0x00097308 0x00000019 0x00001000 0x004ea200
0x191a7220 0x00000019 0x00400000 0x000fc800
0x191b7220 0x0000001a 0x00400000 0x000fc600
0x0c007302 0x00000019 0x00000000 0x000f6200
0x190a7423 0x3f800000 0x00000109 0x004fc800
0x090a7223 0x0000000a 0x00000009 0x000fc800
0x0c097223 0x0000000a 0x000000ff 0x000fc800
0x190b7223 0x00000009 0x0000010c 0x000fc800
0x0a097223 0x0000000b 0x00000009 0x000fe200
0x00008947 0x00000050 0x03800000 0x020fea00
0x000b7202 0x0000000c 0x00000f00 0x000fe400
0x000e7202 0x00000019 0x00000f00 0x000fe400
0x000a7802 0x00016cc0 0x00000f00 0x000fc600
0x00007944 0x00006630 0x03c00000 0x01bfea00
0x00097202 0x0000000c 0x00000f00 0x000fc600
0x00047941 0x00000000 0x03800000 0x000fea00
0x00237306 0x00000003 0x00201400 0x000ea200
0x04ff7355 0x00000000 0x00100000 0x000fe200
0x00047945 0x00000100 0x03800000 0x000fec00
0x000b7308 0x00000019 0x00001000 0x000f6200
0x1d0a7220 0x00000023 0x00400000 0x004fc800
0x1f0c7220 0x0000000a 0x00400000 0x000fe400
0x190d7423 0x3f800000 0x0000010b 0x020fc800
0x0c007302 0x00000019 0x00000000 0x000ea200
0x0b0d7223 0x0000000d 0x0000000b 0x000fc800
0x0d0a7223 0x0000000c 0x000000ff 0x000fc800
0x190b7223 0x0000000a 0x0000010c 0x000fc800
0x0d137223 0x0000000b 0x0000000a 0x000fe200
0x00008947 0x00000050 0x03800000 0x004fea00
0x000b7202 0x0000000c 0x00000f00 0x000fe400
0x000e7202 0x00000019 0x00000f00 0x000fe400
0x000a7802 0x00016df0 0x00000f00 0x000fc600
0x00007944 0x00006500 0x03c00000 0x01bfea00
0x00137202 0x0000000c 0x00000f00 0x000fc600
0x00047941 0x00000000 0x03800000 0x000fea00
0x03217210 0x80000015 0x07ffe0ff 0x000fe200
0x000c7308 0x0000001a 0x00001000 0x000ea200
0x140a7220 0x00000023 0x00400000 0x000fe200
0x04ff7355 0x00000000 0x00100000 0x000fe200
0x00047945 0x00000110 0x03800000 0x000fe200
0x05207221 0x00000016 0x00000000 0x008fc400
0x1f0a7220 0x0000000a 0x00400000 0x000fe400
0x000b7306 0x00000021 0x00201400 0x000ee200
0x1a0d7423 0x3f800000 0x0000010c 0x004fc800
0x0c0d7223 0x0000000d 0x0000000c 0x000fe400
0x0a0e7220 0x0000000b 0x00400000 0x008fc800
0x0e0a7223 0x0000000d 0x000000ff 0x000fe400
0x0e007302 0x0000001a 0x00000000 0x000ea400
0x1a0b7223 0x0000000a 0x0000010e 0x000fc800
0x0d0a7223 0x0000000b 0x0000000a 0x000fe200
0x00008947 0x00000050 0x03800000 0x004fea00
0x000b7202 0x0000000e 0x00000f00 0x000fe400
0x000e7202 0x0000001a 0x00000f00 0x000fe400
0x000a7802 0x00016f50 0x00000f00 0x000fc600
0x00007944 0x000063a0 0x03c00000 0x013fea00
0x000a7202 0x0000000c 0x00000f00 0x000fc600
0x00047941 0x00000000 0x03800000 0x000fea00
0x000d7308 0x00000019 0x00001000 0x000ea200
0x050c7220 0x0000001f 0x00400000 0x000fe200
0x04ff7355 0x00000000 0x00100000 0x000fe200
0x1c0b7820 0x40400000 0x00400000 0x000fe200
0x00047945 0x00000110 0x03800000 0x000fe200
0x160c7223 0x00000023 0x0000080c 0x000fc800
0x0b0e7220 0x0000000c 0x00400000 0x000fe400
0x040b7221 0x00000017 0x00000000 0x010fc800
0x0e007302 0x00000019 0x00000000 0x000ee200
0x190f7423 0x3f800000 0x0000010d 0x004fe400
0x0b227221 0x0000000a 0x00000000 0x000fe400
0x0d0f7223 0x0000000f 0x0000000d 0x000fc800
0x0f0c7223 0x0000000e 0x000000ff 0x000fc800
0x190d7223 0x0000000c 0x0000010e 0x000fc800
0x0f147223 0x0000000d 0x0000000c 0x000fe200
0x00008947 0x00000050 0x03800000 0x008fea00
0x000b7202 0x0000000e 0x00000f00 0x000fe400
0x000e7202 0x00000019 0x00000f00 0x000fe400
0x000a7802 0x000170b0 0x00000f00 0x000fc600
0x00007944 0x00006240 0x03c00000 0x003fea00
0x00147202 0x0000000c 0x00000f00 0x000fc600
0x00047941 0x00000000 0x03800000 0x000fea00
0x15157224 0x00000015 0x078e02ff 0x000fe200
0x000c7308 0x0000001b 0x00001000 0x000ea200
0x04ff7355 0x00000000 0x00100000 0x000fe200
0x00047945 0x00000130 0x03800000 0x000fe200
0x030a7224 0x00000021 0x078e0215 0x000fe400
0x06187221 0x00000018 0x00000000 0x001fc800
0x000b7306 0x0000000a 0x00201400 0x0000e200
0x1b0d7423 0x3f800000 0x0000010c 0x004fe400
0x1e0a7220 0x00000023 0x00400000 0x001fe400
0x0c0d7223 0x0000000d 0x0000000c 0x000fe400
0x1f0a7220 0x0000000a 0x00400000 0x000fc800
0x0a0e7220 0x0000000b 0x00400000 0x008fc800
0x0e0a7223 0x0000000d 0x000000ff 0x000fe400
0x0e007302 0x0000001b 0x00000000 0x000e2400
0x1b0b7223 0x0000000a 0x0000010e 0x000fc800
0x0d0a7223 0x0000000b 0x0000000a 0x000fe200
0x00008947 0x00000050 0x03800000 0x001fea00
0x000b7202 0x0000000e 0x00000f00 0x000fe400
0x000e7202 0x0000001b 0x00000f00 0x000fe400
0x000a7802 0x00017220 0x00000f00 0x000fc600
0x00007944 0x000060d0 0x03c00000 0x002fea00
0x000a7202 0x0000000c 0x00000f00 0x000fc600
0x00047941 0x00000000 0x03800000 0x000fea00
0x03037224 0x00000003 0x078e02ff 0x002fe200
0x00067306 0x00000015 0x00201400 0x000e2200
0x04ff7355 0x00000000 0x00100000 0x000fe200
0x00047945 0x00000140 0x03800000 0x000fe200
0x18187221 0x0000000a 0x00000000 0x000fca00
0x000b7306 0x00000003 0x00201400 0x0002b000
0x000c7308 0x0000001a 0x00001000 0x000ee200
0x05067220 0x00000006 0x00400000 0x001fe400
0x1d037820 0x40c00000 0x00400000 0x002fc400
0x16067223 0x0000000b 0x00000006 0x004fc800
0x03067220 0x00000006 0x00400000 0x000fe400
0x1a057423 0x3f800000 0x0000010c 0x008fc800
0x06007302 0x0000001a 0x00000000 0x000e2200
0x0c0c7223 0x00000005 0x0000000c 0x000fc800
0x0c037223 0x00000006 0x000000ff 0x000fc800
0x1a057223 0x00000003 0x00000106 0x000fc800
0x0c037223 0x00000005 0x00000003 0x000fe200
0x00008947 0x00000050 0x03800000 0x001fea00
0x000b7202 0x00000006 0x00000f00 0x000fe400
0x000e7202 0x0000001a 0x00000f00 0x000fe400
0x000a7802 0x000173a0 0x00000f00 0x000fc600
0x00007944 0x00005f50 0x03c00000 0x000fea00
0x00037202 0x0000000c 0x00000f00 0x000fc600
0x00047941 0x00000000 0x03800000 0x000fea00
0x00067308 0x00000019 0x00001000 0x000e2200
0x04057220 0x0000001f 0x00400000 0x000fe200
0x04ff7355 0x00000000 0x00100000 0x000fe200
0x1c047820 0x40800000 0x00400000 0x000fe200
0x00047945 0x000000f0 0x03800000 0x000fe200
0x17057223 0x00000023 0x00000805 0x000fc400
0x18187221 0x00000003 0x00000000 0x000fe400
0x040b7220 0x00000005 0x00400000 0x000fcc00
0x0b007302 0x00000019 0x00000000 0x000e6200
0x190a7423 0x3f800000 0x00000106 0x001fc800
0x060a7223 0x0000000a 0x00000006 0x000fc800
0x0a047223 0x0000000b 0x000000ff 0x000fc800
0x19057223 0x00000004 0x0000010b 0x000fc800
0x0a057223 0x00000005 0x00000004 0x000fe200
0x00008947 0x00000040 0x03800000 0x002fea00
0x000e7202 0x00000019 0x00000f00 0x000fe400
0x000a7802 0x000174e0 0x00000f00 0x000fc600
0x00007944 0x00005e10 0x03c00000 0x000fea00
0x00057202 0x0000000c 0x00000f00 0x000fc600
0x00047941 0x00000000 0x03800000 0x000fea00
0x00037305 0x00000019 0x0020f100 0x00006200
0x18067221 0x00000005 0x00000000 0x000fe400
0x22047221 0x00000014 0x00000000 0x000fe400
0x00007221 0x00000009 0x00000000 0x000fe400
0x20057221 0x00000013 0x00000000 0x000fc600
0x00037941 0x00000000 0x03800000 0x000fea00
0x0700780c 0x0000000f 0x03f04270 0x000fe200
0x03ff7355 0x00000000 0x00100000 0x000fe200
0x03157f89 0x0a001f00 0x000e0000 0x00232200
0x00037945 0x00000a70 0x03800000 0x000fe600
0x000a7f89 0x0a001f00 0x000e0000 0x0042a800
0x05167f89 0x0a001f00 0x000e0000 0x0082e800
0x04177f89 0x0a001f00 0x000e0000 0x01032800
0x06187f89 0x0a001f00 0x000e0000 0x00122200
0x00000947 0x00000a10 0x03800000 0x000fea00
0x03097210 0x00000015 0x07ffe0ff 0x000fe200
0x001f7306 0x00000015 0x00201400 0x000f6200
0x001c7221 0x0000000a 0x00000100 0x004fe200
0x04ff7355 0x00000000 0x00100000 0x000fe200
0x00047945 0x00000150 0x03800000 0x000fe400
0x1c1d7220 0x0000001c 0x00400000 0x000fc600
0x00197306 0x00000009 0x00201400 0x000ea200
0x1c147220 0x0000001d 0x00400000 0x000fc800
0x1c1e7220 0x00000014 0x00400000 0x040fe400
0x1c0c7220 0x0000001f 0x00400000 0x020fe200
0x00097308 0x00000019 0x00001000 0x004ea200
0x191a7220 0x00000019 0x00400000 0x000fc800
0x191b7220 0x0000001a 0x00400000 0x000fc600
0x0c007302 0x00000019 0x00000000 0x000f6200
0x190a7423 0x3f800000 0x00000109 0x004fc800
0x090a7223 0x0000000a 0x00000009 0x000fc800
0x0c097223 0x0000000a 0x000000ff 0x000fc800
0x190b7223 0x00000009 0x0000010c 0x000fc800
0x0a097223 0x0000000b 0x00000009 0x000fe200
0x00008947 0x00000050 0x03800000 0x020fea00
0x000b7202 0x0000000c 0x00000f00 0x000fe400
0x000e7202 0x00000019 0x00000f00 0x000fe400
0x000a7802 0x00017770 0x00000f00 0x000fc600
0x00007944 0x00005b80 0x03c00000 0x01bfea00
0x00097202 0x0000000c 0x00000f00 0x000fc600
0x00047941 0x00000000 0x03800000 0x000fea00
0x00237306 0x00000003 0x00201400 0x000ea200
0x04ff7355 0x00000000 0x00100000 0x000fe200
0x00047945 0x00000100 0x03800000 0x000fec00
0x000b7308 0x00000019 0x00001000 0x000f6200
0x1d0a7220 0x00000023 0x00400000 0x004fc800
0x1f0c7220 0x0000000a 0x00400000 0x000fe400
0x190d7423 0x3f800000 0x0000010b 0x020fc800
0x0c007302 0x00000019 0x00000000 0x000ea200
0x0b0d7223 0x0000000d 0x0000000b 0x000fc800
0x0d0a7223 0x0000000c 0x000000ff 0x000fc800
0x190b7223 0x0000000a 0x0000010c 0x000fc800
0x0d137223 0x0000000b 0x0000000a 0x000fe200
0x00008947 0x00000050 0x03800000 0x004fea00
0x000b7202 0x0000000c 0x00000f00 0x000fe400
0x000e7202 0x00000019 0x00000f00 0x000fe400
0x000a7802 0x000178a0 0x00000f00 0x000fc600
0x00007944 0x00005a50 0x03c00000 0x01bfea00
0x00137202 0x0000000c 0x00000f00 0x000fc600
0x00047941 0x00000000 0x03800000 0x000fea00
0x03217210 0x80000015 0x07ffe0ff 0x000fe200
0x000c7308 0x0000001a 0x00001000 0x000ea200
0x140a7220 0x00000023 0x00400000 0x000fe200
0x04ff7355 0x00000000 0x00100000 0x000fe200
0x00047945 0x00000110 0x03800000 0x000fe200
0x05207221 0x00000016 0x00000000 0x008fc400
0x1f0a7220 0x0000000a 0x00400000 0x000fe400
0x000b7306 0x00000021 0x00201400 0x000ee200
0x1a0d7423 0x3f800000 0x0000010c 0x004fc800
0x0c0d7223 0x0000000d 0x0000000c 0x000fe400
0x0a0e7220 0x0000000b 0x00400000 0x008fc800
0x0e0a7223 0x0000000d 0x000000ff 0x000fe400
0x0e007302 0x0000001a 0x00000000 0x000ea400
0x1a0b7223 0x0000000a 0x0000010e 0x000fc800
0x0d0a7223 0x0000000b 0x0000000a 0x000fe200
0x00008947 0x00000050 0x03800000 0x004fea00
0x000b7202 0x0000000e 0x00000f00 0x000fe400
0x000e7202 0x0000001a 0x00000f00 0x000fe400
0x000a7802 0x00017a00 0x00000f00 0x000fc600
0x00007944 0x000058f0 0x03c00000 0x013fea00
0x000a7202 0x0000000c 0x00000f00 0x000fc600
0x00047941 0x00000000 0x03800000 0x000fea00
0x000d7308 0x00000019 0x00001000 0x000ea200
0x050c7220 0x0000001f 0x00400000 0x000fe200
0x04ff7355 0x00000000 0x00100000 0x000fe200
0x1c0b7820 0x40400000 0x00400000 0x000fe200
0x00047945 0x00000110 0x03800000 0x000fe200
0x160c7223 0x00000023 0x0000080c 0x000fc800
0x0b0e7220 0x0000000c 0x00400000 0x000fe400
0x040b7221 0x00000017 0x00000000 0x010fc800
0x0e007302 0x00000019 0x00000000 0x000ee200
0x190f7423 0x3f800000 0x0000010d 0x004fe400
0x0b227221 0x0000000a 0x00000000 0x000fe400
0x0d0f7223 0x0000000f 0x0000000d 0x000fc800
0x0f0c7223 0x0000000e 0x000000ff 0x000fc800
0x190d7223 0x0000000c 0x0000010e 0x000fc800
0x0f147223 0x0000000d 0x0000000c 0x000fe200
0x00008947 0x00000050 0x03800000 0x008fea00
0x000b7202 0x0000000e 0x00000f00 0x000fe400
0x000e7202 0x00000019 0x00000f00 0x000fe400
0x000a7802 0x00017b60 0x00000f00 0x000fc600
0x00007944 0x00005790 0x03c00000 0x003fea00
0x00147202 0x0000000c 0x00000f00 0x000fc600
0x00047941 0x00000000 0x03800000 0x000fea00
0x15157224 0x00000015 0x078e02ff 0x000fe200
0x000c7308 0x0000001b 0x00001000 0x000ea200
0x04ff7355 0x00000000 0x00100000 0x000fe200
0x00047945 0x00000130 0x03800000 0x000fe200
0x030a7224 0x00000021 0x078e0215 0x000fe400
0x06187221 0x00000018 0x00000000 0x001fc800
0x000b7306 0x0000000a 0x00201400 0x0000e200
0x1b0d7423 0x3f800000 0x0000010c 0x004fe400
0x1e0a7220 0x00000023 0x00400000 0x001fe400
0x0c0d7223 0x0000000d 0x0000000c 0x000fe400
0x1f0a7220 0x0000000a 0x00400000 0x000fc800
0x0a0e7220 0x0000000b 0x00400000 0x008fc800
0x0e0a7223 0x0000000d 0x000000ff 0x000fe400
0x0e007302 0x0000001b 0x00000000 0x000e2400
0x1b0b7223 0x0000000a 0x0000010e 0x000fc800
0x0d0a7223 0x0000000b 0x0000000a 0x000fe200
0x00008947 0x00000050 0x03800000 0x001fea00
0x000b7202 0x0000000e 0x00000f00 0x000fe400
0x000e7202 0x0000001b 0x00000f00 0x000fe400
0x000a7802 0x00017cd0 0x00000f00 0x000fc600
0x00007944 0x00005620 0x03c00000 0x002fea00
0x000a7202 0x0000000c 0x00000f00 0x000fc600
0x00047941 0x00000000 0x03800000 0x000fea00
0x03037224 0x00000003 0x078e02ff 0x002fe200
0x00067306 0x00000015 0x00201400 0x000e2200
0x04ff7355 0x00000000 0x00100000 0x000fe200
0x00047945 0x00000140 0x03800000 0x000fe200
0x18187221 0x0000000a 0x00000000 0x000fca00
0x000b7306 0x00000003 0x00201400 0x0002b000
0x000c7308 0x0000001a 0x00001000 0x000ee200
0x05067220 0x00000006 0x00400000 0x001fe400
0x1d037820 0x40c00000 0x00400000 0x002fc400
0x16067223 0x0000000b 0x00000006 0x004fc800
0x03067220 0x00000006 0x00400000 0x000fe400
0x1a057423 0x3f800000 0x0000010c 0x008fc800
0x06007302 0x0000001a 0x00000000 0x000e2200
0x0c0c7223 0x00000005 0x0000000c 0x000fc800
0x0c037223 0x00000006 0x000000ff 0x000fc800
0x1a057223 0x00000003 0x00000106 0x000fc800
0x0c037223 0x00000005 0x00000003 0x000fe200
0x00008947 0x00000050 0x03800000 0x001fea00
0x000b7202 0x00000006 0x00000f00 0x000fe400
0x000e7202 0x0000001a 0x00000f00 0x000fe400
0x000a7802 0x00017e50 0x00000f00 0x000fc600
0x00007944 0x000054a0 0x03c00000 0x000fea00
0x00037202 0x0000000c 0x00000f00 0x000fc600
0x00047941 0x00000000 0x03800000 0x000fea00
0x00067308 0x00000019 0x00001000 0x000e2200
0x04057220 0x0000001f 0x00400000 0x000fe200
0x04ff7355 0x00000000 0x00100000 0x000fe200
0x1c047820 0x40800000 0x00400000 0x000fe200
0x00047945 0x000000f0 0x03800000 0x000fe200
0x17057223 0x00000023 0x00000805 0x000fc400
0x18187221 0x00000003 0x00000000 0x000fe400
0x040b7220 0x00000005 0x00400000 0x000fcc00
0x0b007302 0x00000019 0x00000000 0x000e6200
0x190a7423 0x3f800000 0x00000106 0x001fc800
0x060a7223 0x0000000a 0x00000006 0x000fc800
0x0a047223 0x0000000b 0x000000ff 0x000fc800
0x19057223 0x00000004 0x0000010b 0x000fc800
0x0a057223 0x00000005 0x00000004 0x000fe200
0x00008947 0x00000040 0x03800000 0x002fea00
0x000e7202 0x00000019 0x00000f00 0x000fe400
0x000a7802 0x00017f90 0x00000f00 0x000fc600
0x00007944 0x00005360 0x03c00000 0x000fea00
0x00057202 0x0000000c 0x00000f00 0x000fc600
0x00047941 0x00000000 0x03800000 0x000fea00
0x00037305 0x00000019 0x0020f100 0x00006200
0x18067221 0x00000005 0x00000000 0x000fe400
0x22047221 0x00000014 0x00000000 0x000fe400
0x00007221 0x00000009 0x00000000 0x000fe400
0x20057221 0x00000013 0x00000000 0x000fc600
0x00037941 0x00000000 0x03800000 0x000fea00
0x0700720c 0x000000ff 0x03f05270 0x000fd800
0x08008388 0x00000803 0x00000800 0x002fe800
0x08008388 0x00000c00 0x00000800 0x000fe800
0x08008388 0x00001005 0x00000800 0x000fe800
0x08008388 0x00001404 0x00000800 0x000fe800
0x08008388 0x00001806 0x00000800 0x000fe800
0x00007b1d 0x00000000 0x00000000 0x000fea00
0x0200720c 0x000000ff 0x03f05270 0x000fd800
0x00000947 0x000046d0 0x03800000 0x000fea00
0xff027984 0x00001c00 0x00001800 0x000e6200
0x03ff7355 0x00000000 0x00100000 0x000fe200
0x00037945 0x00000190 0x03800000 0x000fe400
0xff087984 0x00002000 0x00001800 0x000f6200
0x03077210 0x00000002 0x07ffe0ff 0x002fe200
0x00177221 0x00000008 0x00000100 0x030fca00
0x00147306 0x00000007 0x00201400 0x000e6200
0x17187220 0x00000017 0x00400000 0x001fc800
0x17137220 0x00000018 0x00400000 0x000fc600
0x00077306 0x00000002 0x00201400 0x000e2200
0x17197220 0x00000013 0x00400000 0x000fce00
0x00097308 0x00000014 0x00001000 0x002e6200
0x14157220 0x00000014 0x00400000 0x000fc800
0x14167220 0x00000015 0x00400000 0x048fe400
0x170b7220 0x00000007 0x00400000 0x001fe200
0x001a7305 0x00000014 0x0020f100 0x000fe200
0x14087423 0x3f800000 0x00000109 0x002fce00
0x0b007302 0x00000014 0x00000000 0x000e2200
0x09087223 0x00000008 0x00000009 0x000fc800
0x0b097223 0x00000008 0x000000ff 0x000fc800
0x140a7223 0x00000009 0x0000010b 0x004fc800
0x08087223 0x0000000a 0x00000009 0x000fe200
0x00008947 0x00000040 0x03800000 0x001fea00
0x000e7202 0x00000014 0x00000f00 0x000fe400
0x000a7802 0x00018240 0x00000f00 0x000fc600
0x00007944 0x000050b0 0x03c00000 0x000fea00
0x00087202 0x0000000c 0x00000f00 0x000fc600
0x00037941 0x00000000 0x03800000 0x000fea00
0x001f7306 0x00000003 0x00201400 0x000e2200
0xff097984 0x00002400 0x00001800 0x000e6200
0x03ff7355 0x00000000 0x00100000 0x000fe200
0x00037945 0x00000120 0x03800000 0x000fe200
0x001b7221 0x00000008 0x00000000 0x000fc800
0x000b7308 0x00000014 0x00001000 0x000ea200
0x180a7220 0x0000001f 0x00400000 0x001fc800
0x070c7220 0x0000000a 0x00400000 0x000fe400
0x140d7423 0x3f800000 0x0000010b 0x004fc800
0x0c007302 0x00000014 0x00000000 0x000e2200
0x0b0d7223 0x0000000d 0x0000000b 0x000fc800
0x0d0a7223 0x0000000c 0x000000ff 0x000fc800
0x140b7223 0x0000000a 0x0000010c 0x000fc800
0x0d0a7223 0x0000000b 0x0000000a 0x000fe400
0x051c7221 0x00000009 0x00000000 0x002fe200
0x00008947 0x00000050 0x03800000 0x001fea00
0x000b7202 0x0000000c 0x00000f00 0x000fe400
0x000e7202 0x00000014 0x00000f00 0x000fe400
0x000a7802 0x000183a0 0x00000f00 0x000fc600
0x00007944 0x00004f50 0x03c00000 0x000fea00
0x000a7202 0x0000000c 0x00000f00 0x000fc600
0x00037941 0x00000000 0x03800000 0x000fea00
0x031d7210 0x80000002 0x07ffe0ff 0x000fe200
0xff007984 0x00002800 0x00001800 0x000e2200
0x000c7308 0x00000015 0x00001000 0x000e6200
0x13087220 0x0000001f 0x00400000 0x000fe200
0x03ff7355 0x00000000 0x00100000 0x000fe200
0x00037945 0x00000120 0x03800000 0x000fe200
0x1c1c7221 0x0000000a 0x00000000 0x000fc400
0x07087220 0x00000008 0x00400000 0x000fe400
0x000b7306 0x0000001d 0x00201400 0x000ea200
0x150d7423 0x3f800000 0x0000010c 0x002fc800
0x0c0d7223 0x0000000d 0x0000000c 0x000fe400
0x080e7220 0x0000000b 0x00400000 0x004fc800
0x0e087223 0x0000000d 0x000000ff 0x000fe400
0x0e007302 0x00000015 0x00000000 0x000e6400
0x150b7223 0x00000008 0x0000010e 0x000fc800
0x0d087223 0x0000000b 0x00000008 0x000fe400
0x04137221 0x00000000 0x00000000 0x001fe200
0x00008947 0x00000050 0x03800000 0x002fea00
0x000b7202 0x0000000e 0x00000f00 0x000fe400
0x000e7202 0x00000015 0x00000f00 0x000fe400
0x000a7802 0x00018520 0x00000f00 0x000fc600
0x00007944 0x00004dd0 0x03c00000 0x000fea00
0x00087202 0x0000000c 0x00000f00 0x000fc600
0x00037941 0x00000000 0x03800000 0x000fea00
0x000d7308 0x00000014 0x00001000 0x000e2200
0x050b7220 0x00000007 0x00400000 0x000fe200
0x03ff7355 0x00000000 0x00100000 0x000fe200
0x170a7820 0x40400000 0x00400000 0x000fe200
0x00037945 0x00000100 0x03800000 0x000fe200
0x090b7223 0x0000001f 0x0000080b 0x000fc400
0x131e7221 0x00000008 0x00000000 0x000fe400
0x0a0c7220 0x0000000b 0x00400000 0x000fcc00
0x0c007302 0x00000014 0x00000000 0x000e6200
0x140e7423 0x3f800000 0x0000010d 0x001fc800
0x0d0e7223 0x0000000e 0x0000000d 0x000fc800
0x0e0a7223 0x0000000c 0x000000ff 0x000fc800
0x140b7223 0x0000000a 0x0000010c 0x000fc800
0x0e0a7223 0x0000000b 0x0000000a 0x000fe200
0x00008947 0x00000050 0x03800000 0x002fea00
0x000b7202 0x0000000c 0x00000f00 0x000fe400
0x000e7202 0x00000014 0x00000f00 0x000fe400
0x000a7802 0x00018670 0x00000f00 0x000fc600
0x00007944 0x00004c80 0x03c00000 0x000fea00
0x000a7202 0x0000000c 0x00000f00 0x000fc600
0x00037941 0x00000000 0x03800000 0x000fea00
0x02137224 0x00000002 0x078e02ff 0x000fe200
0x000c7308 0x00000016 0x00001000 0x000e2200
0xff027984 0x00002c00 0x00001800 0x000e6200
0x03ff7355 0x00000000 0x00100000 0x000fe200
0x03087224 0x0000001d 0x078e0213 0x000fe200
0x00037945 0x00000130 0x03800000 0x000fe200
0x1e1e7221 0x0000000a 0x00000000 0x000fc800
0x000b7306 0x00000008 0x00201400 0x0004e200
0x160d7423 0x3f800000 0x0000010c 0x001fe400
0x19087220 0x0000001f 0x00400000 0x004fe400
0x0c0d7223 0x0000000d 0x0000000c 0x000fe400
0x07087220 0x00000008 0x00400000 0x000fc800
0x080e7220 0x0000000b 0x00400000 0x008fc800
0x0e087223 0x0000000d 0x000000ff 0x000fe400
0x0e007302 0x00000016 0x00000000 0x000e2400
0x160b7223 0x00000008 0x0000010e 0x000fc800
0x0d087223 0x0000000b 0x00000008 0x000fe400
0x06067221 0x00000002 0x00000000 0x002fe200
0x00008947 0x00000050 0x03800000 0x001fea00
0x000b7202 0x0000000e 0x00000f00 0x000fe400
0x000e7202 0x00000016 0x00000f00 0x000fe400
0x000a7802 0x00018800 0x00000f00 0x000fc600
0x00007944 0x00004af0 0x03c00000 0x000fea00
0x00087202 0x0000000c 0x00000f00 0x000fc600
0x00037941 0x00000000 0x03800000 0x000fea00
0x03037224 0x00000003 0x078e02ff 0x000fe200
0x00137306 0x00000013 0x00201400 0x000e2200
0x18027820 0x40c00000 0x00400000 0x000fe200
0x03ff7355 0x00000000 0x00100000 0x000fe200
0x00037945 0x00000130 0x03800000 0x000fe200
0x06067221 0x00000008 0x00000000 0x000fc800
0x00037306 0x00000003 0x00201400 0x000e7000
0x000a7308 0x00000015 0x00001000 0x000ea200
0x05137220 0x00000013 0x00400000 0x001fc800
0x09137223 0x00000003 0x00000013 0x002fc800
0x02137220 0x00000013 0x00400000 0x000fe400
0x15037423 0x3f800000 0x0000010a 0x004fc800
0x13007302 0x00000015 0x00000000 0x000e2200
0x0a0a7223 0x00000003 0x0000000a 0x000fc800
0x0a027223 0x00000013 0x000000ff 0x000fc800
0x15037223 0x00000002 0x00000113 0x000fc800
0x0a027223 0x00000003 0x00000002 0x000fe200
0x00008947 0x00000050 0x03800000 0x001fea00
0x000b7202 0x00000013 0x00000f00 0x000fe400
0x000e7202 0x00000015 0x00000f00 0x000fe400
0x000a7802 0x00018980 0x00000f00 0x000fc600
0x00007944 0x00004970 0x03c00000 0x000fea00
0x00027202 0x0000000c 0x00000f00 0x000fc600
0x00037941 0x00000000 0x03800000 0x000fea00
0x00057308 0x00000014 0x00001000 0x000e2200
0x04047220 0x00000007 0x00400000 0x000fe200
0x03ff7355 0x00000000 0x00100000 0x000fe200
0x17037820 0x40800000 0x00400000 0x000fe200
0x00037945 0x00000100 0x03800000 0x000fe200
0x1f047223 0x00000000 0x00000804 0x000fc400
0x06077221 0x00000002 0x00000000 0x000fe400
0x03047220 0x00000004 0x00400000 0x000fcc00
0x04007302 0x00000014 0x00000000 0x000e6200
0x14007423 0x3f800000 0x00000105 0x001fc800
0x05057223 0x00000000 0x00000005 0x000fc800
0x05007223 0x00000004 0x000000ff 0x000fc800
0x14037223 0x00000000 0x00000104 0x000fc800
0x05007223 0x00000003 0x00000000 0x000fe200
0x00008947 0x00000050 0x03800000 0x002fea00
0x000b7202 0x00000004 0x00000f00 0x000fe400
0x000e7202 0x00000014 0x00000f00 0x000fe400
0x000a7802 0x00018ad0 0x00000f00 0x000fc600
0x00007944 0x00004820 0x03c00000 0x000fea00
0x00007202 0x0000000c 0x00000f00 0x000fc600
0x00037941 0x00000000 0x03800000 0x000fea00
0xff027984 0x00003000 0x00001a00 0x000e2200
0x03ff7355 0x00000000 0x00100000 0x000fe200
0x00037945 0x00000190 0x03800000 0x000fe200
0x07137221 0x00000000 0x00000000 0x000fe200
0x1a047210 0x00000002 0x07ffe0ff 0x001fe200
0x1b177221 0x00000003 0x00000100 0x000fc800
0x17187220 0x00000017 0x00400000 0x040fe200
0x00147306 0x00000004 0x00201400 0x000e2600
0x17097220 0x00000018 0x00400000 0x000fc800
0x17197220 0x00000009 0x00400000 0x000fe200
0x00047306 0x00000002 0x00201400 0x000e7000
0x00057308 0x00000014 0x00001000 0x001e2200
0x14157220 0x00000014 0x00400000 0x000fc800
0x14167220 0x00000015 0x00400000 0x040fe400
0x170b7220 0x00000004 0x00400000 0x002fe200
0x001d7305 0x00000014 0x0020f100 0x000fe200
0x14037423 0x3f800000 0x00000105 0x001fce00
0x0b007302 0x00000014 0x00000000 0x000e2200
0x05037223 0x00000003 0x00000005 0x000fc800
0x0b057223 0x00000003 0x000000ff 0x000fc800
0x14067223 0x00000005 0x0000010b 0x000fc800
0x03037223 0x00000006 0x00000005 0x000fe200
0x00008947 0x00000040 0x03800000 0x001fea00
0x000e7202 0x00000014 0x00000f00 0x000fe400
0x000a7802 0x00018c90 0x00000f00 0x000fc600
0x00007944 0x00004660 0x03c00000 0x000fea00
0x00037202 0x0000000c 0x00000f00 0x000fc600
0x00037941 0x00000000 0x03800000 0x000fea00
0x00207306 0x0000001a 0x00201400 0x000e2200
0xff007984 0x00003800 0x00001800 0x000e6200
0x03ff7355 0x00000000 0x00100000 0x000fe200
0x00037945 0x00000110 0x03800000 0x000fe200
0x1b1b7221 0x00000003 0x00000000 0x000fc800
0x00067308 0x00000014 0x00001000 0x000ea200
0x18057220 0x00000020 0x00400000 0x001fc800
0x040b7220 0x00000005 0x00400000 0x000fe400
0x14077423 0x3f800000 0x00000106 0x004fc800
0x0b007302 0x00000014 0x00000000 0x000e2200
0x06077223 0x00000007 0x00000006 0x000fc800
0x07057223 0x0000000b 0x000000ff 0x000fc800
0x14067223 0x00000005 0x0000010b 0x000fc800
0x07057223 0x00000006 0x00000005 0x000fe400
0x1c1f7221 0x00000000 0x00000000 0x002fe200
0x00008947 0x00000040 0x03800000 0x001fea00
0x000e7202 0x00000014 0x00000f00 0x000fe400
0x000a7802 0x00018de0 0x00000f00 0x000fc600
0x00007944 0x00004510 0x03c00000 0x000fea00
0x00057202 0x0000000c 0x00000f00 0x000fc600
0x00037941 0x00000000 0x03800000 0x000fea00
0x1a217210 0x80000002 0x07ffe0ff 0x000fe200
0xff037984 0x00003c00 0x00001800 0x000e2200
0x00087308 0x00000015 0x00001000 0x000e6200
0x09067220 0x00000020 0x00400000 0x000fe200
0x03ff7355 0x00000000 0x00100000 0x000fe200
0x00037945 0x00000110 0x03800000 0x000fe200
0x1f1f7221 0x00000005 0x00000000 0x000fc400
0x04067220 0x00000006 0x00400000 0x000fe400
0x00077306 0x00000021 0x00201400 0x000ea200
0x15097423 0x3f800000 0x00000108 0x002fc800
0x08097223 0x00000009 0x00000008 0x000fe400
0x060b7220 0x00000007 0x00400000 0x004fc800
0x0b067223 0x00000009 0x000000ff 0x000fe400
0x0b007302 0x00000015 0x00000000 0x000e6400
0x15077223 0x00000006 0x0000010b 0x000fc800
0x09067223 0x00000007 0x00000006 0x000fe400
0x1e087221 0x00000003 0x00000000 0x001fe200
0x00008947 0x00000040 0x03800000 0x002fea00
0x000e7202 0x00000015 0x00000f00 0x000fe400
0x000a7802 0x00018f50 0x00000f00 0x000fc600
0x00007944 0x000043a0 0x03c00000 0x000fea00
0x00067202 0x0000000c 0x00000f00 0x000fc600
0x00037941 0x00000000 0x03800000 0x000fea00
0x00097308 0x00000014 0x00001000 0x000e2200
0x1c077220 0x00000004 0x00400000 0x000fe200
0x03ff7355 0x00000000 0x00100000 0x000fe200
0x17057820 0x40400000 0x00400000 0x000fe200
0x00037945 0x000000f0 0x03800000 0x000fe200
0x00077223 0x00000020 0x00000807 0x000fc400
0x08227221 0x00000006 0x00000000 0x000fe400
0x050b7220 0x00000007 0x00400000 0x000fcc00
0x0b007302 0x00000014 0x00000000 0x000e6200
0x140a7423 0x3f800000 0x00000109 0x001fc800
0x090a7223 0x0000000a 0x00000009 0x000fc800
0x0a057223 0x0000000b 0x000000ff 0x000fc800
0x14077223 0x00000005 0x0000010b 0x000fc800
0x0a057223 0x00000007 0x00000005 0x000fe200
0x00008947 0x00000040 0x03800000 0x002fea00
0x000e7202 0x00000014 0x00000f00 0x000fe400
0x000a7802 0x00019090 0x00000f00 0x000fc600
0x00007944 0x00004260 0x03c00000 0x000fea00
0x00057202 0x0000000c 0x00000f00 0x000fc600
0x00037941 0x00000000 0x03800000 0x000fea00
0x02077224 0x00000002 0x078e02ff 0x000fe200
0x00097308 0x00000016 0x00001000 0x000e2200
0xff027984 0x00004000 0x00001800 0x000e6200
0x03ff7355 0x00000000 0x00100000 0x000fe200
0x1a067224 0x00000021 0x078e0207 0x000fe200
0x00037945 0x00000120 0x03800000 0x000fe200
0x22227221 0x00000005 0x00000000 0x000fc800
0x00087306 0x00000006 0x00201400 0x0004e200
0x160a7423 0x3f800000 0x00000109 0x001fe400
0x19067220 0x00000020 0x00400000 0x004fe400
0x090a7223 0x0000000a 0x00000009 0x000fe400
0x04067220 0x00000006 0x00400000 0x000fc800
0x060b7220 0x00000008 0x00400000 0x008fc800
0x0b067223 0x0000000a 0x000000ff 0x000fe400
0x0b007302 0x00000016 0x00000000 0x000e2400
0x16087223 0x00000006 0x0000010b 0x000fc800
0x0a067223 0x00000008 0x00000006 0x000fe400
0x13137221 0x00000002 0x00000000 0x002fe200
0x00008947 0x00000040 0x03800000 0x001fea00
0x000e7202 0x00000016 0x00000f00 0x000fe400
0x000a7802 0x00019210 0x00000f00 0x000fc600
0x00007944 0x000040e0 0x03c00000 0x000fea00
0x00067202 0x0000000c 0x00000f00 0x000fc600
0x00037941 0x00000000 0x03800000 0x000fea00
0x1a027224 0x0000001a 0x078e02ff 0x000fe200
0x00077306 0x00000007 0x00201400 0x000e2200
0x03ff7355 0x00000000 0x00100000 0x000fe200
0x00037945 0x00000140 0x03800000 0x000fe200
0x13067221 0x00000006 0x00000000 0x000fca00
0x00057306 0x00000002 0x00201400 0x0002b000
0x00087308 0x00000015 0x00001000 0x000ee200
0x1c077220 0x00000007 0x00400000 0x001fe400
0x18027820 0x40c00000 0x00400000 0x002fc400
0x00057223 0x00000005 0x00000007 0x004fc800
0x02057220 0x00000005 0x00400000 0x000fe400
0x15007423 0x3f800000 0x00000108 0x008fc800
0x05007302 0x00000015 0x00000000 0x000e2200
0x08087223 0x00000000 0x00000008 0x000fc800
0x08007223 0x00000005 0x000000ff 0x000fc800
0x15027223 0x00000000 0x00000105 0x000fc800
0x08007223 0x00000002 0x00000000 0x000fe200
0x00008947 0x00000050 0x03800000 0x001fea00
0x000b7202 0x00000005 0x00000f00 0x000fe400
0x000e7202 0x00000015 0x00000f00 0x000fe400
0x000a7802 0x00019390 0x00000f00 0x000fc600
0x00007944 0x00003f60 0x03c00000 0x000fea00
0x00007202 0x0000000c 0x00000f00 0x000fc600
0x00037941 0x00000000 0x03800000 0x000fea00
0x00057308 0x00000014 0x00001000 0x000e2200
0x1e047220 0x00000004 0x00400000 0x000fe200
0x03ff7355 0x00000000 0x00100000 0x000fe200
0x17027820 0x40800000 0x00400000 0x000fe200
0x00037945 0x00000100 0x03800000 0x000fe200
0x20047223 0x00000003 0x00000804 0x000fc400
0x06077221 0x00000000 0x00000000 0x000fe400
0x02047220 0x00000004 0x00400000 0x000fcc00
0x04007302 0x00000014 0x00000000 0x000e6200
0x14037423 0x3f800000 0x00000105 0x001fc800
0x05057223 0x00000003 0x00000005 0x000fc800
0x05027223 0x00000004 0x000000ff 0x000fc800
0x14037223 0x00000002 0x00000104 0x000fc800
0x05027223 0x00000003 0x00000002 0x000fe200
0x00008947 0x00000050 0x03800000 0x002fea00
0x000b7202 0x00000004 0x00000f00 0x000fe400
0x000e7202 0x00000014 0x00000f00 0x000fe400
0x000a7802 0x000194e0 0x00000f00 0x000fc600
0x00007944 0x00003e10 0x03c00000 0x000fea00
0x00027202 0x0000000c 0x00000f00 0x000fc600
0x00037941 0x00000000 0x03800000 0x000fea00
0xff007984 0x00004400 0x00001800 0x000e2200
0x03ff7355 0x00000000 0x00100000 0x000fe200
0x00037945 0x000001a0 0x03800000 0x000fe200
0x07137221 0x00000002 0x00000000 0x000fe200
0xff057984 0x00004800 0x00001800 0x000e6200
0x1d037210 0x00000000 0x07ffe0ff 0x001fe200
0x1b177221 0x00000005 0x00000100 0x002fca00
0x00147306 0x00000003 0x00201400 0x000e2200
0x17187220 0x00000017 0x00400000 0x000fc800
0x17097220 0x00000018 0x00400000 0x000fc600
0x00037306 0x00000000 0x00201400 0x000e6200
0x17197220 0x00000009 0x00400000 0x000fce00
0x00047308 0x00000014 0x00001000 0x001e2200
0x14157220 0x00000014 0x00400000 0x000fc800
0x14167220 0x00000015 0x00400000 0x040fe400
0x170b7220 0x00000003 0x00400000 0x002fe200
0x001a7305 0x00000014 0x0020f100 0x000fe200
0x14057423 0x3f800000 0x00000104 0x001fce00
0x0b007302 0x00000014 0x00000000 0x000e2200
0x04057223 0x00000005 0x00000004 0x000fc800
0x0b047223 0x00000005 0x000000ff 0x000fc800
0x14067223 0x00000004 0x0000010b 0x000fc800
0x05047223 0x00000006 0x00000004 0x000fe200
0x00008947 0x00000040 0x03800000 0x001fea00
0x000e7202 0x00000014 0x00000f00 0x000fe400
0x000a7802 0x000196b0 0x00000f00 0x000fc600
0x00007944 0x00003c40 0x03c00000 0x000fea00
0x00047202 0x0000000c 0x00000f00 0x000fc600
0x00037941 0x00000000 0x03800000 0x000fea00
0x001e7306 0x0000001d 0x00201400 0x000e2200
0xff027984 0x00004c00 0x00001800 0x000e6200
0x03ff7355 0x00000000 0x00100000 0x000fe200
0x00037945 0x00000110 0x03800000 0x000fe200
0x1b1b7221 0x00000004 0x00000000 0x000fc800
0x00067308 0x00000014 0x00001000 0x000ea200
0x18057220 0x0000001e 0x00400000 0x001fc800
0x030b7220 0x00000005 0x00400000 0x000fe400
0x14077423 0x3f800000 0x00000106 0x004fc800
0x0b007302 0x00000014 0x00000000 0x000e2200
0x06077223 0x00000007 0x00000006 0x000fc800
0x07057223 0x0000000b 0x000000ff 0x000fc800
0x14067223 0x00000005 0x0000010b 0x000fc800
0x07057223 0x00000006 0x00000005 0x000fe400
0x1f1c7221 0x00000002 0x00000000 0x002fe200
0x00008947 0x00000040 0x03800000 0x001fea00
0x000e7202 0x00000014 0x00000f00 0x000fe400
0x000a7802 0x00019800 0x00000f00 0x000fc600
0x00007944 0x00003af0 0x03c00000 0x000fea00
0x00057202 0x0000000c 0x00000f00 0x000fc600
0x00037941 0x00000000 0x03800000 0x000fea00
0x1d207210 0x80000000 0x07ffe0ff 0x000fe200
0xff047984 0x00005000 0x00001800 0x000e2200
0x00087308 0x00000015 0x00001000 0x000e6200
0x09067220 0x0000001e 0x00400000 0x000fe200
0x03ff7355 0x00000000 0x00100000 0x000fe200
0x00037945 0x00000110 0x03800000 0x000fe200
0x1c1c7221 0x00000005 0x00000000 0x000fc400
0x03067220 0x00000006 0x00400000 0x000fe400
0x00077306 0x00000020 0x00201400 0x000ea200
0x15097423 0x3f800000 0x00000108 0x002fc800
0x08097223 0x00000009 0x00000008 0x000fe400
0x060b7220 0x00000007 0x00400000 0x004fc800
0x0b067223 0x00000009 0x000000ff 0x000fe400
0x0b007302 0x00000015 0x00000000 0x000e6400
0x15077223 0x00000006 0x0000010b 0x000fc800
0x09067223 0x00000007 0x00000006 0x000fe400
0x22087221 0x00000004 0x00000000 0x001fe200
0x00008947 0x00000040 0x03800000 0x002fea00
0x000e7202 0x00000015 0x00000f00 0x000fe400
0x000a7802 0x00019970 0x00000f00 0x000fc600
0x00007944 0x00003980 0x03c00000 0x000fea00
0x00067202 0x0000000c 0x00000f00 0x000fc600
0x00037941 0x00000000 0x03800000 0x000fea00
0x00097308 0x00000014 0x00001000 0x000e2200
0x1f077220 0x00000003 0x00400000 0x000fe200
0x03ff7355 0x00000000 0x00100000 0x000fe200
0x17057820 0x40400000 0x00400000 0x000fe200
0x00037945 0x000000f0 0x03800000 0x000fe200
0x02077223 0x0000001e 0x00000807 0x000fc400
0x08217221 0x00000006 0x00000000 0x000fe400
0x050b7220 0x00000007 0x00400000 0x000fcc00
0x0b007302 0x00000014 0x00000000 0x000e6200
0x140a7423 0x3f800000 0x00000109 0x001fc800
0x090a7223 0x0000000a 0x00000009 0x000fc800
0x0a057223 0x0000000b 0x000000ff 0x000fc800
0x14077223 0x00000005 0x0000010b 0x000fc800
0x0a057223 0x00000007 0x00000005 0x000fe200
0x00008947 0x00000040 0x03800000 0x002fea00
0x000e7202 0x00000014 0x00000f00 0x000fe400
0x000a7802 0x00019ab0 0x00000f00 0x000fc600
0x00007944 0x00003840 0x03c00000 0x000fea00
0x00057202 0x0000000c 0x00000f00 0x000fc600
0x00037941 0x00000000 0x03800000 0x000fea00
0x00077224 0x00000000 0x078e02ff 0x000fe200
0x00097308 0x00000016 0x00001000 0x000e2200
0xff007984 0x00005400 0x00001800 0x000e6200
0x03ff7355 0x00000000 0x00100000 0x000fe200
0x1d067224 0x00000020 0x078e0207 0x000fe200
0x00037945 0x00000120 0x03800000 0x000fe200
0x21217221 0x00000005 0x00000000 0x000fc800
0x00087306 0x00000006 0x00201400 0x0004e200
0x160a7423 0x3f800000 0x00000109 0x001fe400
0x19067220 0x0000001e 0x00400000 0x004fe400
0x090a7223 0x0000000a 0x00000009 0x000fe400
0x03067220 0x00000006 0x00400000 0x000fc800
0x060b7220 0x00000008 0x00400000 0x008fc800
0x0b067223 0x0000000a 0x000000ff 0x000fe400
0x0b007302 0x00000016 0x00000000 0x000e2400
0x16087223 0x00000006 0x0000010b 0x000fc800
0x0a067223 0x00000008 0x00000006 0x000fe400
0x13137221 0x00000000 0x00000000 0x002fe200
0x00008947 0x00000040 0x03800000 0x001fea00
0x000e7202 0x00000016 0x00000f00 0x000fe400
0x000a7802 0x00019c30 0x00000f00 0x000fc600
0x00007944 0x000036c0 0x03c00000 0x000fea00
0x00067202 0x0000000c 0x00000f00 0x000fc600
0x00037941 0x00000000 0x03800000 0x000fea00
0x1d007224 0x0000001d 0x078e02ff 0x000fe200
0x00077306 0x00000007 0x00201400 0x000e2200
0x03ff7355 0x00000000 0x00100000 0x000fe200
0x00037945 0x00000140 0x03800000 0x000fe200
0x13067221 0x00000006 0x00000000 0x000fca00
0x00057306 0x00000000 0x00201400 0x0002b000
0x00087308 0x00000015 0x00001000 0x000ee200
0x1f077220 0x00000007 0x00400000 0x001fe400
0x18007820 0x40c00000 0x00400000 0x002fc400
0x02057223 0x00000005 0x00000007 0x004fc800
0x00057220 0x00000005 0x00400000 0x000fe400
0x15027423 0x3f800000 0x00000108 0x008fc800
0x05007302 0x00000015 0x00000000 0x000e2200
0x08087223 0x00000002 0x00000008 0x000fc800
0x08007223 0x00000005 0x000000ff 0x000fc800
0x15027223 0x00000000 0x00000105 0x000fc800
0x08007223 0x00000002 0x00000000 0x000fe200
0x00008947 0x00000050 0x03800000 0x001fea00
0x000b7202 0x00000005 0x00000f00 0x000fe400
0x000e7202 0x00000015 0x00000f00 0x000fe400
0x000a7802 0x00019db0 0x00000f00 0x000fc600
0x00007944 0x00003540 0x03c00000 0x000fea00
0x00007202 0x0000000c 0x00000f00 0x000fc600
0x00037941 0x00000000 0x03800000 0x000fea00
0x00057308 0x00000014 0x00001000 0x000e2200
0x22037220 0x00000003 0x00400000 0x000fe200
0x03ff7355 0x00000000 0x00100000 0x000fe200
0x17027820 0x40800000 0x00400000 0x000fe200
0x00037945 0x000000f0 0x03800000 0x000fe200
0x1e037223 0x00000004 0x00000803 0x000fc400
0x06077221 0x00000000 0x00000000 0x000fe400
0x020b7220 0x00000003 0x00400000 0x000fcc00
0x0b007302 0x00000014 0x00000000 0x000e6200
0x14047423 0x3f800000 0x00000105 0x001fc800
0x05047223 0x00000004 0x00000005 0x000fc800
0x04027223 0x0000000b 0x000000ff 0x000fc800
0x14037223 0x00000002 0x0000010b 0x000fc800
0x04027223 0x00000003 0x00000002 0x000fe200
0x00008947 0x00000040 0x03800000 0x002fea00
0x000e7202 0x00000014 0x00000f00 0x000fe400
0x000a7802 0x00019ef0 0x00000f00 0x000fc600
0x00007944 0x00003400 0x03c00000 0x000fea00
0x00027202 0x0000000c 0x00000f00 0x000fc600
0x00037941 0x00000000 0x03800000 0x000fea00
0xff047984 0x00005800 0x00001a00 0x000e2200
0x03ff7355 0x00000000 0x00100000 0x000fe200
0x00037945 0x00000190 0x03800000 0x000fe200
0x07137221 0x00000002 0x00000000 0x000fe200
0x1a007210 0x00000004 0x07ffe0ff 0x001fe200
0x1b177221 0x00000005 0x00000100 0x000fc800
0x17187220 0x00000017 0x00400000 0x040fe200
0x00147306 0x00000000 0x00201400 0x000e2600
0x17097220 0x00000018 0x00400000 0x000fc800
0x17197220 0x00000009 0x00400000 0x000fe200
0x00007306 0x00000004 0x00201400 0x000e7000
0x00037308 0x00000014 0x00001000 0x001e2200
0x14157220 0x00000014 0x00400000 0x000fc800
0x14167220 0x00000015 0x00400000 0x040fe400
0x170b7220 0x00000000 0x00400000 0x002fe200
0x001d7305 0x00000014 0x0020f100 0x000fe200
0x14057423 0x3f800000 0x00000103 0x001fce00
0x0b007302 0x00000014 0x00000000 0x000e2200
0x03057223 0x00000005 0x00000003 0x000fc800
0x0b037223 0x00000005 0x000000ff 0x000fc800
0x14067223 0x00000003 0x0000010b 0x000fc800
0x05037223 0x00000006 0x00000003 0x000fe200
0x00008947 0x00000040 0x03800000 0x001fea00
0x000e7202 0x00000014 0x00000f00 0x000fe400
0x000a7802 0x0001a0b0 0x00000f00 0x000fc600
0x00007944 0x00003240 0x03c00000 0x000fea00
0x00037202 0x0000000c 0x00000f00 0x000fc600
0x00037941 0x00000000 0x03800000 0x000fea00
0x001f7306 0x0000001a 0x00201400 0x000e2200
0xff027984 0x00006000 0x00001800 0x000e6200
0x03ff7355 0x00000000 0x00100000 0x000fe200
0x00037945 0x00000110 0x03800000 0x000fe200
0x1b1b7221 0x00000003 0x00000000 0x000fc800
0x00067308 0x00000014 0x00001000 0x000ea200
0x18057220 0x0000001f 0x00400000 0x001fc800
0x000b7220 0x00000005 0x00400000 0x000fe400
0x14077423 0x3f800000 0x00000106 0x004fc800
0x0b007302 0x00000014 0x00000000 0x000e2200
0x06077223 0x00000007 0x00000006 0x000fc800
0x07057223 0x0000000b 0x000000ff 0x000fc800
0x14067223 0x00000005 0x0000010b 0x000fc800
0x07057223 0x00000006 0x00000005 0x000fe400
0x1c1e7221 0x00000002 0x00000000 0x002fe200
0x00008947 0x00000040 0x03800000 0x001fea00
0x000e7202 0x00000014 0x00000f00 0x000fe400
0x000a7802 0x0001a200 0x00000f00 0x000fc600
0x00007944 0x000030f0 0x03c00000 0x000fea00
0x00057202 0x0000000c 0x00000f00 0x000fc600
0x00037941 0x00000000 0x03800000 0x000fea00
0x1a207210 0x80000004 0x07ffe0ff 0x000fe200
0xff037984 0x00006400 0x00001800 0x000e2200
0x00087308 0x00000015 0x00001000 0x000e6200
0x09067220 0x0000001f 0x00400000 0x000fe200
0x03ff7355 0x00000000 0x00100000 0x000fe200
0x00037945 0x00000110 0x03800000 0x000fe200
0x1e1e7221 0x00000005 0x00000000 0x000fc400
0x00067220 0x00000006 0x00400000 0x000fe400
0x00077306 0x00000020 0x00201400 0x000ea200
0x15097423 0x3f800000 0x00000108 0x002fc800
0x08097223 0x00000009 0x00000008 0x000fe400
0x060b7220 0x00000007 0x00400000 0x004fc800
0x0b067223 0x00000009 0x000000ff 0x000fe400
0x0b007302 0x00000015 0x00000000 0x000e6400
0x15077223 0x00000006 0x0000010b 0x000fc800
0x09067223 0x00000007 0x00000006 0x000fe400
0x21087221 0x00000003 0x00000000 0x001fe200
0x00008947 0x00000040 0x03800000 0x002fea00
0x000e7202 0x00000015 0x00000f00 0x000fe400
0x000a7802 0x0001a370 0x00000f00 0x000fc600
0x00007944 0x00002f80 0x03c00000 0x000fea00
0x00067202 0x0000000c 0x00000f00 0x000fc600
0x00037941 0x00000000 0x03800000 0x000fea00
0x00097308 0x00000014 0x00001000 0x000e2200
0x1c077220 0x00000000 0x00400000 0x000fe200
0x03ff7355 0x00000000 0x00100000 0x000fe200
0x17057820 0x40400000 0x00400000 0x000fe200
0x00037945 0x000000f0 0x03800000 0x000fe200
0x02077223 0x0000001f 0x00000807 0x000fc400
0x08227221 0x00000006 0x00000000 0x000fe400
0x050b7220 0x00000007 0x00400000 0x000fcc00
0x0b007302 0x00000014 0x00000000 0x000e6200
0x140a7423 0x3f800000 0x00000109 0x001fc800
0x090a7223 0x0000000a 0x00000009 0x000fc800
0x0a057223 0x0000000b 0x000000ff 0x000fc800
0x14077223 0x00000005 0x0000010b 0x000fc800
0x0a057223 0x00000007 0x00000005 0x000fe200
0x00008947 0x00000040 0x03800000 0x002fea00
0x000e7202 0x00000014 0x00000f00 0x000fe400
0x000a7802 0x0001a4b0 0x00000f00 0x000fc600
0x00007944 0x00002e40 0x03c00000 0x000fea00
0x00057202 0x0000000c 0x00000f00 0x000fc600
0x00037941 0x00000000 0x03800000 0x000fea00
0x04077224 0x00000004 0x078e02ff 0x000fe200
0x00097308 0x00000016 0x00001000 0x000e2200
0xff047984 0x00006800 0x00001800 0x000e6200
0x03ff7355 0x00000000 0x00100000 0x000fe200
0x1a067224 0x00000020 0x078e0207 0x000fe200
0x00037945 0x00000120 0x03800000 0x000fe200
0x22227221 0x00000005 0x00000000 0x000fc800
0x00087306 0x00000006 0x00201400 0x0004e200
0x160a7423 0x3f800000 0x00000109 0x001fe400
0x19067220 0x0000001f 0x00400000 0x004fe400
0x090a7223 0x0000000a 0x00000009 0x000fe400
0x00067220 0x00000006 0x00400000 0x000fc800
0x060b7220 0x00000008 0x00400000 0x008fc800
0x0b067223 0x0000000a 0x000000ff 0x000fe400
0x0b007302 0x00000016 0x00000000 0x000e2400
0x16087223 0x00000006 0x0000010b 0x000fc800
0x0a067223 0x00000008 0x00000006 0x000fe400
0x13137221 0x00000004 0x00000000 0x002fe200
0x00008947 0x00000040 0x03800000 0x001fea00
0x000e7202 0x00000016 0x00000f00 0x000fe400
0x000a7802 0x0001a630 0x00000f00 0x000fc600
0x00007944 0x00002cc0 0x03c00000 0x000fea00
0x00067202 0x0000000c 0x00000f00 0x000fc600
0x00037941 0x00000000 0x03800000 0x000fea00
0x1a047224 0x0000001a 0x078e02ff 0x000fe200
0x00077306 0x00000007 0x00201400 0x000e2200
0x03ff7355 0x00000000 0x00100000 0x000fe200
0x00037945 0x00000140 0x03800000 0x000fe200
0x13067221 0x00000006 0x00000000 0x000fca00
0x00057306 0x00000004 0x00201400 0x0002b000
0x00087308 0x00000015 0x00001000 0x000ee200
0x1c077220 0x00000007 0x00400000 0x001fe400
0x18047820 0x40c00000 0x00400000 0x002fc400
0x02057223 0x00000005 0x00000007 0x004fc800
0x04057220 0x00000005 0x00400000 0x000fe400
0x15027423 0x3f800000 0x00000108 0x008fc800
0x05007302 0x00000015 0x00000000 0x000e2200
0x08087223 0x00000002 0x00000008 0x000fc800
0x08027223 0x00000005 0x000000ff 0x000fc800
0x15047223 0x00000002 0x00000105 0x000fc800
0x08027223 0x00000004 0x00000002 0x000fe200
0x00008947 0x00000050 0x03800000 0x001fea00
0x000b7202 0x00000005 0x00000f00 0x000fe400
0x000e7202 0x00000015 0x00000f00 0x000fe400
0x000a7802 0x0001a7b0 0x00000f00 0x000fc600
0x00007944 0x00002b40 0x03c00000 0x000fea00
0x00027202 0x0000000c 0x00000f00 0x000fc600
0x00037941 0x00000000 0x03800000 0x000fea00
0x00057308 0x00000014 0x00001000 0x000e2200
0x21047220 0x00000000 0x00400000 0x000fe200
0x03ff7355 0x00000000 0x00100000 0x000fe200
0x17007820 0x40800000 0x00400000 0x000fe200
0x00037945 0x00000100 0x03800000 0x000fe200
0x1f047223 0x00000003 0x00000804 0x000fc400
0x06077221 0x00000002 0x00000000 0x000fe400
0x00047220 0x00000004 0x00400000 0x000fcc00
0x04007302 0x00000014 0x00000000 0x000e6200
0x14037423 0x3f800000 0x00000105 0x001fc800
0x05057223 0x00000003 0x00000005 0x000fc800
0x05007223 0x00000004 0x000000ff 0x000fc800
0x14037223 0x00000000 0x00000104 0x000fc800
0x05007223 0x00000003 0x00000000 0x000fe200
0x00008947 0x00000050 0x03800000 0x002fea00
0x000b7202 0x00000004 0x00000f00 0x000fe400
0x000e7202 0x00000014 0x00000f00 0x000fe400
0x000a7802 0x0001a900 0x00000f00 0x000fc600
0x00007944 0x000029f0 0x03c00000 0x000fea00
0x00007202 0x0000000c 0x00000f00 0x000fc600
0x00037941 0x00000000 0x03800000 0x000fea00
0xff027984 0x00006c00 0x00001800 0x000e2200
0x03ff7355 0x00000000 0x00100000 0x000fe200
0x00037945 0x000001a0 0x03800000 0x000fe200
0x07137221 0x00000000 0x00000000 0x000fe200
0xff047984 0x00007000 0x00001800 0x000e6200
0x1d037210 0x00000002 0x07ffe0ff 0x001fe200
0x1b177221 0x00000004 0x00000100 0x002fca00
0x00147306 0x00000003 0x00201400 0x000e2200
0x17187220 0x00000017 0x00400000 0x000fc800
0x17097220 0x00000018 0x00400000 0x000fc600
0x00037306 0x00000002 0x00201400 0x000e6200
0x17197220 0x00000009 0x00400000 0x000fce00
0x00057308 0x00000014 0x00001000 0x001e2200
0x14157220 0x00000014 0x00400000 0x000fc800
0x14167220 0x00000015 0x00400000 0x040fe400
0x170b7220 0x00000003 0x00400000 0x002fe200
0x001a7305 0x00000014 0x0020f100 0x000fe200
0x14047423 0x3f800000 0x00000105 0x001fce00
0x0b007302 0x00000014 0x00000000 0x000e2200
0x05047223 0x00000004 0x00000005 0x000fc800
0x0b057223 0x00000004 0x000000ff 0x000fc800
0x14067223 0x00000005 0x0000010b 0x000fc800
0x04047223 0x00000006 0x00000005 0x000fe200
0x00008947 0x00000040 0x03800000 0x001fea00
0x000e7202 0x00000014 0x00000f00 0x000fe400
0x000a7802 0x0001aad0 0x00000f00 0x000fc600
0x00007944 0x00002820 0x03c00000 0x000fea00
0x00047202 0x0000000c 0x00000f00 0x000fc600
0x00037941 0x00000000 0x03800000 0x000fea00
0x001f7306 0x0000001d 0x00201400 0x000e2200
0xff007984 0x00007400 0x00001800 0x000e6200
0x03ff7355 0x00000000 0x00100000 0x000fe200
0x00037945 0x00000110 0x03800000 0x000fe200
0x1b1b7221 0x00000004 0x00000000 0x000fc800
0x00067308 0x00000014 0x00001000 0x000ea200
0x18057220 0x0000001f 0x00400000 0x001fc800
0x030b7220 0x00000005 0x00400000 0x000fe400
0x14077423 0x3f800000 0x00000106 0x004fc800
0x0b007302 0x00000014 0x00000000 0x000e2200
0x06077223 0x00000007 0x00000006 0x000fc800
0x07057223 0x0000000b 0x000000ff 0x000fc800
0x14067223 0x00000005 0x0000010b 0x000fc800
0x07057223 0x00000006 0x00000005 0x000fe400
0x1e1c7221 0x00000000 0x00000000 0x002fe200
0x00008947 0x00000040 0x03800000 0x001fea00
0x000e7202 0x00000014 0x00000f00 0x000fe400
0x000a7802 0x0001ac20 0x00000f00 0x000fc600
0x00007944 0x000026d0 0x03c00000 0x000fea00
0x00057202 0x0000000c 0x00000f00 0x000fc600
0x00037941 0x00000000 0x03800000 0x000fea00
0x1d207210 0x80000002 0x07ffe0ff 0x000fe200
0xff047984 0x00007800 0x00001800 0x000e2200
0x00087308 0x00000015 0x00001000 0x000e6200
0x09067220 0x0000001f 0x00400000 0x000fe200
0x03ff7355 0x00000000 0x00100000 0x000fe200
0x00037945 0x00000110 0x03800000 0x000fe200
0x1c1c7221 0x00000005 0x00000000 0x000fc400
0x03067220 0x00000006 0x00400000 0x000fe400
0x00077306 0x00000020 0x00201400 0x000ea200
0x15097423 0x3f800000 0x00000108 0x002fc800
0x08097223 0x00000009 0x00000008 0x000fe400
0x060b7220 0x00000007 0x00400000 0x004fc800
0x0b067223 0x00000009 0x000000ff 0x000fe400
0x0b007302 0x00000015 0x00000000 0x000e6400
0x15077223 0x00000006 0x0000010b 0x000fc800
0x09067223 0x00000007 0x00000006 0x000fe400
0x22087221 0x00000004 0x00000000 0x001fe200
0x00008947 0x00000040 0x03800000 0x002fea00
0x000e7202 0x00000015 0x00000f00 0x000fe400
0x000a7802 0x0001ad90 0x00000f00 0x000fc600
0x00007944 0x00002560 0x03c00000 0x000fea00
0x00067202 0x0000000c 0x00000f00 0x000fc600
0x00037941 0x00000000 0x03800000 0x000fea00
0x00097308 0x00000014 0x00001000 0x000e2200
0x1e077220 0x00000003 0x00400000 0x000fe200
0x03ff7355 0x00000000 0x00100000 0x000fe200
0x17057820 0x40400000 0x00400000 0x000fe200
0x00037945 0x000000f0 0x03800000 0x000fe200
0x00077223 0x0000001f 0x00000807 0x000fc400
0x08217221 0x00000006 0x00000000 0x000fe400
0x050b7220 0x00000007 0x00400000 0x000fcc00
0x0b007302 0x00000014 0x00000000 0x000e6200
0x140a7423 0x3f800000 0x00000109 0x001fc800
0x090a7223 0x0000000a 0x00000009 0x000fc800
0x0a057223 0x0000000b 0x000000ff 0x000fc800
0x14077223 0x00000005 0x0000010b 0x000fc800
0x0a057223 0x00000007 0x00000005 0x000fe200
0x00008947 0x00000040 0x03800000 0x002fea00
0x000e7202 0x00000014 0x00000f00 0x000fe400
0x000a7802 0x0001aed0 0x00000f00 0x000fc600
0x00007944 0x00002420 0x03c00000 0x000fea00
0x00057202 0x0000000c 0x00000f00 0x000fc600
0x00037941 0x00000000 0x03800000 0x000fea00
0x02077224 0x00000002 0x078e02ff 0x000fe200
0x00097308 0x00000016 0x00001000 0x000e2200
0xff027984 0x00007c00 0x00001800 0x000e6200
0x03ff7355 0x00000000 0x00100000 0x000fe200
0x1d067224 0x00000020 0x078e0207 0x000fe200
0x00037945 0x00000120 0x03800000 0x000fe200
0x21217221 0x00000005 0x00000000 0x000fc800
0x00087306 0x00000006 0x00201400 0x0004e200
0x160a7423 0x3f800000 0x00000109 0x001fe400
0x19067220 0x0000001f 0x00400000 0x004fe400
0x090a7223 0x0000000a 0x00000009 0x000fe400
0x03067220 0x00000006 0x00400000 0x000fc800
0x060b7220 0x00000008 0x00400000 0x008fc800
0x0b067223 0x0000000a 0x000000ff 0x000fe400
0x0b007302 0x00000016 0x00000000 0x000e2400
0x16087223 0x00000006 0x0000010b 0x000fc800
0x0a067223 0x00000008 0x00000006 0x000fe400
0x13137221 0x00000002 0x00000000 0x002fe200
0x00008947 0x00000040 0x03800000 0x001fea00
0x000e7202 0x00000016 0x00000f00 0x000fe400
0x000a7802 0x0001b050 0x00000f00 0x000fc600
0x00007944 0x000022a0 0x03c00000 0x000fea00
0x00067202 0x0000000c 0x00000f00 0x000fc600
0x00037941 0x00000000 0x03800000 0x000fea00
0x1d027224 0x0000001d 0x078e02ff 0x000fe200
0x00077306 0x00000007 0x00201400 0x000e2200
0x03ff7355 0x00000000 0x00100000 0x000fe200
0x00037945 0x00000140 0x03800000 0x000fe200
0x13067221 0x00000006 0x00000000 0x000fca00
0x00057306 0x00000002 0x00201400 0x0002b000
0x00087308 0x00000015 0x00001000 0x000ee200
0x1e077220 0x00000007 0x00400000 0x001fe400
0x18027820 0x40c00000 0x00400000 0x002fc400
0x00057223 0x00000005 0x00000007 0x004fc800
0x02057220 0x00000005 0x00400000 0x000fe400
0x15007423 0x3f800000 0x00000108 0x008fc800
0x05007302 0x00000015 0x00000000 0x000e2200
0x08087223 0x00000000 0x00000008 0x000fc800
0x08007223 0x00000005 0x000000ff 0x000fc800
0x15027223 0x00000000 0x00000105 0x000fc800
0x08007223 0x00000002 0x00000000 0x000fe200
0x00008947 0x00000050 0x03800000 0x001fea00
0x000b7202 0x00000005 0x00000f00 0x000fe400
0x000e7202 0x00000015 0x00000f00 0x000fe400
0x000a7802 0x0001b1d0 0x00000f00 0x000fc600
0x00007944 0x00002120 0x03c00000 0x000fea00
0x00007202 0x0000000c 0x00000f00 0x000fc600
0x00037941 0x00000000 0x03800000 0x000fea00
0x00057308 0x00000014 0x00001000 0x000e2200
0x22037220 0x00000003 0x00400000 0x000fe200
0x03ff7355 0x00000000 0x00100000 0x000fe200
0x17027820 0x40800000 0x00400000 0x000fe200
0x00037945 0x000000f0 0x03800000 0x000fe200
0x1f037223 0x00000004 0x00000803 0x000fc400
0x06077221 0x00000000 0x00000000 0x000fe400
0x020b7220 0x00000003 0x00400000 0x000fcc00
0x0b007302 0x00000014 0x00000000 0x000e6200
0x14047423 0x3f800000 0x00000105 0x001fc800
0x05047223 0x00000004 0x00000005 0x000fc800
0x04027223 0x0000000b 0x000000ff 0x000fc800
0x14037223 0x00000002 0x0000010b 0x000fc800
0x04027223 0x00000003 0x00000002 0x000fe200
0x00008947 0x00000040 0x03800000 0x002fea00
0x000e7202 0x00000014 0x00000f00 0x000fe400
0x000a7802 0x0001b310 0x00000f00 0x000fc600
0x00007944 0x00001fe0 0x03c00000 0x000fea00
0x00027202 0x0000000c 0x00000f00 0x000fc600
0x00037941 0x00000000 0x03800000 0x000fea00
0xff047984 0x00008000 0x00001a00 0x000e2200
0x03ff7355 0x00000000 0x00100000 0x000fe200
0x00037945 0x00000190 0x03800000 0x000fe200
0x07137221 0x00000002 0x00000000 0x000fe200
0x1a007210 0x00000004 0x07ffe0ff 0x001fe200
0x1b177221 0x00000005 0x00000100 0x000fc800
0x17187220 0x00000017 0x00400000 0x040fe200
0x00147306 0x00000000 0x00201400 0x000e2600
0x17097220 0x00000018 0x00400000 0x000fc800
0x17197220 0x00000009 0x00400000 0x000fe200
0x00007306 0x00000004 0x00201400 0x000e7000
0x00037308 0x00000014 0x00001000 0x001e2200
0x14157220 0x00000014 0x00400000 0x000fc800
0x14167220 0x00000015 0x00400000 0x040fe400
0x170b7220 0x00000000 0x00400000 0x002fe200
0x001d7305 0x00000014 0x0020f100 0x000fe200
0x14057423 0x3f800000 0x00000103 0x001fce00
0x0b007302 0x00000014 0x00000000 0x000e2200
0x03057223 0x00000005 0x00000003 0x000fc800
0x0b037223 0x00000005 0x000000ff 0x000fc800
0x14067223 0x00000003 0x0000010b 0x000fc800
0x05037223 0x00000006 0x00000003 0x000fe200
0x00008947 0x00000040 0x03800000 0x001fea00
0x000e7202 0x00000014 0x00000f00 0x000fe400
0x000a7802 0x0001b4d0 0x00000f00 0x000fc600
0x00007944 0x00001e20 0x03c00000 0x000fea00
0x00037202 0x0000000c 0x00000f00 0x000fc600
0x00037941 0x00000000 0x03800000 0x000fea00
0x001f7306 0x0000001a 0x00201400 0x000e2200
0xff027984 0x00008800 0x00001800 0x000e6200
0x03ff7355 0x00000000 0x00100000 0x000fe200
0x00037945 0x00000110 0x03800000 0x000fe200
0x1b1b7221 0x00000003 0x00000000 0x000fc800
0x00067308 0x00000014 0x00001000 0x000ea200
0x18057220 0x0000001f 0x00400000 0x001fc800
0x000b7220 0x00000005 0x00400000 0x000fe400
0x14077423 0x3f800000 0x00000106 0x004fc800
0x0b007302 0x00000014 0x00000000 0x000e2200
0x06077223 0x00000007 0x00000006 0x000fc800
0x07057223 0x0000000b 0x000000ff 0x000fc800
0x14067223 0x00000005 0x0000010b 0x000fc800
0x07057223 0x00000006 0x00000005 0x000fe400
0x1c1e7221 0x00000002 0x00000000 0x002fe200
0x00008947 0x00000040 0x03800000 0x001fea00
0x000e7202 0x00000014 0x00000f00 0x000fe400
0x000a7802 0x0001b620 0x00000f00 0x000fc600
0x00007944 0x00001cd0 0x03c00000 0x000fea00
0x00057202 0x0000000c 0x00000f00 0x000fc600
0x00037941 0x00000000 0x03800000 0x000fea00
0x1a207210 0x80000004 0x07ffe0ff 0x000fe200
0xff037984 0x00008c00 0x00001800 0x000e2200
0x00087308 0x00000015 0x00001000 0x000e6200
0x09067220 0x0000001f 0x00400000 0x000fe200
0x03ff7355 0x00000000 0x00100000 0x000fe200
0x00037945 0x00000110 0x03800000 0x000fe200
0x1e1e7221 0x00000005 0x00000000 0x000fc400
0x00067220 0x00000006 0x00400000 0x000fe400
0x00077306 0x00000020 0x00201400 0x000ea200
0x15097423 0x3f800000 0x00000108 0x002fc800
0x08097223 0x00000009 0x00000008 0x000fe400
0x060b7220 0x00000007 0x00400000 0x004fc800
0x0b067223 0x00000009 0x000000ff 0x000fe400
0x0b007302 0x00000015 0x00000000 0x000e6400
0x15077223 0x00000006 0x0000010b 0x000fc800
0x09067223 0x00000007 0x00000006 0x000fe400
0x21087221 0x00000003 0x00000000 0x001fe200
0x00008947 0x00000040 0x03800000 0x002fea00
0x000e7202 0x00000015 0x00000f00 0x000fe400
0x000a7802 0x0001b790 0x00000f00 0x000fc600
0x00007944 0x00001b60 0x03c00000 0x000fea00
0x00067202 0x0000000c 0x00000f00 0x000fc600
0x00037941 0x00000000 0x03800000 0x000fea00
0x00097308 0x00000014 0x00001000 0x000e2200
0x1c077220 0x00000000 0x00400000 0x000fe200
0x03ff7355 0x00000000 0x00100000 0x000fe200
0x17057820 0x40400000 0x00400000 0x000fe200
0x00037945 0x000000f0 0x03800000 0x000fe200
0x02077223 0x0000001f 0x00000807 0x000fc400
0x08227221 0x00000006 0x00000000 0x000fe400
0x050b7220 0x00000007 0x00400000 0x000fcc00
0x0b007302 0x00000014 0x00000000 0x000e6200
0x140a7423 0x3f800000 0x00000109 0x001fc800
0x090a7223 0x0000000a 0x00000009 0x000fc800
0x0a057223 0x0000000b 0x000000ff 0x000fc800
0x14077223 0x00000005 0x0000010b 0x000fc800
0x0a057223 0x00000007 0x00000005 0x000fe200
0x00008947 0x00000040 0x03800000 0x002fea00
0x000e7202 0x00000014 0x00000f00 0x000fe400
0x000a7802 0x0001b8d0 0x00000f00 0x000fc600
0x00007944 0x00001a20 0x03c00000 0x000fea00
0x00057202 0x0000000c 0x00000f00 0x000fc600
0x00037941 0x00000000 0x03800000 0x000fea00
0x04077224 0x00000004 0x078e02ff 0x000fe200
0x00097308 0x00000016 0x00001000 0x000e2200
0xff047984 0x00009000 0x00001800 0x000e6200
0x03ff7355 0x00000000 0x00100000 0x000fe200
0x1a067224 0x00000020 0x078e0207 0x000fe200
0x00037945 0x00000120 0x03800000 0x000fe200
0x22227221 0x00000005 0x00000000 0x000fc800
0x00087306 0x00000006 0x00201400 0x0004e200
0x160a7423 0x3f800000 0x00000109 0x001fe400
0x19067220 0x0000001f 0x00400000 0x004fe400
0x090a7223 0x0000000a 0x00000009 0x000fe400
0x00067220 0x00000006 0x00400000 0x000fc800
0x060b7220 0x00000008 0x00400000 0x008fc800
0x0b067223 0x0000000a 0x000000ff 0x000fe400
0x0b007302 0x00000016 0x00000000 0x000e2400
0x16087223 0x00000006 0x0000010b 0x000fc800
0x0a067223 0x00000008 0x00000006 0x000fe400
0x13137221 0x00000004 0x00000000 0x002fe200
0x00008947 0x00000040 0x03800000 0x001fea00
0x000e7202 0x00000016 0x00000f00 0x000fe400
0x000a7802 0x0001ba50 0x00000f00 0x000fc600
0x00007944 0x000018a0 0x03c00000 0x000fea00
0x00067202 0x0000000c 0x00000f00 0x000fc600
0x00037941 0x00000000 0x03800000 0x000fea00
0x1a047224 0x0000001a 0x078e02ff 0x000fe200
0x00077306 0x00000007 0x00201400 0x000e2200
0x03ff7355 0x00000000 0x00100000 0x000fe200
0x00037945 0x00000140 0x03800000 0x000fe200
0x13067221 0x00000006 0x00000000 0x000fca00
0x00057306 0x00000004 0x00201400 0x0002b000
0x00087308 0x00000015 0x00001000 0x000ee200
0x1c077220 0x00000007 0x00400000 0x001fe400
0x18047820 0x40c00000 0x00400000 0x002fc400
0x02057223 0x00000005 0x00000007 0x004fc800
0x04057220 0x00000005 0x00400000 0x000fe400
0x15027423 0x3f800000 0x00000108 0x008fc800
0x05007302 0x00000015 0x00000000 0x000e2200
0x08087223 0x00000002 0x00000008 0x000fc800
0x08027223 0x00000005 0x000000ff 0x000fc800
0x15047223 0x00000002 0x00000105 0x000fc800
0x08027223 0x00000004 0x00000002 0x000fe200
0x00008947 0x00000050 0x03800000 0x001fea00
0x000b7202 0x00000005 0x00000f00 0x000fe400
0x000e7202 0x00000015 0x00000f00 0x000fe400
0x000a7802 0x0001bbd0 0x00000f00 0x000fc600
0x00007944 0x00001720 0x03c00000 0x000fea00
0x00027202 0x0000000c 0x00000f00 0x000fc600
0x00037941 0x00000000 0x03800000 0x000fea00
0x00057308 0x00000014 0x00001000 0x000e2200
0x21047220 0x00000000 0x00400000 0x000fe200
0x03ff7355 0x00000000 0x00100000 0x000fe200
0x17007820 0x40800000 0x00400000 0x000fe200
0x00037945 0x00000100 0x03800000 0x000fe200
0x1f047223 0x00000003 0x00000804 0x000fc400
0x06087221 0x00000002 0x00000000 0x000fe400
0x00047220 0x00000004 0x00400000 0x000fcc00
0x04007302 0x00000014 0x00000000 0x000e6200
0x14037423 0x3f800000 0x00000105 0x001fc800
0x05057223 0x00000003 0x00000005 0x000fc800
0x05007223 0x00000004 0x000000ff 0x000fc800
0x14037223 0x00000000 0x00000104 0x000fc800
0x05007223 0x00000003 0x00000000 0x000fe200
0x00008947 0x00000050 0x03800000 0x002fea00
0x000b7202 0x00000004 0x00000f00 0x000fe400
0x000e7202 0x00000014 0x00000f00 0x000fe400
0x000a7802 0x0001bd20 0x00000f00 0x000fc600
0x00007944 0x000015d0 0x03c00000 0x000fea00
0x00007202 0x0000000c 0x00000f00 0x000fc600
0x00037941 0x00000000 0x03800000 0x000fea00
0xff027984 0x00009400 0x00001800 0x000e2200
0x03ff7355 0x00000000 0x00100000 0x000fe200
0x00037945 0x000001a0 0x03800000 0x000fe200
0x08147221 0x00000000 0x00000000 0x000fe200
0xff057984 0x00009800 0x00001800 0x000e6200
0x1d037210 0x00000002 0x07ffe0ff 0x001fe200
0x00067306 0x00000002 0x00201400 0x000e2200
0x1b187221 0x00000005 0x00000100 0x002fc800
0x18197220 0x00000018 0x00400000 0x000fc600
0x00157306 0x00000003 0x00201400 0x000e6200
0x18137220 0x00000019 0x00400000 0x000fc800
0x181a7220 0x00000013 0x00400000 0x040fe400
0x180b7220 0x00000006 0x00400000 0x001fe200
0x00047308 0x00000015 0x00001000 0x002e2200
0x15167220 0x00000015 0x00400000 0x000fc800
0x15177220 0x00000016 0x00400000 0x000fc600
0x0b007302 0x00000015 0x00000000 0x000e6200
0x15057423 0x3f800000 0x00000104 0x001fce00
0x00037305 0x00000015 0x0020f100 0x0000a200
0x04057223 0x00000005 0x00000004 0x000fc800
0x0b047223 0x00000005 0x000000ff 0x000fc800
0x15077223 0x00000004 0x0000010b 0x000fc800
0x05007223 0x00000007 0x00000004 0x000fe200
0x00008947 0x00000040 0x03800000 0x002fea00
0x000e7202 0x00000015 0x00000f00 0x005fe400
0x000a7802 0x0001bef0 0x00000f00 0x000fc600
0x00007944 0x00001400 0x03c00000 0x000fea00
0x00007202 0x0000000c 0x00000f00 0x000fc600
0x00037941 0x00000000 0x03800000 0x005fea00
0x001c7306 0x0000001d 0x00201400 0x000e2200
0xff077984 0x00009c00 0x00001800 0x000e6200
0x03ff7355 0x00000000 0x00100000 0x000fe200
0x00037945 0x00000110 0x03800000 0x000fe200
0x1b007221 0x00000000 0x00000000 0x000fc800
0x00057308 0x00000015 0x00001000 0x000ea200
0x19047220 0x0000001c 0x00400000 0x001fc800
0x060b7220 0x00000004 0x00400000 0x000fe400
0x15087423 0x3f800000 0x00000105 0x004fc800
0x0b007302 0x00000015 0x00000000 0x000e2200
0x05087223 0x00000008 0x00000005 0x000fc800
0x08047223 0x0000000b 0x000000ff 0x000fc800
0x15057223 0x00000004 0x0000010b 0x000fc800
0x08057223 0x00000005 0x00000004 0x000fe400
0x1e1b7221 0x00000007 0x00000000 0x002fe200
0x00008947 0x00000040 0x03800000 0x001fea00
0x000e7202 0x00000015 0x00000f00 0x000fe400
0x000a7802 0x0001c040 0x00000f00 0x000fc600
0x00007944 0x000012b0 0x03c00000 0x000fea00
0x00057202 0x0000000c 0x00000f00 0x000fc600
0x00037941 0x00000000 0x03800000 0x000fea00
0x1d1f7210 0x80000002 0x07ffe0ff 0x000fe200
0xff087984 0x0000a000 0x00001800 0x000e2200
0x000a7308 0x00000016 0x00001000 0x000e6200
0x13047220 0x0000001c 0x00400000 0x000fe200
0x03ff7355 0x00000000 0x00100000 0x000fe200
0x00037945 0x00000120 0x03800000 0x000fe200
0x1b057221 0x00000005 0x00000000 0x000fc400
0x06047220 0x00000004 0x00400000 0x000fe400
0x00097306 0x0000001f 0x00201400 0x000ea200
0x160b7423 0x3f800000 0x0000010a 0x002fc800
0x0a0b7223 0x0000000b 0x0000000a 0x000fe400
0x040c7220 0x00000009 0x00400000 0x004fc800
0x0c047223 0x0000000b 0x000000ff 0x000fe400
0x0c007302 0x00000016 0x00000000 0x000e6400
0x16097223 0x00000004 0x0000010c 0x000fc800
0x0b047223 0x00000009 0x00000004 0x000fe400
0x22137221 0x00000008 0x00000000 0x001fe200
0x00008947 0x00000050 0x03800000 0x002fea00
0x000b7202 0x0000000c 0x00000f00 0x000fe400
0x000e7202 0x00000016 0x00000f00 0x000fe400
0x000a7802 0x0001c1c0 0x00000f00 0x000fc600
0x00007944 0x00001130 0x03c00000 0x000fea00
0x00047202 0x0000000c 0x00000f00 0x000fc600
0x00037941 0x00000000 0x03800000 0x000fea00
0x000c7308 0x00000015 0x00001000 0x000e2200
0x1e0a7220 0x00000006 0x00400000 0x000fe200
0x03ff7355 0x00000000 0x00100000 0x000fe200
0x18097820 0x40400000 0x00400000 0x000fe200
0x00037945 0x000000f0 0x03800000 0x000fe200
0x070a7223 0x0000001c 0x0000080a 0x000fc400
0x131b7221 0x00000004 0x00000000 0x000fe400
0x090b7220 0x0000000a 0x00400000 0x000fcc00
0x0b007302 0x00000015 0x00000000 0x000e6200
0x150d7423 0x3f800000 0x0000010c 0x001fc800
0x0c0d7223 0x0000000d 0x0000000c 0x000fc800
0x0d097223 0x0000000b 0x000000ff 0x000fc800
0x150a7223 0x00000009 0x0000010b 0x000fc800
0x0d047223 0x0000000a 0x00000009 0x000fe200
0x00008947 0x00000040 0x03800000 0x002fea00
0x000e7202 0x00000015 0x00000f00 0x000fe400
0x000a7802 0x0001c300 0x00000f00 0x000fc600
0x00007944 0x00000ff0 0x03c00000 0x000fea00
0x00047202 0x0000000c 0x00000f00 0x000fc600
0x00037941 0x00000000 0x03800000 0x000fea00
0x02137224 0x00000002 0x078e02ff 0x000fe200
0x000b7308 0x00000017 0x00001000 0x000e2200
0xff027984 0x0000a400 0x00001800 0x000e6200
0x03ff7355 0x00000000 0x00100000 0x000fe200
0x1d097224 0x0000001f 0x078e0213 0x000fe200
0x00037945 0x00000120 0x03800000 0x000fe200
0x1b047221 0x00000004 0x00000000 0x000fc800
0x000a7306 0x00000009 0x00201400 0x0004e200
0x170c7423 0x3f800000 0x0000010b 0x001fe400
0x1a097220 0x0000001c 0x00400000 0x004fe400
0x0b0c7223 0x0000000c 0x0000000b 0x000fe400
0x06097220 0x00000009 0x00400000 0x000fc800
0x090d7220 0x0000000a 0x00400000 0x008fc800
0x0d097223 0x0000000c 0x000000ff 0x000fe400
0x0d007302 0x00000017 0x00000000 0x000e2400
0x170a7223 0x00000009 0x0000010d 0x000fc800
0x0c0c7223 0x0000000a 0x00000009 0x000fe400
0x14147221 0x00000002 0x00000000 0x002fe200
0x00008947 0x00000040 0x03800000 0x001fea00
0x000b7202 0x0000000d 0x00000f00 0x000fe400
0x000e7202 0x00000017 0x00000f00 0x000fe400
0x000a7802 0x0001c490 0x00000f00 0x000fc600
0x00007944 0x00000e60 0x03c00000 0x000fea00
0x00037941 0x00000000 0x03800000 0x000fea00
0x1d027224 0x0000001d 0x078e02ff 0x000fe200
0x00137306 0x00000013 0x00201400 0x000e2200
0x03ff7355 0x00000000 0x00100000 0x000fe200
0x00037945 0x00000140 0x03800000 0x000fe200
0x14147221 0x0000000c 0x00000000 0x000fca00
0x00097306 0x00000002 0x00201400 0x0002b000
0x000a7308 0x00000016 0x00001000 0x000ee200
0x1e137220 0x00000013 0x00400000 0x001fe400
0x19027820 0x40c00000 0x00400000 0x002fc400
0x07097223 0x00000009 0x00000013 0x004fc800
0x02097220 0x00000009 0x00400000 0x000fe400
0x16077423 0x3f800000 0x0000010a 0x008fc800
0x09007302 0x00000016 0x00000000 0x000e2200
0x0a0a7223 0x00000007 0x0000000a 0x000fc800
0x0a027223 0x00000009 0x000000ff 0x000fc800
0x16077223 0x00000002 0x00000109 0x000fc800
0x0a027223 0x00000007 0x00000002 0x000fe200
0x00008947 0x00000050 0x03800000 0x001fea00
0x000b7202 0x00000009 0x00000f00 0x000fe400
0x000e7202 0x00000016 0x00000f00 0x000fe400
0x000a7802 0x0001c600 0x00000f00 0x000fc600
0x00007944 0x00000cf0 0x03c00000 0x000fea00
0x00027202 0x0000000c 0x00000f00 0x000fc600
0x00037941 0x00000000 0x03800000 0x000fea00
0x00097308 0x00000015 0x00001000 0x000e2200
0x22077220 0x00000006 0x00400000 0x000fe200
0x03ff7355 0x00000000 0x00100000 0x000fe200
0x18067820 0x40800000 0x00400000 0x000fe200
0x00037945 0x000000f0 0x03800000 0x000fe200
0x1c077223 0x00000008 0x00000807 0x000fc400
0x14027221 0x00000002 0x00000000 0x000fe400
0x060b7220 0x00000007 0x00400000 0x000fcc00
0x0b007302 0x00000015 0x00000000 0x000e6200
0x15087423 0x3f800000 0x00000109 0x001fc800
0x09087223 0x00000008 0x00000009 0x000fc800
0x08067223 0x0000000b 0x000000ff 0x000fc800
0x15077223 0x00000006 0x0000010b 0x000fc800
0x08067223 0x00000007 0x00000006 0x000fe200
0x00008947 0x00000040 0x03800000 0x002fea00
0x000e7202 0x00000015 0x00000f00 0x000fe400
0x000a7802 0x0001c740 0x00000f00 0x000fc600
0x00007944 0x00000bb0 0x03c00000 0x000fea00
0x00067202 0x0000000c 0x00000f00 0x000fc600
0x00037941 0x00000000 0x03800000 0x000fea00
0x02067221 0x00000006 0x00000000 0x000fc600
0x00007941 0x00000000 0x03800000 0x000fea00
0x00027919 0x00000000 0x00002100 0x000f6400
0x0200720c 0x000000ff 0x03f05270 0x020fd800
0x0000094d 0x00000000 0x03800000 0x000fea00
0x03027a10 0x00005e00 0x07ffe0ff 0x002fe200
0x001b7306 0x00000003 0x00201400 0x000e6200
0x00167621 0x80005f00 0x00000000 0x009fe200
0x00ff7355 0x00000000 0x00100000 0x000fe200
0x00007945 0x00000150 0x03800000 0x000fe400
0x16177220 0x00000016 0x00400000 0x010fc600
0x00137306 0x00000002 0x00201400 0x000e2200
0x16187220 0x00000017 0x00400000 0x000fc800
0x16197220 0x00000018 0x00400000 0x040fe400
0x160b7220 0x0000001b 0x00400000 0x002fe200
0x00027308 0x00000013 0x00001000 0x001e2200
0x13147220 0x00000013 0x00400000 0x004fc800
0x13157220 0x00000014 0x00400000 0x000fc600
0x0b007302 0x00000013 0x00000000 0x000e6200
0x13007423 0x3f800000 0x00000102 0x001fce00
0x001a7305 0x00000013 0x0020f100 0x0000a200
0x02007223 0x00000000 0x00000002 0x000fc800
0x0b027223 0x00000000 0x000000ff 0x000fc800
0x13077223 0x00000002 0x0000010b 0x000fc800
0x00007223 0x00000007 0x00000002 0x000fe200
0x00008947 0x00000040 0x03800000 0x002fea00
0x000e7202 0x00000013 0x00000f00 0x005fe400
0x000a7802 0x0001c930 0x00000f00 0x000fc600
0x00007944 0x000009c0 0x03c00000 0x000fea00
0x00007202 0x0000000c 0x00000f00 0x000fc600
0x00007941 0x00000000 0x03800000 0x005fea00
0x00027b06 0x00005e00 0x00201400 0x000e2200
0x00ff7355 0x00000000 0x00100000 0x000fe200
0x00007945 0x00000110 0x03800000 0x000fe200
0x001c7621 0x00005f00 0x00000000 0x000fe400
0x051d7621 0x00006000 0x00000000 0x000fc600
0x00087308 0x00000013 0x00001000 0x000e6200
0x17077220 0x00000002 0x00400000 0x001fc800
0x1b0b7220 0x00000007 0x00400000 0x000fe400
0x13097423 0x3f800000 0x00000108 0x002fc800
0x0b007302 0x00000013 0x00000000 0x000e2200
0x08097223 0x00000009 0x00000008 0x000fc800
0x09077223 0x0000000b 0x000000ff 0x000fc800
0x13087223 0x00000007 0x0000010b 0x000fc800
0x09077223 0x00000008 0x00000007 0x000fe200
0x00008947 0x00000040 0x03800000 0x001fea00
0x000e7202 0x00000013 0x00000f00 0x000fe400
0x000a7802 0x0001ca70 0x00000f00 0x000fc600
0x00007944 0x00000880 0x03c00000 0x000fea00
0x00077202 0x0000000c 0x00000f00 0x000fc600
0x00007941 0x00000000 0x03800000 0x000fea00
0x031e7a10 0x00005e00 0x07ffe1ff 0x000fe200
0x00097308 0x00000014 0x00001000 0x000e2200
0x18007220 0x00000002 0x00400000 0x000fe200
0x00ff7355 0x00000000 0x00100000 0x000fe200
0x00007945 0x00000110 0x03800000 0x000fe200
0x1d1d7221 0x00000007 0x00000000 0x000fe400
0x1b007220 0x00000000 0x00400000 0x000fc400
0x00087306 0x0000001e 0x00201400 0x000e6200
0x140a7423 0x3f800000 0x00000109 0x001fc800
0x090a7223 0x0000000a 0x00000009 0x000fe400
0x04097621 0x00006100 0x00000000 0x000fe400
0x000b7220 0x00000008 0x00400000 0x002fc800
0x0b007223 0x0000000a 0x000000ff 0x000fe400
0x0b007302 0x00000014 0x00000000 0x000e2400
0x14087223 0x00000000 0x0000010b 0x000fc800
0x0a007223 0x00000008 0x00000000 0x000fe200
0x00008947 0x00000040 0x03800000 0x001fea00
0x000e7202 0x00000014 0x00000f00 0x000fe400
0x000a7802 0x0001cbd0 0x00000f00 0x000fc600
0x00007944 0x00000720 0x03c00000 0x000fea00
0x00007202 0x0000000c 0x00000f00 0x000fc600
0x00007941 0x00000000 0x03800000 0x000fea00
0x000a7308 0x00000013 0x00001000 0x000e2200
0x1b087a20 0x00006000 0x00400000 0x000fe200
0x00ff7355 0x00000000 0x00100000 0x000fe200
0x16077820 0x40400000 0x00400000 0x000fe200
0x00007945 0x000000f0 0x03800000 0x000fe200
0x02087223 0x00000005 0x00000808 0x000fe400
0x09187221 0x00000000 0x00000000 0x000fc400
0x070b7220 0x00000008 0x00400000 0x000fcc00
0x0b007302 0x00000013 0x00000000 0x000e6200
0x130c7423 0x3f800000 0x0000010a 0x001fc800
0x0a0c7223 0x0000000c 0x0000000a 0x000fc800
0x0c077223 0x0000000b 0x000000ff 0x000fc800
0x13087223 0x00000007 0x0000010b 0x000fc800
0x0c077223 0x00000008 0x00000007 0x000fe200
0x00008947 0x00000040 0x03800000 0x002fea00
0x000e7202 0x00000013 0x00000f00 0x000fe400
0x000a7802 0x0001cd10 0x00000f00 0x000fc600
0x00007944 0x000005e0 0x03c00000 0x000fea00
0x00077202 0x0000000c 0x00000f00 0x000fc600
0x00007941 0x00000000 0x03800000 0x000fea00
0x031f7224 0x00000003 0x078e02ff 0x000fe200
0x00087308 0x00000015 0x00001000 0x000e2200
0x00ff7355 0x00000000 0x00100000 0x000fe200
0x00007945 0x00000130 0x03800000 0x000fe200
0x1e007a24 0x00005e00 0x078e021f 0x000fe400
0x18187221 0x00000007 0x00000000 0x000fc800
0x00037306 0x00000000 0x00201400 0x0002a200
0x15097423 0x3f800000 0x00000108 0x001fe400
0x19007220 0x00000002 0x00400000 0x002fe400
0x08097223 0x00000009 0x00000008 0x000fe400
0x1b007220 0x00000000 0x00400000 0x000fe400
0x06087621 0x00006200 0x00000000 0x000fe400
0x000b7220 0x00000003 0x00400000 0x004fc800
0x0b007223 0x00000009 0x000000ff 0x000fe400
0x0b007302 0x00000015 0x00000000 0x000e2400
0x15037223 0x00000000 0x0000010b 0x000fc800
0x09007223 0x00000003 0x00000000 0x000fe200
0x00008947 0x00000040 0x03800000 0x001fea00
0x000e7202 0x00000015 0x00000f00 0x000fe400
0x000a7802 0x0001ce80 0x00000f00 0x000fc600
0x00007944 0x00000470 0x03c00000 0x000fea00
0x00007202 0x0000000c 0x00000f00 0x000fc600
0x00007941 0x00000000 0x03800000 0x000fea00
0x00047ab9 0x00005e00 0x00000800 0x000fe200
0x00037306 0x0000001f 0x00201400 0x000e2200
0x040472a4 0x00000004 0x0f8e023f 0x000fe200
0x00ff7355 0x00000000 0x00100000 0x000fe200
0x00007945 0x00000140 0x03800000 0x000fe200
0x08087221 0x00000000 0x00000000 0x000fc800
0x00097308 0x00000014 0x00001000 0x000ff000
0x00067d06 0x00000004 0x08201400 0x000e6200
0x03077a20 0x00006000 0x00400000 0x001fe400
0x17037820 0x40c00000 0x00400000 0x000fc400
0x06067223 0x00000005 0x00000007 0x002fe400
0x14057423 0x3f800000 0x00000109 0x000fe400
0x03067220 0x00000006 0x00400000 0x000fe400
0x09097223 0x00000005 0x00000009 0x000fc800
0x06007302 0x00000014 0x00000000 0x000e2200
0x09037223 0x00000006 0x000000ff 0x000fc800
0x14057223 0x00000003 0x00000106 0x000fc800
0x09037223 0x00000005 0x00000003 0x000fe200
0x00008947 0x00000050 0x03800000 0x001fea00
0x000b7202 0x00000006 0x00000f00 0x000fe400
0x000e7202 0x00000014 0x00000f00 0x000fe400
0x000a7802 0x0001d010 0x00000f00 0x000fc600
0x00007944 0x000002e0 0x03c00000 0x000fea00
0x00037202 0x0000000c 0x00000f00 0x000fc600
0x00007941 0x00000000 0x03800000 0x000fea00
0x00067308 0x00000013 0x00001000 0x000e2200
0x1b057a20 0x00006100 0x00400000 0x000fe200
0x00ff7355 0x00000000 0x00100000 0x000fe200
0x16007820 0x40800000 0x00400000 0x000fe200
0x00007945 0x00000100 0x03800000 0x000fe200
0x02057223 0x00000004 0x00000805 0x000fc400
0x08037221 0x00000003 0x00000000 0x000fe400
0x00057220 0x00000005 0x00400000 0x000fcc00
0x05007302 0x00000013 0x00000000 0x000e6200
0x13027423 0x3f800000 0x00000106 0x001fc800
0x06067223 0x00000002 0x00000006 0x000fc800
0x06007223 0x00000005 0x000000ff 0x000fc800
0x13027223 0x00000000 0x00000105 0x000fc800
0x06007223 0x00000002 0x00000000 0x000fe200
0x00008947 0x00000050 0x03800000 0x002fea00
0x000b7202 0x00000005 0x00000f00 0x000fe400
0x000e7202 0x00000013 0x00000f00 0x000fe400
0x000a7802 0x0001d160 0x00000f00 0x000fc600
0x00007944 0x00000190 0x03c00000 0x000fea00
0x00007202 0x0000000c 0x00000f00 0x000fc600
0x00007941 0x00000000 0x03800000 0x000fea00
0x03007221 0x00000000 0x00000000 0x000fe200
0x00047ab9 0x00005a00 0x00000a00 0x000fe400
0xff007986 0x0000001a 0x0c10e904 0x000fe800
0xff007986 0x0000041c 0x0c10e904 0x000fe800
0xff007986 0x0000081d 0x0c10e904 0x000fe800
0xff007986 0x00000c18 0x0c10e904 0x000fe800
0xff007986 0x00001000 0x0c10e904 0x000fe200
0x0000794d 0x00000000 0x03800000 0x000fea00
0x00007919 0x00000000 0x00002100 0x000e2400
0x0000720c 0x000000ff 0x03f05270 0x001fd800
0x0000094d 0x00000000 0x03800000 0x000fea00
0x00057a02 0x00005e00 0x00000f00 0x000fe200
0x00047ab9 0x00005a00 0x00000a00 0x000fe200
0x00007a02 0x00005f00 0x00000f00 0x000fe400
0x00027a02 0x00006000 0x00000f00 0x000fe400
0x00037a02 0x00006100 0x00000f00 0x000fe400
0x00047a02 0x00006200 0x00000f00 0x000fe200
0xff007986 0x00000005 0x0c10e904 0x000fe800
0xff007986 0x00000400 0x0c10e904 0x000fe800
0xff007986 0x00000802 0x0c10e904 0x000fe800
0xff007986 0x00000c03 0x0c10e904 0x000fe800
0xff007986 0x00001004 0x0c10e904 0x000fe200
0x0000794d 0x00000000 0x03800000 0x000fea00
0xff0d7819 0x00000017 0x0001160e 0x000fe200
0x01ff7355 0x00000000 0x00100000 0x000fe200
0xff117819 0x00000017 0x0001160b 0x000fe200
0x00017945 0x00000620 0x03800000 0x000fe200
0x0d0d7812 0x000000ff 0x078ec0ff 0x000fc400
0x11117812 0x000000ff 0x078ec0ff 0x000fe400
0x0d0f7810 0xffffffff 0x07ffe0ff 0x000fe400
0x11107810 0xffffffff 0x07ffe0ff 0x000fe400
0x0f00780c 0x000000fd 0x03f04070 0x000fc800
0x1000780c 0x000000fd 0x00704470 0x000fd800
0x000c8202 0x000000ff 0x00000f00 0x000fe200
0x00008947 0x00000170 0x03800000 0x000fea00
0x0b00780b 0x7f800000 0x03f1c200 0x000fe400
0x0e00780b 0x7f800000 0x03f3c200 0x000fc800
0x0000781c 0x00000000 0x00703570 0x000fd800
0x00000947 0x00000540 0x03800000 0x000fea00
0x0eff7812 0x7fffffff 0x0780c80b 0x000fd800
0x00008947 0x00000500 0x03800000 0x000fea00
0x0b00780b 0x7f800000 0x03f7d200 0x040fe400
0x0e00780b 0x7f800000 0x03f3d200 0x000fe400
0x0b00780b 0x7f800000 0x03f1d200 0x000fd400
0x00009947 0x000004c0 0x05800000 0x000fea00
0x0bff7812 0x7fffffff 0x0786c0ff 0x000fc800
0x0000781c 0x00000000 0x00f26572 0x000fd800
0x00001947 0x00000470 0x03800000 0x000fea00
0x0eff7812 0x7fffffff 0x0782c0ff 0x000fc800
0x0000781c 0x00000000 0x00702572 0x000fd800
0x00000947 0x00000410 0x03800000 0x000fea00
0x1000720c 0x000000ff 0x03f06270 0x000fe400
0x0f00720c 0x000000ff 0x03f26270 0x000fd400
0x000c0202 0x000000ff 0x00000f00 0x000fe200
0x0b0b8823 0x5f800000 0x000000ff 0x000fe400
0x0e0e9823 0x5f800000 0x000000ff 0x000fe200
0x000c8802 0xffffffc0 0x00000f00 0x000fc800
0x0c0c9810 0x00000040 0x07ffe0ff 0x000fe400
0x0d0f7811 0xc0800000 0x078eb8ff 0x000fe200
0x02ff7355 0x00000000 0x00100000 0x000fe200
0x11117810 0xffffff81 0x07ffe0ff 0x000fe200
0x00027945 0x00000350 0x03800000 0x000fe200
0x0f0f7210 0x0000000e 0x07ffe1ff 0x000fe400
0x110d7810 0x0000007f 0x07ffe80d 0x040fe200
0x110b7824 0xff800000 0x078e020b 0x000fe400
0x0f107221 0x800000ff 0x00010100 0x000fe200
0x000e7308 0x0000000f 0x00001000 0x000e2200
0x0d0d7210 0x0000000c 0x07ffe0ff 0x000fc400
0x0e0f7423 0x3f800000 0x00000010 0x001fc800
0x0e0e7223 0x0000000f 0x0000000e 0x000fc800
0x0b0f7223 0x0000000e 0x000000ff 0x000fc800
0x10127223 0x0000000f 0x0000000b 0x000fc800
0x0e0f7223 0x00000012 0x0000000f 0x000fc800
0x10107223 0x0000000f 0x0000000b 0x000fc800
0x0e0b7223 0x00000010 0x0000000f 0x000fca00
0xff117819 0x00000017 0x0001160b 0x000fc800
0x110c7812 0x000000ff 0x078ec0ff 0x000fc800
0x0c0c7210 0x0000000d 0x07ffe0ff 0x000fc800
0x0c117810 0xffffffff 0x07ffe0ff 0x000fc800
0x1100780c 0x000000fe 0x03f06070 0x000fd800
0x00008947 0x00000200 0x03800000 0x000fea00
0x0c00780c 0x000000fe 0x03f04270 0x000fd800
0x00000947 0x000001b0 0x03800000 0x000fea00
0x0c00780c 0x00000001 0x03f06270 0x000fd800
0x00000947 0x000001d0 0x03800000 0x000fea00
0x0c00780c 0xffffffe8 0x03f06270 0x000fe400
0x0b0b7812 0x80000000 0x078ec0ff 0x000fd400
0x00008947 0x000001a0 0x03800000 0x000fea00
0x0e117223 0x00000010 0x0000c00f 0x180fe200
0x0c00720c 0x000000ff 0x03f65270 0x000fe200
0x0e0d7223 0x00000010 0x0000800f 0x180fe200
0x0c00720c 0x000000ff 0x03f25270 0x000fe200
0x0e0e7223 0x00000010 0x0000400f 0x000fe200
0x11117812 0x007fffff 0x078ec0ff 0x000fe400
0x0c0f7810 0x00000020 0x07ffe0ff 0x040fe400
0x11117812 0x00800000 0x078efcff 0x000fe400
0x0c0c7210 0x000000ff 0x07ffe1ff 0x000fc400
0x110f7219 0x0000000f 0x000006ff 0x000fe400
0x0d00720b 0x0000000e 0x03f1d000 0x000fe400
0x0c0c7207 0x000000ff 0x01800000 0x000fe400
0x0f00720c 0x000000ff 0x00f25270 0x000fe400
0xff117219 0x0000000c 0x00011611 0x000fe400
0x0000781c 0x00000000 0x00703570 0x000fc400
0xff0c7819 0x00000001 0x00011611 0x000fe400
0xff0d7807 0x00000001 0x04000000 0x000fc800
0x0d0d7812 0x00000001 0x078ef80c 0x000fc800
0x0d0d7212 0x00000011 0x078ec0ff 0x000fc800
0x0c0d7210 0x0000000d 0x07ffe0ff 0x000fc800
0x0d0b7212 0x0000000b 0x078efcff 0x000fe200
0x00007947 0x00000040 0x03800000 0x000fea00
0x0b0b7812 0x80000000 0x078ec0ff 0x000fc800
0x0b0b7812 0x7f800000 0x078efcff 0x000fe200
0x00007947 0x00000010 0x03800000 0x000fea00
0x0d0b7211 0x0000000b 0x078eb8ff 0x000fc600
0x00027941 0x00000000 0x03800000 0x000fea00
0x00007947 0x00000080 0x03800000 0x000fea00
0x0e0b7812 0x80000000 0x078e480b 0x000fc800
0x0b0b7812 0x7f800000 0x078efcff 0x000fe200
0x00007947 0x00000050 0x03800000 0x000fea00
0x0e0b7812 0x80000000 0x078e480b 0x000fe200
0x00007947 0x00000030 0x03800000 0x000fea00
0x000b7908 0xffc00000 0x00001400 0x000e2200
0x00007947 0x00000010 0x03800000 0x000fea00
0x0b0b7221 0x0000000e 0x00010000 0x000fc600
0x00017941 0x00000000 0x03800000 0x000fea00
0x000c7202 0x0000000b 0x00000f00 0x001fe400
0x000b7802 0x00000000 0x00000f00 0x000fcc00
0x0a007950 0xfffe2680 0x03c3ffff 0x000fea00
0x00007947 0xfffffff0 0x0383ffff 0x000fc000
0x00007918 0x00000000 0x00000000 0x000fc000
0x00007918 0x00000000 0x00000000 0x000fc000
0x00007918 0x00000000 0x00000000 0x000fc000
0x00007918 0x00000000 0x00000000 0x000fc000
0x00007918 0x00000000 0x00000000 0x000fc000
0x00007918 0x00000000 0x00000000 0x000fc000
0x00007918 0x00000000 0x00000000 0x000fc000



.text._ZN3cub17CUB_200400_750_NS18DeviceReduceKernelINS0_18DeviceReducePolicyI14kurtosisResulty18kurtosis_binary_opE9Policy600EN6thrust20THRUST_200400_750_NS10device_ptrI12storeElementEEyS4_S3_17kurtosis_unary_opISA_EEEvT0_PT3_T1_NS0_13GridEvenShareISH_EET2_T4_
bar = 1	reg = 39	lmem=0	smem=188
0x00017a02 0x00000a00 0x00000f00 0x000fe400
0x00057919 0x00000000 0x00002500 0x000e2200
0x00ff7355 0x00000000 0x00100000 0x000fe200
0x00007945 0x0001c750 0x03800000 0x000fe200
0x051a7824 0x00000300 0x078e02ff 0x001fca00
0x1a067a10 0x00006600 0x07f3e1ff 0x000fe400
0xff197819 0x0000001f 0x0001141a 0x000fe400
0x0600780c 0x00000300 0x03f06070 0x000fe400
0x19027a10 0x00006700 0x00ffe5ff 0x000fc800
0x0200720c 0x000000ff 0x03f06100 0x000fd800
0x00008947 0x0000ba70 0x03800000 0x000fea00
0x00237919 0x00000000 0x00002100 0x000e2200
0x00057802 0x00000018 0x00000f00 0x000fe400
0x1a047210 0x00000023 0x07f1e0ff 0x001fe400
0xff217819 0x0000001f 0x00011423 0x000fc600
0x04047625 0x00005800 0x078e0005 0x000fe200
0x19007210 0x00000021 0x007fe4ff 0x000fca00
0x00037824 0x00000018 0x078e02ff 0x000fca00
0x05057210 0x00000003 0x07ffe0ff 0x000fd000
0x04007381 0x00181000 0x001ee900 0x000ea800
0x04137381 0x00001000 0x001ee900 0x000ea800
0x040a7381 0x00301000 0x001ee900 0x000ee200
0x000c7802 0x3eaaaaab 0x00000f00 0x000fe200
0x03ff7355 0x00000000 0x00100000 0x000fe200
0x000b7802 0x40400000 0x00000f00 0x000fe200
0x00037945 0x00000230 0x03800000 0x000fe200
0x00147802 0x00000003 0x00000f00 0x000fc600
0x0c0b7423 0x3f800000 0x0000080b 0x000fc800
0x0b0b7423 0x3eaaaaab 0x0000000c 0x000fe400
0x00007221 0x80000013 0x00000000 0x004fc800
0x00137823 0x3f000000 0x00000013 0x040fe400
0x00037220 0x00000000 0x00400000 0x040fe400
0x130a7221 0x0000000a 0x00000100 0x008fe400
0x00077220 0x00000003 0x00400000 0x040fe400
0x03097820 0x40c00000 0x00400000 0x000fe400
0x0a007902 0x40400000 0x00000000 0x000e2200
0x00087220 0x00000007 0x00400000 0x000fc400
0x00047820 0x40400000 0x00400000 0x000fe400
0xff077220 0x00000007 0x00400000 0x000fe400
0xff097220 0x00000009 0x00400000 0x000fe400
0x08087823 0x3e000000 0x000000ff 0x000fe400
0x00007820 0x40800000 0x00400000 0x000fe400
0xff047220 0x00000004 0x00400000 0x000fc400
0x0a0c7223 0x0000000b 0x000000ff 0x000fe400
0x07077823 0x3e800000 0x000000ff 0x000fe400
0x09087823 0x3e800000 0x00000008 0x000fe400
0xff057220 0x00000000 0x00400000 0x000fe400
0x0c007823 0xc0400000 0x0000000a 0x000fe400
0x04097823 0x3f000000 0x00000007 0x000fc400
0x0a077220 0x0000000a 0x00400000 0x040fe400
0x05087823 0x3f000000 0x00000008 0x000fe400
0x0b007223 0x00000000 0x0000000c 0x000fe400
0x03057823 0x3f000000 0x000000ff 0x000fe400
0x0a0b7220 0x00000007 0x00400000 0x000fe200
0x00008947 0x00000050 0x03800000 0x001fea00
0x000e7202 0x0000000a 0x00000f00 0x000fe400
0x00117802 0x40400000 0x00000f00 0x000fc400
0x00007802 0x000003b0 0x00000f00 0x000fc600
0x00007944 0x0001c4b0 0x03c00000 0x000fea00
0x00007202 0x00000003 0x00000f00 0x001fc600
0x00037941 0x00000000 0x03800000 0x000fea00
0x070e7820 0x40000000 0x00400000 0x000fe200
0x00037802 0x3eaaaaab 0x00000f00 0x000fe200
0x03ff7355 0x00000000 0x00100000 0x000fe200
0x00047802 0x40400000 0x00000f00 0x000fe200
0x00037945 0x000000c0 0x03800000 0x000fe200
0x13137221 0x00000000 0x00000000 0x000fe200
0x0e007902 0x40400000 0x00000000 0x000e2400
0x03047423 0x3f800000 0x00000804 0x000fc800
0x040d7423 0x3eaaaaab 0x00000003 0x000fc800
0x0d037223 0x0000000e 0x000000ff 0x000fc800
0x03047823 0xc0400000 0x0000000e 0x000fc800
0x0d037223 0x00000004 0x00000003 0x000fe200
0x00008947 0x00000030 0x03800000 0x001fea00
0x00117802 0x40400000 0x00000f00 0x000fe400
0x00007802 0x000004d0 0x00000f00 0x000fc600
0x00007944 0x0001c390 0x03c00000 0x000fea00
0x00037941 0x00000000 0x03800000 0x000fea00
0x0b0e7820 0x40000000 0x00400000 0x000fe200
0x000d7802 0x3de38e39 0x00000f00 0x000fe200
0x03ff7355 0x00000000 0x00100000 0x000fe200
0x00007802 0x41100000 0x00000f00 0x000fe200
0x00037945 0x000000d0 0x03800000 0x000fe200
0x05157221 0x00000003 0x00000000 0x001fe200
0x0e007902 0x41100000 0x00000000 0x000e2200
0xff0c7221 0x00000009 0x00000000 0x000fc400
0x0d007423 0x3f800000 0x00000800 0x000fc800
0x000d7423 0x3de38e39 0x0000000d 0x000fc800
0x0e007223 0x0000000d 0x000000ff 0x000fc800
0x00047823 0xc1100000 0x0000000e 0x000fc800
0x0d037223 0x00000004 0x00000000 0x000fe200
0x00008947 0x00000030 0x03800000 0x001fea00
0x00117802 0x41100000 0x00000f00 0x000fe400
0x00007802 0x000005f0 0x00000f00 0x000fc600
0x00007944 0x0001c270 0x03c00000 0x000fea00
0x00037941 0x00000000 0x03800000 0x000fea00
0x0a007820 0x40400000 0x00400000 0x000fe200
0x00047802 0x3eaaaaab 0x00000f00 0x000fe200
0xff0d7221 0x80000005 0x00000000 0x000fe200
0x000f7802 0x40400000 0x00000f00 0x000fe200
0x03ff7355 0x00000000 0x00100000 0x000fe200
0x00037945 0x000000d0 0x03800000 0x000fe200
0x000e7220 0x0000000d 0x00400000 0x000fe400
0x040f7423 0x3f800000 0x0000080f 0x000fc400
0x0c0c7221 0x00000003 0x00000000 0x001fe400
0x0e007902 0x40400000 0x00000000 0x000e2200
0x0f0f7423 0x3eaaaaab 0x00000004 0x000fc800
0x0f0d7223 0x0000000e 0x000000ff 0x000fc800
0x0d007823 0xc0400000 0x0000000e 0x000fc800
0x0f037223 0x00000000 0x0000000d 0x000fe200
0x00008947 0x00000030 0x03800000 0x001fea00
0x00117802 0x40400000 0x00000f00 0x000fe400
0x00007802 0x00000720 0x00000f00 0x000fc600
0x00007944 0x0001c140 0x03c00000 0x000fea00
0x00037941 0x00000000 0x03800000 0x000fea00
0x0a0b7220 0x0000000b 0x00500000 0x000fe200
0x000d7802 0x3d17b426 0x00000f00 0x000fe200
0x03ff7355 0x00000000 0x00100000 0x000fe200
0x00007802 0x41d80000 0x00000f00 0x000fe200
0x0b0e7820 0x40400000 0x00400000 0x000fe200
0x00037945 0x000000d0 0x03800000 0x000fe200
0x0c167221 0x00000003 0x00000000 0x001fe400
0x0d007423 0x3f800000 0x00000800 0x000fc400
0x0e007902 0x41d80000 0x00000000 0x000e2200
0xff087221 0x00000008 0x00000000 0x000fe400
0x000b7423 0x3d17b426 0x0000000d 0x000fc800
0x0e007223 0x0000000b 0x000000ff 0x000fc800
0x00047823 0xc1d80000 0x0000000e 0x000fc800
0x0b037223 0x00000004 0x00000000 0x000fe200
0x00008947 0x00000030 0x03800000 0x001fea00
0x00117802 0x41d80000 0x00000f00 0x000fe400
0x00007802 0x00000850 0x00000f00 0x000fc600
0x00007944 0x0001c010 0x03c00000 0x000fea00
0x00037941 0x00000000 0x03800000 0x000fea00
0x07077820 0x40c00000 0x00400000 0x000fe200
0x00047802 0x3de38e39 0x00000f00 0x000fe200
0xff007823 0x40800000 0x00000005 0x000fe200
0x000b7802 0x41100000 0x00000f00 0x000fe200
0x03ff7355 0x00000000 0x00100000 0x000fe200
0x00037945 0x000000d0 0x03800000 0x000fe200
0x070e7220 0x00000000 0x00400000 0x000fe400
0x040b7423 0x3f800000 0x0000080b 0x000fc400
0x08087221 0x00000003 0x00000000 0x001fe400
0x0e007902 0x41100000 0x00000000 0x000e2200
0x0b0b7423 0x3de38e39 0x00000004 0x000fc800
0x0b057223 0x0000000e 0x000000ff 0x000fc800
0x05007823 0xc1100000 0x0000000e 0x000fc800
0x0b037223 0x00000000 0x00000005 0x000fe200
0x00008947 0x00000030 0x03800000 0x001fea00
0x00117802 0x41100000 0x00000f00 0x000fe400
0x00007802 0x00000980 0x00000f00 0x000fc600
0x00007944 0x0001bee0 0x03c00000 0x000fea00
0x00037941 0x00000000 0x03800000 0x000fea00
0x0a0a7820 0x40800000 0x00400000 0x000fe200
0x00007802 0x3eaaaaab 0x00000f00 0x000fe200
0xff097221 0x80000009 0x00000000 0x000fe200
0x00057802 0x40400000 0x00000f00 0x000fe200
0x03ff7355 0x00000000 0x00100000 0x000fe200
0x00207a02 0x00006800 0x00000f00 0x000fe200
0x0a0e7220 0x00000009 0x00400000 0x000fe200
0x00037945 0x000000e0 0x03800000 0x000fe200
0x00057423 0x3f800000 0x00000805 0x000fc400
0x20207824 0x00000300 0x078e02ff 0x000fe400
0x0e007902 0x40400000 0x00000000 0x000e6200
0x05077423 0x3eaaaaab 0x00000000 0x000fe400
0x08087221 0x00000003 0x00000000 0x001fe400
0x07057223 0x0000000e 0x000000ff 0x000fc800
0x05007823 0xc0400000 0x0000000e 0x000fc800
0x07037223 0x00000000 0x00000005 0x000fe200
0xff057819 0x0000001f 0x00011420 0x000fe200
0x00008947 0x00000030 0x03800000 0x002fea00
0x00117802 0x40400000 0x00000f00 0x000fe400
0x00007802 0x00000ae0 0x00000f00 0x000fc600
0x00007944 0x0001bd80 0x03c00000 0x000fea00
0x00037941 0x00000000 0x03800000 0x000fea00
0x0600720c 0x00000020 0x03f06070 0x000fe200
0x080c7221 0x00000003 0x00000000 0x001fc600
0x0200720c 0x00000005 0x03f06100 0x000fd800
0x00008947 0x00003970 0x03800000 0x000fea00
0x1a027210 0x00000020 0x07f1e0ff 0x000fe200
0x00047ab9 0x00006600 0x00000a00 0x000fe200
0x000b7802 0x00000018 0x00000f00 0x000fe200
0x04047890 0xfffffd00 0x0ff1e03f 0x000fe200
0x19067210 0x00000005 0x007fe4ff 0x000fe400
0x230a7210 0x00000002 0x07f1e0ff 0x040fe200
0x05057890 0xffffffff 0x087fe43f 0x000fe200
0x02087625 0x00005800 0x078e000b 0x080fe200
0x23247810 0x00000100 0x07ffe0ff 0x000fe400
0x21007210 0x00000006 0x007fe4ff 0x000fe200
0x0a0a7625 0x00005800 0x078e000b 0x000fe200
0x02007c0c 0x00000004 0x0bf04070 0x000fc400
0x08077810 0x00000010 0x07f3e0ff 0x000fe200
0x06037824 0x00000018 0x078e02ff 0x040fe200
0x06007c0c 0x00000005 0x0bf04100 0x000fe200
0x000f7824 0x00000018 0x078e02ff 0x000fe200
0x0a0e7810 0x00000010 0x07f5e0ff 0x000fe400
0x09087210 0x00000003 0x00ffe4ff 0x000fe400
0x0b0f7210 0x0000000f 0x017fe4ff 0x000fcc00
0x00000947 0x00001bd0 0x03800000 0x000fea00
0x001e7202 0x0000000e 0x00000f00 0x000fe400
0x001f7202 0x0000000f 0x00000f00 0x000fd000
0x1e1a7381 0x00000000 0x001ee900 0x000ea200
0x141b7810 0x00000001 0x07ffe0ff 0x000fe200
0x03ff7355 0x00000000 0x00100000 0x000fe200
0x00037945 0x00000150 0x03800000 0x000fe800
0x001b7306 0x0000001b 0x00201400 0x000e3000
0x00007308 0x0000001b 0x00001000 0x001e2200
0x1b187220 0x0000001b 0x00400000 0x000fc800
0x1b177220 0x00000018 0x00400000 0x000fc600
0x00097305 0x0000001b 0x0020f100 0x000fe200
0x1b037423 0x3f800000 0x00000100 0x001fc800
0x00037223 0x00000003 0x00000000 0x000fe400
0x1a1a7221 0x80000013 0x00000000 0x004fc800
0x1a007223 0x00000003 0x000000ff 0x040fe400
0x1a007302 0x0000001b 0x00000000 0x000e2200
0x1a197220 0x0000001a 0x00400000 0x040fe400
0x1b047223 0x00000000 0x0000011a 0x000fe400
0x1a0a7220 0x00000019 0x00400000 0x040fe400
0x03037223 0x00000004 0x00000000 0x000fe400
0x1a0b7220 0x0000000a 0x00400000 0x000fe200
0x00008947 0x00000040 0x03800000 0x001fea00
0x000e7202 0x0000001a 0x00000f00 0x000fe400
0x00117202 0x0000001b 0x00000f00 0x000fc400
0x00007802 0x00000e10 0x00000f00 0x000fc600
0x00007944 0x0001ba50 0x03c00000 0x000fea00
0x00037941 0x00000000 0x03800000 0x000fea00
0x00127306 0x00000014 0x00201400 0x000e6200
0x03ff7355 0x00000000 0x00100000 0x000fe200
0x00037945 0x000000e0 0x03800000 0x000fe200
0x03137221 0x00000013 0x00000000 0x001fca00
0x00007308 0x0000001b 0x00001000 0x000e2200
0x190e7220 0x00000012 0x00400000 0x002fce00
0x0e007302 0x0000001b 0x00000000 0x000e6200
0x1b0d7423 0x3f800000 0x00000100 0x001fc800
0x000f7223 0x0000000d 0x00000000 0x000fc800
0x0f007223 0x0000000e 0x000000ff 0x000fc800
0x1b0d7223 0x00000000 0x0000010e 0x000fc800
0x0f037223 0x0000000d 0x00000000 0x000fe200
0x00008947 0x00000030 0x03800000 0x002fea00
0x00117202 0x0000001b 0x00000f00 0x000fe400
0x00007802 0x00000f20 0x00000f00 0x000fc600
0x00007944 0x0001b940 0x03c00000 0x000fea00
0x00037941 0x00000000 0x03800000 0x000fea00
0x141c7810 0xffffffff 0x07ffe0ff 0x000fe200
0x000f7308 0x00000018 0x00001000 0x000e6200
0x0a0a7220 0x00000012 0x00400000 0x000fe200
0x03ff7355 0x00000000 0x00100000 0x000fe200
0x00037945 0x000000f0 0x03800000 0x000fea00
0x000d7306 0x0000001c 0x00201400 0x000ea200
0x18007423 0x3f800000 0x0000010f 0x002fc800
0x0f007223 0x00000000 0x0000000f 0x000fe400
0x0a0e7220 0x0000000d 0x00400000 0x004fe400
0xff0a7221 0x00000015 0x00000000 0x000fe400
0x0e0d7223 0x00000000 0x000000ff 0x000fe400
0x0e007302 0x00000018 0x00000000 0x000e6200
0x0a0a7221 0x00000003 0x00000000 0x001fe400
0x18047223 0x0000000d 0x0000010e 0x000fc800
0x00037223 0x00000004 0x0000000d 0x000fe200
0x00008947 0x00000030 0x03800000 0x002fea00
0x00117202 0x00000018 0x00000f00 0x000fe400
0x00007802 0x00001060 0x00000f00 0x000fc600
0x00007944 0x0001b800 0x03c00000 0x000fea00
0x00037941 0x00000000 0x03800000 0x000fea00
0x00047308 0x0000001b 0x00001000 0x000e6200
0x1a007820 0x40400000 0x00400000 0x000fe200
0x03ff7355 0x00000000 0x00100000 0x000fe200
0xff0d7223 0x00000012 0x00000815 0x000fe200
0x00037945 0x000000e0 0x03800000 0x000fe600
0x000e7220 0x0000000d 0x00400000 0x000fc400
0xff007221 0x00000016 0x00000000 0x000fc800
0x0e007302 0x0000001b 0x00000000 0x000ea200
0x001d7221 0x00000003 0x00000000 0x001fe400
0x1b0f7423 0x3f800000 0x00000104 0x002fc800
0x040f7223 0x0000000f 0x00000004 0x000fc800
0x0f047223 0x0000000e 0x000000ff 0x000fc800
0x1b0d7223 0x00000004 0x0000010e 0x000fc800
0x0f037223 0x0000000d 0x00000004 0x000fe200
0x00008947 0x00000030 0x03800000 0x004fea00
0x00117202 0x0000001b 0x00000f00 0x000fe400
0x00007802 0x00001190 0x00000f00 0x000fc600
0x00007944 0x0001b6d0 0x03c00000 0x000fea00
0x00037941 0x00000000 0x03800000 0x000fea00
0x1c1c7424 0x00000001 0x078e0214 0x000fe200
0x00007308 0x00000017 0x00001000 0x000e6200
0x0b0b7220 0x00000012 0x00400000 0x000fe200
0x03ff7355 0x00000000 0x00100000 0x000fe200
0x00037945 0x000000e0 0x03800000 0x000fea00
0x001c7306 0x0000001c 0x00201400 0x000ea200
0x170d7423 0x3f800000 0x00000100 0x002fc800
0x000d7223 0x0000000d 0x00000000 0x000fe400
0x0b0e7220 0x0000001c 0x00400000 0x004fe400
0x1d0b7221 0x00000003 0x00000000 0x001fe400
0x0e007223 0x0000000d 0x000000ff 0x000fe400
0x0e007302 0x00000017 0x00000000 0x000e2400
0x17047223 0x00000000 0x0000010e 0x000fc800
0x0d037223 0x00000004 0x00000000 0x000fe200
0x00008947 0x00000030 0x03800000 0x001fea00
0x00117202 0x00000017 0x00000f00 0x000fe400
0x00007802 0x000012c0 0x00000f00 0x000fc600
0x00007944 0x0001b5a0 0x03c00000 0x000fea00
0x00037941 0x00000000 0x03800000 0x000fea00
0x14147224 0x00000014 0x078e02ff 0x000fe200
0x000d7308 0x00000018 0x00001000 0x000e6200
0x19197820 0x40c00000 0x00400000 0x000fe200
0x03ff7355 0x00000000 0x00100000 0x000fe200
0xff0c7221 0x0000000c 0x00000000 0x000fe200
0x00037945 0x000000f0 0x03800000 0x000fe600
0x0c0c7221 0x00000003 0x00000000 0x001fe200
0x00147306 0x00000014 0x00201400 0x000e2200
0x18047423 0x3f800000 0x0000010d 0x002fc800
0x0d0f7223 0x00000004 0x0000000d 0x000fe400
0xff007223 0x00000014 0x00000015 0x001fc800
0x190e7220 0x00000000 0x00400000 0x000fc800
0x0f0d7223 0x0000000e 0x000000ff 0x000fe400
0x0e007302 0x00000018 0x00000000 0x000e2400
0x18007223 0x0000000d 0x0000010e 0x000fc800
0x0f037223 0x00000000 0x0000000d 0x000fe200
0x00008947 0x00000030 0x03800000 0x001fea00
0x00117202 0x00000018 0x00000f00 0x000fe400
0x00007802 0x00001410 0x00000f00 0x000fc600
0x00007944 0x0001b450 0x03c00000 0x000fea00
0x00037941 0x00000000 0x03800000 0x000fea00
0x00007308 0x0000001b 0x00001000 0x000e6200
0xff0d7223 0x00000012 0x00000816 0x000fe200
0x03ff7355 0x00000000 0x00100000 0x000fe200
0x1a1a7820 0x40800000 0x00400000 0x000fe200
0x00037945 0x000000d0 0x03800000 0x000fe200
0x0c167221 0x00000003 0x00000000 0x001fe400
0x1a0e7220 0x0000000d 0x00400000 0x000fcc00
0x0e007302 0x0000001b 0x00000000 0x000e2200
0x1b0f7423 0x3f800000 0x00000100 0x002fc800
0x000f7223 0x0000000f 0x00000000 0x000fc800
0x0f007223 0x0000000e 0x000000ff 0x000fc800
0x1b0d7223 0x00000000 0x0000010e 0x000fc800
0x0f037223 0x0000000d 0x00000000 0x000fe200
0x00008947 0x00000030 0x03800000 0x001fea00
0x00117202 0x0000001b 0x00000f00 0x000fe400
0x00007802 0x00001530 0x00000f00 0x000fc600
0x00007944 0x0001b330 0x03c00000 0x000fea00
0x00037941 0x00000000 0x03800000 0x000fea00
0x1e007381 0x00180000 0x001ee900 0x000ea200
0x091a7810 0x00000001 0x07ffe0ff 0x000fe200
0x03ff7355 0x00000000 0x00100000 0x000fe200
0x00037945 0x00000160 0x03800000 0x000fe200
0x16167221 0x00000003 0x00000000 0x001fc600
0x001a7306 0x0000001a 0x00201400 0x000e3000
0x000d7308 0x0000001a 0x00001000 0x001e2200
0x1a177220 0x0000001a 0x00400000 0x000fc800
0x1a157220 0x00000017 0x00400000 0x000fc600
0x000c7305 0x0000001a 0x0020f100 0x000fe200
0x1a047423 0x3f800000 0x0000010d 0x001fc800
0x0d047223 0x00000004 0x0000000d 0x000fe400
0x13197221 0x00000000 0x00000100 0x004fc800
0x190d7223 0x00000004 0x000000ff 0x040fe400
0x19007302 0x0000001a 0x00000000 0x000e2200
0x19187220 0x00000019 0x00400000 0x040fe400
0x1a007223 0x0000000d 0x00000119 0x000fe400
0x19127220 0x00000018 0x00400000 0x040fe400
0x04037223 0x00000000 0x0000000d 0x000fe400
0x191b7220 0x00000012 0x00400000 0x000fe200
0x00008947 0x00000040 0x03800000 0x001fea00
0x000e7202 0x00000019 0x00000f00 0x000fe400
0x00117202 0x0000001a 0x00000f00 0x000fc400
0x00007802 0x000016d0 0x00000f00 0x000fc600
0x00007944 0x0001b190 0x03c00000 0x000fea00
0x00037941 0x00000000 0x03800000 0x000fea00
0x00147306 0x00000009 0x00201400 0x000e6200
0x03ff7355 0x00000000 0x00100000 0x000fe200
0x00037945 0x000000f0 0x03800000 0x000fe200
0x13137221 0x00000003 0x00000000 0x001fe400
0xff1d7221 0x0000000a 0x00000000 0x000fc600
0x000d7308 0x0000001a 0x00001000 0x000e2200
0x180e7220 0x00000014 0x00400000 0x002fce00
0x0e007302 0x0000001a 0x00000000 0x000e6200
0x1a007423 0x3f800000 0x0000010d 0x001fc800
0x0d0f7223 0x00000000 0x0000000d 0x000fc800
0x0f0d7223 0x0000000e 0x000000ff 0x000fc800
0x1a007223 0x0000000d 0x0000010e 0x000fc800
0x0f037223 0x00000000 0x0000000d 0x000fe200
0x00008947 0x00000030 0x03800000 0x002fea00
0x00117202 0x0000001a 0x00000f00 0x000fe400
0x00007802 0x000017f0 0x00000f00 0x000fc600
0x00007944 0x0001b070 0x03c00000 0x000fea00
0x00037941 0x00000000 0x03800000 0x000fea00
0x091c7810 0xffffffff 0x07ffe0ff 0x000fe200
0x00007308 0x00000017 0x00001000 0x000e6200
0x12127220 0x00000014 0x00400000 0x000fe200
0x03ff7355 0x00000000 0x00100000 0x000fe200
0x00037945 0x000000f0 0x03800000 0x000fea00
0x000d7306 0x0000001c 0x00201400 0x000ea200
0x170f7423 0x3f800000 0x00000100 0x002fc800
0x000f7223 0x0000000f 0x00000000 0x000fe400
0x120e7220 0x0000000d 0x00400000 0x004fe400
0x1d127221 0x00000003 0x00000000 0x001fe400
0x0e007223 0x0000000f 0x000000ff 0x000fe400
0x0e007302 0x00000017 0x00000000 0x000e2200
0xff1d7221 0x0000000b 0x00000000 0x000fe400
0x17047223 0x00000000 0x0000010e 0x000fc800
0x0f037223 0x00000004 0x00000000 0x000fe200
0x00008947 0x00000030 0x03800000 0x001fea00
0x00117202 0x00000017 0x00000f00 0x000fe400
0x00007802 0x00001930 0x00000f00 0x000fc600
0x00007944 0x0001af30 0x03c00000 0x000fea00
0x00037941 0x00000000 0x03800000 0x000fea00
0x000f7308 0x0000001a 0x00001000 0x000e6200
0x19007820 0x40400000 0x00400000 0x000fe200
0x03ff7355 0x00000000 0x00100000 0x000fe200
0xff0d7223 0x00000014 0x0000080a 0x000fe200
0x00037945 0x000000d0 0x03800000 0x000fe200
0x1d1d7221 0x00000003 0x00000000 0x001fe400
0x000e7220 0x0000000d 0x00400000 0x000fcc00
0x0e007302 0x0000001a 0x00000000 0x000e2200
0x1a047423 0x3f800000 0x0000010f 0x002fc800
0x0f0f7223 0x00000004 0x0000000f 0x000fc800
0x0f0d7223 0x0000000e 0x000000ff 0x000fc800
0x1a007223 0x0000000d 0x0000010e 0x000fc800
0x0f037223 0x00000000 0x0000000d 0x000fe200
0x00008947 0x00000030 0x03800000 0x001fea00
0x00117202 0x0000001a 0x00000f00 0x000fe400
0x00007802 0x00001a50 0x00000f00 0x000fc600
0x00007944 0x0001ae10 0x03c00000 0x000fea00
0x00037941 0x00000000 0x03800000 0x000fea00
0x091c7424 0x00000001 0x078e021c 0x000fe200
0x00007308 0x00000015 0x00001000 0x000e6200
0x1b1b7220 0x00000014 0x00400000 0x000fe200
0x03ff7355 0x00000000 0x00100000 0x000fe200
0x00037945 0x000000f0 0x03800000 0x000fe200
0xff167221 0x00000016 0x00000000 0x000fc800
0x001c7306 0x0000001c 0x00201400 0x000ea200
0x150d7423 0x3f800000 0x00000100 0x002fc800
0x000d7223 0x0000000d 0x00000000 0x000fe400
0x1b0e7220 0x0000001c 0x00400000 0x004fe400
0x1d1b7221 0x00000003 0x00000000 0x001fe400
0x0e007223 0x0000000d 0x000000ff 0x000fe400
0x0e007302 0x00000015 0x00000000 0x000e2400
0x15047223 0x00000000 0x0000010e 0x000fc800
0x0d037223 0x00000004 0x00000000 0x000fe200
0x00008947 0x00000030 0x03800000 0x001fea00
0x00117202 0x00000015 0x00000f00 0x000fe400
0x00007802 0x00001b90 0x00000f00 0x000fc600
0x00007944 0x0001acd0 0x03c00000 0x000fea00
0x00037941 0x00000000 0x03800000 0x000fea00
0x09097224 0x00000009 0x078e02ff 0x000fe200
0x00007308 0x00000017 0x00001000 0x000e6200
0x18187820 0x40c00000 0x00400000 0x000fe200
0x03ff7355 0x00000000 0x00100000 0x000fe200
0x00037945 0x000000f0 0x03800000 0x000fe200
0x16167221 0x00000003 0x00000000 0x001fc800
0x00097306 0x00000009 0x00201400 0x000e2200
0x170f7423 0x3f800000 0x00000100 0x002fc800
0x000f7223 0x0000000f 0x00000000 0x000fe400
0xff0d7223 0x00000009 0x0000000a 0x001fc800
0x180e7220 0x0000000d 0x00400000 0x000fc800
0x0f007223 0x0000000e 0x000000ff 0x000fe400
0x0e007302 0x00000017 0x00000000 0x000e2400
0x170d7223 0x00000000 0x0000010e 0x000fc800
0x0f037223 0x0000000d 0x00000000 0x000fe200
0x00008947 0x00000030 0x03800000 0x001fea00
0x00117202 0x00000017 0x00000f00 0x000fe400
0x00007802 0x00001cd0 0x00000f00 0x000fc600
0x00007944 0x0001ab90 0x03c00000 0x000fea00
0x00037941 0x00000000 0x03800000 0x000fea00
0x00097308 0x0000001a 0x00001000 0x000e6200
0xff147223 0x00000014 0x0000080b 0x000fe200
0x03ff7355 0x00000000 0x00100000 0x000fe200
0x19197820 0x40800000 0x00400000 0x000fe200
0x00037945 0x000000d0 0x03800000 0x000fe200
0x16187221 0x00000003 0x00000000 0x001fe400
0x190e7220 0x00000014 0x00400000 0x000fcc00
0x0e007302 0x0000001a 0x00000000 0x000e2200
0x1a007423 0x3f800000 0x00000109 0x002fc800
0x090b7223 0x00000000 0x00000009 0x000fc800
0x0b097223 0x0000000e 0x000000ff 0x000fc800
0x1a007223 0x00000009 0x0000010e 0x000fc800
0x0b037223 0x00000000 0x00000009 0x000fe200
0x00008947 0x00000030 0x03800000 0x001fea00
0x00117202 0x0000001a 0x00000f00 0x000fe400
0x00007802 0x00001df0 0x00000f00 0x000fc600
0x00007944 0x0001aa70 0x03c00000 0x000fea00
0x00037941 0x00000000 0x03800000 0x000fea00
0x1e1e7381 0x00300000 0x001ee900 0x000ea200
0x0c177810 0x00000001 0x07ffe0ff 0x000fe200
0x03ff7355 0x00000000 0x00100000 0x000fe200
0x00037945 0x00000160 0x03800000 0x000fe200
0x18187221 0x00000003 0x00000000 0x001fc600
0x00177306 0x00000017 0x00201400 0x000e3000
0x00007308 0x00000017 0x00001000 0x001e3000
0x00147305 0x00000017 0x0020f100 0x000fe200
0x17097423 0x3f800000 0x00000100 0x001fc800
0x00007223 0x00000009 0x00000000 0x000fe400
0x17097220 0x00000017 0x00400000 0x000fc800
0x17197220 0x00000009 0x00400000 0x000fe400
0x130b7221 0x0000001e 0x00000100 0x004fc800
0x0b047223 0x00000000 0x000000ff 0x040fe400
0x0b007302 0x00000017 0x00000000 0x000e2200
0x0b0a7220 0x0000000b 0x00400000 0x000fe400
0x170d7223 0x00000004 0x0000010b 0x000fe400
0x0b157220 0x0000000a 0x00400000 0x040fe400
0x00037223 0x0000000d 0x00000004 0x000fe400
0x0b167220 0x00000015 0x00400000 0x000fe200
0x00008947 0x00000040 0x03800000 0x001fea00
0x000e7202 0x0000000b 0x00000f00 0x000fe400
0x00117202 0x00000017 0x00000f00 0x000fc400
0x00007802 0x00001f90 0x00000f00 0x000fc600
0x00007944 0x0001a8d0 0x03c00000 0x000fea00
0x00037941 0x00000000 0x03800000 0x000fea00
0x001a7306 0x0000000c 0x00201400 0x000e6200
0x03ff7355 0x00000000 0x00100000 0x000fe200
0x00037945 0x000000f0 0x03800000 0x000fe200
0x13137221 0x00000003 0x00000000 0x001fe400
0xff1d7221 0x00000012 0x00000000 0x000fc600
0x00007308 0x00000017 0x00001000 0x000e2200
0x0a0e7220 0x0000001a 0x00400000 0x002fce00
0x0e007302 0x00000017 0x00000000 0x000e6200
0x170d7423 0x3f800000 0x00000100 0x001fc800
0x000f7223 0x0000000d 0x00000000 0x000fc800
0x0f007223 0x0000000e 0x000000ff 0x000fc800
0x170d7223 0x00000000 0x0000010e 0x000fc800
0x0f037223 0x0000000d 0x00000000 0x000fe200
0x00008947 0x00000030 0x03800000 0x002fea00
0x00117202 0x00000017 0x00000f00 0x000fe400
0x00007802 0x000020b0 0x00000f00 0x000fc600
0x00007944 0x0001a7b0 0x03c00000 0x000fea00
0x00037941 0x00000000 0x03800000 0x000fea00
0x0c1c7810 0xffffffff 0x07ffe0ff 0x000fe200
0x00047308 0x00000009 0x00001000 0x000e6200
0x15157220 0x0000001a 0x00400000 0x000fe200
0x03ff7355 0x00000000 0x00100000 0x000fe200
0x00037945 0x000000f0 0x03800000 0x000fea00
0x00007306 0x0000001c 0x00201400 0x000ea200
0x090d7423 0x3f800000 0x00000104 0x002fc800
0x040d7223 0x0000000d 0x00000004 0x000fe400
0x150e7220 0x00000000 0x00400000 0x004fe400
0x1d157221 0x00000003 0x00000000 0x001fe400
0x0e007223 0x0000000d 0x000000ff 0x000fe400
0x0e007302 0x00000009 0x00000000 0x000e2200
0xff1d7221 0x0000001b 0x00000000 0x000fe400
0x09047223 0x00000000 0x0000010e 0x000fc800
0x0d037223 0x00000004 0x00000000 0x000fe200
0x00008947 0x00000030 0x03800000 0x001fea00
0x00117202 0x00000009 0x00000f00 0x000fe400
0x00007802 0x000021f0 0x00000f00 0x000fc600
0x00007944 0x0001a670 0x03c00000 0x000fea00
0x00037941 0x00000000 0x03800000 0x000fea00
0x00047308 0x00000017 0x00001000 0x000e6200
0x0b007820 0x40400000 0x00400000 0x000fe200
0x03ff7355 0x00000000 0x00100000 0x000fe200
0xff0d7223 0x0000001a 0x00000812 0x000fe200
0x00037945 0x000000d0 0x03800000 0x000fe200
0x1d1d7221 0x00000003 0x00000000 0x001fe400
0x000e7220 0x0000000d 0x00400000 0x000fcc00
0x0e007302 0x00000017 0x00000000 0x000e2200
0x170f7423 0x3f800000 0x00000104 0x002fc800
0x040f7223 0x0000000f 0x00000004 0x000fc800
0x0f007223 0x0000000e 0x000000ff 0x000fc800
0x170d7223 0x00000000 0x0000010e 0x000fc800
0x0f037223 0x0000000d 0x00000000 0x000fe200
0x00008947 0x00000030 0x03800000 0x001fea00
0x00117202 0x00000017 0x00000f00 0x000fe400
0x00007802 0x00002310 0x00000f00 0x000fc600
0x00007944 0x0001a550 0x03c00000 0x000fea00
0x00037941 0x00000000 0x03800000 0x000fea00
0x0c1c7424 0x00000001 0x078e021c 0x000fe200
0x00007308 0x00000019 0x00001000 0x000e6200
0x16167220 0x0000001a 0x00400000 0x000fe200
0x03ff7355 0x00000000 0x00100000 0x000fe200
0x00037945 0x000000f0 0x03800000 0x000fe200
0xff187221 0x00000018 0x00000000 0x000fc800
0x000d7306 0x0000001c 0x00201400 0x000ea200
0x190f7423 0x3f800000 0x00000100 0x002fc800
0x000f7223 0x0000000f 0x00000000 0x000fe400
0x160e7220 0x0000000d 0x00400000 0x004fe400
0x1d167221 0x00000003 0x00000000 0x001fe400
0x0e007223 0x0000000f 0x000000ff 0x000fe400
0x0e007302 0x00000019 0x00000000 0x000e2400
0x19047223 0x00000000 0x0000010e 0x000fc800
0x0f037223 0x00000004 0x00000000 0x000fe200
0x00008947 0x00000030 0x03800000 0x001fea00
0x00117202 0x00000019 0x00000f00 0x000fe400
0x00007802 0x00002450 0x00000f00 0x000fc600
0x00007944 0x0001a410 0x03c00000 0x000fea00
0x00037941 0x00000000 0x03800000 0x000fea00
0x0c0c7224 0x0000000c 0x078e02ff 0x000fe200
0x00007308 0x00000009 0x00001000 0x000e6200
0x0a0a7820 0x40c00000 0x00400000 0x000fe200
0x03ff7355 0x00000000 0x00100000 0x000fe200
0x00037945 0x000000f0 0x03800000 0x000fe200
0x18187221 0x00000003 0x00000000 0x001fc800
0x000d7306 0x0000000c 0x00201400 0x000e2200
0x090f7423 0x3f800000 0x00000100 0x002fc800
0x000f7223 0x0000000f 0x00000000 0x000fe400
0xff0d7223 0x0000000d 0x00000012 0x001fc800
0x0a0e7220 0x0000000d 0x00400000 0x000fc800
0x0f007223 0x0000000e 0x000000ff 0x000fe400
0x0e007302 0x00000009 0x00000000 0x000e2400
0x090d7223 0x00000000 0x0000010e 0x000fc800
0x0f037223 0x0000000d 0x00000000 0x000fe200
0x00008947 0x00000030 0x03800000 0x001fea00
0x00117202 0x00000009 0x00000f00 0x000fe400
0x00007802 0x00002590 0x00000f00 0x000fc600
0x00007944 0x0001a2d0 0x03c00000 0x000fea00
0x00037941 0x00000000 0x03800000 0x000fea00
0x00007308 0x00000017 0x00001000 0x000e6200
0xff1a7223 0x0000001a 0x0000081b 0x000fe200
0x03ff7355 0x00000000 0x00100000 0x000fe200
0x0b0b7820 0x40800000 0x00400000 0x000fe200
0x00037945 0x000000d0 0x03800000 0x000fe200
0x18187221 0x00000003 0x00000000 0x001fe400
0x0b0e7220 0x0000001a 0x00400000 0x000fcc00
0x0e007302 0x00000017 0x00000000 0x000e2200
0x17097423 0x3f800000 0x00000100 0x002fc800
0x000b7223 0x00000009 0x00000000 0x000fc800
0x0b007223 0x0000000e 0x000000ff 0x000fc800
0x17097223 0x00000000 0x0000010e 0x000fc800
0x0b037223 0x00000009 0x00000000 0x000fe200
0x00008947 0x00000030 0x03800000 0x001fea00
0x00117202 0x00000017 0x00000f00 0x000fe400
0x00007802 0x000026b0 0x00000f00 0x000fc600
0x00007944 0x0001a1b0 0x03c00000 0x000fea00
0x00037941 0x00000000 0x03800000 0x000fea00
0x02097a10 0x00006600 0x07f3e1ff 0x000fe200
0x180c7221 0x00000003 0x00000000 0x001fe200
0x000a7202 0x00000007 0x00000f00 0x000fe400
0x0900720c 0x00000020 0x03f06070 0x000fe400
0x06007a10 0x00006700 0x00ffe5ff 0x000fe400
0x000b7202 0x00000008 0x00000f00 0x000fc400
0x0000720c 0x00000005 0x03f06100 0x000fd800
0x00008947 0x00001d60 0x03800000 0x000fea00
0x20027210 0x00000002 0x07f1e0ff 0x040fe200
0x200a7825 0x00000018 0x078e000a 0x000fe200
0x00097802 0x00000018 0x00000f00 0x000fe400
0x05067210 0x00000006 0x007fe4ff 0x040fe200
0x05037824 0x00000018 0x078e02ff 0x000fe200
0x02007c0c 0x00000004 0x0bf04070 0x000fe400
0x23087210 0x00000002 0x07f3e0ff 0x000fe400
0x06007c0c 0x00000005 0x0bf04100 0x000fc400
0x21007210 0x00000006 0x00ffe4ff 0x000fe200
0x08087625 0x00005800 0x078e0009 0x000fe200
0x00077202 0x0000000a 0x00000f00 0x000fc600
0x000f7824 0x00000018 0x078e02ff 0x000fe200
0x080e7810 0x00000010 0x07f3e0ff 0x000fe400
0x0b087210 0x00000003 0x07ffe0ff 0x000fe400
0x090f7210 0x0000000f 0x00ffe4ff 0x000fe200
0x00008947 0xffffe430 0x0383ffff 0x000fea00
0x02007a0c 0x00006600 0x03f06070 0x000fe400
0x00097202 0x00000008 0x00000f00 0x000fe400
0x06007a0c 0x00006700 0x03f06100 0x000fc400
0x00087202 0x00000007 0x00000f00 0x000fd400
0x00000947 0x00001c10 0x03800000 0x000fea00
0x02057a10 0x00006600 0x07ffe1ff 0x000fe200
0x03ff7355 0x00000000 0x00100000 0x000fe200
0x00037945 0x00001be0 0x03800000 0x000fe400
0x2300720c 0x00000005 0x03f06270 0x000fd800
0x00000947 0x00001bb0 0x03800000 0x000fea00
0xff037212 0x00000023 0x078e33ff 0x080fe200
0x04ff7355 0x00000000 0x00100000 0x000fe200
0x00047945 0x00000950 0x03800000 0x000fe400
0x020a7a10 0x00006600 0x07ffe103 0x000fe400
0x00027202 0x00000023 0x00000f00 0x000fe400
0x0aff7812 0x00000100 0x0780c0ff 0x000fd800
0x00000947 0x00000900 0x03800000 0x000fea00
0x0e0e7381 0x00000000 0x001ee900 0x000ea200
0x14027810 0x00000001 0x07ffe0ff 0x000fe200
0x05ff7355 0x00000000 0x00100000 0x000fe200
0x00057945 0x00000150 0x03800000 0x000fe800
0x00027306 0x00000002 0x00201400 0x000e3000
0x00037308 0x00000002 0x00001000 0x001e2200
0x02177220 0x00000002 0x00400000 0x000fc800
0x02187220 0x00000017 0x00400000 0x000fc600
0x00077305 0x00000002 0x0020f100 0x000fe200
0x02007423 0x3f800000 0x00000103 0x001fc800
0x03007223 0x00000000 0x00000003 0x000fe400
0x130b7221 0x0000000e 0x00000100 0x004fc800
0x0b037223 0x00000000 0x000000ff 0x040fe400
0x0b007302 0x00000002 0x00000000 0x000e2200
0x0b127220 0x0000000b 0x00400000 0x040fe400
0x02047223 0x00000003 0x0000010b 0x000fe400
0x0b067220 0x00000012 0x00400000 0x040fe400
0x00037223 0x00000004 0x00000003 0x000fe400
0x0b197220 0x00000006 0x00400000 0x000fe200
0x00008947 0x00000040 0x03800000 0x001fea00
0x000e7202 0x0000000b 0x00000f00 0x000fe400
0x00117202 0x00000002 0x00000f00 0x000fc400
0x00007802 0x00002ad0 0x00000f00 0x000fc600
0x00007944 0x00019d90 0x03c00000 0x000fea00
0x00057941 0x00000000 0x03800000 0x000fea00
0x001a7306 0x00000014 0x00201400 0x000e6200
0x05ff7355 0x00000000 0x00100000 0x000fe200
0x00057945 0x000000e0 0x03800000 0x000fe200
0x13137221 0x00000003 0x00000000 0x001fca00
0x000d7308 0x00000002 0x00001000 0x000e2200
0x120e7220 0x0000001a 0x00400000 0x002fce00
0x0e007302 0x00000002 0x00000000 0x000e6200
0x02007423 0x3f800000 0x0000010d 0x001fc800
0x0d0f7223 0x00000000 0x0000000d 0x000fc800
0x0f0d7223 0x0000000e 0x000000ff 0x000fc800
0x02007223 0x0000000d 0x0000010e 0x000fc800
0x0f037223 0x00000000 0x0000000d 0x000fe200
0x00008947 0x00000030 0x03800000 0x002fea00
0x00117202 0x00000002 0x00000f00 0x000fe400
0x00007802 0x00002be0 0x00000f00 0x000fc600
0x00007944 0x00019c80 0x03c00000 0x000fea00
0x00057941 0x00000000 0x03800000 0x000fea00
0x141b7810 0xffffffff 0x07ffe0ff 0x000fe200
0x00007308 0x00000017 0x00001000 0x000e6200
0x06067220 0x0000001a 0x00400000 0x000fe200
0x05ff7355 0x00000000 0x00100000 0x000fe200
0x00057945 0x000000f0 0x03800000 0x000fea00
0x000d7306 0x0000001b 0x00201400 0x000ea200
0x170f7423 0x3f800000 0x00000100 0x002fc800
0x000f7223 0x0000000f 0x00000000 0x000fe400
0x060e7220 0x0000000d 0x00400000 0x004fe400
0xff067221 0x00000015 0x00000000 0x000fe400
0x0e007223 0x0000000f 0x000000ff 0x000fe400
0x0e007302 0x00000017 0x00000000 0x000e6200
0x06067221 0x00000003 0x00000000 0x001fe400
0x17047223 0x00000000 0x0000010e 0x000fc800
0x0f037223 0x00000004 0x00000000 0x000fe200
0x00008947 0x00000030 0x03800000 0x002fea00
0x00117202 0x00000017 0x00000f00 0x000fe400
0x00007802 0x00002d20 0x00000f00 0x000fc600
0x00007944 0x00019b40 0x03c00000 0x000fea00
0x00057941 0x00000000 0x03800000 0x000fea00
0x000f7308 0x00000002 0x00001000 0x000e6200
0x0b007820 0x40400000 0x00400000 0x000fe200
0x05ff7355 0x00000000 0x00100000 0x000fe200
0xff0d7223 0x0000001a 0x00000815 0x000fe200
0x00057945 0x000000e0 0x03800000 0x000fe200
0xff1c7221 0x00000016 0x00000000 0x000fe400
0x000e7220 0x0000000d 0x00400000 0x000fc400
0x1c1c7221 0x00000003 0x00000000 0x001fc800
0x0e007302 0x00000002 0x00000000 0x000e2200
0x02047423 0x3f800000 0x0000010f 0x002fc800
0x0f0f7223 0x00000004 0x0000000f 0x000fc800
0x0f0d7223 0x0000000e 0x000000ff 0x000fc800
0x02007223 0x0000000d 0x0000010e 0x000fc800
0x0f037223 0x00000000 0x0000000d 0x000fe200
0x00008947 0x00000030 0x03800000 0x001fea00
0x00117202 0x00000002 0x00000f00 0x000fe400
0x00007802 0x00002e50 0x00000f00 0x000fc600
0x00007944 0x00019a10 0x03c00000 0x000fea00
0x00057941 0x00000000 0x03800000 0x000fea00
0x141b7424 0x00000001 0x078e021b 0x000fe200
0x000d7308 0x00000018 0x00001000 0x000e6200
0x19197220 0x0000001a 0x00400000 0x000fe200
0x05ff7355 0x00000000 0x00100000 0x000fe200
0x00057945 0x000000e0 0x03800000 0x000fe200
0x1c1c7221 0x00000003 0x00000000 0x001fc800
0x00007306 0x0000001b 0x00201400 0x000e2200
0x18047423 0x3f800000 0x0000010d 0x002fc800
0x0d047223 0x00000004 0x0000000d 0x000fe400
0x190e7220 0x00000000 0x00400000 0x001fc800
0x0e0d7223 0x00000004 0x000000ff 0x000fe400
0x0e007302 0x00000018 0x00000000 0x000e2400
0x18007223 0x0000000d 0x0000010e 0x000fc800
0x04037223 0x00000000 0x0000000d 0x000fe200
0x00008947 0x00000030 0x03800000 0x001fea00
0x00117202 0x00000018 0x00000f00 0x000fe400
0x00007802 0x00002f80 0x00000f00 0x000fc600
0x00007944 0x000198e0 0x03c00000 0x000fea00
0x00057941 0x00000000 0x03800000 0x000fea00
0x14007224 0x00000014 0x078e02ff 0x000fe200
0x00047308 0x00000017 0x00001000 0x000e6200
0x12127820 0x40c00000 0x00400000 0x000fe200
0x05ff7355 0x00000000 0x00100000 0x000fe200
0xff0c7221 0x0000000c 0x00000000 0x000fe200
0x00057945 0x000000f0 0x03800000 0x000fe600
0x0c0c7221 0x00000003 0x00000000 0x001fe200
0x00007306 0x00000000 0x00201400 0x000e2200
0x170f7423 0x3f800000 0x00000104 0x002fc800
0x040f7223 0x0000000f 0x00000004 0x000fe400
0xff0d7223 0x00000000 0x00000015 0x001fc800
0x120e7220 0x0000000d 0x00400000 0x000fc800
0x0f047223 0x0000000e 0x000000ff 0x000fe400
0x0e007302 0x00000017 0x00000000 0x000e2400
0x170d7223 0x00000004 0x0000010e 0x000fc800
0x0f037223 0x0000000d 0x00000004 0x000fe200
0x00008947 0x00000030 0x03800000 0x001fea00
0x00117202 0x00000017 0x00000f00 0x000fe400
0x00007802 0x000030d0 0x00000f00 0x000fc600
0x00007944 0x00019790 0x03c00000 0x000fea00
0x00057941 0x00000000 0x03800000 0x000fea00
0x000d7308 0x00000002 0x00001000 0x000e6200
0xff1a7223 0x0000001a 0x00000816 0x000fe200
0x05ff7355 0x00000000 0x00100000 0x000fe200
0x0b0b7820 0x40800000 0x00400000 0x000fe200
0x00057945 0x000000d0 0x03800000 0x000fe200
0x0c0c7221 0x00000003 0x00000000 0x001fe400
0x0b0e7220 0x0000001a 0x00400000 0x000fcc00
0x0e007302 0x00000002 0x00000000 0x000e2200
0x02007423 0x3f800000 0x0000010d 0x002fc800
0x0d0d7223 0x00000000 0x0000000d 0x000fc800
0x0d0b7223 0x0000000e 0x000000ff 0x000fc800
0x02007223 0x0000000b 0x0000010e 0x000fc800
0x0d037223 0x00000000 0x0000000b 0x000fe200
0x00008947 0x00000030 0x03800000 0x001fea00
0x00117202 0x00000002 0x00000f00 0x000fe400
0x00007802 0x000031f0 0x00000f00 0x000fc600
0x00007944 0x00019670 0x03c00000 0x000fea00
0x00057941 0x00000000 0x03800000 0x000fea00
0x0c0c7221 0x00000003 0x00000000 0x001fe200
0x00027202 0x00000024 0x00000f00 0x000fe400
0x00147202 0x00000007 0x00000f00 0x000fe400
0x00157202 0x00000006 0x00000f00 0x000fe400
0x00167202 0x0000001c 0x00000f00 0x000fc600
0x00047941 0x00000000 0x03800000 0x000fea00
0x0aff7812 0xffffff00 0x0780c0ff 0x000fd800
0x00008947 0x00001210 0x03800000 0x000fea00
0x02087825 0x00000018 0x078e0208 0x000fca00
0x00067202 0x00000008 0x00000f00 0x000fe400
0x00077202 0x00000009 0x00000f00 0x000fd000
0x06007381 0x00000000 0x001ee900 0x000ea200
0x141a7810 0x00000001 0x07ffe0ff 0x000fe200
0x04ff7355 0x00000000 0x00100000 0x000fe200
0x02027810 0x00000200 0x07ffe0ff 0x000fe200
0x00047945 0x00000160 0x03800000 0x000fe600
0x001a7306 0x0000001a 0x00201400 0x000e2200
0x0200720c 0x00000005 0x03f46270 0x000fce00
0x00037308 0x0000001a 0x00001000 0x001e2200
0x1a177220 0x0000001a 0x00400000 0x000fc800
0x1a127220 0x00000017 0x00400000 0x000fc600
0x000a7305 0x0000001a 0x0020f100 0x000fe200
0x1a047423 0x3f800000 0x00000103 0x001fc800
0x03047223 0x00000004 0x00000003 0x000fe400
0x00197221 0x80000013 0x00000000 0x004fc800
0x19037223 0x00000004 0x000000ff 0x040fe400
0x19007302 0x0000001a 0x00000000 0x000e2200
0x19187220 0x00000019 0x00400000 0x040fe400
0x1a007223 0x00000003 0x00000119 0x000fe400
0x19097220 0x00000018 0x00400000 0x040fe400
0x04037223 0x00000000 0x00000003 0x000fe400
0x19087220 0x00000009 0x00400000 0x000fe200
0x00008947 0x00000040 0x03800000 0x001fea00
0x000e7202 0x00000019 0x00000f00 0x000fe400
0x00117202 0x0000001a 0x00000f00 0x000fc400
0x00007802 0x00003450 0x00000f00 0x000fc600
0x00007944 0x00019410 0x03c00000 0x000fea00
0x00047941 0x00000000 0x03800000 0x000fea00
0x000b7306 0x00000014 0x00201400 0x000e6200
0x04ff7355 0x00000000 0x00100000 0x000fe200
0x00047945 0x000000e0 0x03800000 0x000fe200
0x03137221 0x00000013 0x00000000 0x001fca00
0x000d7308 0x0000001a 0x00001000 0x000e2200
0x180e7220 0x0000000b 0x00400000 0x002fce00
0x0e007302 0x0000001a 0x00000000 0x000e6200
0x1a007423 0x3f800000 0x0000010d 0x001fc800
0x0d0f7223 0x00000000 0x0000000d 0x000fc800
0x0f0d7223 0x0000000e 0x000000ff 0x000fc800
0x1a007223 0x0000000d 0x0000010e 0x000fc800
0x0f037223 0x00000000 0x0000000d 0x000fe200
0x00008947 0x00000030 0x03800000 0x002fea00
0x00117202 0x0000001a 0x00000f00 0x000fe400
0x00007802 0x00003560 0x00000f00 0x000fc600
0x00007944 0x00019300 0x03c00000 0x000fea00
0x00047941 0x00000000 0x03800000 0x000fea00
0x141b7810 0xffffffff 0x07ffe0ff 0x000fe200
0x00047308 0x00000017 0x00001000 0x000e6200
0x09097220 0x0000000b 0x00400000 0x000fe200
0x04ff7355 0x00000000 0x00100000 0x000fe200
0x00047945 0x00000100 0x03800000 0x000fea00
0x00007306 0x0000001b 0x00201400 0x000ea200
0x170d7423 0x3f800000 0x00000104 0x002fc800
0x040d7223 0x0000000d 0x00000004 0x000fe400
0x09107220 0x00000000 0x00400000 0x004fe400
0xff007221 0x00000015 0x00000000 0x000fe400
0x10047223 0x0000000d 0x000000ff 0x000fe400
0x10007302 0x00000017 0x00000000 0x000e6200
0x00097221 0x00000003 0x00000000 0x001fe400
0x170e7223 0x00000004 0x00000110 0x000fc800
0x0d037223 0x0000000e 0x00000004 0x000fe200
0x00008947 0x00000040 0x03800000 0x002fea00
0x000e7202 0x00000010 0x00000f00 0x000fe400
0x00117202 0x00000017 0x00000f00 0x000fe400
0x00007802 0x000036b0 0x00000f00 0x000fc600
0x00007944 0x000191b0 0x03c00000 0x000fea00
0x00047941 0x00000000 0x03800000 0x000fea00
0x000f7308 0x0000001a 0x00001000 0x000e6200
0x19007820 0x40400000 0x00400000 0x000fe200
0x04ff7355 0x00000000 0x00100000 0x000fe200
0xff0d7223 0x0000000b 0x00000815 0x000fe200
0x00047945 0x000000e0 0x03800000 0x000fe200
0xff1c7221 0x00000016 0x00000000 0x000fc400
0x000e7220 0x0000000d 0x00400000 0x000fe400
0x1c1c7221 0x00000003 0x00000000 0x001fc800
0x0e007302 0x0000001a 0x00000000 0x000e2200
0x1a047423 0x3f800000 0x0000010f 0x002fc800
0x0f0f7223 0x00000004 0x0000000f 0x000fc800
0x0f0d7223 0x0000000e 0x000000ff 0x000fc800
0x1a007223 0x0000000d 0x0000010e 0x000fc800
0x0f037223 0x00000000 0x0000000d 0x000fe200
0x00008947 0x00000030 0x03800000 0x001fea00
0x00117202 0x0000001a 0x00000f00 0x000fe400
0x00007802 0x000037e0 0x00000f00 0x000fc600
0x00007944 0x00019080 0x03c00000 0x000fea00
0x00047941 0x00000000 0x03800000 0x000fea00
0x1b1b7424 0x00000001 0x078e0214 0x000fe200
0x000d7308 0x00000012 0x00001000 0x000e6200
0x08087220 0x0000000b 0x00400000 0x000fe200
0x04ff7355 0x00000000 0x00100000 0x000fe200
0x00047945 0x000000e0 0x03800000 0x000fea00
0x001b7306 0x0000001b 0x00201400 0x000ea200
0x12007423 0x3f800000 0x0000010d 0x002fc800
0x0d007223 0x00000000 0x0000000d 0x000fe400
0x080e7220 0x0000001b 0x00400000 0x004fe400
0x1c087221 0x00000003 0x00000000 0x001fe400
0x0e0d7223 0x00000000 0x000000ff 0x000fe400
0x0e007302 0x00000012 0x00000000 0x000e2400
0x12047223 0x0000000d 0x0000010e 0x000fc800
0x00037223 0x00000004 0x0000000d 0x000fe200
0x00008947 0x00000030 0x03800000 0x001fea00
0x00117202 0x00000012 0x00000f00 0x000fe400
0x00007802 0x00003910 0x00000f00 0x000fc600
0x00007944 0x00018f50 0x03c00000 0x000fea00
0x00047941 0x00000000 0x03800000 0x000fea00
0x14147224 0x00000014 0x078e02ff 0x000fe200
0x00007308 0x00000017 0x00001000 0x000e6200
0x18187820 0x40c00000 0x00400000 0x000fe200
0x04ff7355 0x00000000 0x00100000 0x000fe200
0x00047945 0x00000100 0x03800000 0x000fea00
0x00147306 0x00000014 0x00201400 0x000ea200
0x170d7423 0x3f800000 0x00000100 0x002fc800
0x000f7223 0x0000000d 0x00000000 0x000fe400
0xff157223 0x00000014 0x00000015 0x004fc800
0x180e7220 0x00000015 0x00400000 0x000fe400
0xff187221 0x0000000c 0x00000000 0x000fe400
0x0f007223 0x0000000e 0x000000ff 0x000fe400
0x0e007302 0x00000017 0x00000000 0x000e6200
0x18187221 0x00000003 0x00000000 0x001fe400
0x170d7223 0x00000000 0x0000010e 0x000fc800
0x0f037223 0x0000000d 0x00000000 0x000fe200
0x00008947 0x00000030 0x03800000 0x002fea00
0x00117202 0x00000017 0x00000f00 0x000fe400
0x00007802 0x00003a60 0x00000f00 0x000fc600
0x00007944 0x00018e00 0x03c00000 0x000fea00
0x00047941 0x00000000 0x03800000 0x000fea00
0x000d7308 0x0000001a 0x00001000 0x000e6200
0xff167223 0x0000000b 0x00000816 0x000fe200
0x04ff7355 0x00000000 0x00100000 0x000fe200
0x19197820 0x40800000 0x00400000 0x000fe200
0x00047945 0x000000d0 0x03800000 0x000fe200
0x18187221 0x00000003 0x00000000 0x001fe400
0x190e7220 0x00000016 0x00400000 0x000fcc00
0x0e007302 0x0000001a 0x00000000 0x000e2200
0x1a007423 0x3f800000 0x0000010d 0x002fc800
0x0d0d7223 0x00000000 0x0000000d 0x000fc800
0x0d0b7223 0x0000000e 0x000000ff 0x000fc800
0x1a007223 0x0000000b 0x0000010e 0x000fc800
0x0d037223 0x00000000 0x0000000b 0x000fe200
0x00008947 0x00000030 0x03800000 0x001fea00
0x00117202 0x0000001a 0x00000f00 0x000fe400
0x00007802 0x00003b80 0x00000f00 0x000fc600
0x00007944 0x00018ce0 0x03c00000 0x000fea00
0x00047941 0x00000000 0x03800000 0x000fea00
0x06127381 0x00180000 0x001ee900 0x000ea200
0x0a177810 0x00000001 0x07ffe0ff 0x000fe200
0x04ff7355 0x00000000 0x00100000 0x000fe200
0x00047945 0x00000160 0x03800000 0x000fe200
0x18187221 0x00000003 0x00000000 0x001fc600
0x00177306 0x00000017 0x00201400 0x000e3000
0x00007308 0x00000017 0x00001000 0x001e3000
0x00147305 0x00000017 0x0020f100 0x000fe200
0x170b7423 0x3f800000 0x00000100 0x001fc800
0x000d7223 0x0000000b 0x00000000 0x000fe400
0x170b7220 0x00000017 0x00400000 0x000fc800
0x17197220 0x0000000b 0x00400000 0x000fe400
0x13127221 0x00000012 0x00000100 0x004fc800
0x12007223 0x0000000d 0x000000ff 0x040fe400
0x12007302 0x00000017 0x00000000 0x000e2200
0x120c7220 0x00000012 0x00400000 0x040fe400
0x17047223 0x00000000 0x00000112 0x000fe400
0x12157220 0x0000000c 0x00400000 0x040fe400
0x0d037223 0x00000004 0x00000000 0x000fe400
0x12167220 0x00000015 0x00400000 0x000fe200
0x00008947 0x00000040 0x03800000 0x001fea00
0x000e7202 0x00000012 0x00000f00 0x000fe400
0x00117202 0x00000017 0x00000f00 0x000fc400
0x00007802 0x00003d20 0x00000f00 0x000fc600
0x00007944 0x00018b40 0x03c00000 0x000fea00
0x00047941 0x00000000 0x03800000 0x000fea00
0x001a7306 0x0000000a 0x00201400 0x000e6200
0x04ff7355 0x00000000 0x00100000 0x000fe200
0x00047945 0x000000f0 0x03800000 0x000fe200
0x13137221 0x00000003 0x00000000 0x001fe400
0xff1c7221 0x00000009 0x00000000 0x000fc600
0x00007308 0x00000017 0x00001000 0x000e2200
0x0c0e7220 0x0000001a 0x00400000 0x002fce00
0x0e007302 0x00000017 0x00000000 0x000e6200
0x170d7423 0x3f800000 0x00000100 0x001fc800
0x000f7223 0x0000000d 0x00000000 0x000fc800
0x0f007223 0x0000000e 0x000000ff 0x000fc800
0x170d7223 0x00000000 0x0000010e 0x000fc800
0x0f037223 0x0000000d 0x00000000 0x000fe200
0x00008947 0x00000030 0x03800000 0x002fea00
0x00117202 0x00000017 0x00000f00 0x000fe400
0x00007802 0x00003e40 0x00000f00 0x000fc600
0x00007944 0x00018a20 0x03c00000 0x000fea00
0x00047941 0x00000000 0x03800000 0x000fea00
0x0a1b7810 0xffffffff 0x07ffe0ff 0x000fe200
0x00047308 0x0000000b 0x00001000 0x000e6200
0x15157220 0x0000001a 0x00400000 0x000fe200
0x04ff7355 0x00000000 0x00100000 0x000fe200
0x00047945 0x000000f0 0x03800000 0x000fea00
0x00007306 0x0000001b 0x00201400 0x000ea200
0x0b0d7423 0x3f800000 0x00000104 0x002fc800
0x040d7223 0x0000000d 0x00000004 0x000fe400
0x150e7220 0x00000000 0x00400000 0x004fe400
0x1c157221 0x00000003 0x00000000 0x001fe400
0x0e007223 0x0000000d 0x000000ff 0x000fe400
0x0e007302 0x0000000b 0x00000000 0x000e2200
0xff1c7221 0x00000008 0x00000000 0x000fe400
0x0b047223 0x00000000 0x0000010e 0x000fc800
0x0d037223 0x00000004 0x00000000 0x000fe200
0x00008947 0x00000030 0x03800000 0x001fea00
0x00117202 0x0000000b 0x00000f00 0x000fe400
0x00007802 0x00003f80 0x00000f00 0x000fc600
0x00007944 0x000188e0 0x03c00000 0x000fea00
0x00047941 0x00000000 0x03800000 0x000fea00
0x00047308 0x00000017 0x00001000 0x000e6200
0x12007820 0x40400000 0x00400000 0x000fe200
0x04ff7355 0x00000000 0x00100000 0x000fe200
0xff0d7223 0x0000001a 0x00000809 0x000fe200
0x00047945 0x000000d0 0x03800000 0x000fe200
0x1c1c7221 0x00000003 0x00000000 0x001fe400
0x000e7220 0x0000000d 0x00400000 0x000fcc00
0x0e007302 0x00000017 0x00000000 0x000e2200
0x170f7423 0x3f800000 0x00000104 0x002fc800
0x040f7223 0x0000000f 0x00000004 0x000fc800
0x0f007223 0x0000000e 0x000000ff 0x000fc800
0x170d7223 0x00000000 0x0000010e 0x000fc800
0x0f037223 0x0000000d 0x00000000 0x000fe200
0x00008947 0x00000030 0x03800000 0x001fea00
0x00117202 0x00000017 0x00000f00 0x000fe400
0x00007802 0x000040a0 0x00000f00 0x000fc600
0x00007944 0x000187c0 0x03c00000 0x000fea00
0x00047941 0x00000000 0x03800000 0x000fea00
0x0a1b7424 0x00000001 0x078e021b 0x000fe200
0x00007308 0x00000019 0x00001000 0x000e6200
0x16167220 0x0000001a 0x00400000 0x000fe200
0x04ff7355 0x00000000 0x00100000 0x000fe200
0x00047945 0x000000f0 0x03800000 0x000fe200
0xff187221 0x00000018 0x00000000 0x000fc800
0x001b7306 0x0000001b 0x00201400 0x000ea200
0x190d7423 0x3f800000 0x00000100 0x002fc800
0x000d7223 0x0000000d 0x00000000 0x000fe400
0x160e7220 0x0000001b 0x00400000 0x004fe400
0x1c167221 0x00000003 0x00000000 0x001fe400
0x0e007223 0x0000000d 0x000000ff 0x000fe400
0x0e007302 0x00000019 0x00000000 0x000e2400
0x19047223 0x00000000 0x0000010e 0x000fc800
0x0d037223 0x00000004 0x00000000 0x000fe200
0x00008947 0x00000030 0x03800000 0x001fea00
0x00117202 0x00000019 0x00000f00 0x000fe400
0x00007802 0x000041e0 0x00000f00 0x000fc600
0x00007944 0x00018680 0x03c00000 0x000fea00
0x00047941 0x00000000 0x03800000 0x000fea00
0x0a0a7224 0x0000000a 0x078e02ff 0x000fe200
0x00007308 0x0000000b 0x00001000 0x000e6200
0x0c0c7820 0x40c00000 0x00400000 0x000fe200
0x04ff7355 0x00000000 0x00100000 0x000fe200
0x00047945 0x000000f0 0x03800000 0x000fe200
0x18187221 0x00000003 0x00000000 0x001fc800
0x000a7306 0x0000000a 0x00201400 0x000e2200
0x0b0d7423 0x3f800000 0x00000100 0x002fc800
0x000d7223 0x0000000d 0x00000000 0x000fe400
0xff097223 0x0000000a 0x00000009 0x001fc800
0x0c0e7220 0x00000009 0x00400000 0x000fc800
0x0d007223 0x0000000e 0x000000ff 0x000fe400
0x0e007302 0x0000000b 0x00000000 0x000e2400
0x0b097223 0x00000000 0x0000010e 0x000fc800
0x0d037223 0x00000009 0x00000000 0x000fe200
0x00008947 0x00000030 0x03800000 0x001fea00
0x00117202 0x0000000b 0x00000f00 0x000fe400
0x00007802 0x00004320 0x00000f00 0x000fc600
0x00007944 0x00018540 0x03c00000 0x000fea00
0x00047941 0x00000000 0x03800000 0x000fea00
0x00007308 0x00000017 0x00001000 0x000e6200
0xff097223 0x0000001a 0x00000808 0x000fe200
0x04ff7355 0x00000000 0x00100000 0x000fe200
0x12127820 0x40800000 0x00400000 0x000fe200
0x00047945 0x000000d0 0x03800000 0x000fe200
0x18187221 0x00000003 0x00000000 0x001fe400
0x120e7220 0x00000009 0x00400000 0x000fcc00
0x0e007302 0x00000017 0x00000000 0x000e2200
0x170b7423 0x3f800000 0x00000100 0x002fc800
0x000b7223 0x0000000b 0x00000000 0x000fc800
0x0b007223 0x0000000e 0x000000ff 0x000fc800
0x17097223 0x00000000 0x0000010e 0x000fc800
0x0b037223 0x00000009 0x00000000 0x000fe200
0x00008947 0x00000030 0x03800000 0x001fea00
0x00117202 0x00000017 0x00000f00 0x000fe400
0x00007802 0x00004440 0x00000f00 0x000fc600
0x00007944 0x00018420 0x03c00000 0x000fea00
0x00047941 0x00000000 0x03800000 0x000fea00
0x06067810 0x00003000 0x07f1e0ff 0x000fe200
0x180c7221 0x00000003 0x00000000 0x001fc600
0xff077210 0x00000007 0x007fe4ff 0x000fe200
0x0000a947 0xffffee20 0x0383ffff 0x000fee00
0x00037941 0x00000000 0x03800000 0x000fea00
0x00207919 0x00000000 0x00000000 0x000e2200
0x03ff7355 0x00000000 0x00100000 0x000fe200
0x00037945 0x000009f0 0x03800000 0x000fe400
0x141d7f89 0x08201f00 0x000e0000 0x0002a800
0x13187f89 0x08201f00 0x000e0000 0x0002e800
0x151c7f89 0x08201f00 0x000e0000 0x00032800
0x161b7f89 0x08201f00 0x000e0000 0x00026800
0x0c1f7f89 0x08201f00 0x000e0000 0x00026200
0x2000780c 0x0000001e 0x03f04270 0x001fd800
0x00000947 0x00000970 0x03800000 0x000fea00
0x141a7210 0x0000001d 0x07ffe0ff 0x01cfe200
0x00197306 0x0000001d 0x00201400 0x000e2200
0x13187221 0x00000018 0x00000100 0x000fe200
0x04ff7355 0x00000000 0x00100000 0x000fe200
0x00047945 0x00000140 0x03800000 0x000fe400
0x18177220 0x00000018 0x00400000 0x000fc600
0x001a7306 0x0000001a 0x00201400 0x000ea200
0x18027220 0x00000017 0x00400000 0x000fc800
0x181e7220 0x00000002 0x00400000 0x040fe400
0x180e7220 0x00000019 0x00400000 0x001fe200
0x00037308 0x0000001a 0x00001000 0x004e2200
0x1a127220 0x0000001a 0x00400000 0x000fc800
0x1a0a7220 0x00000012 0x00400000 0x000fc600
0x0e007302 0x0000001a 0x00000000 0x000ea200
0x1a007423 0x3f800000 0x00000103 0x001fc800
0x03007223 0x00000000 0x00000003 0x000fc800
0x0e0b7223 0x00000000 0x000000ff 0x000fc800
0x1a037223 0x0000000b 0x0000010e 0x000fc800
0x000b7223 0x00000003 0x0000000b 0x000fe200
0x00008947 0x00000040 0x03800000 0x004fea00
0x00117202 0x0000001a 0x00000f00 0x000fe400
0x00007802 0x000046b0 0x00000f00 0x000fc600
0x00007944 0x000181b0 0x03c00000 0x002fea00
0x000b7202 0x00000003 0x00000f00 0x001fc600
0x00047941 0x00000000 0x03800000 0x000fea00
0x00097306 0x00000014 0x00201400 0x000e2200
0x04ff7355 0x00000000 0x00100000 0x000fe200
0x00047945 0x000000f0 0x03800000 0x000fec00
0x00037308 0x0000001a 0x00001000 0x000ea200
0x17007220 0x00000009 0x00400000 0x001fc800
0x190e7220 0x00000000 0x00400000 0x000fe400
0x1a047423 0x3f800000 0x00000103 0x004fc800
0x0e007302 0x0000001a 0x00000000 0x000e2200
0x03057223 0x00000004 0x00000003 0x000fc800
0x05037223 0x0000000e 0x000000ff 0x000fc800
0x1a087223 0x00000003 0x0000010e 0x000fc800
0x05087223 0x00000008 0x00000003 0x000fe200
0x00008947 0x00000040 0x03800000 0x001fea00
0x00117202 0x0000001a 0x00000f00 0x000fe400
0x00007802 0x000047d0 0x00000f00 0x000fc600
0x00007944 0x00018090 0x03c00000 0x002fea00
0x00087202 0x00000003 0x00000f00 0x001fc600
0x00047941 0x00000000 0x03800000 0x000fea00
0x14077210 0x8000001d 0x07ffe0ff 0x000fe200
0x00057308 0x00000012 0x00001000 0x000e2200
0x02027220 0x00000009 0x00400000 0x000fe200
0x04ff7355 0x00000000 0x00100000 0x000fe200
0x00047945 0x000000f0 0x03800000 0x000fe200
0x15067221 0x0000001c 0x00000000 0x000fe400
0x19027220 0x00000002 0x00400000 0x000fc400
0x00037306 0x00000007 0x00201400 0x000ea200
0x12007423 0x3f800000 0x00000105 0x001fc800
0x05007223 0x00000000 0x00000005 0x000fe400
0x020e7220 0x00000003 0x00400000 0x004fc800
0x0e037223 0x00000000 0x000000ff 0x000fe400
0x0e007302 0x00000012 0x00000000 0x000e2400
0x12027223 0x00000003 0x0000010e 0x000fc800
0x00037223 0x00000002 0x00000003 0x000fe200
0x00008947 0x00000030 0x03800000 0x001fea00
0x00117202 0x00000012 0x00000f00 0x000fe400
0x00007802 0x00004920 0x00000f00 0x000fc600
0x00007944 0x00017f40 0x03c00000 0x002fea00
0x00047941 0x00000000 0x03800000 0x000fea00
0x000d7308 0x0000001a 0x00001000 0x000ea200
0x15027220 0x00000019 0x00400000 0x000fe200
0x04ff7355 0x00000000 0x00100000 0x000fe200
0x18007820 0x40400000 0x00400000 0x000fe200
0x00047945 0x00000100 0x03800000 0x000fe200
0x1c057223 0x00000009 0x00000802 0x000fc800
0x000e7220 0x00000005 0x00400000 0x000fe400
0x16007221 0x0000001b 0x00000000 0x002fc800
0x0e007302 0x0000001a 0x00000000 0x000e6200
0x1a027423 0x3f800000 0x0000010d 0x004fe400
0x00057221 0x00000003 0x00000000 0x001fe400
0x0d0f7223 0x00000002 0x0000000d 0x000fc800
0x0f0d7223 0x0000000e 0x000000ff 0x000fc800
0x1a027223 0x0000000d 0x0000010e 0x000fc800
0x0f027223 0x00000002 0x0000000d 0x000fe200
0x00008947 0x00000040 0x03800000 0x002fea00
0x00117202 0x0000001a 0x00000f00 0x000fe400
0x00007802 0x00004a60 0x00000f00 0x000fc600
0x00007944 0x00017e00 0x03c00000 0x000fea00
0x00027202 0x00000003 0x00000f00 0x001fc600
0x00047941 0x00000000 0x03800000 0x000fea00
0x1d1d7224 0x0000001d 0x078e02ff 0x000fe200
0x00037308 0x0000000a 0x00001000 0x000e2200
0x1e1e7220 0x00000009 0x00400000 0x000fe200
0x04ff7355 0x00000000 0x00100000 0x000fe200
0x14077224 0x00000007 0x078e021d 0x000fe200
0x00047945 0x000000f0 0x03800000 0x000fe200
0x191e7220 0x0000001e 0x00400000 0x000fe400
0x0c1f7221 0x0000001f 0x00000000 0x000fc400
0x00077306 0x00000007 0x00201400 0x000e6200
0x0a007423 0x3f800000 0x00000103 0x001fc800
0x03007223 0x00000000 0x00000003 0x000fe400
0x1e0e7220 0x00000007 0x00400000 0x002fc800
0x0e037223 0x00000000 0x000000ff 0x000fe400
0x0e007302 0x0000000a 0x00000000 0x000e2400
0x0a047223 0x00000003 0x0000010e 0x000fc800
0x00037223 0x00000004 0x00000003 0x000fe200
0x00008947 0x00000030 0x03800000 0x001fea00
0x00117202 0x0000000a 0x00000f00 0x000fe400
0x00007802 0x00004bc0 0x00000f00 0x000fc600
0x00007944 0x00017ca0 0x03c00000 0x000fea00
0x00047941 0x00000000 0x03800000 0x000fea00
0x14147224 0x00000014 0x078e02ff 0x000fe200
0x00007306 0x0000001d 0x00201400 0x000e6200
0x17177820 0x40c00000 0x00400000 0x000fe200
0x04ff7355 0x00000000 0x00100000 0x000fe200
0x00047945 0x00000110 0x03800000 0x000fe200
0x1f1f7221 0x00000003 0x00000000 0x001fc800
0x00147306 0x00000014 0x00201400 0x000e3000
0x00077308 0x00000012 0x00001000 0x000ea200
0x15157220 0x00000000 0x00400000 0x002fc800
0x141c7223 0x0000001c 0x00000015 0x001fc800
0x170e7220 0x0000001c 0x00400000 0x000fe400
0x12007423 0x3f800000 0x00000107 0x004fc800
0x0e007302 0x00000012 0x00000000 0x000e2200
0x070d7223 0x00000000 0x00000007 0x000fc800
0x0d077223 0x0000000e 0x000000ff 0x000fc800
0x12007223 0x00000007 0x0000010e 0x000fc800
0x0d037223 0x00000000 0x00000007 0x000fe200
0x00008947 0x00000030 0x03800000 0x001fea00
0x00117202 0x00000012 0x00000f00 0x000fe400
0x00007802 0x00004d20 0x00000f00 0x000fc600
0x00007944 0x00017b40 0x03c00000 0x000fea00
0x00047941 0x00000000 0x03800000 0x000fea00
0x00077308 0x0000001a 0x00001000 0x000e6200
0x16167220 0x00000019 0x00400000 0x000fe200
0x04ff7355 0x00000000 0x00100000 0x000fe200
0x18187820 0x40800000 0x00400000 0x000fe200
0x00047945 0x000000e0 0x03800000 0x000fe200
0x1b097223 0x00000009 0x00000816 0x000fe400
0x1f1f7221 0x00000003 0x00000000 0x001fc400
0x180e7220 0x00000009 0x00400000 0x000fcc00
0x0e007302 0x0000001a 0x00000000 0x000e2200
0x1a007423 0x3f800000 0x00000107 0x002fc800
0x07097223 0x00000000 0x00000007 0x000fc800
0x09077223 0x0000000e 0x000000ff 0x000fc800
0x1a007223 0x00000007 0x0000010e 0x000fc800
0x09037223 0x00000000 0x00000007 0x000fe200
0x00008947 0x00000030 0x03800000 0x001fea00
0x00117202 0x0000001a 0x00000f00 0x000fe400
0x00007802 0x00004e50 0x00000f00 0x000fc600
0x00007944 0x00017a10 0x03c00000 0x000fea00
0x00047941 0x00000000 0x03800000 0x000fea00
0x00147305 0x0000001a 0x0020f100 0x0002a200
0x05167221 0x00000002 0x00000000 0x000fe400
0x1f0c7221 0x00000003 0x00000000 0x001fe400
0x13137221 0x0000000b 0x00000000 0x000fe400
0x06157221 0x00000008 0x00000000 0x000fc600
0x00037941 0x00000000 0x03800000 0x01cfea00
0x2000780c 0x0000001d 0x03f04270 0x000fe200
0x03ff7355 0x00000000 0x00100000 0x000fe200
0x141d7f89 0x08401f00 0x000e0000 0x0000a200
0x00037945 0x000009d0 0x03800000 0x000fe600
0x13187f89 0x08401f00 0x000e0000 0x0000e800
0x151c7f89 0x08401f00 0x000e0000 0x00012800
0x161b7f89 0x08401f00 0x000e0000 0x00206800
0x0c1f7f89 0x08401f00 0x000e0000 0x00002200
0x00000947 0x00000970 0x03800000 0x000fea00
0x141a7210 0x0000001d 0x07ffe0ff 0x004fe200
0x00197306 0x0000001d 0x00201400 0x000ea200
0x13187221 0x00000018 0x00000100 0x008fe200
0x04ff7355 0x00000000 0x00100000 0x000fe200
0x00047945 0x00000140 0x03800000 0x000fe400
0x18177220 0x00000018 0x00400000 0x000fc600
0x001a7306 0x0000001a 0x00201400 0x000ee200
0x18027220 0x00000017 0x00400000 0x000fc800
0x181e7220 0x00000002 0x00400000 0x040fe400
0x180e7220 0x00000019 0x00400000 0x004fe200
0x00037308 0x0000001a 0x00001000 0x008ea200
0x1a127220 0x0000001a 0x00400000 0x000fc800
0x1a0a7220 0x00000012 0x00400000 0x000fc600
0x0e007302 0x0000001a 0x00000000 0x000ee200
0x1a007423 0x3f800000 0x00000103 0x004fc800
0x03007223 0x00000000 0x00000003 0x000fc800
0x0e0b7223 0x00000000 0x000000ff 0x000fc800
0x1a037223 0x0000000b 0x0000010e 0x000fc800
0x000b7223 0x00000003 0x0000000b 0x000fe200
0x00008947 0x00000040 0x03800000 0x008fea00
0x00117202 0x0000001a 0x00000f00 0x000fe400
0x00007802 0x000050c0 0x00000f00 0x000fc600
0x00007944 0x000177a0 0x03c00000 0x013fea00
0x000b7202 0x00000003 0x00000f00 0x001fc600
0x00047941 0x00000000 0x03800000 0x000fea00
0x00097306 0x00000014 0x00201400 0x000ea200
0x04ff7355 0x00000000 0x00100000 0x000fe200
0x00047945 0x000000f0 0x03800000 0x000fec00
0x00037308 0x0000001a 0x00001000 0x000ee200
0x17007220 0x00000009 0x00400000 0x004fc800
0x190e7220 0x00000000 0x00400000 0x000fe400
0x1a047423 0x3f800000 0x00000103 0x008fc800
0x0e007302 0x0000001a 0x00000000 0x000ea200
0x03057223 0x00000004 0x00000003 0x000fc800
0x05037223 0x0000000e 0x000000ff 0x000fc800
0x1a087223 0x00000003 0x0000010e 0x000fc800
0x05087223 0x00000008 0x00000003 0x000fe200
0x00008947 0x00000040 0x03800000 0x004fea00
0x00117202 0x0000001a 0x00000f00 0x000fe400
0x00007802 0x000051e0 0x00000f00 0x000fc600
0x00007944 0x00017680 0x03c00000 0x013fea00
0x00087202 0x00000003 0x00000f00 0x001fc600
0x00047941 0x00000000 0x03800000 0x000fea00
0x14077210 0x8000001d 0x07ffe0ff 0x000fe200
0x00057308 0x00000012 0x00001000 0x000ea200
0x02027220 0x00000009 0x00400000 0x000fe200
0x04ff7355 0x00000000 0x00100000 0x000fe200
0x00047945 0x000000f0 0x03800000 0x000fe200
0x15067221 0x0000001c 0x00000000 0x010fe400
0x19027220 0x00000002 0x00400000 0x000fc400
0x00037306 0x00000007 0x00201400 0x000ee200
0x12007423 0x3f800000 0x00000105 0x004fc800
0x05007223 0x00000000 0x00000005 0x000fe400
0x020e7220 0x00000003 0x00400000 0x008fc800
0x0e037223 0x00000000 0x000000ff 0x000fe400
0x0e007302 0x00000012 0x00000000 0x000ea400
0x12027223 0x00000003 0x0000010e 0x000fc800
0x00037223 0x00000002 0x00000003 0x000fe200
0x00008947 0x00000030 0x03800000 0x004fea00
0x00117202 0x00000012 0x00000f00 0x000fe400
0x00007802 0x00005330 0x00000f00 0x000fc600
0x00007944 0x00017530 0x03c00000 0x003fea00
0x00047941 0x00000000 0x03800000 0x000fea00
0x000d7308 0x0000001a 0x00001000 0x000ea200
0x15027220 0x00000019 0x00400000 0x000fe200
0x04ff7355 0x00000000 0x00100000 0x000fe200
0x18007820 0x40400000 0x00400000 0x000fe200
0x00047945 0x00000100 0x03800000 0x000fe200
0x1c057223 0x00000009 0x00000802 0x000fc800
0x000e7220 0x00000005 0x00400000 0x000fe400
0x16007221 0x0000001b 0x00000000 0x002fc800
0x0e007302 0x0000001a 0x00000000 0x000e6200
0x1a027423 0x3f800000 0x0000010d 0x004fe400
0x00057221 0x00000003 0x00000000 0x001fe400
0x0d0f7223 0x00000002 0x0000000d 0x000fc800
0x0f0d7223 0x0000000e 0x000000ff 0x000fc800
0x1a027223 0x0000000d 0x0000010e 0x000fc800
0x0f027223 0x00000002 0x0000000d 0x000fe200
0x00008947 0x00000040 0x03800000 0x002fea00
0x00117202 0x0000001a 0x00000f00 0x000fe400
0x00007802 0x00005470 0x00000f00 0x000fc600
0x00007944 0x000173f0 0x03c00000 0x000fea00
0x00027202 0x00000003 0x00000f00 0x001fc600
0x00047941 0x00000000 0x03800000 0x000fea00
0x1d1d7224 0x0000001d 0x078e02ff 0x000fe200
0x00037308 0x0000000a 0x00001000 0x000e2200
0x1e1e7220 0x00000009 0x00400000 0x000fe200
0x04ff7355 0x00000000 0x00100000 0x000fe200
0x14077224 0x00000007 0x078e021d 0x000fe200
0x00047945 0x000000f0 0x03800000 0x000fe200
0x191e7220 0x0000001e 0x00400000 0x000fe400
0x0c1f7221 0x0000001f 0x00000000 0x000fc400
0x00077306 0x00000007 0x00201400 0x000e6200
0x0a007423 0x3f800000 0x00000103 0x001fc800
0x03007223 0x00000000 0x00000003 0x000fe400
0x1e0e7220 0x00000007 0x00400000 0x002fc800
0x0e037223 0x00000000 0x000000ff 0x000fe400
0x0e007302 0x0000000a 0x00000000 0x000e2400
0x0a047223 0x00000003 0x0000010e 0x000fc800
0x00037223 0x00000004 0x00000003 0x000fe200
0x00008947 0x00000030 0x03800000 0x001fea00
0x00117202 0x0000000a 0x00000f00 0x000fe400
0x00007802 0x000055d0 0x00000f00 0x000fc600
0x00007944 0x00017290 0x03c00000 0x000fea00
0x00047941 0x00000000 0x03800000 0x000fea00
0x14147224 0x00000014 0x078e02ff 0x000fe200
0x00007306 0x0000001d 0x00201400 0x000e6200
0x17177820 0x40c00000 0x00400000 0x000fe200
0x04ff7355 0x00000000 0x00100000 0x000fe200
0x00047945 0x00000110 0x03800000 0x000fe200
0x1f1f7221 0x00000003 0x00000000 0x001fc800
0x00147306 0x00000014 0x00201400 0x000e3000
0x00077308 0x00000012 0x00001000 0x000ea200
0x15157220 0x00000000 0x00400000 0x002fc800
0x141c7223 0x0000001c 0x00000015 0x001fc800
0x170e7220 0x0000001c 0x00400000 0x000fe400
0x12007423 0x3f800000 0x00000107 0x004fc800
0x0e007302 0x00000012 0x00000000 0x000e2200
0x070d7223 0x00000000 0x00000007 0x000fc800
0x0d077223 0x0000000e 0x000000ff 0x000fc800
0x12007223 0x00000007 0x0000010e 0x000fc800
0x0d037223 0x00000000 0x00000007 0x000fe200
0x00008947 0x00000030 0x03800000 0x001fea00
0x00117202 0x00000012 0x00000f00 0x000fe400
0x00007802 0x00005730 0x00000f00 0x000fc600
0x00007944 0x00017130 0x03c00000 0x000fea00
0x00047941 0x00000000 0x03800000 0x000fea00
0x00077308 0x0000001a 0x00001000 0x000e6200
0x16167220 0x00000019 0x00400000 0x000fe200
0x04ff7355 0x00000000 0x00100000 0x000fe200
0x18187820 0x40800000 0x00400000 0x000fe200
0x00047945 0x000000e0 0x03800000 0x000fe200
0x1b097223 0x00000009 0x00000816 0x000fe400
0x1f1f7221 0x00000003 0x00000000 0x001fc400
0x180e7220 0x00000009 0x00400000 0x000fcc00
0x0e007302 0x0000001a 0x00000000 0x000e2200
0x1a007423 0x3f800000 0x00000107 0x002fc800
0x07097223 0x00000000 0x00000007 0x000fc800
0x09077223 0x0000000e 0x000000ff 0x000fc800
0x1a007223 0x00000007 0x0000010e 0x000fc800
0x09037223 0x00000000 0x00000007 0x000fe200
0x00008947 0x00000030 0x03800000 0x001fea00
0x00117202 0x0000001a 0x00000f00 0x000fe400
0x00007802 0x00005860 0x00000f00 0x000fc600
0x00007944 0x00017000 0x03c00000 0x000fea00
0x00047941 0x00000000 0x03800000 0x000fea00
0x00147305 0x0000001a 0x0020f100 0x0002a200
0x05167221 0x00000002 0x00000000 0x000fe400
0x1f0c7221 0x00000003 0x00000000 0x001fe400
0x13137221 0x0000000b 0x00000000 0x000fe400
0x06157221 0x00000008 0x00000000 0x000fc600
0x00037941 0x00000000 0x03800000 0x000fea00
0x2000780c 0x0000001b 0x03f04270 0x000fe200
0x03ff7355 0x00000000 0x00100000 0x000fe200
0x141d7f89 0x08801f00 0x000e0000 0x00452200
0x00037945 0x000009d0 0x03800000 0x000fe600
0x13187f89 0x08801f00 0x000e0000 0x0084e800
0x151c7f89 0x08801f00 0x000e0000 0x01052800
0x161b7f89 0x08801f00 0x000e0000 0x00246800
0x0c1f7f89 0x08801f00 0x000e0000 0x00142200
0x00000947 0x00000970 0x03800000 0x000fea00
0x141a7210 0x0000001d 0x07ffe0ff 0x000fe200
0x00197306 0x0000001d 0x00201400 0x000f6200
0x13187221 0x00000018 0x00000100 0x008fe200
0x04ff7355 0x00000000 0x00100000 0x000fe200
0x00047945 0x00000140 0x03800000 0x000fe400
0x18177220 0x00000018 0x00400000 0x000fc600
0x001a7306 0x0000001a 0x00201400 0x000ee200
0x18027220 0x00000017 0x00400000 0x000fc800
0x181e7220 0x00000002 0x00400000 0x040fe400
0x180e7220 0x00000019 0x00400000 0x020fe200
0x00037308 0x0000001a 0x00001000 0x008ee200
0x1a127220 0x0000001a 0x00400000 0x000fc800
0x1a0a7220 0x00000012 0x00400000 0x000fc600
0x0e007302 0x0000001a 0x00000000 0x000f6200
0x1a007423 0x3f800000 0x00000103 0x008fc800
0x03007223 0x00000000 0x00000003 0x000fc800
0x0e0b7223 0x00000000 0x000000ff 0x000fc800
0x1a037223 0x0000000b 0x0000010e 0x000fc800
0x000b7223 0x00000003 0x0000000b 0x000fe200
0x00008947 0x00000040 0x03800000 0x020fea00
0x00117202 0x0000001a 0x00000f00 0x000fe400
0x00007802 0x00005ad0 0x00000f00 0x000fc600
0x00007944 0x00016d90 0x03c00000 0x017fea00
