
Fatbin elf code:
================
arch = sm_75
code version = [1,7]
host = linux
compile_size = 64bit

64bit elf: type=2, abi=7, sm=75, toolkit=125, flags = 0x4b054b
Sections:
Index Offset   Size ES Align        Type        Flags Link     Info Name
    1     40     5d  0  1            STRTAB       0    0        0 .shstrtab
    2     9d     5d  0  1            STRTAB       0    0        0 .strtab
    3    100     48 18  8            SYMTAB       0    2        3 .symtab
    4    148     20  8  4    CUDA_CALLGRAPH       0    3        0 .nv.callgraph
    5    168     10  8  8    CUDA_RELOCINFO       0    0        0 .nv.rel.action

.section .strtab

.section .shstrtab

.section .symtab
 index           value           size      info    other  shndx    name  
   0               0               0        0        0      0     (null)
 0x1               0               0      0x3        0    0x4     .nv.callgraph
 0x2               0               0      0x3        0    0x5     .nv.rel.action


.nv.callgraph
 <0,-1>
 <0,-2>
 <0,-3>
 <0,-4>


.nv.rel.action
Header : Base Relocation : R_CUDA_CONST_FIELD22_37
Reloc type : Symbol Kind,Addend Shift,Source Position1,length1,Destination Position1,Source Position2,length2,Destination Position2
R_CUDA_CONST_FIELD22_37 : EIVALUE_SYM_KIND_ADDR,0,0,17,37,0,5,54

Fatbin elf code:
================
arch = sm_75
code version = [1,7]
host = linux
compile_size = 64bit

64bit elf: type=2, abi=7, sm=75, toolkit=125, flags = 0x4b054b
Sections:
Index Offset   Size ES Align        Type        Flags Link     Info Name
    1     40   b65a  0  1            STRTAB       0    0        0 .shstrtab
    2   b69a   e1e5  0  1            STRTAB       0    0        0 .strtab
    3  19880    c78 18  8            SYMTAB       0    2       68 .symtab
    4  1a4f8    cb0  0  1          PROGBITS       0    0        0 .debug_frame
    5  1b1a8    570  0  4         CUDA_INFO       0    3        0 .nv.info
    6  1b718     6c  0  4         CUDA_INFO      40    3       4b .nv.info._ZN3cub17CUB_200400_750_NS6detail8for_each13static_kernelINS2_12policy_hub_t12policy_350_tElN6thrust20THRUST_200400_750_NS8cuda_cub11__transform17unary_transform_fIPN4cuda3std3__45tupleIJNSE_IJ6vec_2dIfElEEESH_EEESJ_NS9_14no_stencil_tagENS7_8identityISI_EENS9_21always_true_predicateEEEEEvT0_T1_
    7  1b784     6c  0  4         CUDA_INFO      40    3       4c .nv.info._ZN3cub17CUB_200400_750_NS6detail8for_each13static_kernelINS2_12policy_hub_t12policy_350_tElN6thrust20THRUST_200400_750_NS8cuda_cub20__uninitialized_copy7functorIPN4cuda3std3__45tupleIJNSE_IJ6vec_2dIfElEEESH_EEENS7_7pointerISI_NS8_5par_tENS7_11use_defaultESM_EEEEEEvT0_T1_
    8  1b7f0     5c  0  4         CUDA_INFO      40    3       4d .nv.info._ZN3cub17CUB_200400_750_NS6detail8for_each13static_kernelINS2_12policy_hub_t12policy_350_tElNS2_12op_wrapper_tIlN6thrust20THRUST_200400_750_NS6detail23allocator_traits_detail5gozerENS8_7pointerIN4cuda3std3__45tupleIJNSG_IJ6vec_2dIfElEEESJ_EEENS8_8cuda_cub5par_tENS8_11use_defaultESN_EEEEEEvT0_T1_
    9  1b84c     64  0  4         CUDA_INFO      40    3       4e .nv.info._ZN3cub17CUB_200400_750_NS6detail8for_each13static_kernelINS2_12policy_hub_t12policy_350_tEmNS2_12op_wrapper_tImN6thrust20THRUST_200400_750_NS6detail23allocator_traits_detail24construct1_via_allocatorINS9_18no_throw_allocatorINS9_19temporary_allocatorIN4cuda3std3__45tupleIJNSH_IJ6vec_2dIfElEEESK_EEENS8_8cuda_cub5par_tEEEEEEENS8_7pointerISL_SN_NS8_11use_defaultESS_EEEEEEvT0_T1_
    a  1b8b0     6c  0  4         CUDA_INFO      40    3       4f .nv.info._ZN3cub17CUB_200400_750_NS6detail8for_each13static_kernelINS2_12policy_hub_t12policy_350_tElN6thrust20THRUST_200400_750_NS8cuda_cub11__transform17unary_transform_fIPN4cuda3std3__45tupleIJ6vec_2dIfElEEESI_NS9_14no_stencil_tagENS7_8identityISH_EENS9_21always_true_predicateEEEEEvT0_T1_
    b  1b91c     6c  0  4         CUDA_INFO      40    3       50 .nv.info._ZN3cub17CUB_200400_750_NS6detail8for_each13static_kernelINS2_12policy_hub_t12policy_350_tElN6thrust20THRUST_200400_750_NS8cuda_cub20__uninitialized_copy7functorIPN4cuda3std3__45tupleIJ6vec_2dIfElEEENS7_7pointerISH_NS8_5par_tENS7_11use_defaultESL_EEEEEEvT0_T1_
    c  1b988     5c  0  4         CUDA_INFO      40    3       51 .nv.info._ZN3cub17CUB_200400_750_NS6detail8for_each13static_kernelINS2_12policy_hub_t12policy_350_tElNS2_12op_wrapper_tIlN6thrust20THRUST_200400_750_NS6detail23allocator_traits_detail5gozerENS8_7pointerIN4cuda3std3__45tupleIJ6vec_2dIfElEEENS8_8cuda_cub5par_tENS8_11use_defaultESM_EEEEEEvT0_T1_
    d  1b9e4     64  0  4         CUDA_INFO      40    3       52 .nv.info._ZN3cub17CUB_200400_750_NS6detail8for_each13static_kernelINS2_12policy_hub_t12policy_350_tEmNS2_12op_wrapper_tImN6thrust20THRUST_200400_750_NS6detail23allocator_traits_detail24construct1_via_allocatorINS9_18no_throw_allocatorINS9_19temporary_allocatorIN4cuda3std3__45tupleIJ6vec_2dIfElEEENS8_8cuda_cub5par_tEEEEEEENS8_7pointerISK_SM_NS8_11use_defaultESR_EEEEEEvT0_T1_
    e  1ba48     1c  0  4         CUDA_INFO      40    3       53 .nv.info._ZN3cub17CUB_200400_750_NS11EmptyKernelIvEEvv
    f  1ba64    454  0  4         CUDA_INFO      40    3       54 .nv.info._ZN6thrust20THRUST_200400_750_NS8cuda_cub4core13_kernel_agentINS1_8__reduce11ReduceAgentIPN4cuda3std3__45tupleIJNS9_IJ6vec_2dIfElEEESC_EEESE_SD_lNS1_9__extrema12arg_minmax_fISB_l7compareIfEEEEESE_SE_iSJ_EEvT0_T1_T2_T3_
   10  1beb8    470  0  4         CUDA_INFO      40    3       55 .nv.info._ZN6thrust20THRUST_200400_750_NS8cuda_cub4core13_kernel_agentINS1_8__reduce11ReduceAgentINS1_26transform_input_iterator_tIN4cuda3std3__45tupleIJNSA_IJ6vec_2dIfElEEESD_EEENS0_12zip_iteratorINSA_IJNS0_6detail15normal_iteratorINS0_10device_ptrISC_EEEENS1_19counting_iterator_tIlEEEEEEENS1_9__extrema12arg_minmax_fISC_l7compareIfEE15duplicate_tupleEEEPSE_SE_lST_EESV_SW_lN3cub17CUB_200400_750_NS13GridEvenShareIlEENSZ_9GridQueueIyEEST_EEvT0_T1_T2_T3_T4_T5_
   11  1c328    454  0  4         CUDA_INFO      40    3       56 .nv.info._ZN6thrust20THRUST_200400_750_NS8cuda_cub4core13_kernel_agentINS1_8__reduce11ReduceAgentINS1_26transform_input_iterator_tIN4cuda3std3__45tupleIJNSA_IJ6vec_2dIfElEEESD_EEENS0_12zip_iteratorINSA_IJNS0_6detail15normal_iteratorINS0_10device_ptrISC_EEEENS1_19counting_iterator_tIlEEEEEEENS1_9__extrema12arg_minmax_fISC_l7compareIfEE15duplicate_tupleEEEPSE_SE_lST_EESV_SW_lST_EEvT0_T1_T2_T3_
   12  1c77c    454  0  4         CUDA_INFO      40    3       57 .nv.info._ZN6thrust20THRUST_200400_750_NS8cuda_cub4core13_kernel_agentINS1_8__reduce11ReduceAgentIPN4cuda3std3__45tupleIJNS9_IJ6vec_2dIfElEEESC_EEESE_SD_iNS1_9__extrema12arg_minmax_fISB_l7compareIfEEEEESE_SE_iSJ_EEvT0_T1_T2_T3_
   13  1cbd0    470  0  4         CUDA_INFO      40    3       58 .nv.info._ZN6thrust20THRUST_200400_750_NS8cuda_cub4core13_kernel_agentINS1_8__reduce11ReduceAgentINS1_26transform_input_iterator_tIN4cuda3std3__45tupleIJNSA_IJ6vec_2dIfElEEESD_EEENS0_12zip_iteratorINSA_IJNS0_6detail15normal_iteratorINS0_10device_ptrISC_EEEENS1_19counting_iterator_tIlEEEEEEENS1_9__extrema12arg_minmax_fISC_l7compareIfEE15duplicate_tupleEEEPSE_SE_iST_EESV_SW_iN3cub17CUB_200400_750_NS13GridEvenShareIiEENSZ_9GridQueueIjEEST_EEvT0_T1_T2_T3_T4_T5_
   14  1d040    454  0  4         CUDA_INFO      40    3       59 .nv.info._ZN6thrust20THRUST_200400_750_NS8cuda_cub4core13_kernel_agentINS1_8__reduce11ReduceAgentINS1_26transform_input_iterator_tIN4cuda3std3__45tupleIJNSA_IJ6vec_2dIfElEEESD_EEENS0_12zip_iteratorINSA_IJNS0_6detail15normal_iteratorINS0_10device_ptrISC_EEEENS1_19counting_iterator_tIlEEEEEEENS1_9__extrema12arg_minmax_fISC_l7compareIfEE15duplicate_tupleEEEPSE_SE_iST_EESV_SW_iST_EEvT0_T1_T2_T3_
   15  1d494    274  0  4         CUDA_INFO      40    3       5a .nv.info._ZN6thrust20THRUST_200400_750_NS8cuda_cub4core13_kernel_agentINS1_8__reduce11ReduceAgentIPN4cuda3std3__45tupleIJ6vec_2dIfElEEESD_SC_lNS1_9__extrema9arg_max_fISB_l7compareIfEEEEESD_SD_iSI_EEvT0_T1_T2_T3_
   16  1d708    290  0  4         CUDA_INFO      40    3       5b .nv.info._ZN6thrust20THRUST_200400_750_NS8cuda_cub4core13_kernel_agentINS1_8__reduce11ReduceAgentINS0_12zip_iteratorIN4cuda3std3__45tupleIJNS0_6detail15normal_iteratorINS0_10device_ptrI6vec_2dIfEEEEENS1_19counting_iterator_tIlEEEEEEEPNSA_IJSF_lEEESM_lNS1_9__extrema9arg_max_fISF_l7compareIfEEEEESL_SN_lN3cub17CUB_200400_750_NS13GridEvenShareIlEENSV_9GridQueueIyEESS_EEvT0_T1_T2_T3_T4_T5_
   17  1d998    274  0  4         CUDA_INFO      40    3       5c .nv.info._ZN6thrust20THRUST_200400_750_NS8cuda_cub4core13_kernel_agentINS1_8__reduce11ReduceAgentINS0_12zip_iteratorIN4cuda3std3__45tupleIJNS0_6detail15normal_iteratorINS0_10device_ptrI6vec_2dIfEEEEENS1_19counting_iterator_tIlEEEEEEEPNSA_IJSF_lEEESM_lNS1_9__extrema9arg_max_fISF_l7compareIfEEEEESL_SN_lSS_EEvT0_T1_T2_T3_
   18  1dc0c    274  0  4         CUDA_INFO      40    3       5d .nv.info._ZN6thrust20THRUST_200400_750_NS8cuda_cub4core13_kernel_agentINS1_8__reduce11ReduceAgentIPN4cuda3std3__45tupleIJ6vec_2dIfElEEESD_SC_iNS1_9__extrema9arg_max_fISB_l7compareIfEEEEESD_SD_iSI_EEvT0_T1_T2_T3_
   19  1de80    290  0  4         CUDA_INFO      40    3       5e .nv.info._ZN6thrust20THRUST_200400_750_NS8cuda_cub4core13_kernel_agentINS1_8__reduce11ReduceAgentINS0_12zip_iteratorIN4cuda3std3__45tupleIJNS0_6detail15normal_iteratorINS0_10device_ptrI6vec_2dIfEEEEENS1_19counting_iterator_tIlEEEEEEEPNSA_IJSF_lEEESM_iNS1_9__extrema9arg_max_fISF_l7compareIfEEEEESL_SN_iN3cub17CUB_200400_750_NS13GridEvenShareIiEENSV_9GridQueueIjEESS_EEvT0_T1_T2_T3_T4_T5_
   1a  1e110    274  0  4         CUDA_INFO      40    3       5f .nv.info._ZN6thrust20THRUST_200400_750_NS8cuda_cub4core13_kernel_agentINS1_8__reduce11ReduceAgentINS0_12zip_iteratorIN4cuda3std3__45tupleIJNS0_6detail15normal_iteratorINS0_10device_ptrI6vec_2dIfEEEEENS1_19counting_iterator_tIlEEEEEEEPNSA_IJSF_lEEESM_iNS1_9__extrema9arg_max_fISF_l7compareIfEEEEESL_SN_iSS_EEvT0_T1_T2_T3_
   1b  1e384    274  0  4         CUDA_INFO      40    3       60 .nv.info._ZN6thrust20THRUST_200400_750_NS8cuda_cub4core13_kernel_agentINS1_8__reduce11ReduceAgentIPN4cuda3std3__45tupleIJ6vec_2dIfElEEESD_SC_lNS1_9__extrema9arg_min_fISB_l7compareIfEEEEESD_SD_iSI_EEvT0_T1_T2_T3_
   1c  1e5f8     5c  0  4         CUDA_INFO      40    3       61 .nv.info._ZN6thrust20THRUST_200400_750_NS8cuda_cub4core13_kernel_agentINS1_8__reduce10DrainAgentIlEEN3cub17CUB_200400_750_NS9GridQueueIyEElEEvT0_T1_
   1d  1e654    290  0  4         CUDA_INFO      40    3       62 .nv.info._ZN6thrust20THRUST_200400_750_NS8cuda_cub4core13_kernel_agentINS1_8__reduce11ReduceAgentINS0_12zip_iteratorIN4cuda3std3__45tupleIJNS0_6detail15normal_iteratorINS0_10device_ptrI6vec_2dIfEEEEENS1_19counting_iterator_tIlEEEEEEEPNSA_IJSF_lEEESM_lNS1_9__extrema9arg_min_fISF_l7compareIfEEEEESL_SN_lN3cub17CUB_200400_750_NS13GridEvenShareIlEENSV_9GridQueueIyEESS_EEvT0_T1_T2_T3_T4_T5_
   1e  1e8e4    274  0  4         CUDA_INFO      40    3       63 .nv.info._ZN6thrust20THRUST_200400_750_NS8cuda_cub4core13_kernel_agentINS1_8__reduce11ReduceAgentINS0_12zip_iteratorIN4cuda3std3__45tupleIJNS0_6detail15normal_iteratorINS0_10device_ptrI6vec_2dIfEEEEENS1_19counting_iterator_tIlEEEEEEEPNSA_IJSF_lEEESM_lNS1_9__extrema9arg_min_fISF_l7compareIfEEEEESL_SN_lSS_EEvT0_T1_T2_T3_
   1f  1eb58    274  0  4         CUDA_INFO      40    3       64 .nv.info._ZN6thrust20THRUST_200400_750_NS8cuda_cub4core13_kernel_agentINS1_8__reduce11ReduceAgentIPN4cuda3std3__45tupleIJ6vec_2dIfElEEESD_SC_iNS1_9__extrema9arg_min_fISB_l7compareIfEEEEESD_SD_iSI_EEvT0_T1_T2_T3_
   20  1edcc     5c  0  4         CUDA_INFO      40    3       65 .nv.info._ZN6thrust20THRUST_200400_750_NS8cuda_cub4core13_kernel_agentINS1_8__reduce10DrainAgentIiEEN3cub17CUB_200400_750_NS9GridQueueIjEEiEEvT0_T1_
   21  1ee28    290  0  4         CUDA_INFO      40    3       66 .nv.info._ZN6thrust20THRUST_200400_750_NS8cuda_cub4core13_kernel_agentINS1_8__reduce11ReduceAgentINS0_12zip_iteratorIN4cuda3std3__45tupleIJNS0_6detail15normal_iteratorINS0_10device_ptrI6vec_2dIfEEEEENS1_19counting_iterator_tIlEEEEEEEPNSA_IJSF_lEEESM_iNS1_9__extrema9arg_min_fISF_l7compareIfEEEEESL_SN_iN3cub17CUB_200400_750_NS13GridEvenShareIiEENSV_9GridQueueIjEESS_EEvT0_T1_T2_T3_T4_T5_
   22  1f0b8    274  0  4         CUDA_INFO      40    3       67 .nv.info._ZN6thrust20THRUST_200400_750_NS8cuda_cub4core13_kernel_agentINS1_8__reduce11ReduceAgentINS0_12zip_iteratorIN4cuda3std3__45tupleIJNS0_6detail15normal_iteratorINS0_10device_ptrI6vec_2dIfEEEEENS1_19counting_iterator_tIlEEEEEEEPNSA_IJSF_lEEESM_iNS1_9__extrema9arg_min_fISF_l7compareIfEEEEESL_SN_iSS_EEvT0_T1_T2_T3_
   23  1f32c     20  8  4    CUDA_CALLGRAPH       0    3        0 .nv.callgraph
   24  1f350     10  8  8    CUDA_RELOCINFO       0    0        0 .nv.rel.action
   25  1f360    220 10  8               REL      40    3       27 .rel.nv.constant4
   26  1f580    1d0 10  8               REL      40    3        4 .rel.debug_frame
   27  1f750    110  0  8          PROGBITS       2    0        0 .nv.constant4
   28  1f860    180  0  4          PROGBITS      42    0       4b .nv.constant0._ZN3cub17CUB_200400_750_NS6detail8for_each13static_kernelINS2_12policy_hub_t12policy_350_tElN6thrust20THRUST_200400_750_NS8cuda_cub11__transform17unary_transform_fIPN4cuda3std3__45tupleIJNSE_IJ6vec_2dIfElEEESH_EEESJ_NS9_14no_stencil_tagENS7_8identityISI_EENS9_21always_true_predicateEEEEEvT0_T1_
   29  1f9e0    178  0  4          PROGBITS      42    0       4c .nv.constant0._ZN3cub17CUB_200400_750_NS6detail8for_each13static_kernelINS2_12policy_hub_t12policy_350_tElN6thrust20THRUST_200400_750_NS8cuda_cub20__uninitialized_copy7functorIPN4cuda3std3__45tupleIJNSE_IJ6vec_2dIfElEEESH_EEENS7_7pointerISI_NS8_5par_tENS7_11use_defaultESM_EEEEEEvT0_T1_
   2a  1fb58    178  0  4          PROGBITS      42    0       4d .nv.constant0._ZN3cub17CUB_200400_750_NS6detail8for_each13static_kernelINS2_12policy_hub_t12policy_350_tElNS2_12op_wrapper_tIlN6thrust20THRUST_200400_750_NS6detail23allocator_traits_detail5gozerENS8_7pointerIN4cuda3std3__45tupleIJNSG_IJ6vec_2dIfElEEESJ_EEENS8_8cuda_cub5par_tENS8_11use_defaultESN_EEEEEEvT0_T1_
   2b  1fcd0    178  0  4          PROGBITS      42    0       4e .nv.constant0._ZN3cub17CUB_200400_750_NS6detail8for_each13static_kernelINS2_12policy_hub_t12policy_350_tEmNS2_12op_wrapper_tImN6thrust20THRUST_200400_750_NS6detail23allocator_traits_detail24construct1_via_allocatorINS9_18no_throw_allocatorINS9_19temporary_allocatorIN4cuda3std3__45tupleIJNSH_IJ6vec_2dIfElEEESK_EEENS8_8cuda_cub5par_tEEEEEEENS8_7pointerISL_SN_NS8_11use_defaultESS_EEEEEEvT0_T1_
   2c  1fe48    180  0  4          PROGBITS      42    0       4f .nv.constant0._ZN3cub17CUB_200400_750_NS6detail8for_each13static_kernelINS2_12policy_hub_t12policy_350_tElN6thrust20THRUST_200400_750_NS8cuda_cub11__transform17unary_transform_fIPN4cuda3std3__45tupleIJ6vec_2dIfElEEESI_NS9_14no_stencil_tagENS7_8identityISH_EENS9_21always_true_predicateEEEEEvT0_T1_
   2d  1ffc8    178  0  4          PROGBITS      42    0       50 .nv.constant0._ZN3cub17CUB_200400_750_NS6detail8for_each13static_kernelINS2_12policy_hub_t12policy_350_tElN6thrust20THRUST_200400_750_NS8cuda_cub20__uninitialized_copy7functorIPN4cuda3std3__45tupleIJ6vec_2dIfElEEENS7_7pointerISH_NS8_5par_tENS7_11use_defaultESL_EEEEEEvT0_T1_
   2e  20140    178  0  4          PROGBITS      42    0       51 .nv.constant0._ZN3cub17CUB_200400_750_NS6detail8for_each13static_kernelINS2_12policy_hub_t12policy_350_tElNS2_12op_wrapper_tIlN6thrust20THRUST_200400_750_NS6detail23allocator_traits_detail5gozerENS8_7pointerIN4cuda3std3__45tupleIJ6vec_2dIfElEEENS8_8cuda_cub5par_tENS8_11use_defaultESM_EEEEEEvT0_T1_
   2f  202b8    178  0  4          PROGBITS      42    0       52 .nv.constant0._ZN3cub17CUB_200400_750_NS6detail8for_each13static_kernelINS2_12policy_hub_t12policy_350_tEmNS2_12op_wrapper_tImN6thrust20THRUST_200400_750_NS6detail23allocator_traits_detail24construct1_via_allocatorINS9_18no_throw_allocatorINS9_19temporary_allocatorIN4cuda3std3__45tupleIJ6vec_2dIfElEEENS8_8cuda_cub5par_tEEEEEEENS8_7pointerISK_SM_NS8_11use_defaultESR_EEEEEEvT0_T1_
   30  20430    160  0  4          PROGBITS      42    0       53 .nv.constant0._ZN3cub17CUB_200400_750_NS11EmptyKernelIvEEvv
   31  20590    175  0  4          PROGBITS      42    0       54 .nv.constant0._ZN6thrust20THRUST_200400_750_NS8cuda_cub4core13_kernel_agentINS1_8__reduce11ReduceAgentIPN4cuda3std3__45tupleIJNS9_IJ6vec_2dIfElEEESC_EEESE_SD_lNS1_9__extrema12arg_minmax_fISB_l7compareIfEEEEESE_SE_iSJ_EEvT0_T1_T2_T3_
   32  20708      8  0  4          PROGBITS      42    0       55 .nv.constant2._ZN6thrust20THRUST_200400_750_NS8cuda_cub4core13_kernel_agentINS1_8__reduce11ReduceAgentINS1_26transform_input_iterator_tIN4cuda3std3__45tupleIJNSA_IJ6vec_2dIfElEEESD_EEENS0_12zip_iteratorINSA_IJNS0_6detail15normal_iteratorINS0_10device_ptrISC_EEEENS1_19counting_iterator_tIlEEEEEEENS1_9__extrema12arg_minmax_fISC_l7compareIfEE15duplicate_tupleEEEPSE_SE_lST_EESV_SW_lN3cub17CUB_200400_750_NS13GridEvenShareIlEENSZ_9GridQueueIyEEST_EEvT0_T1_T2_T3_T4_T5_
   33  20710    1d9  0  4          PROGBITS      42    0       55 .nv.constant0._ZN6thrust20THRUST_200400_750_NS8cuda_cub4core13_kernel_agentINS1_8__reduce11ReduceAgentINS1_26transform_input_iterator_tIN4cuda3std3__45tupleIJNSA_IJ6vec_2dIfElEEESD_EEENS0_12zip_iteratorINSA_IJNS0_6detail15normal_iteratorINS0_10device_ptrISC_EEEENS1_19counting_iterator_tIlEEEEEEENS1_9__extrema12arg_minmax_fISC_l7compareIfEE15duplicate_tupleEEEPSE_SE_lST_EESV_SW_lN3cub17CUB_200400_750_NS13GridEvenShareIlEENSZ_9GridQueueIyEEST_EEvT0_T1_T2_T3_T4_T5_
   34  208ec    189  0  4          PROGBITS      42    0       56 .nv.constant0._ZN6thrust20THRUST_200400_750_NS8cuda_cub4core13_kernel_agentINS1_8__reduce11ReduceAgentINS1_26transform_input_iterator_tIN4cuda3std3__45tupleIJNSA_IJ6vec_2dIfElEEESD_EEENS0_12zip_iteratorINSA_IJNS0_6detail15normal_iteratorINS0_10device_ptrISC_EEEENS1_19counting_iterator_tIlEEEEEEENS1_9__extrema12arg_minmax_fISC_l7compareIfEE15duplicate_tupleEEEPSE_SE_lST_EESV_SW_lST_EEvT0_T1_T2_T3_
   35  20a78    175  0  4          PROGBITS      42    0       57 .nv.constant0._ZN6thrust20THRUST_200400_750_NS8cuda_cub4core13_kernel_agentINS1_8__reduce11ReduceAgentIPN4cuda3std3__45tupleIJNS9_IJ6vec_2dIfElEEESC_EEESE_SD_iNS1_9__extrema12arg_minmax_fISB_l7compareIfEEEEESE_SE_iSJ_EEvT0_T1_T2_T3_
   36  20bf0      8  0  4          PROGBITS      42    0       58 .nv.constant2._ZN6thrust20THRUST_200400_750_NS8cuda_cub4core13_kernel_agentINS1_8__reduce11ReduceAgentINS1_26transform_input_iterator_tIN4cuda3std3__45tupleIJNSA_IJ6vec_2dIfElEEESD_EEENS0_12zip_iteratorINSA_IJNS0_6detail15normal_iteratorINS0_10device_ptrISC_EEEENS1_19counting_iterator_tIlEEEEEEENS1_9__extrema12arg_minmax_fISC_l7compareIfEE15duplicate_tupleEEEPSE_SE_iST_EESV_SW_iN3cub17CUB_200400_750_NS13GridEvenShareIiEENSZ_9GridQueueIjEEST_EEvT0_T1_T2_T3_T4_T5_
   37  20bf8    1b9  0  4          PROGBITS      42    0       58 .nv.constant0._ZN6thrust20THRUST_200400_750_NS8cuda_cub4core13_kernel_agentINS1_8__reduce11ReduceAgentINS1_26transform_input_iterator_tIN4cuda3std3__45tupleIJNSA_IJ6vec_2dIfElEEESD_EEENS0_12zip_iteratorINSA_IJNS0_6detail15normal_iteratorINS0_10device_ptrISC_EEEENS1_19counting_iterator_tIlEEEEEEENS1_9__extrema12arg_minmax_fISC_l7compareIfEE15duplicate_tupleEEEPSE_SE_iST_EESV_SW_iN3cub17CUB_200400_750_NS13GridEvenShareIiEENSZ_9GridQueueIjEEST_EEvT0_T1_T2_T3_T4_T5_
   38  20db4    185  0  4          PROGBITS      42    0       59 .nv.constant0._ZN6thrust20THRUST_200400_750_NS8cuda_cub4core13_kernel_agentINS1_8__reduce11ReduceAgentINS1_26transform_input_iterator_tIN4cuda3std3__45tupleIJNSA_IJ6vec_2dIfElEEESD_EEENS0_12zip_iteratorINSA_IJNS0_6detail15normal_iteratorINS0_10device_ptrISC_EEEENS1_19counting_iterator_tIlEEEEEEENS1_9__extrema12arg_minmax_fISC_l7compareIfEE15duplicate_tupleEEEPSE_SE_iST_EESV_SW_iST_EEvT0_T1_T2_T3_
   39  20f3c    175  0  4          PROGBITS      42    0       5a .nv.constant0._ZN6thrust20THRUST_200400_750_NS8cuda_cub4core13_kernel_agentINS1_8__reduce11ReduceAgentIPN4cuda3std3__45tupleIJ6vec_2dIfElEEESD_SC_lNS1_9__extrema9arg_max_fISB_l7compareIfEEEEESD_SD_iSI_EEvT0_T1_T2_T3_
   3a  210b4      8  0  4          PROGBITS      42    0       5b .nv.constant2._ZN6thrust20THRUST_200400_750_NS8cuda_cub4core13_kernel_agentINS1_8__reduce11ReduceAgentINS0_12zip_iteratorIN4cuda3std3__45tupleIJNS0_6detail15normal_iteratorINS0_10device_ptrI6vec_2dIfEEEEENS1_19counting_iterator_tIlEEEEEEEPNSA_IJSF_lEEESM_lNS1_9__extrema9arg_max_fISF_l7compareIfEEEEESL_SN_lN3cub17CUB_200400_750_NS13GridEvenShareIlEENSV_9GridQueueIyEESS_EEvT0_T1_T2_T3_T4_T5_
   3b  210bc    1d1  0  4          PROGBITS      42    0       5b .nv.constant0._ZN6thrust20THRUST_200400_750_NS8cuda_cub4core13_kernel_agentINS1_8__reduce11ReduceAgentINS0_12zip_iteratorIN4cuda3std3__45tupleIJNS0_6detail15normal_iteratorINS0_10device_ptrI6vec_2dIfEEEEENS1_19counting_iterator_tIlEEEEEEEPNSA_IJSF_lEEESM_lNS1_9__extrema9arg_max_fISF_l7compareIfEEEEESL_SN_lN3cub17CUB_200400_750_NS13GridEvenShareIlEENSV_9GridQueueIyEESS_EEvT0_T1_T2_T3_T4_T5_
   3c  21290    181  0  4          PROGBITS      42    0       5c .nv.constant0._ZN6thrust20THRUST_200400_750_NS8cuda_cub4core13_kernel_agentINS1_8__reduce11ReduceAgentINS0_12zip_iteratorIN4cuda3std3__45tupleIJNS0_6detail15normal_iteratorINS0_10device_ptrI6vec_2dIfEEEEENS1_19counting_iterator_tIlEEEEEEEPNSA_IJSF_lEEESM_lNS1_9__extrema9arg_max_fISF_l7compareIfEEEEESL_SN_lSS_EEvT0_T1_T2_T3_
   3d  21414    175  0  4          PROGBITS      42    0       5d .nv.constant0._ZN6thrust20THRUST_200400_750_NS8cuda_cub4core13_kernel_agentINS1_8__reduce11ReduceAgentIPN4cuda3std3__45tupleIJ6vec_2dIfElEEESD_SC_iNS1_9__extrema9arg_max_fISB_l7compareIfEEEEESD_SD_iSI_EEvT0_T1_T2_T3_
   3e  2158c      8  0  4          PROGBITS      42    0       5e .nv.constant2._ZN6thrust20THRUST_200400_750_NS8cuda_cub4core13_kernel_agentINS1_8__reduce11ReduceAgentINS0_12zip_iteratorIN4cuda3std3__45tupleIJNS0_6detail15normal_iteratorINS0_10device_ptrI6vec_2dIfEEEEENS1_19counting_iterator_tIlEEEEEEEPNSA_IJSF_lEEESM_iNS1_9__extrema9arg_max_fISF_l7compareIfEEEEESL_SN_iN3cub17CUB_200400_750_NS13GridEvenShareIiEENSV_9GridQueueIjEESS_EEvT0_T1_T2_T3_T4_T5_
   3f  21594    1b1  0  4          PROGBITS      42    0       5e .nv.constant0._ZN6thrust20THRUST_200400_750_NS8cuda_cub4core13_kernel_agentINS1_8__reduce11ReduceAgentINS0_12zip_iteratorIN4cuda3std3__45tupleIJNS0_6detail15normal_iteratorINS0_10device_ptrI6vec_2dIfEEEEENS1_19counting_iterator_tIlEEEEEEEPNSA_IJSF_lEEESM_iNS1_9__extrema9arg_max_fISF_l7compareIfEEEEESL_SN_iN3cub17CUB_200400_750_NS13GridEvenShareIiEENSV_9GridQueueIjEESS_EEvT0_T1_T2_T3_T4_T5_
   40  21748    17d  0  4          PROGBITS      42    0       5f .nv.constant0._ZN6thrust20THRUST_200400_750_NS8cuda_cub4core13_kernel_agentINS1_8__reduce11ReduceAgentINS0_12zip_iteratorIN4cuda3std3__45tupleIJNS0_6detail15normal_iteratorINS0_10device_ptrI6vec_2dIfEEEEENS1_19counting_iterator_tIlEEEEEEEPNSA_IJSF_lEEESM_iNS1_9__extrema9arg_max_fISF_l7compareIfEEEEESL_SN_iSS_EEvT0_T1_T2_T3_
   41  218c8    175  0  4          PROGBITS      42    0       60 .nv.constant0._ZN6thrust20THRUST_200400_750_NS8cuda_cub4core13_kernel_agentINS1_8__reduce11ReduceAgentIPN4cuda3std3__45tupleIJ6vec_2dIfElEEESD_SC_lNS1_9__extrema9arg_min_fISB_l7compareIfEEEEESD_SD_iSI_EEvT0_T1_T2_T3_
   42  21a40    170  0  4          PROGBITS      42    0       61 .nv.constant0._ZN6thrust20THRUST_200400_750_NS8cuda_cub4core13_kernel_agentINS1_8__reduce10DrainAgentIlEEN3cub17CUB_200400_750_NS9GridQueueIyEElEEvT0_T1_
   43  21bb0      8  0  4          PROGBITS      42    0       62 .nv.constant2._ZN6thrust20THRUST_200400_750_NS8cuda_cub4core13_kernel_agentINS1_8__reduce11ReduceAgentINS0_12zip_iteratorIN4cuda3std3__45tupleIJNS0_6detail15normal_iteratorINS0_10device_ptrI6vec_2dIfEEEEENS1_19counting_iterator_tIlEEEEEEEPNSA_IJSF_lEEESM_lNS1_9__extrema9arg_min_fISF_l7compareIfEEEEESL_SN_lN3cub17CUB_200400_750_NS13GridEvenShareIlEENSV_9GridQueueIyEESS_EEvT0_T1_T2_T3_T4_T5_
   44  21bb8    1d1  0  4          PROGBITS      42    0       62 .nv.constant0._ZN6thrust20THRUST_200400_750_NS8cuda_cub4core13_kernel_agentINS1_8__reduce11ReduceAgentINS0_12zip_iteratorIN4cuda3std3__45tupleIJNS0_6detail15normal_iteratorINS0_10device_ptrI6vec_2dIfEEEEENS1_19counting_iterator_tIlEEEEEEEPNSA_IJSF_lEEESM_lNS1_9__extrema9arg_min_fISF_l7compareIfEEEEESL_SN_lN3cub17CUB_200400_750_NS13GridEvenShareIlEENSV_9GridQueueIyEESS_EEvT0_T1_T2_T3_T4_T5_
   45  21d8c    181  0  4          PROGBITS      42    0       63 .nv.constant0._ZN6thrust20THRUST_200400_750_NS8cuda_cub4core13_kernel_agentINS1_8__reduce11ReduceAgentINS0_12zip_iteratorIN4cuda3std3__45tupleIJNS0_6detail15normal_iteratorINS0_10device_ptrI6vec_2dIfEEEEENS1_19counting_iterator_tIlEEEEEEEPNSA_IJSF_lEEESM_lNS1_9__extrema9arg_min_fISF_l7compareIfEEEEESL_SN_lSS_EEvT0_T1_T2_T3_
   46  21f10    175  0  4          PROGBITS      42    0       64 .nv.constant0._ZN6thrust20THRUST_200400_750_NS8cuda_cub4core13_kernel_agentINS1_8__reduce11ReduceAgentIPN4cuda3std3__45tupleIJ6vec_2dIfElEEESD_SC_iNS1_9__extrema9arg_min_fISB_l7compareIfEEEEESD_SD_iSI_EEvT0_T1_T2_T3_
   47  22088    16c  0  4          PROGBITS      42    0       65 .nv.constant0._ZN6thrust20THRUST_200400_750_NS8cuda_cub4core13_kernel_agentINS1_8__reduce10DrainAgentIiEEN3cub17CUB_200400_750_NS9GridQueueIjEEiEEvT0_T1_
   48  221f4      8  0  4          PROGBITS      42    0       66 .nv.constant2._ZN6thrust20THRUST_200400_750_NS8cuda_cub4core13_kernel_agentINS1_8__reduce11ReduceAgentINS0_12zip_iteratorIN4cuda3std3__45tupleIJNS0_6detail15normal_iteratorINS0_10device_ptrI6vec_2dIfEEEEENS1_19counting_iterator_tIlEEEEEEEPNSA_IJSF_lEEESM_iNS1_9__extrema9arg_min_fISF_l7compareIfEEEEESL_SN_iN3cub17CUB_200400_750_NS13GridEvenShareIiEENSV_9GridQueueIjEESS_EEvT0_T1_T2_T3_T4_T5_
   49  221fc    1b1  0  4          PROGBITS      42    0       66 .nv.constant0._ZN6thrust20THRUST_200400_750_NS8cuda_cub4core13_kernel_agentINS1_8__reduce11ReduceAgentINS0_12zip_iteratorIN4cuda3std3__45tupleIJNS0_6detail15normal_iteratorINS0_10device_ptrI6vec_2dIfEEEEENS1_19counting_iterator_tIlEEEEEEEPNSA_IJSF_lEEESM_iNS1_9__extrema9arg_min_fISF_l7compareIfEEEEESL_SN_iN3cub17CUB_200400_750_NS13GridEvenShareIiEENSV_9GridQueueIjEESS_EEvT0_T1_T2_T3_T4_T5_
   4a  223b0    17d  0  4          PROGBITS      42    0       67 .nv.constant0._ZN6thrust20THRUST_200400_750_NS8cuda_cub4core13_kernel_agentINS1_8__reduce11ReduceAgentINS0_12zip_iteratorIN4cuda3std3__45tupleIJNS0_6detail15normal_iteratorINS0_10device_ptrI6vec_2dIfEEEEENS1_19counting_iterator_tIlEEEEEEEPNSA_IJSF_lEEESM_iNS1_9__extrema9arg_min_fISF_l7compareIfEEEEESL_SN_iSS_EEvT0_T1_T2_T3_
   4b  22580    480  0 80          PROGBITS       6    3 12000068 .text._ZN3cub17CUB_200400_750_NS6detail8for_each13static_kernelINS2_12policy_hub_t12policy_350_tElN6thrust20THRUST_200400_750_NS8cuda_cub11__transform17unary_transform_fIPN4cuda3std3__45tupleIJNSE_IJ6vec_2dIfElEEESH_EEESJ_NS9_14no_stencil_tagENS7_8identityISI_EENS9_21always_true_predicateEEEEEvT0_T1_
   4c  22a00    480  0 80          PROGBITS       6    3 16000069 .text._ZN3cub17CUB_200400_750_NS6detail8for_each13static_kernelINS2_12policy_hub_t12policy_350_tElN6thrust20THRUST_200400_750_NS8cuda_cub20__uninitialized_copy7functorIPN4cuda3std3__45tupleIJNSE_IJ6vec_2dIfElEEESH_EEENS7_7pointerISI_NS8_5par_tENS7_11use_defaultESM_EEEEEEvT0_T1_
   4d  22e80     80  0 80          PROGBITS       6    3  400006a .text._ZN3cub17CUB_200400_750_NS6detail8for_each13static_kernelINS2_12policy_hub_t12policy_350_tElNS2_12op_wrapper_tIlN6thrust20THRUST_200400_750_NS6detail23allocator_traits_detail5gozerENS8_7pointerIN4cuda3std3__45tupleIJNSG_IJ6vec_2dIfElEEESJ_EEENS8_8cuda_cub5par_tENS8_11use_defaultESN_EEEEEEvT0_T1_
   4e  22f00    280  0 80          PROGBITS       6    3  900006b .text._ZN3cub17CUB_200400_750_NS6detail8for_each13static_kernelINS2_12policy_hub_t12policy_350_tEmNS2_12op_wrapper_tImN6thrust20THRUST_200400_750_NS6detail23allocator_traits_detail24construct1_via_allocatorINS9_18no_throw_allocatorINS9_19temporary_allocatorIN4cuda3std3__45tupleIJNSH_IJ6vec_2dIfElEEESK_EEENS8_8cuda_cub5par_tEEEEEEENS8_7pointerISL_SN_NS8_11use_defaultESS_EEEEEEvT0_T1_
   4f  23180    380  0 80          PROGBITS       6    3  e00006c .text._ZN3cub17CUB_200400_750_NS6detail8for_each13static_kernelINS2_12policy_hub_t12policy_350_tElN6thrust20THRUST_200400_750_NS8cuda_cub11__transform17unary_transform_fIPN4cuda3std3__45tupleIJ6vec_2dIfElEEESI_NS9_14no_stencil_tagENS7_8identityISH_EENS9_21always_true_predicateEEEEEvT0_T1_
   50  23500    380  0 80          PROGBITS       6    3  e00006d .text._ZN3cub17CUB_200400_750_NS6detail8for_each13static_kernelINS2_12policy_hub_t12policy_350_tElN6thrust20THRUST_200400_750_NS8cuda_cub20__uninitialized_copy7functorIPN4cuda3std3__45tupleIJ6vec_2dIfElEEENS7_7pointerISH_NS8_5par_tENS7_11use_defaultESL_EEEEEEvT0_T1_
   51  23880     80  0 80          PROGBITS       6    3  400006e .text._ZN3cub17CUB_200400_750_NS6detail8for_each13static_kernelINS2_12policy_hub_t12policy_350_tElNS2_12op_wrapper_tIlN6thrust20THRUST_200400_750_NS6detail23allocator_traits_detail5gozerENS8_7pointerIN4cuda3std3__45tupleIJ6vec_2dIfElEEENS8_8cuda_cub5par_tENS8_11use_defaultESM_EEEEEEvT0_T1_
   52  23900    200  0 80          PROGBITS       6    3  900006f .text._ZN3cub17CUB_200400_750_NS6detail8for_each13static_kernelINS2_12policy_hub_t12policy_350_tEmNS2_12op_wrapper_tImN6thrust20THRUST_200400_750_NS6detail23allocator_traits_detail24construct1_via_allocatorINS9_18no_throw_allocatorINS9_19temporary_allocatorIN4cuda3std3__45tupleIJ6vec_2dIfElEEENS8_8cuda_cub5par_tEEEEEEENS8_7pointerISK_SM_NS8_11use_defaultESR_EEEEEEvT0_T1_
   53  23b00     80  0 80          PROGBITS       6    3  4000070 .text._ZN3cub17CUB_200400_750_NS11EmptyKernelIvEEvv
   54  23b80   c680  0 80          PROGBITS  100006    3 3c000071 .text._ZN6thrust20THRUST_200400_750_NS8cuda_cub4core13_kernel_agentINS1_8__reduce11ReduceAgentIPN4cuda3std3__45tupleIJNS9_IJ6vec_2dIfElEEESC_EEESE_SD_lNS1_9__extrema12arg_minmax_fISB_l7compareIfEEEEESE_SE_iSJ_EEvT0_T1_T2_T3_
   55  30200   d200  0 80          PROGBITS  100006    3 3c000072 .text._ZN6thrust20THRUST_200400_750_NS8cuda_cub4core13_kernel_agentINS1_8__reduce11ReduceAgentINS1_26transform_input_iterator_tIN4cuda3std3__45tupleIJNSA_IJ6vec_2dIfElEEESD_EEENS0_12zip_iteratorINSA_IJNS0_6detail15normal_iteratorINS0_10device_ptrISC_EEEENS1_19counting_iterator_tIlEEEEEEENS1_9__extrema12arg_minmax_fISC_l7compareIfEE15duplicate_tupleEEEPSE_SE_lST_EESV_SW_lN3cub17CUB_200400_750_NS13GridEvenShareIlEENSZ_9GridQueueIyEEST_EEvT0_T1_T2_T3_T4_T5_
   56  3d400   ce80  0 80          PROGBITS  100006    3 3c000073 .text._ZN6thrust20THRUST_200400_750_NS8cuda_cub4core13_kernel_agentINS1_8__reduce11ReduceAgentINS1_26transform_input_iterator_tIN4cuda3std3__45tupleIJNSA_IJ6vec_2dIfElEEESD_EEENS0_12zip_iteratorINSA_IJNS0_6detail15normal_iteratorINS0_10device_ptrISC_EEEENS1_19counting_iterator_tIlEEEEEEENS1_9__extrema12arg_minmax_fISC_l7compareIfEE15duplicate_tupleEEEPSE_SE_lST_EESV_SW_lST_EEvT0_T1_T2_T3_
   57  4a280   c580  0 80          PROGBITS  100006    3 3c000074 .text._ZN6thrust20THRUST_200400_750_NS8cuda_cub4core13_kernel_agentINS1_8__reduce11ReduceAgentIPN4cuda3std3__45tupleIJNS9_IJ6vec_2dIfElEEESC_EEESE_SD_iNS1_9__extrema12arg_minmax_fISB_l7compareIfEEEEESE_SE_iSJ_EEvT0_T1_T2_T3_
   58  56800   d100  0 80          PROGBITS  100006    3 3c000075 .text._ZN6thrust20THRUST_200400_750_NS8cuda_cub4core13_kernel_agentINS1_8__reduce11ReduceAgentINS1_26transform_input_iterator_tIN4cuda3std3__45tupleIJNSA_IJ6vec_2dIfElEEESD_EEENS0_12zip_iteratorINSA_IJNS0_6detail15normal_iteratorINS0_10device_ptrISC_EEEENS1_19counting_iterator_tIlEEEEEEENS1_9__extrema12arg_minmax_fISC_l7compareIfEE15duplicate_tupleEEEPSE_SE_iST_EESV_SW_iN3cub17CUB_200400_750_NS13GridEvenShareIiEENSZ_9GridQueueIjEEST_EEvT0_T1_T2_T3_T4_T5_
   59  63900   cd80  0 80          PROGBITS  100006    3 3c000076 .text._ZN6thrust20THRUST_200400_750_NS8cuda_cub4core13_kernel_agentINS1_8__reduce11ReduceAgentINS1_26transform_input_iterator_tIN4cuda3std3__45tupleIJNSA_IJ6vec_2dIfElEEESD_EEENS0_12zip_iteratorINSA_IJNS0_6detail15normal_iteratorINS0_10device_ptrISC_EEEENS1_19counting_iterator_tIlEEEEEEENS1_9__extrema12arg_minmax_fISC_l7compareIfEE15duplicate_tupleEEEPSE_SE_iST_EESV_SW_iST_EEvT0_T1_T2_T3_
   5a  70680   7900  0 80          PROGBITS  100006    3 2c000077 .text._ZN6thrust20THRUST_200400_750_NS8cuda_cub4core13_kernel_agentINS1_8__reduce11ReduceAgentIPN4cuda3std3__45tupleIJ6vec_2dIfElEEESD_SC_lNS1_9__extrema9arg_max_fISB_l7compareIfEEEEESD_SD_iSI_EEvT0_T1_T2_T3_
   5b  77f80   7b00  0 80          PROGBITS  100006    3 2c000078 .text._ZN6thrust20THRUST_200400_750_NS8cuda_cub4core13_kernel_agentINS1_8__reduce11ReduceAgentINS0_12zip_iteratorIN4cuda3std3__45tupleIJNS0_6detail15normal_iteratorINS0_10device_ptrI6vec_2dIfEEEEENS1_19counting_iterator_tIlEEEEEEEPNSA_IJSF_lEEESM_lNS1_9__extrema9arg_max_fISF_l7compareIfEEEEESL_SN_lN3cub17CUB_200400_750_NS13GridEvenShareIlEENSV_9GridQueueIyEESS_EEvT0_T1_T2_T3_T4_T5_
   5c  7fa80   7700  0 80          PROGBITS  100006    3 2c000079 .text._ZN6thrust20THRUST_200400_750_NS8cuda_cub4core13_kernel_agentINS1_8__reduce11ReduceAgentINS0_12zip_iteratorIN4cuda3std3__45tupleIJNS0_6detail15normal_iteratorINS0_10device_ptrI6vec_2dIfEEEEENS1_19counting_iterator_tIlEEEEEEEPNSA_IJSF_lEEESM_lNS1_9__extrema9arg_max_fISF_l7compareIfEEEEESL_SN_lSS_EEvT0_T1_T2_T3_
   5d  87180   7880  0 80          PROGBITS  100006    3 2c00007a .text._ZN6thrust20THRUST_200400_750_NS8cuda_cub4core13_kernel_agentINS1_8__reduce11ReduceAgentIPN4cuda3std3__45tupleIJ6vec_2dIfElEEESD_SC_iNS1_9__extrema9arg_max_fISB_l7compareIfEEEEESD_SD_iSI_EEvT0_T1_T2_T3_
   5e  8ea00   7a00  0 80          PROGBITS  100006    3 2c00007b .text._ZN6thrust20THRUST_200400_750_NS8cuda_cub4core13_kernel_agentINS1_8__reduce11ReduceAgentINS0_12zip_iteratorIN4cuda3std3__45tupleIJNS0_6detail15normal_iteratorINS0_10device_ptrI6vec_2dIfEEEEENS1_19counting_iterator_tIlEEEEEEEPNSA_IJSF_lEEESM_iNS1_9__extrema9arg_max_fISF_l7compareIfEEEEESL_SN_iN3cub17CUB_200400_750_NS13GridEvenShareIiEENSV_9GridQueueIjEESS_EEvT0_T1_T2_T3_T4_T5_
   5f  96400   7580  0 80          PROGBITS  100006    3 2c00007c .text._ZN6thrust20THRUST_200400_750_NS8cuda_cub4core13_kernel_agentINS1_8__reduce11ReduceAgentINS0_12zip_iteratorIN4cuda3std3__45tupleIJNS0_6detail15normal_iteratorINS0_10device_ptrI6vec_2dIfEEEEENS1_19counting_iterator_tIlEEEEEEEPNSA_IJSF_lEEESM_iNS1_9__extrema9arg_max_fISF_l7compareIfEEEEESL_SN_iSS_EEvT0_T1_T2_T3_
   60  9d980   7700  0 80          PROGBITS  100006    3 2a00007d .text._ZN6thrust20THRUST_200400_750_NS8cuda_cub4core13_kernel_agentINS1_8__reduce11ReduceAgentIPN4cuda3std3__45tupleIJ6vec_2dIfElEEESD_SC_lNS1_9__extrema9arg_min_fISB_l7compareIfEEEEESD_SD_iSI_EEvT0_T1_T2_T3_
   61  a5080     80  0 80          PROGBITS       6    3  600007e .text._ZN6thrust20THRUST_200400_750_NS8cuda_cub4core13_kernel_agentINS1_8__reduce10DrainAgentIlEEN3cub17CUB_200400_750_NS9GridQueueIyEElEEvT0_T1_
   62  a5100   7800  0 80          PROGBITS  100006    3 2000007f .text._ZN6thrust20THRUST_200400_750_NS8cuda_cub4core13_kernel_agentINS1_8__reduce11ReduceAgentINS0_12zip_iteratorIN4cuda3std3__45tupleIJNS0_6detail15normal_iteratorINS0_10device_ptrI6vec_2dIfEEEEENS1_19counting_iterator_tIlEEEEEEEPNSA_IJSF_lEEESM_lNS1_9__extrema9arg_min_fISF_l7compareIfEEEEESL_SN_lN3cub17CUB_200400_750_NS13GridEvenShareIlEENSV_9GridQueueIyEESS_EEvT0_T1_T2_T3_T4_T5_
   63  ac900   7480  0 80          PROGBITS  100006    3 20000080 .text._ZN6thrust20THRUST_200400_750_NS8cuda_cub4core13_kernel_agentINS1_8__reduce11ReduceAgentINS0_12zip_iteratorIN4cuda3std3__45tupleIJNS0_6detail15normal_iteratorINS0_10device_ptrI6vec_2dIfEEEEENS1_19counting_iterator_tIlEEEEEEEPNSA_IJSF_lEEESM_lNS1_9__extrema9arg_min_fISF_l7compareIfEEEEESL_SN_lSS_EEvT0_T1_T2_T3_
   64  b3d80   7680  0 80          PROGBITS  100006    3 26000081 .text._ZN6thrust20THRUST_200400_750_NS8cuda_cub4core13_kernel_agentINS1_8__reduce11ReduceAgentIPN4cuda3std3__45tupleIJ6vec_2dIfElEEESD_SC_iNS1_9__extrema9arg_min_fISB_l7compareIfEEEEESD_SD_iSI_EEvT0_T1_T2_T3_
   65  bb400     80  0 80          PROGBITS       6    3  4000082 .text._ZN6thrust20THRUST_200400_750_NS8cuda_cub4core13_kernel_agentINS1_8__reduce10DrainAgentIiEEN3cub17CUB_200400_750_NS9GridQueueIjEEiEEvT0_T1_
   66  bb480   7700  0 80          PROGBITS  100006    3 22000083 .text._ZN6thrust20THRUST_200400_750_NS8cuda_cub4core13_kernel_agentINS1_8__reduce11ReduceAgentINS0_12zip_iteratorIN4cuda3std3__45tupleIJNS0_6detail15normal_iteratorINS0_10device_ptrI6vec_2dIfEEEEENS1_19counting_iterator_tIlEEEEEEEPNSA_IJSF_lEEESM_iNS1_9__extrema9arg_min_fISF_l7compareIfEEEEESL_SN_iN3cub17CUB_200400_750_NS13GridEvenShareIiEENSV_9GridQueueIjEESS_EEvT0_T1_T2_T3_T4_T5_
   67  c2b80   7400  0 80          PROGBITS  100006    3 22000084 .text._ZN6thrust20THRUST_200400_750_NS8cuda_cub4core13_kernel_agentINS1_8__reduce11ReduceAgentINS0_12zip_iteratorIN4cuda3std3__45tupleIJNS0_6detail15normal_iteratorINS0_10device_ptrI6vec_2dIfEEEEENS1_19counting_iterator_tIlEEEEEEEPNSA_IJSF_lEEESM_iNS1_9__extrema9arg_min_fISF_l7compareIfEEEEESL_SN_iSS_EEvT0_T1_T2_T3_
   68  c9f80      0  0 10            NOBITS      43    0       4b .nv.shared._ZN3cub17CUB_200400_750_NS6detail8for_each13static_kernelINS2_12policy_hub_t12policy_350_tElN6thrust20THRUST_200400_750_NS8cuda_cub11__transform17unary_transform_fIPN4cuda3std3__45tupleIJNSE_IJ6vec_2dIfElEEESH_EEESJ_NS9_14no_stencil_tagENS7_8identityISI_EENS9_21always_true_predicateEEEEEvT0_T1_
   69  c9f80     22  0  1            NOBITS       3    0        0 .nv.global
   6a  c9f80      0  0 10            NOBITS      43    0       4c .nv.shared._ZN3cub17CUB_200400_750_NS6detail8for_each13static_kernelINS2_12policy_hub_t12policy_350_tElN6thrust20THRUST_200400_750_NS8cuda_cub20__uninitialized_copy7functorIPN4cuda3std3__45tupleIJNSE_IJ6vec_2dIfElEEESH_EEENS7_7pointerISI_NS8_5par_tENS7_11use_defaultESM_EEEEEEvT0_T1_
   6b  c9f80      0  0 10            NOBITS      43    0       4d .nv.shared._ZN3cub17CUB_200400_750_NS6detail8for_each13static_kernelINS2_12policy_hub_t12policy_350_tElNS2_12op_wrapper_tIlN6thrust20THRUST_200400_750_NS6detail23allocator_traits_detail5gozerENS8_7pointerIN4cuda3std3__45tupleIJNSG_IJ6vec_2dIfElEEESJ_EEENS8_8cuda_cub5par_tENS8_11use_defaultESN_EEEEEEvT0_T1_
   6c  c9f80      0  0 10            NOBITS      43    0       4e .nv.shared._ZN3cub17CUB_200400_750_NS6detail8for_each13static_kernelINS2_12policy_hub_t12policy_350_tEmNS2_12op_wrapper_tImN6thrust20THRUST_200400_750_NS6detail23allocator_traits_detail24construct1_via_allocatorINS9_18no_throw_allocatorINS9_19temporary_allocatorIN4cuda3std3__45tupleIJNSH_IJ6vec_2dIfElEEESK_EEENS8_8cuda_cub5par_tEEEEEEENS8_7pointerISL_SN_NS8_11use_defaultESS_EEEEEEvT0_T1_
   6d  c9f80      0  0 10            NOBITS      43    0       4f .nv.shared._ZN3cub17CUB_200400_750_NS6detail8for_each13static_kernelINS2_12policy_hub_t12policy_350_tElN6thrust20THRUST_200400_750_NS8cuda_cub11__transform17unary_transform_fIPN4cuda3std3__45tupleIJ6vec_2dIfElEEESI_NS9_14no_stencil_tagENS7_8identityISH_EENS9_21always_true_predicateEEEEEvT0_T1_
   6e  c9f80      0  0 10            NOBITS      43    0       50 .nv.shared._ZN3cub17CUB_200400_750_NS6detail8for_each13static_kernelINS2_12policy_hub_t12policy_350_tElN6thrust20THRUST_200400_750_NS8cuda_cub20__uninitialized_copy7functorIPN4cuda3std3__45tupleIJ6vec_2dIfElEEENS7_7pointerISH_NS8_5par_tENS7_11use_defaultESL_EEEEEEvT0_T1_
   6f  c9f80      0  0 10            NOBITS      43    0       51 .nv.shared._ZN3cub17CUB_200400_750_NS6detail8for_each13static_kernelINS2_12policy_hub_t12policy_350_tElNS2_12op_wrapper_tIlN6thrust20THRUST_200400_750_NS6detail23allocator_traits_detail5gozerENS8_7pointerIN4cuda3std3__45tupleIJ6vec_2dIfElEEENS8_8cuda_cub5par_tENS8_11use_defaultESM_EEEEEEvT0_T1_
   70  c9f80      0  0 10            NOBITS      43    0       52 .nv.shared._ZN3cub17CUB_200400_750_NS6detail8for_each13static_kernelINS2_12policy_hub_t12policy_350_tEmNS2_12op_wrapper_tImN6thrust20THRUST_200400_750_NS6detail23allocator_traits_detail24construct1_via_allocatorINS9_18no_throw_allocatorINS9_19temporary_allocatorIN4cuda3std3__45tupleIJ6vec_2dIfElEEENS8_8cuda_cub5par_tEEEEEEENS8_7pointerISK_SM_NS8_11use_defaultESR_EEEEEEvT0_T1_
   71  c9f80      0  0 10            NOBITS      43    0       53 .nv.shared._ZN3cub17CUB_200400_750_NS11EmptyKernelIvEEvv
   72  c9f80      0  0 10            NOBITS      43    0       54 .nv.shared._ZN6thrust20THRUST_200400_750_NS8cuda_cub4core13_kernel_agentINS1_8__reduce11ReduceAgentIPN4cuda3std3__45tupleIJNS9_IJ6vec_2dIfElEEESC_EEESE_SD_lNS1_9__extrema12arg_minmax_fISB_l7compareIfEEEEESE_SE_iSJ_EEvT0_T1_T2_T3_
   73  c9f80      0  0 10            NOBITS      43    0       55 .nv.shared._ZN6thrust20THRUST_200400_750_NS8cuda_cub4core13_kernel_agentINS1_8__reduce11ReduceAgentINS1_26transform_input_iterator_tIN4cuda3std3__45tupleIJNSA_IJ6vec_2dIfElEEESD_EEENS0_12zip_iteratorINSA_IJNS0_6detail15normal_iteratorINS0_10device_ptrISC_EEEENS1_19counting_iterator_tIlEEEEEEENS1_9__extrema12arg_minmax_fISC_l7compareIfEE15duplicate_tupleEEEPSE_SE_lST_EESV_SW_lN3cub17CUB_200400_750_NS13GridEvenShareIlEENSZ_9GridQueueIyEEST_EEvT0_T1_T2_T3_T4_T5_
   74  c9f80      0  0 10            NOBITS      43    0       56 .nv.shared._ZN6thrust20THRUST_200400_750_NS8cuda_cub4core13_kernel_agentINS1_8__reduce11ReduceAgentINS1_26transform_input_iterator_tIN4cuda3std3__45tupleIJNSA_IJ6vec_2dIfElEEESD_EEENS0_12zip_iteratorINSA_IJNS0_6detail15normal_iteratorINS0_10device_ptrISC_EEEENS1_19counting_iterator_tIlEEEEEEENS1_9__extrema12arg_minmax_fISC_l7compareIfEE15duplicate_tupleEEEPSE_SE_lST_EESV_SW_lST_EEvT0_T1_T2_T3_
   75  c9f80      0  0 10            NOBITS      43    0       57 .nv.shared._ZN6thrust20THRUST_200400_750_NS8cuda_cub4core13_kernel_agentINS1_8__reduce11ReduceAgentIPN4cuda3std3__45tupleIJNS9_IJ6vec_2dIfElEEESC_EEESE_SD_iNS1_9__extrema12arg_minmax_fISB_l7compareIfEEEEESE_SE_iSJ_EEvT0_T1_T2_T3_
   76  c9f80      0  0 10            NOBITS      43    0       58 .nv.shared._ZN6thrust20THRUST_200400_750_NS8cuda_cub4core13_kernel_agentINS1_8__reduce11ReduceAgentINS1_26transform_input_iterator_tIN4cuda3std3__45tupleIJNSA_IJ6vec_2dIfElEEESD_EEENS0_12zip_iteratorINSA_IJNS0_6detail15normal_iteratorINS0_10device_ptrISC_EEEENS1_19counting_iterator_tIlEEEEEEENS1_9__extrema12arg_minmax_fISC_l7compareIfEE15duplicate_tupleEEEPSE_SE_iST_EESV_SW_iN3cub17CUB_200400_750_NS13GridEvenShareIiEENSZ_9GridQueueIjEEST_EEvT0_T1_T2_T3_T4_T5_
   77  c9f80      0  0 10            NOBITS      43    0       59 .nv.shared._ZN6thrust20THRUST_200400_750_NS8cuda_cub4core13_kernel_agentINS1_8__reduce11ReduceAgentINS1_26transform_input_iterator_tIN4cuda3std3__45tupleIJNSA_IJ6vec_2dIfElEEESD_EEENS0_12zip_iteratorINSA_IJNS0_6detail15normal_iteratorINS0_10device_ptrISC_EEEENS1_19counting_iterator_tIlEEEEEEENS1_9__extrema12arg_minmax_fISC_l7compareIfEE15duplicate_tupleEEEPSE_SE_iST_EESV_SW_iST_EEvT0_T1_T2_T3_
   78  c9f80      0  0 10            NOBITS      43    0       5a .nv.shared._ZN6thrust20THRUST_200400_750_NS8cuda_cub4core13_kernel_agentINS1_8__reduce11ReduceAgentIPN4cuda3std3__45tupleIJ6vec_2dIfElEEESD_SC_lNS1_9__extrema9arg_max_fISB_l7compareIfEEEEESD_SD_iSI_EEvT0_T1_T2_T3_
   79  c9f80      0  0 10            NOBITS      43    0       5b .nv.shared._ZN6thrust20THRUST_200400_750_NS8cuda_cub4core13_kernel_agentINS1_8__reduce11ReduceAgentINS0_12zip_iteratorIN4cuda3std3__45tupleIJNS0_6detail15normal_iteratorINS0_10device_ptrI6vec_2dIfEEEEENS1_19counting_iterator_tIlEEEEEEEPNSA_IJSF_lEEESM_lNS1_9__extrema9arg_max_fISF_l7compareIfEEEEESL_SN_lN3cub17CUB_200400_750_NS13GridEvenShareIlEENSV_9GridQueueIyEESS_EEvT0_T1_T2_T3_T4_T5_
   7a  c9f80      0  0 10            NOBITS      43    0       5c .nv.shared._ZN6thrust20THRUST_200400_750_NS8cuda_cub4core13_kernel_agentINS1_8__reduce11ReduceAgentINS0_12zip_iteratorIN4cuda3std3__45tupleIJNS0_6detail15normal_iteratorINS0_10device_ptrI6vec_2dIfEEEEENS1_19counting_iterator_tIlEEEEEEEPNSA_IJSF_lEEESM_lNS1_9__extrema9arg_max_fISF_l7compareIfEEEEESL_SN_lSS_EEvT0_T1_T2_T3_
   7b  c9f80      0  0 10            NOBITS      43    0       5d .nv.shared._ZN6thrust20THRUST_200400_750_NS8cuda_cub4core13_kernel_agentINS1_8__reduce11ReduceAgentIPN4cuda3std3__45tupleIJ6vec_2dIfElEEESD_SC_iNS1_9__extrema9arg_max_fISB_l7compareIfEEEEESD_SD_iSI_EEvT0_T1_T2_T3_
   7c  c9f80      0  0 10            NOBITS      43    0       5e .nv.shared._ZN6thrust20THRUST_200400_750_NS8cuda_cub4core13_kernel_agentINS1_8__reduce11ReduceAgentINS0_12zip_iteratorIN4cuda3std3__45tupleIJNS0_6detail15normal_iteratorINS0_10device_ptrI6vec_2dIfEEEEENS1_19counting_iterator_tIlEEEEEEEPNSA_IJSF_lEEESM_iNS1_9__extrema9arg_max_fISF_l7compareIfEEEEESL_SN_iN3cub17CUB_200400_750_NS13GridEvenShareIiEENSV_9GridQueueIjEESS_EEvT0_T1_T2_T3_T4_T5_
   7d  c9f80      0  0 10            NOBITS      43    0       5f .nv.shared._ZN6thrust20THRUST_200400_750_NS8cuda_cub4core13_kernel_agentINS1_8__reduce11ReduceAgentINS0_12zip_iteratorIN4cuda3std3__45tupleIJNS0_6detail15normal_iteratorINS0_10device_ptrI6vec_2dIfEEEEENS1_19counting_iterator_tIlEEEEEEEPNSA_IJSF_lEEESM_iNS1_9__extrema9arg_max_fISF_l7compareIfEEEEESL_SN_iSS_EEvT0_T1_T2_T3_
   7e  c9f80      0  0 10            NOBITS      43    0       60 .nv.shared._ZN6thrust20THRUST_200400_750_NS8cuda_cub4core13_kernel_agentINS1_8__reduce11ReduceAgentIPN4cuda3std3__45tupleIJ6vec_2dIfElEEESD_SC_lNS1_9__extrema9arg_min_fISB_l7compareIfEEEEESD_SD_iSI_EEvT0_T1_T2_T3_
   7f  c9f80      0  0 10            NOBITS      43    0       61 .nv.shared._ZN6thrust20THRUST_200400_750_NS8cuda_cub4core13_kernel_agentINS1_8__reduce10DrainAgentIlEEN3cub17CUB_200400_750_NS9GridQueueIyEElEEvT0_T1_
   80  c9f80      0  0 10            NOBITS      43    0       62 .nv.shared._ZN6thrust20THRUST_200400_750_NS8cuda_cub4core13_kernel_agentINS1_8__reduce11ReduceAgentINS0_12zip_iteratorIN4cuda3std3__45tupleIJNS0_6detail15normal_iteratorINS0_10device_ptrI6vec_2dIfEEEEENS1_19counting_iterator_tIlEEEEEEEPNSA_IJSF_lEEESM_lNS1_9__extrema9arg_min_fISF_l7compareIfEEEEESL_SN_lN3cub17CUB_200400_750_NS13GridEvenShareIlEENSV_9GridQueueIyEESS_EEvT0_T1_T2_T3_T4_T5_
   81  c9f80      0  0 10            NOBITS      43    0       63 .nv.shared._ZN6thrust20THRUST_200400_750_NS8cuda_cub4core13_kernel_agentINS1_8__reduce11ReduceAgentINS0_12zip_iteratorIN4cuda3std3__45tupleIJNS0_6detail15normal_iteratorINS0_10device_ptrI6vec_2dIfEEEEENS1_19counting_iterator_tIlEEEEEEEPNSA_IJSF_lEEESM_lNS1_9__extrema9arg_min_fISF_l7compareIfEEEEESL_SN_lSS_EEvT0_T1_T2_T3_
   82  c9f80      0  0 10            NOBITS      43    0       64 .nv.shared._ZN6thrust20THRUST_200400_750_NS8cuda_cub4core13_kernel_agentINS1_8__reduce11ReduceAgentIPN4cuda3std3__45tupleIJ6vec_2dIfElEEESD_SC_iNS1_9__extrema9arg_min_fISB_l7compareIfEEEEESD_SD_iSI_EEvT0_T1_T2_T3_
   83  c9f80      0  0 10            NOBITS      43    0       65 .nv.shared._ZN6thrust20THRUST_200400_750_NS8cuda_cub4core13_kernel_agentINS1_8__reduce10DrainAgentIiEEN3cub17CUB_200400_750_NS9GridQueueIjEEiEEvT0_T1_
   84  c9f80      0  0 10            NOBITS      43    0       66 .nv.shared._ZN6thrust20THRUST_200400_750_NS8cuda_cub4core13_kernel_agentINS1_8__reduce11ReduceAgentINS0_12zip_iteratorIN4cuda3std3__45tupleIJNS0_6detail15normal_iteratorINS0_10device_ptrI6vec_2dIfEEEEENS1_19counting_iterator_tIlEEEEEEEPNSA_IJSF_lEEESM_iNS1_9__extrema9arg_min_fISF_l7compareIfEEEEESL_SN_iN3cub17CUB_200400_750_NS13GridEvenShareIiEENSV_9GridQueueIjEESS_EEvT0_T1_T2_T3_T4_T5_
   85  c9f80      0  0 10            NOBITS      43    0       67 .nv.shared._ZN6thrust20THRUST_200400_750_NS8cuda_cub4core13_kernel_agentINS1_8__reduce11ReduceAgentINS0_12zip_iteratorIN4cuda3std3__45tupleIJNS0_6detail15normal_iteratorINS0_10device_ptrI6vec_2dIfEEEEENS1_19counting_iterator_tIlEEEEEEEPNSA_IJSF_lEEESM_iNS1_9__extrema9arg_min_fISF_l7compareIfEEEEESL_SN_iSS_EEvT0_T1_T2_T3_

.section .strtab

.section .shstrtab

.section .symtab
 index           value           size      info    other  shndx    name  
   0               0               0        0        0      0     (null)
 0x1               0               0      0x3        0   0x4b     .text._ZN3cub17CUB_200400_750_NS6detail8for_each13static_kernelINS2_12policy_hub_t12policy_350_tElN6thrust20THRUST_200400_750_NS8cuda_cub11__transform17unary_transform_fIPN4cuda3std3__45tupleIJNSE_IJ6vec_2dIfElEEESH_EEESJ_NS9_14no_stencil_tagENS7_8identityISI_EENS9_21always_true_predicateEEEEEvT0_T1_
 0x2               0               0      0x3        0   0x69     .nv.global
 0x3             0x1             0x1      0x1        0   0x69     _ZN33_INTERNAL_d182b99d_7_main_cu_main4cuda3std3__435_GLOBAL__N__d182b99d_7_main_cu_main6ignoreE
 0x4               0               0      0x3        0   0x27     .nv.constant4
 0x5            0x12             0x1      0x1        0   0x69     _ZN33_INTERNAL_d182b99d_7_main_cu_main4cuda3std3__48in_placeE
 0x6             0xb             0x1      0x1        0   0x69     _ZN33_INTERNAL_d182b99d_7_main_cu_main4cuda3std3__420unreachable_sentinelE
 0x7            0x1c             0x1      0x1        0   0x69     _ZN33_INTERNAL_d182b99d_7_main_cu_main4cuda3std6ranges3__45__cpo4swapE
 0x8             0x7             0x1      0x1        0   0x69     _ZN33_INTERNAL_d182b99d_7_main_cu_main4cuda3std6ranges3__45__cpo9iter_moveE
 0x9            0x18             0x1      0x1        0   0x69     _ZN33_INTERNAL_d182b99d_7_main_cu_main4cuda3std6ranges3__45__cpo7advanceE
 0xa             0xf             0x1      0x1        0   0x69     _ZN33_INTERNAL_d182b99d_7_main_cu_main4cuda3std6ranges3__45__cpo5beginE
 0xb            0x20             0x1      0x1        0   0x69     _ZN33_INTERNAL_d182b99d_7_main_cu_main4cuda3std6ranges3__45__cpo3endE
 0xc             0x3             0x1      0x1        0   0x69     _ZN33_INTERNAL_d182b99d_7_main_cu_main4cuda3std6ranges3__45__cpo6cbeginE
 0xd            0x14             0x1      0x1        0   0x69     _ZN33_INTERNAL_d182b99d_7_main_cu_main4cuda3std6ranges3__45__cpo4cendE
 0xe             0x9             0x1      0x1        0   0x69     _ZN33_INTERNAL_d182b99d_7_main_cu_main4cuda3std6ranges3__45__cpo9iter_swapE
 0xf            0x1a             0x1      0x1        0   0x69     _ZN33_INTERNAL_d182b99d_7_main_cu_main4cuda3std6ranges3__45__cpo4nextE
 0x10             0x5             0x1      0x1        0   0x69     _ZN33_INTERNAL_d182b99d_7_main_cu_main4cuda3std6ranges3__45__cpo4prevE
 0x11            0x16             0x1      0x1        0   0x69     _ZN33_INTERNAL_d182b99d_7_main_cu_main4cuda3std6ranges3__45__cpo4dataE
 0x12             0xd             0x1      0x1        0   0x69     _ZN33_INTERNAL_d182b99d_7_main_cu_main4cuda3std6ranges3__45__cpo5cdataE
 0x13            0x1e             0x1      0x1        0   0x69     _ZN33_INTERNAL_d182b99d_7_main_cu_main4cuda3std6ranges3__45__cpo4sizeE
 0x14             0x2             0x1      0x1        0   0x69     _ZN33_INTERNAL_d182b99d_7_main_cu_main4cuda3std6ranges3__45__cpo5ssizeE
 0x15            0x13             0x1      0x1        0   0x69     _ZN33_INTERNAL_d182b99d_7_main_cu_main4cuda3std6ranges3__45__cpo8distanceE
 0x16             0xc             0x1      0x1        0   0x69     _ZN33_INTERNAL_d182b99d_7_main_cu_main6thrust20THRUST_200400_750_NS6system6detail10sequential3seqE
 0x17            0x1d             0x1      0x1        0   0x69     _ZN33_INTERNAL_d182b99d_7_main_cu_main6thrust20THRUST_200400_750_NS6system3cpp3parE
 0x18             0x8             0x1      0x1        0   0x69     _ZN33_INTERNAL_d182b99d_7_main_cu_main6thrust20THRUST_200400_750_NS8cuda_cub3parE
 0x19            0x19             0x1      0x1        0   0x69     _ZN33_INTERNAL_d182b99d_7_main_cu_main6thrust20THRUST_200400_750_NS8cuda_cub10par_nosyncE
 0x1a            0x10             0x1      0x1        0   0x69     _ZN33_INTERNAL_d182b99d_7_main_cu_main6thrust20THRUST_200400_750_NS12placeholders2_1E
 0x1b            0x21             0x1      0x1        0   0x69     _ZN33_INTERNAL_d182b99d_7_main_cu_main6thrust20THRUST_200400_750_NS12placeholders2_2E
 0x1c             0x4             0x1      0x1        0   0x69     _ZN33_INTERNAL_d182b99d_7_main_cu_main6thrust20THRUST_200400_750_NS12placeholders2_3E
 0x1d            0x15             0x1      0x1        0   0x69     _ZN33_INTERNAL_d182b99d_7_main_cu_main6thrust20THRUST_200400_750_NS12placeholders2_4E
 0x1e             0xa             0x1      0x1        0   0x69     _ZN33_INTERNAL_d182b99d_7_main_cu_main6thrust20THRUST_200400_750_NS12placeholders2_5E
 0x1f            0x1b             0x1      0x1        0   0x69     _ZN33_INTERNAL_d182b99d_7_main_cu_main6thrust20THRUST_200400_750_NS12placeholders2_6E
 0x20             0x6             0x1      0x1        0   0x69     _ZN33_INTERNAL_d182b99d_7_main_cu_main6thrust20THRUST_200400_750_NS12placeholders2_7E
 0x21            0x17             0x1      0x1        0   0x69     _ZN33_INTERNAL_d182b99d_7_main_cu_main6thrust20THRUST_200400_750_NS12placeholders2_8E
 0x22             0xe             0x1      0x1        0   0x69     _ZN33_INTERNAL_d182b99d_7_main_cu_main6thrust20THRUST_200400_750_NS12placeholders2_9E
 0x23            0x1f             0x1      0x1        0   0x69     _ZN33_INTERNAL_d182b99d_7_main_cu_main6thrust20THRUST_200400_750_NS12placeholders3_10E
 0x24               0             0x1      0x1        0   0x69     _ZN33_INTERNAL_d182b99d_7_main_cu_main6thrust20THRUST_200400_750_NS3seqE
 0x25            0x11             0x1      0x1        0   0x69     _ZN33_INTERNAL_d182b99d_7_main_cu_main6thrust20THRUST_200400_750_NS6deviceE
 0x26               0               0      0x3        0   0x28     .nv.constant0._ZN3cub17CUB_200400_750_NS6detail8for_each13static_kernelINS2_12policy_hub_t12policy_350_tElN6thrust20THRUST_200400_750_NS8cuda_cub11__transform17unary_transform_fIPN4cuda3std3__45tupleIJNSE_IJ6vec_2dIfElEEESH_EEESJ_NS9_14no_stencil_tagENS7_8identityISI_EENS9_21always_true_predicateEEEEEvT0_T1_
 0x27               0               0      0x3        0   0x4c     .text._ZN3cub17CUB_200400_750_NS6detail8for_each13static_kernelINS2_12policy_hub_t12policy_350_tElN6thrust20THRUST_200400_750_NS8cuda_cub20__uninitialized_copy7functorIPN4cuda3std3__45tupleIJNSE_IJ6vec_2dIfElEEESH_EEENS7_7pointerISI_NS8_5par_tENS7_11use_defaultESM_EEEEEEvT0_T1_
 0x28               0               0      0x3        0   0x29     .nv.constant0._ZN3cub17CUB_200400_750_NS6detail8for_each13static_kernelINS2_12policy_hub_t12policy_350_tElN6thrust20THRUST_200400_750_NS8cuda_cub20__uninitialized_copy7functorIPN4cuda3std3__45tupleIJNSE_IJ6vec_2dIfElEEESH_EEENS7_7pointerISI_NS8_5par_tENS7_11use_defaultESM_EEEEEEvT0_T1_
 0x29               0               0      0x3        0   0x4d     .text._ZN3cub17CUB_200400_750_NS6detail8for_each13static_kernelINS2_12policy_hub_t12policy_350_tElNS2_12op_wrapper_tIlN6thrust20THRUST_200400_750_NS6detail23allocator_traits_detail5gozerENS8_7pointerIN4cuda3std3__45tupleIJNSG_IJ6vec_2dIfElEEESJ_EEENS8_8cuda_cub5par_tENS8_11use_defaultESN_EEEEEEvT0_T1_
 0x2a               0               0      0x3        0   0x2a     .nv.constant0._ZN3cub17CUB_200400_750_NS6detail8for_each13static_kernelINS2_12policy_hub_t12policy_350_tElNS2_12op_wrapper_tIlN6thrust20THRUST_200400_750_NS6detail23allocator_traits_detail5gozerENS8_7pointerIN4cuda3std3__45tupleIJNSG_IJ6vec_2dIfElEEESJ_EEENS8_8cuda_cub5par_tENS8_11use_defaultESN_EEEEEEvT0_T1_
 0x2b               0               0      0x3        0   0x4e     .text._ZN3cub17CUB_200400_750_NS6detail8for_each13static_kernelINS2_12policy_hub_t12policy_350_tEmNS2_12op_wrapper_tImN6thrust20THRUST_200400_750_NS6detail23allocator_traits_detail24construct1_via_allocatorINS9_18no_throw_allocatorINS9_19temporary_allocatorIN4cuda3std3__45tupleIJNSH_IJ6vec_2dIfElEEESK_EEENS8_8cuda_cub5par_tEEEEEEENS8_7pointerISL_SN_NS8_11use_defaultESS_EEEEEEvT0_T1_
 0x2c               0               0      0x3        0   0x2b     .nv.constant0._ZN3cub17CUB_200400_750_NS6detail8for_each13static_kernelINS2_12policy_hub_t12policy_350_tEmNS2_12op_wrapper_tImN6thrust20THRUST_200400_750_NS6detail23allocator_traits_detail24construct1_via_allocatorINS9_18no_throw_allocatorINS9_19temporary_allocatorIN4cuda3std3__45tupleIJNSH_IJ6vec_2dIfElEEESK_EEENS8_8cuda_cub5par_tEEEEEEENS8_7pointerISL_SN_NS8_11use_defaultESS_EEEEEEvT0_T1_
 0x2d               0               0      0x3        0   0x4f     .text._ZN3cub17CUB_200400_750_NS6detail8for_each13static_kernelINS2_12policy_hub_t12policy_350_tElN6thrust20THRUST_200400_750_NS8cuda_cub11__transform17unary_transform_fIPN4cuda3std3__45tupleIJ6vec_2dIfElEEESI_NS9_14no_stencil_tagENS7_8identityISH_EENS9_21always_true_predicateEEEEEvT0_T1_
 0x2e               0               0      0x3        0   0x2c     .nv.constant0._ZN3cub17CUB_200400_750_NS6detail8for_each13static_kernelINS2_12policy_hub_t12policy_350_tElN6thrust20THRUST_200400_750_NS8cuda_cub11__transform17unary_transform_fIPN4cuda3std3__45tupleIJ6vec_2dIfElEEESI_NS9_14no_stencil_tagENS7_8identityISH_EENS9_21always_true_predicateEEEEEvT0_T1_
 0x2f               0               0      0x3        0   0x50     .text._ZN3cub17CUB_200400_750_NS6detail8for_each13static_kernelINS2_12policy_hub_t12policy_350_tElN6thrust20THRUST_200400_750_NS8cuda_cub20__uninitialized_copy7functorIPN4cuda3std3__45tupleIJ6vec_2dIfElEEENS7_7pointerISH_NS8_5par_tENS7_11use_defaultESL_EEEEEEvT0_T1_
 0x30               0               0      0x3        0   0x2d     .nv.constant0._ZN3cub17CUB_200400_750_NS6detail8for_each13static_kernelINS2_12policy_hub_t12policy_350_tElN6thrust20THRUST_200400_750_NS8cuda_cub20__uninitialized_copy7functorIPN4cuda3std3__45tupleIJ6vec_2dIfElEEENS7_7pointerISH_NS8_5par_tENS7_11use_defaultESL_EEEEEEvT0_T1_
 0x31               0               0      0x3        0   0x51     .text._ZN3cub17CUB_200400_750_NS6detail8for_each13static_kernelINS2_12policy_hub_t12policy_350_tElNS2_12op_wrapper_tIlN6thrust20THRUST_200400_750_NS6detail23allocator_traits_detail5gozerENS8_7pointerIN4cuda3std3__45tupleIJ6vec_2dIfElEEENS8_8cuda_cub5par_tENS8_11use_defaultESM_EEEEEEvT0_T1_
 0x32               0               0      0x3        0   0x2e     .nv.constant0._ZN3cub17CUB_200400_750_NS6detail8for_each13static_kernelINS2_12policy_hub_t12policy_350_tElNS2_12op_wrapper_tIlN6thrust20THRUST_200400_750_NS6detail23allocator_traits_detail5gozerENS8_7pointerIN4cuda3std3__45tupleIJ6vec_2dIfElEEENS8_8cuda_cub5par_tENS8_11use_defaultESM_EEEEEEvT0_T1_
 0x33               0               0      0x3        0   0x52     .text._ZN3cub17CUB_200400_750_NS6detail8for_each13static_kernelINS2_12policy_hub_t12policy_350_tEmNS2_12op_wrapper_tImN6thrust20THRUST_200400_750_NS6detail23allocator_traits_detail24construct1_via_allocatorINS9_18no_throw_allocatorINS9_19temporary_allocatorIN4cuda3std3__45tupleIJ6vec_2dIfElEEENS8_8cuda_cub5par_tEEEEEEENS8_7pointerISK_SM_NS8_11use_defaultESR_EEEEEEvT0_T1_
 0x34               0               0      0x3        0   0x2f     .nv.constant0._ZN3cub17CUB_200400_750_NS6detail8for_each13static_kernelINS2_12policy_hub_t12policy_350_tEmNS2_12op_wrapper_tImN6thrust20THRUST_200400_750_NS6detail23allocator_traits_detail24construct1_via_allocatorINS9_18no_throw_allocatorINS9_19temporary_allocatorIN4cuda3std3__45tupleIJ6vec_2dIfElEEENS8_8cuda_cub5par_tEEEEEEENS8_7pointerISK_SM_NS8_11use_defaultESR_EEEEEEvT0_T1_
 0x35               0               0      0x3        0   0x53     .text._ZN3cub17CUB_200400_750_NS11EmptyKernelIvEEvv
 0x36               0               0      0x3        0   0x30     .nv.constant0._ZN3cub17CUB_200400_750_NS11EmptyKernelIvEEvv
 0x37               0               0      0x3        0   0x54     .text._ZN6thrust20THRUST_200400_750_NS8cuda_cub4core13_kernel_agentINS1_8__reduce11ReduceAgentIPN4cuda3std3__45tupleIJNS9_IJ6vec_2dIfElEEESC_EEESE_SD_lNS1_9__extrema12arg_minmax_fISB_l7compareIfEEEEESE_SE_iSJ_EEvT0_T1_T2_T3_
 0x38               0               0      0x3        0   0x31     .nv.constant0._ZN6thrust20THRUST_200400_750_NS8cuda_cub4core13_kernel_agentINS1_8__reduce11ReduceAgentIPN4cuda3std3__45tupleIJNS9_IJ6vec_2dIfElEEESC_EEESE_SD_lNS1_9__extrema12arg_minmax_fISB_l7compareIfEEEEESE_SE_iSJ_EEvT0_T1_T2_T3_
 0x39               0               0      0x3        0   0x55     .text._ZN6thrust20THRUST_200400_750_NS8cuda_cub4core13_kernel_agentINS1_8__reduce11ReduceAgentINS1_26transform_input_iterator_tIN4cuda3std3__45tupleIJNSA_IJ6vec_2dIfElEEESD_EEENS0_12zip_iteratorINSA_IJNS0_6detail15normal_iteratorINS0_10device_ptrISC_EEEENS1_19counting_iterator_tIlEEEEEEENS1_9__extrema12arg_minmax_fISC_l7compareIfEE15duplicate_tupleEEEPSE_SE_lST_EESV_SW_lN3cub17CUB_200400_750_NS13GridEvenShareIlEENSZ_9GridQueueIyEEST_EEvT0_T1_T2_T3_T4_T5_
 0x3a               0               0      0x3        0   0x32     .nv.constant2._ZN6thrust20THRUST_200400_750_NS8cuda_cub4core13_kernel_agentINS1_8__reduce11ReduceAgentINS1_26transform_input_iterator_tIN4cuda3std3__45tupleIJNSA_IJ6vec_2dIfElEEESD_EEENS0_12zip_iteratorINSA_IJNS0_6detail15normal_iteratorINS0_10device_ptrISC_EEEENS1_19counting_iterator_tIlEEEEEEENS1_9__extrema12arg_minmax_fISC_l7compareIfEE15duplicate_tupleEEEPSE_SE_lST_EESV_SW_lN3cub17CUB_200400_750_NS13GridEvenShareIlEENSZ_9GridQueueIyEEST_EEvT0_T1_T2_T3_T4_T5_
 0x3b               0               0      0x3        0   0x33     .nv.constant0._ZN6thrust20THRUST_200400_750_NS8cuda_cub4core13_kernel_agentINS1_8__reduce11ReduceAgentINS1_26transform_input_iterator_tIN4cuda3std3__45tupleIJNSA_IJ6vec_2dIfElEEESD_EEENS0_12zip_iteratorINSA_IJNS0_6detail15normal_iteratorINS0_10device_ptrISC_EEEENS1_19counting_iterator_tIlEEEEEEENS1_9__extrema12arg_minmax_fISC_l7compareIfEE15duplicate_tupleEEEPSE_SE_lST_EESV_SW_lN3cub17CUB_200400_750_NS13GridEvenShareIlEENSZ_9GridQueueIyEEST_EEvT0_T1_T2_T3_T4_T5_
 0x3c               0               0      0x3        0   0x56     .text._ZN6thrust20THRUST_200400_750_NS8cuda_cub4core13_kernel_agentINS1_8__reduce11ReduceAgentINS1_26transform_input_iterator_tIN4cuda3std3__45tupleIJNSA_IJ6vec_2dIfElEEESD_EEENS0_12zip_iteratorINSA_IJNS0_6detail15normal_iteratorINS0_10device_ptrISC_EEEENS1_19counting_iterator_tIlEEEEEEENS1_9__extrema12arg_minmax_fISC_l7compareIfEE15duplicate_tupleEEEPSE_SE_lST_EESV_SW_lST_EEvT0_T1_T2_T3_
 0x3d               0               0      0x3        0   0x34     .nv.constant0._ZN6thrust20THRUST_200400_750_NS8cuda_cub4core13_kernel_agentINS1_8__reduce11ReduceAgentINS1_26transform_input_iterator_tIN4cuda3std3__45tupleIJNSA_IJ6vec_2dIfElEEESD_EEENS0_12zip_iteratorINSA_IJNS0_6detail15normal_iteratorINS0_10device_ptrISC_EEEENS1_19counting_iterator_tIlEEEEEEENS1_9__extrema12arg_minmax_fISC_l7compareIfEE15duplicate_tupleEEEPSE_SE_lST_EESV_SW_lST_EEvT0_T1_T2_T3_
 0x3e               0               0      0x3        0   0x57     .text._ZN6thrust20THRUST_200400_750_NS8cuda_cub4core13_kernel_agentINS1_8__reduce11ReduceAgentIPN4cuda3std3__45tupleIJNS9_IJ6vec_2dIfElEEESC_EEESE_SD_iNS1_9__extrema12arg_minmax_fISB_l7compareIfEEEEESE_SE_iSJ_EEvT0_T1_T2_T3_
 0x3f               0               0      0x3        0   0x35     .nv.constant0._ZN6thrust20THRUST_200400_750_NS8cuda_cub4core13_kernel_agentINS1_8__reduce11ReduceAgentIPN4cuda3std3__45tupleIJNS9_IJ6vec_2dIfElEEESC_EEESE_SD_iNS1_9__extrema12arg_minmax_fISB_l7compareIfEEEEESE_SE_iSJ_EEvT0_T1_T2_T3_
 0x40               0               0      0x3        0   0x58     .text._ZN6thrust20THRUST_200400_750_NS8cuda_cub4core13_kernel_agentINS1_8__reduce11ReduceAgentINS1_26transform_input_iterator_tIN4cuda3std3__45tupleIJNSA_IJ6vec_2dIfElEEESD_EEENS0_12zip_iteratorINSA_IJNS0_6detail15normal_iteratorINS0_10device_ptrISC_EEEENS1_19counting_iterator_tIlEEEEEEENS1_9__extrema12arg_minmax_fISC_l7compareIfEE15duplicate_tupleEEEPSE_SE_iST_EESV_SW_iN3cub17CUB_200400_750_NS13GridEvenShareIiEENSZ_9GridQueueIjEEST_EEvT0_T1_T2_T3_T4_T5_
 0x41               0               0      0x3        0   0x36     .nv.constant2._ZN6thrust20THRUST_200400_750_NS8cuda_cub4core13_kernel_agentINS1_8__reduce11ReduceAgentINS1_26transform_input_iterator_tIN4cuda3std3__45tupleIJNSA_IJ6vec_2dIfElEEESD_EEENS0_12zip_iteratorINSA_IJNS0_6detail15normal_iteratorINS0_10device_ptrISC_EEEENS1_19counting_iterator_tIlEEEEEEENS1_9__extrema12arg_minmax_fISC_l7compareIfEE15duplicate_tupleEEEPSE_SE_iST_EESV_SW_iN3cub17CUB_200400_750_NS13GridEvenShareIiEENSZ_9GridQueueIjEEST_EEvT0_T1_T2_T3_T4_T5_
 0x42               0               0      0x3        0   0x37     .nv.constant0._ZN6thrust20THRUST_200400_750_NS8cuda_cub4core13_kernel_agentINS1_8__reduce11ReduceAgentINS1_26transform_input_iterator_tIN4cuda3std3__45tupleIJNSA_IJ6vec_2dIfElEEESD_EEENS0_12zip_iteratorINSA_IJNS0_6detail15normal_iteratorINS0_10device_ptrISC_EEEENS1_19counting_iterator_tIlEEEEEEENS1_9__extrema12arg_minmax_fISC_l7compareIfEE15duplicate_tupleEEEPSE_SE_iST_EESV_SW_iN3cub17CUB_200400_750_NS13GridEvenShareIiEENSZ_9GridQueueIjEEST_EEvT0_T1_T2_T3_T4_T5_
 0x43               0               0      0x3        0   0x59     .text._ZN6thrust20THRUST_200400_750_NS8cuda_cub4core13_kernel_agentINS1_8__reduce11ReduceAgentINS1_26transform_input_iterator_tIN4cuda3std3__45tupleIJNSA_IJ6vec_2dIfElEEESD_EEENS0_12zip_iteratorINSA_IJNS0_6detail15normal_iteratorINS0_10device_ptrISC_EEEENS1_19counting_iterator_tIlEEEEEEENS1_9__extrema12arg_minmax_fISC_l7compareIfEE15duplicate_tupleEEEPSE_SE_iST_EESV_SW_iST_EEvT0_T1_T2_T3_
 0x44               0               0      0x3        0   0x38     .nv.constant0._ZN6thrust20THRUST_200400_750_NS8cuda_cub4core13_kernel_agentINS1_8__reduce11ReduceAgentINS1_26transform_input_iterator_tIN4cuda3std3__45tupleIJNSA_IJ6vec_2dIfElEEESD_EEENS0_12zip_iteratorINSA_IJNS0_6detail15normal_iteratorINS0_10device_ptrISC_EEEENS1_19counting_iterator_tIlEEEEEEENS1_9__extrema12arg_minmax_fISC_l7compareIfEE15duplicate_tupleEEEPSE_SE_iST_EESV_SW_iST_EEvT0_T1_T2_T3_
 0x45               0               0      0x3        0   0x5a     .text._ZN6thrust20THRUST_200400_750_NS8cuda_cub4core13_kernel_agentINS1_8__reduce11ReduceAgentIPN4cuda3std3__45tupleIJ6vec_2dIfElEEESD_SC_lNS1_9__extrema9arg_max_fISB_l7compareIfEEEEESD_SD_iSI_EEvT0_T1_T2_T3_
 0x46               0               0      0x3        0   0x39     .nv.constant0._ZN6thrust20THRUST_200400_750_NS8cuda_cub4core13_kernel_agentINS1_8__reduce11ReduceAgentIPN4cuda3std3__45tupleIJ6vec_2dIfElEEESD_SC_lNS1_9__extrema9arg_max_fISB_l7compareIfEEEEESD_SD_iSI_EEvT0_T1_T2_T3_
 0x47               0               0      0x3        0   0x5b     .text._ZN6thrust20THRUST_200400_750_NS8cuda_cub4core13_kernel_agentINS1_8__reduce11ReduceAgentINS0_12zip_iteratorIN4cuda3std3__45tupleIJNS0_6detail15normal_iteratorINS0_10device_ptrI6vec_2dIfEEEEENS1_19counting_iterator_tIlEEEEEEEPNSA_IJSF_lEEESM_lNS1_9__extrema9arg_max_fISF_l7compareIfEEEEESL_SN_lN3cub17CUB_200400_750_NS13GridEvenShareIlEENSV_9GridQueueIyEESS_EEvT0_T1_T2_T3_T4_T5_
 0x48               0               0      0x3        0   0x3a     .nv.constant2._ZN6thrust20THRUST_200400_750_NS8cuda_cub4core13_kernel_agentINS1_8__reduce11ReduceAgentINS0_12zip_iteratorIN4cuda3std3__45tupleIJNS0_6detail15normal_iteratorINS0_10device_ptrI6vec_2dIfEEEEENS1_19counting_iterator_tIlEEEEEEEPNSA_IJSF_lEEESM_lNS1_9__extrema9arg_max_fISF_l7compareIfEEEEESL_SN_lN3cub17CUB_200400_750_NS13GridEvenShareIlEENSV_9GridQueueIyEESS_EEvT0_T1_T2_T3_T4_T5_
 0x49               0               0      0x3        0   0x3b     .nv.constant0._ZN6thrust20THRUST_200400_750_NS8cuda_cub4core13_kernel_agentINS1_8__reduce11ReduceAgentINS0_12zip_iteratorIN4cuda3std3__45tupleIJNS0_6detail15normal_iteratorINS0_10device_ptrI6vec_2dIfEEEEENS1_19counting_iterator_tIlEEEEEEEPNSA_IJSF_lEEESM_lNS1_9__extrema9arg_max_fISF_l7compareIfEEEEESL_SN_lN3cub17CUB_200400_750_NS13GridEvenShareIlEENSV_9GridQueueIyEESS_EEvT0_T1_T2_T3_T4_T5_
 0x4a               0               0      0x3        0   0x5c     .text._ZN6thrust20THRUST_200400_750_NS8cuda_cub4core13_kernel_agentINS1_8__reduce11ReduceAgentINS0_12zip_iteratorIN4cuda3std3__45tupleIJNS0_6detail15normal_iteratorINS0_10device_ptrI6vec_2dIfEEEEENS1_19counting_iterator_tIlEEEEEEEPNSA_IJSF_lEEESM_lNS1_9__extrema9arg_max_fISF_l7compareIfEEEEESL_SN_lSS_EEvT0_T1_T2_T3_
 0x4b               0               0      0x3        0   0x3c     .nv.constant0._ZN6thrust20THRUST_200400_750_NS8cuda_cub4core13_kernel_agentINS1_8__reduce11ReduceAgentINS0_12zip_iteratorIN4cuda3std3__45tupleIJNS0_6detail15normal_iteratorINS0_10device_ptrI6vec_2dIfEEEEENS1_19counting_iterator_tIlEEEEEEEPNSA_IJSF_lEEESM_lNS1_9__extrema9arg_max_fISF_l7compareIfEEEEESL_SN_lSS_EEvT0_T1_T2_T3_
 0x4c               0               0      0x3        0   0x5d     .text._ZN6thrust20THRUST_200400_750_NS8cuda_cub4core13_kernel_agentINS1_8__reduce11ReduceAgentIPN4cuda3std3__45tupleIJ6vec_2dIfElEEESD_SC_iNS1_9__extrema9arg_max_fISB_l7compareIfEEEEESD_SD_iSI_EEvT0_T1_T2_T3_
 0x4d               0               0      0x3        0   0x3d     .nv.constant0._ZN6thrust20THRUST_200400_750_NS8cuda_cub4core13_kernel_agentINS1_8__reduce11ReduceAgentIPN4cuda3std3__45tupleIJ6vec_2dIfElEEESD_SC_iNS1_9__extrema9arg_max_fISB_l7compareIfEEEEESD_SD_iSI_EEvT0_T1_T2_T3_
 0x4e               0               0      0x3        0   0x5e     .text._ZN6thrust20THRUST_200400_750_NS8cuda_cub4core13_kernel_agentINS1_8__reduce11ReduceAgentINS0_12zip_iteratorIN4cuda3std3__45tupleIJNS0_6detail15normal_iteratorINS0_10device_ptrI6vec_2dIfEEEEENS1_19counting_iterator_tIlEEEEEEEPNSA_IJSF_lEEESM_iNS1_9__extrema9arg_max_fISF_l7compareIfEEEEESL_SN_iN3cub17CUB_200400_750_NS13GridEvenShareIiEENSV_9GridQueueIjEESS_EEvT0_T1_T2_T3_T4_T5_
 0x4f               0               0      0x3        0   0x3e     .nv.constant2._ZN6thrust20THRUST_200400_750_NS8cuda_cub4core13_kernel_agentINS1_8__reduce11ReduceAgentINS0_12zip_iteratorIN4cuda3std3__45tupleIJNS0_6detail15normal_iteratorINS0_10device_ptrI6vec_2dIfEEEEENS1_19counting_iterator_tIlEEEEEEEPNSA_IJSF_lEEESM_iNS1_9__extrema9arg_max_fISF_l7compareIfEEEEESL_SN_iN3cub17CUB_200400_750_NS13GridEvenShareIiEENSV_9GridQueueIjEESS_EEvT0_T1_T2_T3_T4_T5_
 0x50               0               0      0x3        0   0x3f     .nv.constant0._ZN6thrust20THRUST_200400_750_NS8cuda_cub4core13_kernel_agentINS1_8__reduce11ReduceAgentINS0_12zip_iteratorIN4cuda3std3__45tupleIJNS0_6detail15normal_iteratorINS0_10device_ptrI6vec_2dIfEEEEENS1_19counting_iterator_tIlEEEEEEEPNSA_IJSF_lEEESM_iNS1_9__extrema9arg_max_fISF_l7compareIfEEEEESL_SN_iN3cub17CUB_200400_750_NS13GridEvenShareIiEENSV_9GridQueueIjEESS_EEvT0_T1_T2_T3_T4_T5_
 0x51               0               0      0x3        0   0x5f     .text._ZN6thrust20THRUST_200400_750_NS8cuda_cub4core13_kernel_agentINS1_8__reduce11ReduceAgentINS0_12zip_iteratorIN4cuda3std3__45tupleIJNS0_6detail15normal_iteratorINS0_10device_ptrI6vec_2dIfEEEEENS1_19counting_iterator_tIlEEEEEEEPNSA_IJSF_lEEESM_iNS1_9__extrema9arg_max_fISF_l7compareIfEEEEESL_SN_iSS_EEvT0_T1_T2_T3_
 0x52               0               0      0x3        0   0x40     .nv.constant0._ZN6thrust20THRUST_200400_750_NS8cuda_cub4core13_kernel_agentINS1_8__reduce11ReduceAgentINS0_12zip_iteratorIN4cuda3std3__45tupleIJNS0_6detail15normal_iteratorINS0_10device_ptrI6vec_2dIfEEEEENS1_19counting_iterator_tIlEEEEEEEPNSA_IJSF_lEEESM_iNS1_9__extrema9arg_max_fISF_l7compareIfEEEEESL_SN_iSS_EEvT0_T1_T2_T3_
 0x53               0               0      0x3        0   0x60     .text._ZN6thrust20THRUST_200400_750_NS8cuda_cub4core13_kernel_agentINS1_8__reduce11ReduceAgentIPN4cuda3std3__45tupleIJ6vec_2dIfElEEESD_SC_lNS1_9__extrema9arg_min_fISB_l7compareIfEEEEESD_SD_iSI_EEvT0_T1_T2_T3_
 0x54               0               0      0x3        0   0x41     .nv.constant0._ZN6thrust20THRUST_200400_750_NS8cuda_cub4core13_kernel_agentINS1_8__reduce11ReduceAgentIPN4cuda3std3__45tupleIJ6vec_2dIfElEEESD_SC_lNS1_9__extrema9arg_min_fISB_l7compareIfEEEEESD_SD_iSI_EEvT0_T1_T2_T3_
 0x55               0               0      0x3        0   0x61     .text._ZN6thrust20THRUST_200400_750_NS8cuda_cub4core13_kernel_agentINS1_8__reduce10DrainAgentIlEEN3cub17CUB_200400_750_NS9GridQueueIyEElEEvT0_T1_
 0x56               0               0      0x3        0   0x42     .nv.constant0._ZN6thrust20THRUST_200400_750_NS8cuda_cub4core13_kernel_agentINS1_8__reduce10DrainAgentIlEEN3cub17CUB_200400_750_NS9GridQueueIyEElEEvT0_T1_
 0x57               0               0      0x3        0   0x62     .text._ZN6thrust20THRUST_200400_750_NS8cuda_cub4core13_kernel_agentINS1_8__reduce11ReduceAgentINS0_12zip_iteratorIN4cuda3std3__45tupleIJNS0_6detail15normal_iteratorINS0_10device_ptrI6vec_2dIfEEEEENS1_19counting_iterator_tIlEEEEEEEPNSA_IJSF_lEEESM_lNS1_9__extrema9arg_min_fISF_l7compareIfEEEEESL_SN_lN3cub17CUB_200400_750_NS13GridEvenShareIlEENSV_9GridQueueIyEESS_EEvT0_T1_T2_T3_T4_T5_
 0x58               0               0      0x3        0   0x43     .nv.constant2._ZN6thrust20THRUST_200400_750_NS8cuda_cub4core13_kernel_agentINS1_8__reduce11ReduceAgentINS0_12zip_iteratorIN4cuda3std3__45tupleIJNS0_6detail15normal_iteratorINS0_10device_ptrI6vec_2dIfEEEEENS1_19counting_iterator_tIlEEEEEEEPNSA_IJSF_lEEESM_lNS1_9__extrema9arg_min_fISF_l7compareIfEEEEESL_SN_lN3cub17CUB_200400_750_NS13GridEvenShareIlEENSV_9GridQueueIyEESS_EEvT0_T1_T2_T3_T4_T5_
 0x59               0               0      0x3        0   0x44     .nv.constant0._ZN6thrust20THRUST_200400_750_NS8cuda_cub4core13_kernel_agentINS1_8__reduce11ReduceAgentINS0_12zip_iteratorIN4cuda3std3__45tupleIJNS0_6detail15normal_iteratorINS0_10device_ptrI6vec_2dIfEEEEENS1_19counting_iterator_tIlEEEEEEEPNSA_IJSF_lEEESM_lNS1_9__extrema9arg_min_fISF_l7compareIfEEEEESL_SN_lN3cub17CUB_200400_750_NS13GridEvenShareIlEENSV_9GridQueueIyEESS_EEvT0_T1_T2_T3_T4_T5_
 0x5a               0               0      0x3        0   0x63     .text._ZN6thrust20THRUST_200400_750_NS8cuda_cub4core13_kernel_agentINS1_8__reduce11ReduceAgentINS0_12zip_iteratorIN4cuda3std3__45tupleIJNS0_6detail15normal_iteratorINS0_10device_ptrI6vec_2dIfEEEEENS1_19counting_iterator_tIlEEEEEEEPNSA_IJSF_lEEESM_lNS1_9__extrema9arg_min_fISF_l7compareIfEEEEESL_SN_lSS_EEvT0_T1_T2_T3_
 0x5b               0               0      0x3        0   0x45     .nv.constant0._ZN6thrust20THRUST_200400_750_NS8cuda_cub4core13_kernel_agentINS1_8__reduce11ReduceAgentINS0_12zip_iteratorIN4cuda3std3__45tupleIJNS0_6detail15normal_iteratorINS0_10device_ptrI6vec_2dIfEEEEENS1_19counting_iterator_tIlEEEEEEEPNSA_IJSF_lEEESM_lNS1_9__extrema9arg_min_fISF_l7compareIfEEEEESL_SN_lSS_EEvT0_T1_T2_T3_
 0x5c               0               0      0x3        0   0x64     .text._ZN6thrust20THRUST_200400_750_NS8cuda_cub4core13_kernel_agentINS1_8__reduce11ReduceAgentIPN4cuda3std3__45tupleIJ6vec_2dIfElEEESD_SC_iNS1_9__extrema9arg_min_fISB_l7compareIfEEEEESD_SD_iSI_EEvT0_T1_T2_T3_
 0x5d               0               0      0x3        0   0x46     .nv.constant0._ZN6thrust20THRUST_200400_750_NS8cuda_cub4core13_kernel_agentINS1_8__reduce11ReduceAgentIPN4cuda3std3__45tupleIJ6vec_2dIfElEEESD_SC_iNS1_9__extrema9arg_min_fISB_l7compareIfEEEEESD_SD_iSI_EEvT0_T1_T2_T3_
 0x5e               0               0      0x3        0   0x65     .text._ZN6thrust20THRUST_200400_750_NS8cuda_cub4core13_kernel_agentINS1_8__reduce10DrainAgentIiEEN3cub17CUB_200400_750_NS9GridQueueIjEEiEEvT0_T1_
 0x5f               0               0      0x3        0   0x47     .nv.constant0._ZN6thrust20THRUST_200400_750_NS8cuda_cub4core13_kernel_agentINS1_8__reduce10DrainAgentIiEEN3cub17CUB_200400_750_NS9GridQueueIjEEiEEvT0_T1_
 0x60               0               0      0x3        0   0x66     .text._ZN6thrust20THRUST_200400_750_NS8cuda_cub4core13_kernel_agentINS1_8__reduce11ReduceAgentINS0_12zip_iteratorIN4cuda3std3__45tupleIJNS0_6detail15normal_iteratorINS0_10device_ptrI6vec_2dIfEEEEENS1_19counting_iterator_tIlEEEEEEEPNSA_IJSF_lEEESM_iNS1_9__extrema9arg_min_fISF_l7compareIfEEEEESL_SN_iN3cub17CUB_200400_750_NS13GridEvenShareIiEENSV_9GridQueueIjEESS_EEvT0_T1_T2_T3_T4_T5_
 0x61               0               0      0x3        0   0x48     .nv.constant2._ZN6thrust20THRUST_200400_750_NS8cuda_cub4core13_kernel_agentINS1_8__reduce11ReduceAgentINS0_12zip_iteratorIN4cuda3std3__45tupleIJNS0_6detail15normal_iteratorINS0_10device_ptrI6vec_2dIfEEEEENS1_19counting_iterator_tIlEEEEEEEPNSA_IJSF_lEEESM_iNS1_9__extrema9arg_min_fISF_l7compareIfEEEEESL_SN_iN3cub17CUB_200400_750_NS13GridEvenShareIiEENSV_9GridQueueIjEESS_EEvT0_T1_T2_T3_T4_T5_
 0x62               0               0      0x3        0   0x49     .nv.constant0._ZN6thrust20THRUST_200400_750_NS8cuda_cub4core13_kernel_agentINS1_8__reduce11ReduceAgentINS0_12zip_iteratorIN4cuda3std3__45tupleIJNS0_6detail15normal_iteratorINS0_10device_ptrI6vec_2dIfEEEEENS1_19counting_iterator_tIlEEEEEEEPNSA_IJSF_lEEESM_iNS1_9__extrema9arg_min_fISF_l7compareIfEEEEESL_SN_iN3cub17CUB_200400_750_NS13GridEvenShareIiEENSV_9GridQueueIjEESS_EEvT0_T1_T2_T3_T4_T5_
 0x63               0               0      0x3        0   0x67     .text._ZN6thrust20THRUST_200400_750_NS8cuda_cub4core13_kernel_agentINS1_8__reduce11ReduceAgentINS0_12zip_iteratorIN4cuda3std3__45tupleIJNS0_6detail15normal_iteratorINS0_10device_ptrI6vec_2dIfEEEEENS1_19counting_iterator_tIlEEEEEEEPNSA_IJSF_lEEESM_iNS1_9__extrema9arg_min_fISF_l7compareIfEEEEESL_SN_iSS_EEvT0_T1_T2_T3_
 0x64               0               0      0x3        0   0x4a     .nv.constant0._ZN6thrust20THRUST_200400_750_NS8cuda_cub4core13_kernel_agentINS1_8__reduce11ReduceAgentINS0_12zip_iteratorIN4cuda3std3__45tupleIJNS0_6detail15normal_iteratorINS0_10device_ptrI6vec_2dIfEEEEENS1_19counting_iterator_tIlEEEEEEEPNSA_IJSF_lEEESM_iNS1_9__extrema9arg_min_fISF_l7compareIfEEEEESL_SN_iSS_EEvT0_T1_T2_T3_
 0x65               0               0      0x3        0    0x4     .debug_frame
 0x66               0               0      0x3        0   0x23     .nv.callgraph
 0x67               0               0      0x3        0   0x24     .nv.rel.action
 0x68               0           0x480     0x12     0x10   0x4b     _ZN3cub17CUB_200400_750_NS6detail8for_each13static_kernelINS2_12policy_hub_t12policy_350_tElN6thrust20THRUST_200400_750_NS8cuda_cub11__transform17unary_transform_fIPN4cuda3std3__45tupleIJNSE_IJ6vec_2dIfElEEESH_EEESJ_NS9_14no_stencil_tagENS7_8identityISI_EENS9_21always_true_predicateEEEEEvT0_T1_
 0x69               0           0x480     0x12     0x10   0x4c     _ZN3cub17CUB_200400_750_NS6detail8for_each13static_kernelINS2_12policy_hub_t12policy_350_tElN6thrust20THRUST_200400_750_NS8cuda_cub20__uninitialized_copy7functorIPN4cuda3std3__45tupleIJNSE_IJ6vec_2dIfElEEESH_EEENS7_7pointerISI_NS8_5par_tENS7_11use_defaultESM_EEEEEEvT0_T1_
 0x6a               0            0x80     0x12     0x10   0x4d     _ZN3cub17CUB_200400_750_NS6detail8for_each13static_kernelINS2_12policy_hub_t12policy_350_tElNS2_12op_wrapper_tIlN6thrust20THRUST_200400_750_NS6detail23allocator_traits_detail5gozerENS8_7pointerIN4cuda3std3__45tupleIJNSG_IJ6vec_2dIfElEEESJ_EEENS8_8cuda_cub5par_tENS8_11use_defaultESN_EEEEEEvT0_T1_
 0x6b               0           0x280     0x12     0x10   0x4e     _ZN3cub17CUB_200400_750_NS6detail8for_each13static_kernelINS2_12policy_hub_t12policy_350_tEmNS2_12op_wrapper_tImN6thrust20THRUST_200400_750_NS6detail23allocator_traits_detail24construct1_via_allocatorINS9_18no_throw_allocatorINS9_19temporary_allocatorIN4cuda3std3__45tupleIJNSH_IJ6vec_2dIfElEEESK_EEENS8_8cuda_cub5par_tEEEEEEENS8_7pointerISL_SN_NS8_11use_defaultESS_EEEEEEvT0_T1_
 0x6c               0           0x380     0x12     0x10   0x4f     _ZN3cub17CUB_200400_750_NS6detail8for_each13static_kernelINS2_12policy_hub_t12policy_350_tElN6thrust20THRUST_200400_750_NS8cuda_cub11__transform17unary_transform_fIPN4cuda3std3__45tupleIJ6vec_2dIfElEEESI_NS9_14no_stencil_tagENS7_8identityISH_EENS9_21always_true_predicateEEEEEvT0_T1_
 0x6d               0           0x380     0x12     0x10   0x50     _ZN3cub17CUB_200400_750_NS6detail8for_each13static_kernelINS2_12policy_hub_t12policy_350_tElN6thrust20THRUST_200400_750_NS8cuda_cub20__uninitialized_copy7functorIPN4cuda3std3__45tupleIJ6vec_2dIfElEEENS7_7pointerISH_NS8_5par_tENS7_11use_defaultESL_EEEEEEvT0_T1_
 0x6e               0            0x80     0x12     0x10   0x51     _ZN3cub17CUB_200400_750_NS6detail8for_each13static_kernelINS2_12policy_hub_t12policy_350_tElNS2_12op_wrapper_tIlN6thrust20THRUST_200400_750_NS6detail23allocator_traits_detail5gozerENS8_7pointerIN4cuda3std3__45tupleIJ6vec_2dIfElEEENS8_8cuda_cub5par_tENS8_11use_defaultESM_EEEEEEvT0_T1_
 0x6f               0           0x200     0x12     0x10   0x52     _ZN3cub17CUB_200400_750_NS6detail8for_each13static_kernelINS2_12policy_hub_t12policy_350_tEmNS2_12op_wrapper_tImN6thrust20THRUST_200400_750_NS6detail23allocator_traits_detail24construct1_via_allocatorINS9_18no_throw_allocatorINS9_19temporary_allocatorIN4cuda3std3__45tupleIJ6vec_2dIfElEEENS8_8cuda_cub5par_tEEEEEEENS8_7pointerISK_SM_NS8_11use_defaultESR_EEEEEEvT0_T1_
 0x70               0            0x80     0x12     0x10   0x53     _ZN3cub17CUB_200400_750_NS11EmptyKernelIvEEvv
 0x71               0          0xc680     0x12     0x10   0x54     _ZN6thrust20THRUST_200400_750_NS8cuda_cub4core13_kernel_agentINS1_8__reduce11ReduceAgentIPN4cuda3std3__45tupleIJNS9_IJ6vec_2dIfElEEESC_EEESE_SD_lNS1_9__extrema12arg_minmax_fISB_l7compareIfEEEEESE_SE_iSJ_EEvT0_T1_T2_T3_
 0x72               0          0xd200     0x12     0x10   0x55     _ZN6thrust20THRUST_200400_750_NS8cuda_cub4core13_kernel_agentINS1_8__reduce11ReduceAgentINS1_26transform_input_iterator_tIN4cuda3std3__45tupleIJNSA_IJ6vec_2dIfElEEESD_EEENS0_12zip_iteratorINSA_IJNS0_6detail15normal_iteratorINS0_10device_ptrISC_EEEENS1_19counting_iterator_tIlEEEEEEENS1_9__extrema12arg_minmax_fISC_l7compareIfEE15duplicate_tupleEEEPSE_SE_lST_EESV_SW_lN3cub17CUB_200400_750_NS13GridEvenShareIlEENSZ_9GridQueueIyEEST_EEvT0_T1_T2_T3_T4_T5_
 0x73               0          0xce80     0x12     0x10   0x56     _ZN6thrust20THRUST_200400_750_NS8cuda_cub4core13_kernel_agentINS1_8__reduce11ReduceAgentINS1_26transform_input_iterator_tIN4cuda3std3__45tupleIJNSA_IJ6vec_2dIfElEEESD_EEENS0_12zip_iteratorINSA_IJNS0_6detail15normal_iteratorINS0_10device_ptrISC_EEEENS1_19counting_iterator_tIlEEEEEEENS1_9__extrema12arg_minmax_fISC_l7compareIfEE15duplicate_tupleEEEPSE_SE_lST_EESV_SW_lST_EEvT0_T1_T2_T3_
 0x74               0          0xc580     0x12     0x10   0x57     _ZN6thrust20THRUST_200400_750_NS8cuda_cub4core13_kernel_agentINS1_8__reduce11ReduceAgentIPN4cuda3std3__45tupleIJNS9_IJ6vec_2dIfElEEESC_EEESE_SD_iNS1_9__extrema12arg_minmax_fISB_l7compareIfEEEEESE_SE_iSJ_EEvT0_T1_T2_T3_
 0x75               0          0xd100     0x12     0x10   0x58     _ZN6thrust20THRUST_200400_750_NS8cuda_cub4core13_kernel_agentINS1_8__reduce11ReduceAgentINS1_26transform_input_iterator_tIN4cuda3std3__45tupleIJNSA_IJ6vec_2dIfElEEESD_EEENS0_12zip_iteratorINSA_IJNS0_6detail15normal_iteratorINS0_10device_ptrISC_EEEENS1_19counting_iterator_tIlEEEEEEENS1_9__extrema12arg_minmax_fISC_l7compareIfEE15duplicate_tupleEEEPSE_SE_iST_EESV_SW_iN3cub17CUB_200400_750_NS13GridEvenShareIiEENSZ_9GridQueueIjEEST_EEvT0_T1_T2_T3_T4_T5_
 0x76               0          0xcd80     0x12     0x10   0x59     _ZN6thrust20THRUST_200400_750_NS8cuda_cub4core13_kernel_agentINS1_8__reduce11ReduceAgentINS1_26transform_input_iterator_tIN4cuda3std3__45tupleIJNSA_IJ6vec_2dIfElEEESD_EEENS0_12zip_iteratorINSA_IJNS0_6detail15normal_iteratorINS0_10device_ptrISC_EEEENS1_19counting_iterator_tIlEEEEEEENS1_9__extrema12arg_minmax_fISC_l7compareIfEE15duplicate_tupleEEEPSE_SE_iST_EESV_SW_iST_EEvT0_T1_T2_T3_
 0x77               0          0x7900     0x12     0x10   0x5a     _ZN6thrust20THRUST_200400_750_NS8cuda_cub4core13_kernel_agentINS1_8__reduce11ReduceAgentIPN4cuda3std3__45tupleIJ6vec_2dIfElEEESD_SC_lNS1_9__extrema9arg_max_fISB_l7compareIfEEEEESD_SD_iSI_EEvT0_T1_T2_T3_
 0x78               0          0x7b00     0x12     0x10   0x5b     _ZN6thrust20THRUST_200400_750_NS8cuda_cub4core13_kernel_agentINS1_8__reduce11ReduceAgentINS0_12zip_iteratorIN4cuda3std3__45tupleIJNS0_6detail15normal_iteratorINS0_10device_ptrI6vec_2dIfEEEEENS1_19counting_iterator_tIlEEEEEEEPNSA_IJSF_lEEESM_lNS1_9__extrema9arg_max_fISF_l7compareIfEEEEESL_SN_lN3cub17CUB_200400_750_NS13GridEvenShareIlEENSV_9GridQueueIyEESS_EEvT0_T1_T2_T3_T4_T5_
 0x79               0          0x7700     0x12     0x10   0x5c     _ZN6thrust20THRUST_200400_750_NS8cuda_cub4core13_kernel_agentINS1_8__reduce11ReduceAgentINS0_12zip_iteratorIN4cuda3std3__45tupleIJNS0_6detail15normal_iteratorINS0_10device_ptrI6vec_2dIfEEEEENS1_19counting_iterator_tIlEEEEEEEPNSA_IJSF_lEEESM_lNS1_9__extrema9arg_max_fISF_l7compareIfEEEEESL_SN_lSS_EEvT0_T1_T2_T3_
 0x7a               0          0x7880     0x12     0x10   0x5d     _ZN6thrust20THRUST_200400_750_NS8cuda_cub4core13_kernel_agentINS1_8__reduce11ReduceAgentIPN4cuda3std3__45tupleIJ6vec_2dIfElEEESD_SC_iNS1_9__extrema9arg_max_fISB_l7compareIfEEEEESD_SD_iSI_EEvT0_T1_T2_T3_
 0x7b               0          0x7a00     0x12     0x10   0x5e     _ZN6thrust20THRUST_200400_750_NS8cuda_cub4core13_kernel_agentINS1_8__reduce11ReduceAgentINS0_12zip_iteratorIN4cuda3std3__45tupleIJNS0_6detail15normal_iteratorINS0_10device_ptrI6vec_2dIfEEEEENS1_19counting_iterator_tIlEEEEEEEPNSA_IJSF_lEEESM_iNS1_9__extrema9arg_max_fISF_l7compareIfEEEEESL_SN_iN3cub17CUB_200400_750_NS13GridEvenShareIiEENSV_9GridQueueIjEESS_EEvT0_T1_T2_T3_T4_T5_
 0x7c               0          0x7580     0x12     0x10   0x5f     _ZN6thrust20THRUST_200400_750_NS8cuda_cub4core13_kernel_agentINS1_8__reduce11ReduceAgentINS0_12zip_iteratorIN4cuda3std3__45tupleIJNS0_6detail15normal_iteratorINS0_10device_ptrI6vec_2dIfEEEEENS1_19counting_iterator_tIlEEEEEEEPNSA_IJSF_lEEESM_iNS1_9__extrema9arg_max_fISF_l7compareIfEEEEESL_SN_iSS_EEvT0_T1_T2_T3_
 0x7d               0          0x7700     0x12     0x10   0x60     _ZN6thrust20THRUST_200400_750_NS8cuda_cub4core13_kernel_agentINS1_8__reduce11ReduceAgentIPN4cuda3std3__45tupleIJ6vec_2dIfElEEESD_SC_lNS1_9__extrema9arg_min_fISB_l7compareIfEEEEESD_SD_iSI_EEvT0_T1_T2_T3_
 0x7e               0            0x80     0x12     0x10   0x61     _ZN6thrust20THRUST_200400_750_NS8cuda_cub4core13_kernel_agentINS1_8__reduce10DrainAgentIlEEN3cub17CUB_200400_750_NS9GridQueueIyEElEEvT0_T1_
 0x7f               0          0x7800     0x12     0x10   0x62     _ZN6thrust20THRUST_200400_750_NS8cuda_cub4core13_kernel_agentINS1_8__reduce11ReduceAgentINS0_12zip_iteratorIN4cuda3std3__45tupleIJNS0_6detail15normal_iteratorINS0_10device_ptrI6vec_2dIfEEEEENS1_19counting_iterator_tIlEEEEEEEPNSA_IJSF_lEEESM_lNS1_9__extrema9arg_min_fISF_l7compareIfEEEEESL_SN_lN3cub17CUB_200400_750_NS13GridEvenShareIlEENSV_9GridQueueIyEESS_EEvT0_T1_T2_T3_T4_T5_
 0x80               0          0x7480     0x12     0x10   0x63     _ZN6thrust20THRUST_200400_750_NS8cuda_cub4core13_kernel_agentINS1_8__reduce11ReduceAgentINS0_12zip_iteratorIN4cuda3std3__45tupleIJNS0_6detail15normal_iteratorINS0_10device_ptrI6vec_2dIfEEEEENS1_19counting_iterator_tIlEEEEEEEPNSA_IJSF_lEEESM_lNS1_9__extrema9arg_min_fISF_l7compareIfEEEEESL_SN_lSS_EEvT0_T1_T2_T3_
 0x81               0          0x7680     0x12     0x10   0x64     _ZN6thrust20THRUST_200400_750_NS8cuda_cub4core13_kernel_agentINS1_8__reduce11ReduceAgentIPN4cuda3std3__45tupleIJ6vec_2dIfElEEESD_SC_iNS1_9__extrema9arg_min_fISB_l7compareIfEEEEESD_SD_iSI_EEvT0_T1_T2_T3_
 0x82               0            0x80     0x12     0x10   0x65     _ZN6thrust20THRUST_200400_750_NS8cuda_cub4core13_kernel_agentINS1_8__reduce10DrainAgentIiEEN3cub17CUB_200400_750_NS9GridQueueIjEEiEEvT0_T1_
 0x83               0          0x7700     0x12     0x10   0x66     _ZN6thrust20THRUST_200400_750_NS8cuda_cub4core13_kernel_agentINS1_8__reduce11ReduceAgentINS0_12zip_iteratorIN4cuda3std3__45tupleIJNS0_6detail15normal_iteratorINS0_10device_ptrI6vec_2dIfEEEEENS1_19counting_iterator_tIlEEEEEEEPNSA_IJSF_lEEESM_iNS1_9__extrema9arg_min_fISF_l7compareIfEEEEESL_SN_iN3cub17CUB_200400_750_NS13GridEvenShareIiEENSV_9GridQueueIjEESS_EEvT0_T1_T2_T3_T4_T5_
 0x84               0          0x7400     0x12     0x10   0x67     _ZN6thrust20THRUST_200400_750_NS8cuda_cub4core13_kernel_agentINS1_8__reduce11ReduceAgentINS0_12zip_iteratorIN4cuda3std3__45tupleIJNS0_6detail15normal_iteratorINS0_10device_ptrI6vec_2dIfEEEEENS1_19counting_iterator_tIlEEEEEEEPNSA_IJSF_lEEESM_iNS1_9__extrema9arg_min_fISF_l7compareIfEEEEESL_SN_iSS_EEvT0_T1_T2_T3_


.nv.constant4
0x00000000 0x00000000 0x00000000 0x00000000
0x00000000 0x00000000 0x00000000 0x00000000
0x00000000 0x00000000 0x00000000 0x00000000
0x00000000 0x00000000 0x00000000 0x00000000
0x00000000 0x00000000 0x00000000 0x00000000
0x00000000 0x00000000 0x00000000 0x00000000
0x00000000 0x00000000 0x00000000 0x00000000
0x00000000 0x00000000 0x00000000 0x00000000
0x00000000 0x00000000 0x00000000 0x00000000
0x00000000 0x00000000 0x00000000 0x00000000
0x00000000 0x00000000 0x00000000 0x00000000
0x00000000 0x00000000 0x00000000 0x00000000
0x00000000 0x00000000 0x00000000 0x00000000
0x00000000 0x00000000 0x00000000 0x00000000
0x00000000 0x00000000 0x00000000 0x00000000
0x00000000 0x00000000 0x00000000 0x00000000
0x00000000 0x00000000 0x00000000 0x00000000


.section .rel.nv.constant4	REL
0x108    _ZN33_INTERNAL_d182b99d_7_main_cu_main6thrust20THRUST_200400_750_NS6deviceE    R_CUDA_64
0x100    _ZN33_INTERNAL_d182b99d_7_main_cu_main6thrust20THRUST_200400_750_NS3seqE    R_CUDA_64
0xf8    _ZN33_INTERNAL_d182b99d_7_main_cu_main6thrust20THRUST_200400_750_NS12placeholders3_10E    R_CUDA_64
0xf0    _ZN33_INTERNAL_d182b99d_7_main_cu_main6thrust20THRUST_200400_750_NS12placeholders2_9E    R_CUDA_64
0xe8    _ZN33_INTERNAL_d182b99d_7_main_cu_main6thrust20THRUST_200400_750_NS12placeholders2_8E    R_CUDA_64
0xe0    _ZN33_INTERNAL_d182b99d_7_main_cu_main6thrust20THRUST_200400_750_NS12placeholders2_7E    R_CUDA_64
0xd8    _ZN33_INTERNAL_d182b99d_7_main_cu_main6thrust20THRUST_200400_750_NS12placeholders2_6E    R_CUDA_64
0xd0    _ZN33_INTERNAL_d182b99d_7_main_cu_main6thrust20THRUST_200400_750_NS12placeholders2_5E    R_CUDA_64
0xc8    _ZN33_INTERNAL_d182b99d_7_main_cu_main6thrust20THRUST_200400_750_NS12placeholders2_4E    R_CUDA_64
0xc0    _ZN33_INTERNAL_d182b99d_7_main_cu_main6thrust20THRUST_200400_750_NS12placeholders2_3E    R_CUDA_64
0xb8    _ZN33_INTERNAL_d182b99d_7_main_cu_main6thrust20THRUST_200400_750_NS12placeholders2_2E    R_CUDA_64
0xb0    _ZN33_INTERNAL_d182b99d_7_main_cu_main6thrust20THRUST_200400_750_NS12placeholders2_1E    R_CUDA_64
0xa8    _ZN33_INTERNAL_d182b99d_7_main_cu_main6thrust20THRUST_200400_750_NS8cuda_cub10par_nosyncE    R_CUDA_64
0xa0    _ZN33_INTERNAL_d182b99d_7_main_cu_main6thrust20THRUST_200400_750_NS8cuda_cub3parE    R_CUDA_64
0x98    _ZN33_INTERNAL_d182b99d_7_main_cu_main6thrust20THRUST_200400_750_NS6system3cpp3parE    R_CUDA_64
0x90    _ZN33_INTERNAL_d182b99d_7_main_cu_main6thrust20THRUST_200400_750_NS6system6detail10sequential3seqE    R_CUDA_64
0x88    _ZN33_INTERNAL_d182b99d_7_main_cu_main4cuda3std6ranges3__45__cpo8distanceE    R_CUDA_64
0x80    _ZN33_INTERNAL_d182b99d_7_main_cu_main4cuda3std6ranges3__45__cpo5ssizeE    R_CUDA_64
0x78    _ZN33_INTERNAL_d182b99d_7_main_cu_main4cuda3std6ranges3__45__cpo4sizeE    R_CUDA_64
0x70    _ZN33_INTERNAL_d182b99d_7_main_cu_main4cuda3std6ranges3__45__cpo5cdataE    R_CUDA_64
0x68    _ZN33_INTERNAL_d182b99d_7_main_cu_main4cuda3std6ranges3__45__cpo4dataE    R_CUDA_64
0x60    _ZN33_INTERNAL_d182b99d_7_main_cu_main4cuda3std6ranges3__45__cpo4prevE    R_CUDA_64
0x58    _ZN33_INTERNAL_d182b99d_7_main_cu_main4cuda3std6ranges3__45__cpo4nextE    R_CUDA_64
0x50    _ZN33_INTERNAL_d182b99d_7_main_cu_main4cuda3std6ranges3__45__cpo9iter_swapE    R_CUDA_64
0x48    _ZN33_INTERNAL_d182b99d_7_main_cu_main4cuda3std6ranges3__45__cpo4cendE    R_CUDA_64
0x40    _ZN33_INTERNAL_d182b99d_7_main_cu_main4cuda3std6ranges3__45__cpo6cbeginE    R_CUDA_64
0x38    _ZN33_INTERNAL_d182b99d_7_main_cu_main4cuda3std6ranges3__45__cpo3endE    R_CUDA_64
0x30    _ZN33_INTERNAL_d182b99d_7_main_cu_main4cuda3std6ranges3__45__cpo5beginE    R_CUDA_64
0x28    _ZN33_INTERNAL_d182b99d_7_main_cu_main4cuda3std6ranges3__45__cpo7advanceE    R_CUDA_64
0x20    _ZN33_INTERNAL_d182b99d_7_main_cu_main4cuda3std6ranges3__45__cpo9iter_moveE    R_CUDA_64
0x18    _ZN33_INTERNAL_d182b99d_7_main_cu_main4cuda3std6ranges3__45__cpo4swapE    R_CUDA_64
0x10    _ZN33_INTERNAL_d182b99d_7_main_cu_main4cuda3std3__420unreachable_sentinelE    R_CUDA_64
0x8    _ZN33_INTERNAL_d182b99d_7_main_cu_main4cuda3std3__48in_placeE    R_CUDA_64
0x0    _ZN33_INTERNAL_d182b99d_7_main_cu_main4cuda3std3__435_GLOBAL__N__d182b99d_7_main_cu_main6ignoreE    R_CUDA_64


.nv.constant0._ZN3cub17CUB_200400_750_NS6detail8for_each13static_kernelINS2_12policy_hub_t12policy_350_tElN6thrust20THRUST_200400_750_NS8cuda_cub11__transform17unary_transform_fIPN4cuda3std3__45tupleIJNSE_IJ6vec_2dIfElEEESH_EEESJ_NS9_14no_stencil_tagENS7_8identityISI_EENS9_21always_true_predicateEEEEEvT0_T1_
0x00000000 0x00000000 0x00000000 0x00000000
0x00000000 0x00000000 0x00000000 0x00000000
0x00000000 0x00000000 0x00000000 0x00000000
0x00000000 0x00000000 0x00000000 0x00000000
0x00000000 0x00000000 0x00000000 0x00000000
0x00000000 0x00000000 0x00000000 0x00000000
0x00000000 0x00000000 0x00000000 0x00000000
0x00000000 0x00000000 0x00000000 0x00000000
0x00000000 0x00000000 0x00000000 0x00000000
0x00000000 0x00000000 0x00000000 0x00000000
0x00000000 0x00000000 0x00000000 0x00000000
0x00000000 0x00000000 0x00000000 0x00000000
0x00000000 0x00000000 0x00000000 0x00000000
0x00000000 0x00000000 0x00000000 0x00000000
0x00000000 0x00000000 0x00000000 0x00000000
0x00000000 0x00000000 0x00000000 0x00000000
0x00000000 0x00000000 0x00000000 0x00000000
0x00000000 0x00000000 0x00000000 0x00000000
0x00000000 0x00000000 0x00000000 0x00000000
0x00000000 0x00000000 0x00000000 0x00000000
0x00000000 0x00000000 0x00000000 0x00000000
0x00000000 0x00000000 0x00000000 0x00000000
0x00000000 0x00000000 0x00000000 0x00000000
0x00000000 0x00000000 0x00000000 0x00000000



.nv.constant0._ZN3cub17CUB_200400_750_NS6detail8for_each13static_kernelINS2_12policy_hub_t12policy_350_tElN6thrust20THRUST_200400_750_NS8cuda_cub20__uninitialized_copy7functorIPN4cuda3std3__45tupleIJNSE_IJ6vec_2dIfElEEESH_EEENS7_7pointerISI_NS8_5par_tENS7_11use_defaultESM_EEEEEEvT0_T1_
0x00000000 0x00000000 0x00000000 0x00000000
0x00000000 0x00000000 0x00000000 0x00000000
0x00000000 0x00000000 0x00000000 0x00000000
0x00000000 0x00000000 0x00000000 0x00000000
0x00000000 0x00000000 0x00000000 0x00000000
0x00000000 0x00000000 0x00000000 0x00000000
0x00000000 0x00000000 0x00000000 0x00000000
0x00000000 0x00000000 0x00000000 0x00000000
0x00000000 0x00000000 0x00000000 0x00000000
0x00000000 0x00000000 0x00000000 0x00000000
0x00000000 0x00000000 0x00000000 0x00000000
0x00000000 0x00000000 0x00000000 0x00000000
0x00000000 0x00000000 0x00000000 0x00000000
0x00000000 0x00000000 0x00000000 0x00000000
0x00000000 0x00000000 0x00000000 0x00000000
0x00000000 0x00000000 0x00000000 0x00000000
0x00000000 0x00000000 0x00000000 0x00000000
0x00000000 0x00000000 0x00000000 0x00000000
0x00000000 0x00000000 0x00000000 0x00000000
0x00000000 0x00000000 0x00000000 0x00000000
0x00000000 0x00000000 0x00000000 0x00000000
0x00000000 0x00000000 0x00000000 0x00000000
0x00000000 0x00000000 0x00000000 0x00000000
0x00000000 0x00000000 


.nv.constant0._ZN3cub17CUB_200400_750_NS6detail8for_each13static_kernelINS2_12policy_hub_t12policy_350_tElNS2_12op_wrapper_tIlN6thrust20THRUST_200400_750_NS6detail23allocator_traits_detail5gozerENS8_7pointerIN4cuda3std3__45tupleIJNSG_IJ6vec_2dIfElEEESJ_EEENS8_8cuda_cub5par_tENS8_11use_defaultESN_EEEEEEvT0_T1_
0x00000000 0x00000000 0x00000000 0x00000000
0x00000000 0x00000000 0x00000000 0x00000000
0x00000000 0x00000000 0x00000000 0x00000000
0x00000000 0x00000000 0x00000000 0x00000000
0x00000000 0x00000000 0x00000000 0x00000000
0x00000000 0x00000000 0x00000000 0x00000000
0x00000000 0x00000000 0x00000000 0x00000000
0x00000000 0x00000000 0x00000000 0x00000000
0x00000000 0x00000000 0x00000000 0x00000000
0x00000000 0x00000000 0x00000000 0x00000000
0x00000000 0x00000000 0x00000000 0x00000000
0x00000000 0x00000000 0x00000000 0x00000000
0x00000000 0x00000000 0x00000000 0x00000000
0x00000000 0x00000000 0x00000000 0x00000000
0x00000000 0x00000000 0x00000000 0x00000000
0x00000000 0x00000000 0x00000000 0x00000000
0x00000000 0x00000000 0x00000000 0x00000000
0x00000000 0x00000000 0x00000000 0x00000000
0x00000000 0x00000000 0x00000000 0x00000000
0x00000000 0x00000000 0x00000000 0x00000000
0x00000000 0x00000000 0x00000000 0x00000000
0x00000000 0x00000000 0x00000000 0x00000000
0x00000000 0x00000000 0x00000000 0x00000000
0x00000000 0x00000000 


.nv.constant0._ZN3cub17CUB_200400_750_NS6detail8for_each13static_kernelINS2_12policy_hub_t12policy_350_tEmNS2_12op_wrapper_tImN6thrust20THRUST_200400_750_NS6detail23allocator_traits_detail24construct1_via_allocatorINS9_18no_throw_allocatorINS9_19temporary_allocatorIN4cuda3std3__45tupleIJNSH_IJ6vec_2dIfElEEESK_EEENS8_8cuda_cub5par_tEEEEEEENS8_7pointerISL_SN_NS8_11use_defaultESS_EEEEEEvT0_T1_
0x00000000 0x00000000 0x00000000 0x00000000
0x00000000 0x00000000 0x00000000 0x00000000
0x00000000 0x00000000 0x00000000 0x00000000
0x00000000 0x00000000 0x00000000 0x00000000
0x00000000 0x00000000 0x00000000 0x00000000
0x00000000 0x00000000 0x00000000 0x00000000
0x00000000 0x00000000 0x00000000 0x00000000
0x00000000 0x00000000 0x00000000 0x00000000
0x00000000 0x00000000 0x00000000 0x00000000
0x00000000 0x00000000 0x00000000 0x00000000
0x00000000 0x00000000 0x00000000 0x00000000
0x00000000 0x00000000 0x00000000 0x00000000
0x00000000 0x00000000 0x00000000 0x00000000
0x00000000 0x00000000 0x00000000 0x00000000
0x00000000 0x00000000 0x00000000 0x00000000
0x00000000 0x00000000 0x00000000 0x00000000
0x00000000 0x00000000 0x00000000 0x00000000
0x00000000 0x00000000 0x00000000 0x00000000
0x00000000 0x00000000 0x00000000 0x00000000
0x00000000 0x00000000 0x00000000 0x00000000
0x00000000 0x00000000 0x00000000 0x00000000
0x00000000 0x00000000 0x00000000 0x00000000
0x00000000 0x00000000 0x00000000 0x00000000
0x00000000 0x00000000 


.nv.constant0._ZN3cub17CUB_200400_750_NS6detail8for_each13static_kernelINS2_12policy_hub_t12policy_350_tElN6thrust20THRUST_200400_750_NS8cuda_cub11__transform17unary_transform_fIPN4cuda3std3__45tupleIJ6vec_2dIfElEEESI_NS9_14no_stencil_tagENS7_8identityISH_EENS9_21always_true_predicateEEEEEvT0_T1_
0x00000000 0x00000000 0x00000000 0x00000000
0x00000000 0x00000000 0x00000000 0x00000000
0x00000000 0x00000000 0x00000000 0x00000000
0x00000000 0x00000000 0x00000000 0x00000000
0x00000000 0x00000000 0x00000000 0x00000000
0x00000000 0x00000000 0x00000000 0x00000000
0x00000000 0x00000000 0x00000000 0x00000000
0x00000000 0x00000000 0x00000000 0x00000000
0x00000000 0x00000000 0x00000000 0x00000000
0x00000000 0x00000000 0x00000000 0x00000000
0x00000000 0x00000000 0x00000000 0x00000000
0x00000000 0x00000000 0x00000000 0x00000000
0x00000000 0x00000000 0x00000000 0x00000000
0x00000000 0x00000000 0x00000000 0x00000000
0x00000000 0x00000000 0x00000000 0x00000000
0x00000000 0x00000000 0x00000000 0x00000000
0x00000000 0x00000000 0x00000000 0x00000000
0x00000000 0x00000000 0x00000000 0x00000000
0x00000000 0x00000000 0x00000000 0x00000000
0x00000000 0x00000000 0x00000000 0x00000000
0x00000000 0x00000000 0x00000000 0x00000000
0x00000000 0x00000000 0x00000000 0x00000000
0x00000000 0x00000000 0x00000000 0x00000000
0x00000000 0x00000000 0x00000000 0x00000000



.nv.constant0._ZN3cub17CUB_200400_750_NS6detail8for_each13static_kernelINS2_12policy_hub_t12policy_350_tElN6thrust20THRUST_200400_750_NS8cuda_cub20__uninitialized_copy7functorIPN4cuda3std3__45tupleIJ6vec_2dIfElEEENS7_7pointerISH_NS8_5par_tENS7_11use_defaultESL_EEEEEEvT0_T1_
0x00000000 0x00000000 0x00000000 0x00000000
0x00000000 0x00000000 0x00000000 0x00000000
0x00000000 0x00000000 0x00000000 0x00000000
0x00000000 0x00000000 0x00000000 0x00000000
0x00000000 0x00000000 0x00000000 0x00000000
0x00000000 0x00000000 0x00000000 0x00000000
0x00000000 0x00000000 0x00000000 0x00000000
0x00000000 0x00000000 0x00000000 0x00000000
0x00000000 0x00000000 0x00000000 0x00000000
0x00000000 0x00000000 0x00000000 0x00000000
0x00000000 0x00000000 0x00000000 0x00000000
0x00000000 0x00000000 0x00000000 0x00000000
0x00000000 0x00000000 0x00000000 0x00000000
0x00000000 0x00000000 0x00000000 0x00000000
0x00000000 0x00000000 0x00000000 0x00000000
0x00000000 0x00000000 0x00000000 0x00000000
0x00000000 0x00000000 0x00000000 0x00000000
0x00000000 0x00000000 0x00000000 0x00000000
0x00000000 0x00000000 0x00000000 0x00000000
0x00000000 0x00000000 0x00000000 0x00000000
0x00000000 0x00000000 0x00000000 0x00000000
0x00000000 0x00000000 0x00000000 0x00000000
0x00000000 0x00000000 0x00000000 0x00000000
0x00000000 0x00000000 


.nv.constant0._ZN3cub17CUB_200400_750_NS6detail8for_each13static_kernelINS2_12policy_hub_t12policy_350_tElNS2_12op_wrapper_tIlN6thrust20THRUST_200400_750_NS6detail23allocator_traits_detail5gozerENS8_7pointerIN4cuda3std3__45tupleIJ6vec_2dIfElEEENS8_8cuda_cub5par_tENS8_11use_defaultESM_EEEEEEvT0_T1_
0x00000000 0x00000000 0x00000000 0x00000000
0x00000000 0x00000000 0x00000000 0x00000000
0x00000000 0x00000000 0x00000000 0x00000000
0x00000000 0x00000000 0x00000000 0x00000000
0x00000000 0x00000000 0x00000000 0x00000000
0x00000000 0x00000000 0x00000000 0x00000000
0x00000000 0x00000000 0x00000000 0x00000000
0x00000000 0x00000000 0x00000000 0x00000000
0x00000000 0x00000000 0x00000000 0x00000000
0x00000000 0x00000000 0x00000000 0x00000000
0x00000000 0x00000000 0x00000000 0x00000000
0x00000000 0x00000000 0x00000000 0x00000000
0x00000000 0x00000000 0x00000000 0x00000000
0x00000000 0x00000000 0x00000000 0x00000000
0x00000000 0x00000000 0x00000000 0x00000000
0x00000000 0x00000000 0x00000000 0x00000000
0x00000000 0x00000000 0x00000000 0x00000000
0x00000000 0x00000000 0x00000000 0x00000000
0x00000000 0x00000000 0x00000000 0x00000000
0x00000000 0x00000000 0x00000000 0x00000000
0x00000000 0x00000000 0x00000000 0x00000000
0x00000000 0x00000000 0x00000000 0x00000000
0x00000000 0x00000000 0x00000000 0x00000000
0x00000000 0x00000000 


.nv.constant0._ZN3cub17CUB_200400_750_NS6detail8for_each13static_kernelINS2_12policy_hub_t12policy_350_tEmNS2_12op_wrapper_tImN6thrust20THRUST_200400_750_NS6detail23allocator_traits_detail24construct1_via_allocatorINS9_18no_throw_allocatorINS9_19temporary_allocatorIN4cuda3std3__45tupleIJ6vec_2dIfElEEENS8_8cuda_cub5par_tEEEEEEENS8_7pointerISK_SM_NS8_11use_defaultESR_EEEEEEvT0_T1_
0x00000000 0x00000000 0x00000000 0x00000000
0x00000000 0x00000000 0x00000000 0x00000000
0x00000000 0x00000000 0x00000000 0x00000000
0x00000000 0x00000000 0x00000000 0x00000000
0x00000000 0x00000000 0x00000000 0x00000000
0x00000000 0x00000000 0x00000000 0x00000000
0x00000000 0x00000000 0x00000000 0x00000000
0x00000000 0x00000000 0x00000000 0x00000000
0x00000000 0x00000000 0x00000000 0x00000000
0x00000000 0x00000000 0x00000000 0x00000000
0x00000000 0x00000000 0x00000000 0x00000000
0x00000000 0x00000000 0x00000000 0x00000000
0x00000000 0x00000000 0x00000000 0x00000000
0x00000000 0x00000000 0x00000000 0x00000000
0x00000000 0x00000000 0x00000000 0x00000000
0x00000000 0x00000000 0x00000000 0x00000000
0x00000000 0x00000000 0x00000000 0x00000000
0x00000000 0x00000000 0x00000000 0x00000000
0x00000000 0x00000000 0x00000000 0x00000000
0x00000000 0x00000000 0x00000000 0x00000000
0x00000000 0x00000000 0x00000000 0x00000000
0x00000000 0x00000000 0x00000000 0x00000000
0x00000000 0x00000000 0x00000000 0x00000000
0x00000000 0x00000000 


.nv.constant0._ZN3cub17CUB_200400_750_NS11EmptyKernelIvEEvv
0x00000000 0x00000000 0x00000000 0x00000000
0x00000000 0x00000000 0x00000000 0x00000000
0x00000000 0x00000000 0x00000000 0x00000000
0x00000000 0x00000000 0x00000000 0x00000000
0x00000000 0x00000000 0x00000000 0x00000000
0x00000000 0x00000000 0x00000000 0x00000000
0x00000000 0x00000000 0x00000000 0x00000000
0x00000000 0x00000000 0x00000000 0x00000000
0x00000000 0x00000000 0x00000000 0x00000000
0x00000000 0x00000000 0x00000000 0x00000000
0x00000000 0x00000000 0x00000000 0x00000000
0x00000000 0x00000000 0x00000000 0x00000000
0x00000000 0x00000000 0x00000000 0x00000000
0x00000000 0x00000000 0x00000000 0x00000000
0x00000000 0x00000000 0x00000000 0x00000000
0x00000000 0x00000000 0x00000000 0x00000000
0x00000000 0x00000000 0x00000000 0x00000000
0x00000000 0x00000000 0x00000000 0x00000000
0x00000000 0x00000000 0x00000000 0x00000000
0x00000000 0x00000000 0x00000000 0x00000000
0x00000000 0x00000000 0x00000000 0x00000000
0x00000000 0x00000000 0x00000000 0x00000000



.nv.constant0._ZN6thrust20THRUST_200400_750_NS8cuda_cub4core13_kernel_agentINS1_8__reduce11ReduceAgentIPN4cuda3std3__45tupleIJNS9_IJ6vec_2dIfElEEESC_EEESE_SD_lNS1_9__extrema12arg_minmax_fISB_l7compareIfEEEEESE_SE_iSJ_EEvT0_T1_T2_T3_
0x00000000 0x00000000 0x00000000 0x00000000
0x00000000 0x00000000 0x00000000 0x00000000
0x00000000 0x00000000 0x00000000 0x00000000
0x00000000 0x00000000 0x00000000 0x00000000
0x00000000 0x00000000 0x00000000 0x00000000
0x00000000 0x00000000 0x00000000 0x00000000
0x00000000 0x00000000 0x00000000 0x00000000
0x00000000 0x00000000 0x00000000 0x00000000
0x00000000 0x00000000 0x00000000 0x00000000
0x00000000 0x00000000 0x00000000 0x00000000
0x00000000 0x00000000 0x00000000 0x00000000
0x00000000 0x00000000 0x00000000 0x00000000
0x00000000 0x00000000 0x00000000 0x00000000
0x00000000 0x00000000 0x00000000 0x00000000
0x00000000 0x00000000 0x00000000 0x00000000
0x00000000 0x00000000 0x00000000 0x00000000
0x00000000 0x00000000 0x00000000 0x00000000
0x00000000 0x00000000 0x00000000 0x00000000
0x00000000 0x00000000 0x00000000 0x00000000
0x00000000 0x00000000 0x00000000 0x00000000
0x00000000 0x00000000 0x00000000 0x00000000
0x00000000 0x00000000 0x00000000 0x00000000
0x00000000 0x00000000 0x00000000 0x00000000
0x00000000 0x00 


.nv.constant2._ZN6thrust20THRUST_200400_750_NS8cuda_cub4core13_kernel_agentINS1_8__reduce11ReduceAgentINS1_26transform_input_iterator_tIN4cuda3std3__45tupleIJNSA_IJ6vec_2dIfElEEESD_EEENS0_12zip_iteratorINSA_IJNS0_6detail15normal_iteratorINS0_10device_ptrISC_EEEENS1_19counting_iterator_tIlEEEEEEENS1_9__extrema12arg_minmax_fISC_l7compareIfEE15duplicate_tupleEEEPSE_SE_lST_EESV_SW_lN3cub17CUB_200400_750_NS13GridEvenShareIlEENSZ_9GridQueueIyEEST_EEvT0_T1_T2_T3_T4_T5_
0x00000008 0x00000000 


.nv.constant0._ZN6thrust20THRUST_200400_750_NS8cuda_cub4core13_kernel_agentINS1_8__reduce11ReduceAgentINS1_26transform_input_iterator_tIN4cuda3std3__45tupleIJNSA_IJ6vec_2dIfElEEESD_EEENS0_12zip_iteratorINSA_IJNS0_6detail15normal_iteratorINS0_10device_ptrISC_EEEENS1_19counting_iterator_tIlEEEEEEENS1_9__extrema12arg_minmax_fISC_l7compareIfEE15duplicate_tupleEEEPSE_SE_lST_EESV_SW_lN3cub17CUB_200400_750_NS13GridEvenShareIlEENSZ_9GridQueueIyEEST_EEvT0_T1_T2_T3_T4_T5_
0x00000000 0x00000000 0x00000000 0x00000000
0x00000000 0x00000000 0x00000000 0x00000000
0x00000000 0x00000000 0x00000000 0x00000000
0x00000000 0x00000000 0x00000000 0x00000000
0x00000000 0x00000000 0x00000000 0x00000000
0x00000000 0x00000000 0x00000000 0x00000000
0x00000000 0x00000000 0x00000000 0x00000000
0x00000000 0x00000000 0x00000000 0x00000000
0x00000000 0x00000000 0x00000000 0x00000000
0x00000000 0x00000000 0x00000000 0x00000000
0x00000000 0x00000000 0x00000000 0x00000000
0x00000000 0x00000000 0x00000000 0x00000000
0x00000000 0x00000000 0x00000000 0x00000000
0x00000000 0x00000000 0x00000000 0x00000000
0x00000000 0x00000000 0x00000000 0x00000000
0x00000000 0x00000000 0x00000000 0x00000000
0x00000000 0x00000000 0x00000000 0x00000000
0x00000000 0x00000000 0x00000000 0x00000000
0x00000000 0x00000000 0x00000000 0x00000000
0x00000000 0x00000000 0x00000000 0x00000000
0x00000000 0x00000000 0x00000000 0x00000000
0x00000000 0x00000000 0x00000000 0x00000000
0x00000000 0x00000000 0x00000000 0x00000000
0x00000000 0x00000000 0x00000000 0x00000000
0x00000000 0x00000000 0x00000000 0x00000000
0x00000000 0x00000000 0x00000000 0x00000000
0x00000000 0x00000000 0x00000000 0x00000000
0x00000000 0x00000000 0x00000000 0x00000000
0x00000000 0x00000000 0x00000000 0x00000000
0x00000000 0x00000000 0x00 


.nv.constant0._ZN6thrust20THRUST_200400_750_NS8cuda_cub4core13_kernel_agentINS1_8__reduce11ReduceAgentINS1_26transform_input_iterator_tIN4cuda3std3__45tupleIJNSA_IJ6vec_2dIfElEEESD_EEENS0_12zip_iteratorINSA_IJNS0_6detail15normal_iteratorINS0_10device_ptrISC_EEEENS1_19counting_iterator_tIlEEEEEEENS1_9__extrema12arg_minmax_fISC_l7compareIfEE15duplicate_tupleEEEPSE_SE_lST_EESV_SW_lST_EEvT0_T1_T2_T3_
0x00000000 0x00000000 0x00000000 0x00000000
0x00000000 0x00000000 0x00000000 0x00000000
0x00000000 0x00000000 0x00000000 0x00000000
0x00000000 0x00000000 0x00000000 0x00000000
0x00000000 0x00000000 0x00000000 0x00000000
0x00000000 0x00000000 0x00000000 0x00000000
0x00000000 0x00000000 0x00000000 0x00000000
0x00000000 0x00000000 0x00000000 0x00000000
0x00000000 0x00000000 0x00000000 0x00000000
0x00000000 0x00000000 0x00000000 0x00000000
0x00000000 0x00000000 0x00000000 0x00000000
0x00000000 0x00000000 0x00000000 0x00000000
0x00000000 0x00000000 0x00000000 0x00000000
0x00000000 0x00000000 0x00000000 0x00000000
0x00000000 0x00000000 0x00000000 0x00000000
0x00000000 0x00000000 0x00000000 0x00000000
0x00000000 0x00000000 0x00000000 0x00000000
0x00000000 0x00000000 0x00000000 0x00000000
0x00000000 0x00000000 0x00000000 0x00000000
0x00000000 0x00000000 0x00000000 0x00000000
0x00000000 0x00000000 0x00000000 0x00000000
0x00000000 0x00000000 0x00000000 0x00000000
0x00000000 0x00000000 0x00000000 0x00000000
0x00000000 0x00000000 0x00000000 0x00000000
0x00000000 0x00000000 0x00 


.nv.constant0._ZN6thrust20THRUST_200400_750_NS8cuda_cub4core13_kernel_agentINS1_8__reduce11ReduceAgentIPN4cuda3std3__45tupleIJNS9_IJ6vec_2dIfElEEESC_EEESE_SD_iNS1_9__extrema12arg_minmax_fISB_l7compareIfEEEEESE_SE_iSJ_EEvT0_T1_T2_T3_
0x00000000 0x00000000 0x00000000 0x00000000
0x00000000 0x00000000 0x00000000 0x00000000
0x00000000 0x00000000 0x00000000 0x00000000
0x00000000 0x00000000 0x00000000 0x00000000
0x00000000 0x00000000 0x00000000 0x00000000
0x00000000 0x00000000 0x00000000 0x00000000
0x00000000 0x00000000 0x00000000 0x00000000
0x00000000 0x00000000 0x00000000 0x00000000
0x00000000 0x00000000 0x00000000 0x00000000
0x00000000 0x00000000 0x00000000 0x00000000
0x00000000 0x00000000 0x00000000 0x00000000
0x00000000 0x00000000 0x00000000 0x00000000
0x00000000 0x00000000 0x00000000 0x00000000
0x00000000 0x00000000 0x00000000 0x00000000
0x00000000 0x00000000 0x00000000 0x00000000
0x00000000 0x00000000 0x00000000 0x00000000
0x00000000 0x00000000 0x00000000 0x00000000
0x00000000 0x00000000 0x00000000 0x00000000
0x00000000 0x00000000 0x00000000 0x00000000
0x00000000 0x00000000 0x00000000 0x00000000
0x00000000 0x00000000 0x00000000 0x00000000
0x00000000 0x00000000 0x00000000 0x00000000
0x00000000 0x00000000 0x00000000 0x00000000
0x00000000 0x00 


.nv.constant2._ZN6thrust20THRUST_200400_750_NS8cuda_cub4core13_kernel_agentINS1_8__reduce11ReduceAgentINS1_26transform_input_iterator_tIN4cuda3std3__45tupleIJNSA_IJ6vec_2dIfElEEESD_EEENS0_12zip_iteratorINSA_IJNS0_6detail15normal_iteratorINS0_10device_ptrISC_EEEENS1_19counting_iterator_tIlEEEEEEENS1_9__extrema12arg_minmax_fISC_l7compareIfEE15duplicate_tupleEEEPSE_SE_iST_EESV_SW_iN3cub17CUB_200400_750_NS13GridEvenShareIiEENSZ_9GridQueueIjEEST_EEvT0_T1_T2_T3_T4_T5_
0x00000004 0x00000000 


.nv.constant0._ZN6thrust20THRUST_200400_750_NS8cuda_cub4core13_kernel_agentINS1_8__reduce11ReduceAgentINS1_26transform_input_iterator_tIN4cuda3std3__45tupleIJNSA_IJ6vec_2dIfElEEESD_EEENS0_12zip_iteratorINSA_IJNS0_6detail15normal_iteratorINS0_10device_ptrISC_EEEENS1_19counting_iterator_tIlEEEEEEENS1_9__extrema12arg_minmax_fISC_l7compareIfEE15duplicate_tupleEEEPSE_SE_iST_EESV_SW_iN3cub17CUB_200400_750_NS13GridEvenShareIiEENSZ_9GridQueueIjEEST_EEvT0_T1_T2_T3_T4_T5_
0x00000000 0x00000000 0x00000000 0x00000000
0x00000000 0x00000000 0x00000000 0x00000000
0x00000000 0x00000000 0x00000000 0x00000000
0x00000000 0x00000000 0x00000000 0x00000000
0x00000000 0x00000000 0x00000000 0x00000000
0x00000000 0x00000000 0x00000000 0x00000000
0x00000000 0x00000000 0x00000000 0x00000000
0x00000000 0x00000000 0x00000000 0x00000000
0x00000000 0x00000000 0x00000000 0x00000000
0x00000000 0x00000000 0x00000000 0x00000000
0x00000000 0x00000000 0x00000000 0x00000000
0x00000000 0x00000000 0x00000000 0x00000000
0x00000000 0x00000000 0x00000000 0x00000000
0x00000000 0x00000000 0x00000000 0x00000000
0x00000000 0x00000000 0x00000000 0x00000000
0x00000000 0x00000000 0x00000000 0x00000000
0x00000000 0x00000000 0x00000000 0x00000000
0x00000000 0x00000000 0x00000000 0x00000000
0x00000000 0x00000000 0x00000000 0x00000000
0x00000000 0x00000000 0x00000000 0x00000000
0x00000000 0x00000000 0x00000000 0x00000000
0x00000000 0x00000000 0x00000000 0x00000000
0x00000000 0x00000000 0x00000000 0x00000000
0x00000000 0x00000000 0x00000000 0x00000000
0x00000000 0x00000000 0x00000000 0x00000000
0x00000000 0x00000000 0x00000000 0x00000000
0x00000000 0x00000000 0x00000000 0x00000000
0x00000000 0x00000000 0x00 


.nv.constant0._ZN6thrust20THRUST_200400_750_NS8cuda_cub4core13_kernel_agentINS1_8__reduce11ReduceAgentINS1_26transform_input_iterator_tIN4cuda3std3__45tupleIJNSA_IJ6vec_2dIfElEEESD_EEENS0_12zip_iteratorINSA_IJNS0_6detail15normal_iteratorINS0_10device_ptrISC_EEEENS1_19counting_iterator_tIlEEEEEEENS1_9__extrema12arg_minmax_fISC_l7compareIfEE15duplicate_tupleEEEPSE_SE_iST_EESV_SW_iST_EEvT0_T1_T2_T3_
0x00000000 0x00000000 0x00000000 0x00000000
0x00000000 0x00000000 0x00000000 0x00000000
0x00000000 0x00000000 0x00000000 0x00000000
0x00000000 0x00000000 0x00000000 0x00000000
0x00000000 0x00000000 0x00000000 0x00000000
0x00000000 0x00000000 0x00000000 0x00000000
0x00000000 0x00000000 0x00000000 0x00000000
0x00000000 0x00000000 0x00000000 0x00000000
0x00000000 0x00000000 0x00000000 0x00000000
0x00000000 0x00000000 0x00000000 0x00000000
0x00000000 0x00000000 0x00000000 0x00000000
0x00000000 0x00000000 0x00000000 0x00000000
0x00000000 0x00000000 0x00000000 0x00000000
0x00000000 0x00000000 0x00000000 0x00000000
0x00000000 0x00000000 0x00000000 0x00000000
0x00000000 0x00000000 0x00000000 0x00000000
0x00000000 0x00000000 0x00000000 0x00000000
0x00000000 0x00000000 0x00000000 0x00000000
0x00000000 0x00000000 0x00000000 0x00000000
0x00000000 0x00000000 0x00000000 0x00000000
0x00000000 0x00000000 0x00000000 0x00000000
0x00000000 0x00000000 0x00000000 0x00000000
0x00000000 0x00000000 0x00000000 0x00000000
0x00000000 0x00000000 0x00000000 0x00000000
0x00000000 0x00 


.nv.constant0._ZN6thrust20THRUST_200400_750_NS8cuda_cub4core13_kernel_agentINS1_8__reduce11ReduceAgentIPN4cuda3std3__45tupleIJ6vec_2dIfElEEESD_SC_lNS1_9__extrema9arg_max_fISB_l7compareIfEEEEESD_SD_iSI_EEvT0_T1_T2_T3_
0x00000000 0x00000000 0x00000000 0x00000000
0x00000000 0x00000000 0x00000000 0x00000000
0x00000000 0x00000000 0x00000000 0x00000000
0x00000000 0x00000000 0x00000000 0x00000000
0x00000000 0x00000000 0x00000000 0x00000000
0x00000000 0x00000000 0x00000000 0x00000000
0x00000000 0x00000000 0x00000000 0x00000000
0x00000000 0x00000000 0x00000000 0x00000000
0x00000000 0x00000000 0x00000000 0x00000000
0x00000000 0x00000000 0x00000000 0x00000000
0x00000000 0x00000000 0x00000000 0x00000000
0x00000000 0x00000000 0x00000000 0x00000000
0x00000000 0x00000000 0x00000000 0x00000000
0x00000000 0x00000000 0x00000000 0x00000000
0x00000000 0x00000000 0x00000000 0x00000000
0x00000000 0x00000000 0x00000000 0x00000000
0x00000000 0x00000000 0x00000000 0x00000000
0x00000000 0x00000000 0x00000000 0x00000000
0x00000000 0x00000000 0x00000000 0x00000000
0x00000000 0x00000000 0x00000000 0x00000000
0x00000000 0x00000000 0x00000000 0x00000000
0x00000000 0x00000000 0x00000000 0x00000000
0x00000000 0x00000000 0x00000000 0x00000000
0x00000000 0x00 


.nv.constant2._ZN6thrust20THRUST_200400_750_NS8cuda_cub4core13_kernel_agentINS1_8__reduce11ReduceAgentINS0_12zip_iteratorIN4cuda3std3__45tupleIJNS0_6detail15normal_iteratorINS0_10device_ptrI6vec_2dIfEEEEENS1_19counting_iterator_tIlEEEEEEEPNSA_IJSF_lEEESM_lNS1_9__extrema9arg_max_fISF_l7compareIfEEEEESL_SN_lN3cub17CUB_200400_750_NS13GridEvenShareIlEENSV_9GridQueueIyEESS_EEvT0_T1_T2_T3_T4_T5_
0x00000008 0x00000000 


.nv.constant0._ZN6thrust20THRUST_200400_750_NS8cuda_cub4core13_kernel_agentINS1_8__reduce11ReduceAgentINS0_12zip_iteratorIN4cuda3std3__45tupleIJNS0_6detail15normal_iteratorINS0_10device_ptrI6vec_2dIfEEEEENS1_19counting_iterator_tIlEEEEEEEPNSA_IJSF_lEEESM_lNS1_9__extrema9arg_max_fISF_l7compareIfEEEEESL_SN_lN3cub17CUB_200400_750_NS13GridEvenShareIlEENSV_9GridQueueIyEESS_EEvT0_T1_T2_T3_T4_T5_
0x00000000 0x00000000 0x00000000 0x00000000
0x00000000 0x00000000 0x00000000 0x00000000
0x00000000 0x00000000 0x00000000 0x00000000
0x00000000 0x00000000 0x00000000 0x00000000
0x00000000 0x00000000 0x00000000 0x00000000
0x00000000 0x00000000 0x00000000 0x00000000
0x00000000 0x00000000 0x00000000 0x00000000
0x00000000 0x00000000 0x00000000 0x00000000
0x00000000 0x00000000 0x00000000 0x00000000
0x00000000 0x00000000 0x00000000 0x00000000
0x00000000 0x00000000 0x00000000 0x00000000
0x00000000 0x00000000 0x00000000 0x00000000
0x00000000 0x00000000 0x00000000 0x00000000
0x00000000 0x00000000 0x00000000 0x00000000
0x00000000 0x00000000 0x00000000 0x00000000
0x00000000 0x00000000 0x00000000 0x00000000
0x00000000 0x00000000 0x00000000 0x00000000
0x00000000 0x00000000 0x00000000 0x00000000
0x00000000 0x00000000 0x00000000 0x00000000
0x00000000 0x00000000 0x00000000 0x00000000
0x00000000 0x00000000 0x00000000 0x00000000
0x00000000 0x00000000 0x00000000 0x00000000
0x00000000 0x00000000 0x00000000 0x00000000
0x00000000 0x00000000 0x00000000 0x00000000
0x00000000 0x00000000 0x00000000 0x00000000
0x00000000 0x00000000 0x00000000 0x00000000
0x00000000 0x00000000 0x00000000 0x00000000
0x00000000 0x00000000 0x00000000 0x00000000
0x00000000 0x00000000 0x00000000 0x00000000
0x00 


.nv.constant0._ZN6thrust20THRUST_200400_750_NS8cuda_cub4core13_kernel_agentINS1_8__reduce11ReduceAgentINS0_12zip_iteratorIN4cuda3std3__45tupleIJNS0_6detail15normal_iteratorINS0_10device_ptrI6vec_2dIfEEEEENS1_19counting_iterator_tIlEEEEEEEPNSA_IJSF_lEEESM_lNS1_9__extrema9arg_max_fISF_l7compareIfEEEEESL_SN_lSS_EEvT0_T1_T2_T3_
0x00000000 0x00000000 0x00000000 0x00000000
0x00000000 0x00000000 0x00000000 0x00000000
0x00000000 0x00000000 0x00000000 0x00000000
0x00000000 0x00000000 0x00000000 0x00000000
0x00000000 0x00000000 0x00000000 0x00000000
0x00000000 0x00000000 0x00000000 0x00000000
0x00000000 0x00000000 0x00000000 0x00000000
0x00000000 0x00000000 0x00000000 0x00000000
0x00000000 0x00000000 0x00000000 0x00000000
0x00000000 0x00000000 0x00000000 0x00000000
0x00000000 0x00000000 0x00000000 0x00000000
0x00000000 0x00000000 0x00000000 0x00000000
0x00000000 0x00000000 0x00000000 0x00000000
0x00000000 0x00000000 0x00000000 0x00000000
0x00000000 0x00000000 0x00000000 0x00000000
0x00000000 0x00000000 0x00000000 0x00000000
0x00000000 0x00000000 0x00000000 0x00000000
0x00000000 0x00000000 0x00000000 0x00000000
0x00000000 0x00000000 0x00000000 0x00000000
0x00000000 0x00000000 0x00000000 0x00000000
0x00000000 0x00000000 0x00000000 0x00000000
0x00000000 0x00000000 0x00000000 0x00000000
0x00000000 0x00000000 0x00000000 0x00000000
0x00000000 0x00000000 0x00000000 0x00000000
0x00 


.nv.constant0._ZN6thrust20THRUST_200400_750_NS8cuda_cub4core13_kernel_agentINS1_8__reduce11ReduceAgentIPN4cuda3std3__45tupleIJ6vec_2dIfElEEESD_SC_iNS1_9__extrema9arg_max_fISB_l7compareIfEEEEESD_SD_iSI_EEvT0_T1_T2_T3_
0x00000000 0x00000000 0x00000000 0x00000000
0x00000000 0x00000000 0x00000000 0x00000000
0x00000000 0x00000000 0x00000000 0x00000000
0x00000000 0x00000000 0x00000000 0x00000000
0x00000000 0x00000000 0x00000000 0x00000000
0x00000000 0x00000000 0x00000000 0x00000000
0x00000000 0x00000000 0x00000000 0x00000000
0x00000000 0x00000000 0x00000000 0x00000000
0x00000000 0x00000000 0x00000000 0x00000000
0x00000000 0x00000000 0x00000000 0x00000000
0x00000000 0x00000000 0x00000000 0x00000000
0x00000000 0x00000000 0x00000000 0x00000000
0x00000000 0x00000000 0x00000000 0x00000000
0x00000000 0x00000000 0x00000000 0x00000000
0x00000000 0x00000000 0x00000000 0x00000000
0x00000000 0x00000000 0x00000000 0x00000000
0x00000000 0x00000000 0x00000000 0x00000000
0x00000000 0x00000000 0x00000000 0x00000000
0x00000000 0x00000000 0x00000000 0x00000000
0x00000000 0x00000000 0x00000000 0x00000000
0x00000000 0x00000000 0x00000000 0x00000000
0x00000000 0x00000000 0x00000000 0x00000000
0x00000000 0x00000000 0x00000000 0x00000000
0x00000000 0x00 


.nv.constant2._ZN6thrust20THRUST_200400_750_NS8cuda_cub4core13_kernel_agentINS1_8__reduce11ReduceAgentINS0_12zip_iteratorIN4cuda3std3__45tupleIJNS0_6detail15normal_iteratorINS0_10device_ptrI6vec_2dIfEEEEENS1_19counting_iterator_tIlEEEEEEEPNSA_IJSF_lEEESM_iNS1_9__extrema9arg_max_fISF_l7compareIfEEEEESL_SN_iN3cub17CUB_200400_750_NS13GridEvenShareIiEENSV_9GridQueueIjEESS_EEvT0_T1_T2_T3_T4_T5_
0x00000004 0x00000000 


.nv.constant0._ZN6thrust20THRUST_200400_750_NS8cuda_cub4core13_kernel_agentINS1_8__reduce11ReduceAgentINS0_12zip_iteratorIN4cuda3std3__45tupleIJNS0_6detail15normal_iteratorINS0_10device_ptrI6vec_2dIfEEEEENS1_19counting_iterator_tIlEEEEEEEPNSA_IJSF_lEEESM_iNS1_9__extrema9arg_max_fISF_l7compareIfEEEEESL_SN_iN3cub17CUB_200400_750_NS13GridEvenShareIiEENSV_9GridQueueIjEESS_EEvT0_T1_T2_T3_T4_T5_
0x00000000 0x00000000 0x00000000 0x00000000
0x00000000 0x00000000 0x00000000 0x00000000
0x00000000 0x00000000 0x00000000 0x00000000
0x00000000 0x00000000 0x00000000 0x00000000
0x00000000 0x00000000 0x00000000 0x00000000
0x00000000 0x00000000 0x00000000 0x00000000
0x00000000 0x00000000 0x00000000 0x00000000
0x00000000 0x00000000 0x00000000 0x00000000
0x00000000 0x00000000 0x00000000 0x00000000
0x00000000 0x00000000 0x00000000 0x00000000
0x00000000 0x00000000 0x00000000 0x00000000
0x00000000 0x00000000 0x00000000 0x00000000
0x00000000 0x00000000 0x00000000 0x00000000
0x00000000 0x00000000 0x00000000 0x00000000
0x00000000 0x00000000 0x00000000 0x00000000
0x00000000 0x00000000 0x00000000 0x00000000
0x00000000 0x00000000 0x00000000 0x00000000
0x00000000 0x00000000 0x00000000 0x00000000
0x00000000 0x00000000 0x00000000 0x00000000
0x00000000 0x00000000 0x00000000 0x00000000
0x00000000 0x00000000 0x00000000 0x00000000
0x00000000 0x00000000 0x00000000 0x00000000
0x00000000 0x00000000 0x00000000 0x00000000
0x00000000 0x00000000 0x00000000 0x00000000
0x00000000 0x00000000 0x00000000 0x00000000
0x00000000 0x00000000 0x00000000 0x00000000
0x00000000 0x00000000 0x00000000 0x00000000
0x00 


.nv.constant0._ZN6thrust20THRUST_200400_750_NS8cuda_cub4core13_kernel_agentINS1_8__reduce11ReduceAgentINS0_12zip_iteratorIN4cuda3std3__45tupleIJNS0_6detail15normal_iteratorINS0_10device_ptrI6vec_2dIfEEEEENS1_19counting_iterator_tIlEEEEEEEPNSA_IJSF_lEEESM_iNS1_9__extrema9arg_max_fISF_l7compareIfEEEEESL_SN_iSS_EEvT0_T1_T2_T3_
0x00000000 0x00000000 0x00000000 0x00000000
0x00000000 0x00000000 0x00000000 0x00000000
0x00000000 0x00000000 0x00000000 0x00000000
0x00000000 0x00000000 0x00000000 0x00000000
0x00000000 0x00000000 0x00000000 0x00000000
0x00000000 0x00000000 0x00000000 0x00000000
0x00000000 0x00000000 0x00000000 0x00000000
0x00000000 0x00000000 0x00000000 0x00000000
0x00000000 0x00000000 0x00000000 0x00000000
0x00000000 0x00000000 0x00000000 0x00000000
0x00000000 0x00000000 0x00000000 0x00000000
0x00000000 0x00000000 0x00000000 0x00000000
0x00000000 0x00000000 0x00000000 0x00000000
0x00000000 0x00000000 0x00000000 0x00000000
0x00000000 0x00000000 0x00000000 0x00000000
0x00000000 0x00000000 0x00000000 0x00000000
0x00000000 0x00000000 0x00000000 0x00000000
0x00000000 0x00000000 0x00000000 0x00000000
0x00000000 0x00000000 0x00000000 0x00000000
0x00000000 0x00000000 0x00000000 0x00000000
0x00000000 0x00000000 0x00000000 0x00000000
0x00000000 0x00000000 0x00000000 0x00000000
0x00000000 0x00000000 0x00000000 0x00000000
0x00000000 0x00000000 0x00000000 0x00 


.nv.constant0._ZN6thrust20THRUST_200400_750_NS8cuda_cub4core13_kernel_agentINS1_8__reduce11ReduceAgentIPN4cuda3std3__45tupleIJ6vec_2dIfElEEESD_SC_lNS1_9__extrema9arg_min_fISB_l7compareIfEEEEESD_SD_iSI_EEvT0_T1_T2_T3_
0x00000000 0x00000000 0x00000000 0x00000000
0x00000000 0x00000000 0x00000000 0x00000000
0x00000000 0x00000000 0x00000000 0x00000000
0x00000000 0x00000000 0x00000000 0x00000000
0x00000000 0x00000000 0x00000000 0x00000000
0x00000000 0x00000000 0x00000000 0x00000000
0x00000000 0x00000000 0x00000000 0x00000000
0x00000000 0x00000000 0x00000000 0x00000000
0x00000000 0x00000000 0x00000000 0x00000000
0x00000000 0x00000000 0x00000000 0x00000000
0x00000000 0x00000000 0x00000000 0x00000000
0x00000000 0x00000000 0x00000000 0x00000000
0x00000000 0x00000000 0x00000000 0x00000000
0x00000000 0x00000000 0x00000000 0x00000000
0x00000000 0x00000000 0x00000000 0x00000000
0x00000000 0x00000000 0x00000000 0x00000000
0x00000000 0x00000000 0x00000000 0x00000000
0x00000000 0x00000000 0x00000000 0x00000000
0x00000000 0x00000000 0x00000000 0x00000000
0x00000000 0x00000000 0x00000000 0x00000000
0x00000000 0x00000000 0x00000000 0x00000000
0x00000000 0x00000000 0x00000000 0x00000000
0x00000000 0x00000000 0x00000000 0x00000000
0x00000000 0x00 


.nv.constant0._ZN6thrust20THRUST_200400_750_NS8cuda_cub4core13_kernel_agentINS1_8__reduce10DrainAgentIlEEN3cub17CUB_200400_750_NS9GridQueueIyEElEEvT0_T1_
0x00000000 0x00000000 0x00000000 0x00000000
0x00000000 0x00000000 0x00000000 0x00000000
0x00000000 0x00000000 0x00000000 0x00000000
0x00000000 0x00000000 0x00000000 0x00000000
0x00000000 0x00000000 0x00000000 0x00000000
0x00000000 0x00000000 0x00000000 0x00000000
0x00000000 0x00000000 0x00000000 0x00000000
0x00000000 0x00000000 0x00000000 0x00000000
0x00000000 0x00000000 0x00000000 0x00000000
0x00000000 0x00000000 0x00000000 0x00000000
0x00000000 0x00000000 0x00000000 0x00000000
0x00000000 0x00000000 0x00000000 0x00000000
0x00000000 0x00000000 0x00000000 0x00000000
0x00000000 0x00000000 0x00000000 0x00000000
0x00000000 0x00000000 0x00000000 0x00000000
0x00000000 0x00000000 0x00000000 0x00000000
0x00000000 0x00000000 0x00000000 0x00000000
0x00000000 0x00000000 0x00000000 0x00000000
0x00000000 0x00000000 0x00000000 0x00000000
0x00000000 0x00000000 0x00000000 0x00000000
0x00000000 0x00000000 0x00000000 0x00000000
0x00000000 0x00000000 0x00000000 0x00000000
0x00000000 0x00000000 0x00000000 0x00000000



.nv.constant2._ZN6thrust20THRUST_200400_750_NS8cuda_cub4core13_kernel_agentINS1_8__reduce11ReduceAgentINS0_12zip_iteratorIN4cuda3std3__45tupleIJNS0_6detail15normal_iteratorINS0_10device_ptrI6vec_2dIfEEEEENS1_19counting_iterator_tIlEEEEEEEPNSA_IJSF_lEEESM_lNS1_9__extrema9arg_min_fISF_l7compareIfEEEEESL_SN_lN3cub17CUB_200400_750_NS13GridEvenShareIlEENSV_9GridQueueIyEESS_EEvT0_T1_T2_T3_T4_T5_
0x00000008 0x00000000 


.nv.constant0._ZN6thrust20THRUST_200400_750_NS8cuda_cub4core13_kernel_agentINS1_8__reduce11ReduceAgentINS0_12zip_iteratorIN4cuda3std3__45tupleIJNS0_6detail15normal_iteratorINS0_10device_ptrI6vec_2dIfEEEEENS1_19counting_iterator_tIlEEEEEEEPNSA_IJSF_lEEESM_lNS1_9__extrema9arg_min_fISF_l7compareIfEEEEESL_SN_lN3cub17CUB_200400_750_NS13GridEvenShareIlEENSV_9GridQueueIyEESS_EEvT0_T1_T2_T3_T4_T5_
0x00000000 0x00000000 0x00000000 0x00000000
0x00000000 0x00000000 0x00000000 0x00000000
0x00000000 0x00000000 0x00000000 0x00000000
0x00000000 0x00000000 0x00000000 0x00000000
0x00000000 0x00000000 0x00000000 0x00000000
0x00000000 0x00000000 0x00000000 0x00000000
0x00000000 0x00000000 0x00000000 0x00000000
0x00000000 0x00000000 0x00000000 0x00000000
0x00000000 0x00000000 0x00000000 0x00000000
0x00000000 0x00000000 0x00000000 0x00000000
0x00000000 0x00000000 0x00000000 0x00000000
0x00000000 0x00000000 0x00000000 0x00000000
0x00000000 0x00000000 0x00000000 0x00000000
0x00000000 0x00000000 0x00000000 0x00000000
0x00000000 0x00000000 0x00000000 0x00000000
0x00000000 0x00000000 0x00000000 0x00000000
0x00000000 0x00000000 0x00000000 0x00000000
0x00000000 0x00000000 0x00000000 0x00000000
0x00000000 0x00000000 0x00000000 0x00000000
0x00000000 0x00000000 0x00000000 0x00000000
0x00000000 0x00000000 0x00000000 0x00000000
0x00000000 0x00000000 0x00000000 0x00000000
0x00000000 0x00000000 0x00000000 0x00000000
0x00000000 0x00000000 0x00000000 0x00000000
0x00000000 0x00000000 0x00000000 0x00000000
0x00000000 0x00000000 0x00000000 0x00000000
0x00000000 0x00000000 0x00000000 0x00000000
0x00000000 0x00000000 0x00000000 0x00000000
0x00000000 0x00000000 0x00000000 0x00000000
0x00 


.nv.constant0._ZN6thrust20THRUST_200400_750_NS8cuda_cub4core13_kernel_agentINS1_8__reduce11ReduceAgentINS0_12zip_iteratorIN4cuda3std3__45tupleIJNS0_6detail15normal_iteratorINS0_10device_ptrI6vec_2dIfEEEEENS1_19counting_iterator_tIlEEEEEEEPNSA_IJSF_lEEESM_lNS1_9__extrema9arg_min_fISF_l7compareIfEEEEESL_SN_lSS_EEvT0_T1_T2_T3_
0x00000000 0x00000000 0x00000000 0x00000000
0x00000000 0x00000000 0x00000000 0x00000000
0x00000000 0x00000000 0x00000000 0x00000000
0x00000000 0x00000000 0x00000000 0x00000000
0x00000000 0x00000000 0x00000000 0x00000000
0x00000000 0x00000000 0x00000000 0x00000000
0x00000000 0x00000000 0x00000000 0x00000000
0x00000000 0x00000000 0x00000000 0x00000000
0x00000000 0x00000000 0x00000000 0x00000000
0x00000000 0x00000000 0x00000000 0x00000000
0x00000000 0x00000000 0x00000000 0x00000000
0x00000000 0x00000000 0x00000000 0x00000000
0x00000000 0x00000000 0x00000000 0x00000000
0x00000000 0x00000000 0x00000000 0x00000000
0x00000000 0x00000000 0x00000000 0x00000000
0x00000000 0x00000000 0x00000000 0x00000000
0x00000000 0x00000000 0x00000000 0x00000000
0x00000000 0x00000000 0x00000000 0x00000000
0x00000000 0x00000000 0x00000000 0x00000000
0x00000000 0x00000000 0x00000000 0x00000000
0x00000000 0x00000000 0x00000000 0x00000000
0x00000000 0x00000000 0x00000000 0x00000000
0x00000000 0x00000000 0x00000000 0x00000000
0x00000000 0x00000000 0x00000000 0x00000000
0x00 


.nv.constant0._ZN6thrust20THRUST_200400_750_NS8cuda_cub4core13_kernel_agentINS1_8__reduce11ReduceAgentIPN4cuda3std3__45tupleIJ6vec_2dIfElEEESD_SC_iNS1_9__extrema9arg_min_fISB_l7compareIfEEEEESD_SD_iSI_EEvT0_T1_T2_T3_
0x00000000 0x00000000 0x00000000 0x00000000
0x00000000 0x00000000 0x00000000 0x00000000
0x00000000 0x00000000 0x00000000 0x00000000
0x00000000 0x00000000 0x00000000 0x00000000
0x00000000 0x00000000 0x00000000 0x00000000
0x00000000 0x00000000 0x00000000 0x00000000
0x00000000 0x00000000 0x00000000 0x00000000
0x00000000 0x00000000 0x00000000 0x00000000
0x00000000 0x00000000 0x00000000 0x00000000
0x00000000 0x00000000 0x00000000 0x00000000
0x00000000 0x00000000 0x00000000 0x00000000
0x00000000 0x00000000 0x00000000 0x00000000
0x00000000 0x00000000 0x00000000 0x00000000
0x00000000 0x00000000 0x00000000 0x00000000
0x00000000 0x00000000 0x00000000 0x00000000
0x00000000 0x00000000 0x00000000 0x00000000
0x00000000 0x00000000 0x00000000 0x00000000
0x00000000 0x00000000 0x00000000 0x00000000
0x00000000 0x00000000 0x00000000 0x00000000
0x00000000 0x00000000 0x00000000 0x00000000
0x00000000 0x00000000 0x00000000 0x00000000
0x00000000 0x00000000 0x00000000 0x00000000
0x00000000 0x00000000 0x00000000 0x00000000
0x00000000 0x00 


.nv.constant0._ZN6thrust20THRUST_200400_750_NS8cuda_cub4core13_kernel_agentINS1_8__reduce10DrainAgentIiEEN3cub17CUB_200400_750_NS9GridQueueIjEEiEEvT0_T1_
0x00000000 0x00000000 0x00000000 0x00000000
0x00000000 0x00000000 0x00000000 0x00000000
0x00000000 0x00000000 0x00000000 0x00000000
0x00000000 0x00000000 0x00000000 0x00000000
0x00000000 0x00000000 0x00000000 0x00000000
0x00000000 0x00000000 0x00000000 0x00000000
0x00000000 0x00000000 0x00000000 0x00000000
0x00000000 0x00000000 0x00000000 0x00000000
0x00000000 0x00000000 0x00000000 0x00000000
0x00000000 0x00000000 0x00000000 0x00000000
0x00000000 0x00000000 0x00000000 0x00000000
0x00000000 0x00000000 0x00000000 0x00000000
0x00000000 0x00000000 0x00000000 0x00000000
0x00000000 0x00000000 0x00000000 0x00000000
0x00000000 0x00000000 0x00000000 0x00000000
0x00000000 0x00000000 0x00000000 0x00000000
0x00000000 0x00000000 0x00000000 0x00000000
0x00000000 0x00000000 0x00000000 0x00000000
0x00000000 0x00000000 0x00000000 0x00000000
0x00000000 0x00000000 0x00000000 0x00000000
0x00000000 0x00000000 0x00000000 0x00000000
0x00000000 0x00000000 0x00000000 0x00000000
0x00000000 0x00000000 0x00000000 


.nv.constant2._ZN6thrust20THRUST_200400_750_NS8cuda_cub4core13_kernel_agentINS1_8__reduce11ReduceAgentINS0_12zip_iteratorIN4cuda3std3__45tupleIJNS0_6detail15normal_iteratorINS0_10device_ptrI6vec_2dIfEEEEENS1_19counting_iterator_tIlEEEEEEEPNSA_IJSF_lEEESM_iNS1_9__extrema9arg_min_fISF_l7compareIfEEEEESL_SN_iN3cub17CUB_200400_750_NS13GridEvenShareIiEENSV_9GridQueueIjEESS_EEvT0_T1_T2_T3_T4_T5_
0x00000004 0x00000000 


.nv.constant0._ZN6thrust20THRUST_200400_750_NS8cuda_cub4core13_kernel_agentINS1_8__reduce11ReduceAgentINS0_12zip_iteratorIN4cuda3std3__45tupleIJNS0_6detail15normal_iteratorINS0_10device_ptrI6vec_2dIfEEEEENS1_19counting_iterator_tIlEEEEEEEPNSA_IJSF_lEEESM_iNS1_9__extrema9arg_min_fISF_l7compareIfEEEEESL_SN_iN3cub17CUB_200400_750_NS13GridEvenShareIiEENSV_9GridQueueIjEESS_EEvT0_T1_T2_T3_T4_T5_
0x00000000 0x00000000 0x00000000 0x00000000
0x00000000 0x00000000 0x00000000 0x00000000
0x00000000 0x00000000 0x00000000 0x00000000
0x00000000 0x00000000 0x00000000 0x00000000
0x00000000 0x00000000 0x00000000 0x00000000
0x00000000 0x00000000 0x00000000 0x00000000
0x00000000 0x00000000 0x00000000 0x00000000
0x00000000 0x00000000 0x00000000 0x00000000
0x00000000 0x00000000 0x00000000 0x00000000
0x00000000 0x00000000 0x00000000 0x00000000
0x00000000 0x00000000 0x00000000 0x00000000
0x00000000 0x00000000 0x00000000 0x00000000
0x00000000 0x00000000 0x00000000 0x00000000
0x00000000 0x00000000 0x00000000 0x00000000
0x00000000 0x00000000 0x00000000 0x00000000
0x00000000 0x00000000 0x00000000 0x00000000
0x00000000 0x00000000 0x00000000 0x00000000
0x00000000 0x00000000 0x00000000 0x00000000
0x00000000 0x00000000 0x00000000 0x00000000
0x00000000 0x00000000 0x00000000 0x00000000
0x00000000 0x00000000 0x00000000 0x00000000
0x00000000 0x00000000 0x00000000 0x00000000
0x00000000 0x00000000 0x00000000 0x00000000
0x00000000 0x00000000 0x00000000 0x00000000
0x00000000 0x00000000 0x00000000 0x00000000
0x00000000 0x00000000 0x00000000 0x00000000
0x00000000 0x00000000 0x00000000 0x00000000
0x00 


.nv.constant0._ZN6thrust20THRUST_200400_750_NS8cuda_cub4core13_kernel_agentINS1_8__reduce11ReduceAgentINS0_12zip_iteratorIN4cuda3std3__45tupleIJNS0_6detail15normal_iteratorINS0_10device_ptrI6vec_2dIfEEEEENS1_19counting_iterator_tIlEEEEEEEPNSA_IJSF_lEEESM_iNS1_9__extrema9arg_min_fISF_l7compareIfEEEEESL_SN_iSS_EEvT0_T1_T2_T3_
0x00000000 0x00000000 0x00000000 0x00000000
0x00000000 0x00000000 0x00000000 0x00000000
0x00000000 0x00000000 0x00000000 0x00000000
0x00000000 0x00000000 0x00000000 0x00000000
0x00000000 0x00000000 0x00000000 0x00000000
0x00000000 0x00000000 0x00000000 0x00000000
0x00000000 0x00000000 0x00000000 0x00000000
0x00000000 0x00000000 0x00000000 0x00000000
0x00000000 0x00000000 0x00000000 0x00000000
0x00000000 0x00000000 0x00000000 0x00000000
0x00000000 0x00000000 0x00000000 0x00000000
0x00000000 0x00000000 0x00000000 0x00000000
0x00000000 0x00000000 0x00000000 0x00000000
0x00000000 0x00000000 0x00000000 0x00000000
0x00000000 0x00000000 0x00000000 0x00000000
0x00000000 0x00000000 0x00000000 0x00000000
0x00000000 0x00000000 0x00000000 0x00000000
0x00000000 0x00000000 0x00000000 0x00000000
0x00000000 0x00000000 0x00000000 0x00000000
0x00000000 0x00000000 0x00000000 0x00000000
0x00000000 0x00000000 0x00000000 0x00000000
0x00000000 0x00000000 0x00000000 0x00000000
0x00000000 0x00000000 0x00000000 0x00000000
0x00000000 0x00000000 0x00000000 0x00 


.nv.shared._ZN3cub17CUB_200400_750_NS6detail8for_each13static_kernelINS2_12policy_hub_t12policy_350_tElN6thrust20THRUST_200400_750_NS8cuda_cub11__transform17unary_transform_fIPN4cuda3std3__45tupleIJNSE_IJ6vec_2dIfElEEESH_EEESJ_NS9_14no_stencil_tagENS7_8identityISI_EENS9_21always_true_predicateEEEEEvT0_T1_
   No data to be dumped. 


.nv.shared._ZN3cub17CUB_200400_750_NS6detail8for_each13static_kernelINS2_12policy_hub_t12policy_350_tElN6thrust20THRUST_200400_750_NS8cuda_cub20__uninitialized_copy7functorIPN4cuda3std3__45tupleIJNSE_IJ6vec_2dIfElEEESH_EEENS7_7pointerISI_NS8_5par_tENS7_11use_defaultESM_EEEEEEvT0_T1_
   No data to be dumped. 


.nv.shared._ZN3cub17CUB_200400_750_NS6detail8for_each13static_kernelINS2_12policy_hub_t12policy_350_tElNS2_12op_wrapper_tIlN6thrust20THRUST_200400_750_NS6detail23allocator_traits_detail5gozerENS8_7pointerIN4cuda3std3__45tupleIJNSG_IJ6vec_2dIfElEEESJ_EEENS8_8cuda_cub5par_tENS8_11use_defaultESN_EEEEEEvT0_T1_
   No data to be dumped. 


.nv.shared._ZN3cub17CUB_200400_750_NS6detail8for_each13static_kernelINS2_12policy_hub_t12policy_350_tEmNS2_12op_wrapper_tImN6thrust20THRUST_200400_750_NS6detail23allocator_traits_detail24construct1_via_allocatorINS9_18no_throw_allocatorINS9_19temporary_allocatorIN4cuda3std3__45tupleIJNSH_IJ6vec_2dIfElEEESK_EEENS8_8cuda_cub5par_tEEEEEEENS8_7pointerISL_SN_NS8_11use_defaultESS_EEEEEEvT0_T1_
   No data to be dumped. 


.nv.shared._ZN3cub17CUB_200400_750_NS6detail8for_each13static_kernelINS2_12policy_hub_t12policy_350_tElN6thrust20THRUST_200400_750_NS8cuda_cub11__transform17unary_transform_fIPN4cuda3std3__45tupleIJ6vec_2dIfElEEESI_NS9_14no_stencil_tagENS7_8identityISH_EENS9_21always_true_predicateEEEEEvT0_T1_
   No data to be dumped. 


.nv.shared._ZN3cub17CUB_200400_750_NS6detail8for_each13static_kernelINS2_12policy_hub_t12policy_350_tElN6thrust20THRUST_200400_750_NS8cuda_cub20__uninitialized_copy7functorIPN4cuda3std3__45tupleIJ6vec_2dIfElEEENS7_7pointerISH_NS8_5par_tENS7_11use_defaultESL_EEEEEEvT0_T1_
   No data to be dumped. 


.nv.shared._ZN3cub17CUB_200400_750_NS6detail8for_each13static_kernelINS2_12policy_hub_t12policy_350_tElNS2_12op_wrapper_tIlN6thrust20THRUST_200400_750_NS6detail23allocator_traits_detail5gozerENS8_7pointerIN4cuda3std3__45tupleIJ6vec_2dIfElEEENS8_8cuda_cub5par_tENS8_11use_defaultESM_EEEEEEvT0_T1_
   No data to be dumped. 


.nv.shared._ZN3cub17CUB_200400_750_NS6detail8for_each13static_kernelINS2_12policy_hub_t12policy_350_tEmNS2_12op_wrapper_tImN6thrust20THRUST_200400_750_NS6detail23allocator_traits_detail24construct1_via_allocatorINS9_18no_throw_allocatorINS9_19temporary_allocatorIN4cuda3std3__45tupleIJ6vec_2dIfElEEENS8_8cuda_cub5par_tEEEEEEENS8_7pointerISK_SM_NS8_11use_defaultESR_EEEEEEvT0_T1_
   No data to be dumped. 


.nv.shared._ZN3cub17CUB_200400_750_NS11EmptyKernelIvEEvv
   No data to be dumped. 


.nv.shared._ZN6thrust20THRUST_200400_750_NS8cuda_cub4core13_kernel_agentINS1_8__reduce11ReduceAgentIPN4cuda3std3__45tupleIJNS9_IJ6vec_2dIfElEEESC_EEESE_SD_lNS1_9__extrema12arg_minmax_fISB_l7compareIfEEEEESE_SE_iSJ_EEvT0_T1_T2_T3_
   No data to be dumped. 


.nv.shared._ZN6thrust20THRUST_200400_750_NS8cuda_cub4core13_kernel_agentINS1_8__reduce11ReduceAgentINS1_26transform_input_iterator_tIN4cuda3std3__45tupleIJNSA_IJ6vec_2dIfElEEESD_EEENS0_12zip_iteratorINSA_IJNS0_6detail15normal_iteratorINS0_10device_ptrISC_EEEENS1_19counting_iterator_tIlEEEEEEENS1_9__extrema12arg_minmax_fISC_l7compareIfEE15duplicate_tupleEEEPSE_SE_lST_EESV_SW_lN3cub17CUB_200400_750_NS13GridEvenShareIlEENSZ_9GridQueueIyEEST_EEvT0_T1_T2_T3_T4_T5_
   No data to be dumped. 


.nv.shared._ZN6thrust20THRUST_200400_750_NS8cuda_cub4core13_kernel_agentINS1_8__reduce11ReduceAgentINS1_26transform_input_iterator_tIN4cuda3std3__45tupleIJNSA_IJ6vec_2dIfElEEESD_EEENS0_12zip_iteratorINSA_IJNS0_6detail15normal_iteratorINS0_10device_ptrISC_EEEENS1_19counting_iterator_tIlEEEEEEENS1_9__extrema12arg_minmax_fISC_l7compareIfEE15duplicate_tupleEEEPSE_SE_lST_EESV_SW_lST_EEvT0_T1_T2_T3_
   No data to be dumped. 


.nv.shared._ZN6thrust20THRUST_200400_750_NS8cuda_cub4core13_kernel_agentINS1_8__reduce11ReduceAgentIPN4cuda3std3__45tupleIJNS9_IJ6vec_2dIfElEEESC_EEESE_SD_iNS1_9__extrema12arg_minmax_fISB_l7compareIfEEEEESE_SE_iSJ_EEvT0_T1_T2_T3_
   No data to be dumped. 


.nv.shared._ZN6thrust20THRUST_200400_750_NS8cuda_cub4core13_kernel_agentINS1_8__reduce11ReduceAgentINS1_26transform_input_iterator_tIN4cuda3std3__45tupleIJNSA_IJ6vec_2dIfElEEESD_EEENS0_12zip_iteratorINSA_IJNS0_6detail15normal_iteratorINS0_10device_ptrISC_EEEENS1_19counting_iterator_tIlEEEEEEENS1_9__extrema12arg_minmax_fISC_l7compareIfEE15duplicate_tupleEEEPSE_SE_iST_EESV_SW_iN3cub17CUB_200400_750_NS13GridEvenShareIiEENSZ_9GridQueueIjEEST_EEvT0_T1_T2_T3_T4_T5_
   No data to be dumped. 


.nv.shared._ZN6thrust20THRUST_200400_750_NS8cuda_cub4core13_kernel_agentINS1_8__reduce11ReduceAgentINS1_26transform_input_iterator_tIN4cuda3std3__45tupleIJNSA_IJ6vec_2dIfElEEESD_EEENS0_12zip_iteratorINSA_IJNS0_6detail15normal_iteratorINS0_10device_ptrISC_EEEENS1_19counting_iterator_tIlEEEEEEENS1_9__extrema12arg_minmax_fISC_l7compareIfEE15duplicate_tupleEEEPSE_SE_iST_EESV_SW_iST_EEvT0_T1_T2_T3_
   No data to be dumped. 


.nv.shared._ZN6thrust20THRUST_200400_750_NS8cuda_cub4core13_kernel_agentINS1_8__reduce11ReduceAgentIPN4cuda3std3__45tupleIJ6vec_2dIfElEEESD_SC_lNS1_9__extrema9arg_max_fISB_l7compareIfEEEEESD_SD_iSI_EEvT0_T1_T2_T3_
   No data to be dumped. 


.nv.shared._ZN6thrust20THRUST_200400_750_NS8cuda_cub4core13_kernel_agentINS1_8__reduce11ReduceAgentINS0_12zip_iteratorIN4cuda3std3__45tupleIJNS0_6detail15normal_iteratorINS0_10device_ptrI6vec_2dIfEEEEENS1_19counting_iterator_tIlEEEEEEEPNSA_IJSF_lEEESM_lNS1_9__extrema9arg_max_fISF_l7compareIfEEEEESL_SN_lN3cub17CUB_200400_750_NS13GridEvenShareIlEENSV_9GridQueueIyEESS_EEvT0_T1_T2_T3_T4_T5_
   No data to be dumped. 


.nv.shared._ZN6thrust20THRUST_200400_750_NS8cuda_cub4core13_kernel_agentINS1_8__reduce11ReduceAgentINS0_12zip_iteratorIN4cuda3std3__45tupleIJNS0_6detail15normal_iteratorINS0_10device_ptrI6vec_2dIfEEEEENS1_19counting_iterator_tIlEEEEEEEPNSA_IJSF_lEEESM_lNS1_9__extrema9arg_max_fISF_l7compareIfEEEEESL_SN_lSS_EEvT0_T1_T2_T3_
   No data to be dumped. 


.nv.shared._ZN6thrust20THRUST_200400_750_NS8cuda_cub4core13_kernel_agentINS1_8__reduce11ReduceAgentIPN4cuda3std3__45tupleIJ6vec_2dIfElEEESD_SC_iNS1_9__extrema9arg_max_fISB_l7compareIfEEEEESD_SD_iSI_EEvT0_T1_T2_T3_
   No data to be dumped. 


.nv.shared._ZN6thrust20THRUST_200400_750_NS8cuda_cub4core13_kernel_agentINS1_8__reduce11ReduceAgentINS0_12zip_iteratorIN4cuda3std3__45tupleIJNS0_6detail15normal_iteratorINS0_10device_ptrI6vec_2dIfEEEEENS1_19counting_iterator_tIlEEEEEEEPNSA_IJSF_lEEESM_iNS1_9__extrema9arg_max_fISF_l7compareIfEEEEESL_SN_iN3cub17CUB_200400_750_NS13GridEvenShareIiEENSV_9GridQueueIjEESS_EEvT0_T1_T2_T3_T4_T5_
   No data to be dumped. 


.nv.shared._ZN6thrust20THRUST_200400_750_NS8cuda_cub4core13_kernel_agentINS1_8__reduce11ReduceAgentINS0_12zip_iteratorIN4cuda3std3__45tupleIJNS0_6detail15normal_iteratorINS0_10device_ptrI6vec_2dIfEEEEENS1_19counting_iterator_tIlEEEEEEEPNSA_IJSF_lEEESM_iNS1_9__extrema9arg_max_fISF_l7compareIfEEEEESL_SN_iSS_EEvT0_T1_T2_T3_
   No data to be dumped. 


.nv.shared._ZN6thrust20THRUST_200400_750_NS8cuda_cub4core13_kernel_agentINS1_8__reduce11ReduceAgentIPN4cuda3std3__45tupleIJ6vec_2dIfElEEESD_SC_lNS1_9__extrema9arg_min_fISB_l7compareIfEEEEESD_SD_iSI_EEvT0_T1_T2_T3_
   No data to be dumped. 


.nv.shared._ZN6thrust20THRUST_200400_750_NS8cuda_cub4core13_kernel_agentINS1_8__reduce10DrainAgentIlEEN3cub17CUB_200400_750_NS9GridQueueIyEElEEvT0_T1_
   No data to be dumped. 


.nv.shared._ZN6thrust20THRUST_200400_750_NS8cuda_cub4core13_kernel_agentINS1_8__reduce11ReduceAgentINS0_12zip_iteratorIN4cuda3std3__45tupleIJNS0_6detail15normal_iteratorINS0_10device_ptrI6vec_2dIfEEEEENS1_19counting_iterator_tIlEEEEEEEPNSA_IJSF_lEEESM_lNS1_9__extrema9arg_min_fISF_l7compareIfEEEEESL_SN_lN3cub17CUB_200400_750_NS13GridEvenShareIlEENSV_9GridQueueIyEESS_EEvT0_T1_T2_T3_T4_T5_
   No data to be dumped. 


.nv.shared._ZN6thrust20THRUST_200400_750_NS8cuda_cub4core13_kernel_agentINS1_8__reduce11ReduceAgentINS0_12zip_iteratorIN4cuda3std3__45tupleIJNS0_6detail15normal_iteratorINS0_10device_ptrI6vec_2dIfEEEEENS1_19counting_iterator_tIlEEEEEEEPNSA_IJSF_lEEESM_lNS1_9__extrema9arg_min_fISF_l7compareIfEEEEESL_SN_lSS_EEvT0_T1_T2_T3_
   No data to be dumped. 


.nv.shared._ZN6thrust20THRUST_200400_750_NS8cuda_cub4core13_kernel_agentINS1_8__reduce11ReduceAgentIPN4cuda3std3__45tupleIJ6vec_2dIfElEEESD_SC_iNS1_9__extrema9arg_min_fISB_l7compareIfEEEEESD_SD_iSI_EEvT0_T1_T2_T3_
   No data to be dumped. 


.nv.shared._ZN6thrust20THRUST_200400_750_NS8cuda_cub4core13_kernel_agentINS1_8__reduce10DrainAgentIiEEN3cub17CUB_200400_750_NS9GridQueueIjEEiEEvT0_T1_
   No data to be dumped. 


.nv.shared._ZN6thrust20THRUST_200400_750_NS8cuda_cub4core13_kernel_agentINS1_8__reduce11ReduceAgentINS0_12zip_iteratorIN4cuda3std3__45tupleIJNS0_6detail15normal_iteratorINS0_10device_ptrI6vec_2dIfEEEEENS1_19counting_iterator_tIlEEEEEEEPNSA_IJSF_lEEESM_iNS1_9__extrema9arg_min_fISF_l7compareIfEEEEESL_SN_iN3cub17CUB_200400_750_NS13GridEvenShareIiEENSV_9GridQueueIjEESS_EEvT0_T1_T2_T3_T4_T5_
   No data to be dumped. 


.nv.shared._ZN6thrust20THRUST_200400_750_NS8cuda_cub4core13_kernel_agentINS1_8__reduce11ReduceAgentINS0_12zip_iteratorIN4cuda3std3__45tupleIJNS0_6detail15normal_iteratorINS0_10device_ptrI6vec_2dIfEEEEENS1_19counting_iterator_tIlEEEEEEEPNSA_IJSF_lEEESM_iNS1_9__extrema9arg_min_fISF_l7compareIfEEEEESL_SN_iSS_EEvT0_T1_T2_T3_
   No data to be dumped. 


.nv.info
	<0x1>
	Attribute:	EIATTR_REGCOUNT
	Format:	EIFMT_SVAL
	Value:	function: _ZN6thrust20THRUST_200400_750_NS8cuda_cub4core13_kernel_agentINS1_8__reduce11ReduceAgentINS0_12zip_iteratorIN4cuda3std3__45tupleIJNS0_6detail15normal_iteratorINS0_10device_ptrI6vec_2dIfEEEEENS1_19counting_iterator_tIlEEEEEEEPNSA_IJSF_lEEESM_iNS1_9__extrema9arg_min_fISF_l7compareIfEEEEESL_SN_iSS_EEvT0_T1_T2_T3_(0x84)	register count: 34
	<0x2>
	Attribute:	EIATTR_MIN_STACK_SIZE
	Format:	EIFMT_SVAL
	Value:	function: _ZN6thrust20THRUST_200400_750_NS8cuda_cub4core13_kernel_agentINS1_8__reduce11ReduceAgentINS0_12zip_iteratorIN4cuda3std3__45tupleIJNS0_6detail15normal_iteratorINS0_10device_ptrI6vec_2dIfEEEEENS1_19counting_iterator_tIlEEEEEEEPNSA_IJSF_lEEESM_iNS1_9__extrema9arg_min_fISF_l7compareIfEEEEESL_SN_iSS_EEvT0_T1_T2_T3_(0x84)	min stack size: 0x0
	<0x3>
	Attribute:	EIATTR_FRAME_SIZE
	Format:	EIFMT_SVAL
	Value:	function: _ZN6thrust20THRUST_200400_750_NS8cuda_cub4core13_kernel_agentINS1_8__reduce11ReduceAgentINS0_12zip_iteratorIN4cuda3std3__45tupleIJNS0_6detail15normal_iteratorINS0_10device_ptrI6vec_2dIfEEEEENS1_19counting_iterator_tIlEEEEEEEPNSA_IJSF_lEEESM_iNS1_9__extrema9arg_min_fISF_l7compareIfEEEEESL_SN_iSS_EEvT0_T1_T2_T3_(0x84)	frame size: 0x0
	<0x4>
	Attribute:	EIATTR_REGCOUNT
	Format:	EIFMT_SVAL
	Value:	function: _ZN6thrust20THRUST_200400_750_NS8cuda_cub4core13_kernel_agentINS1_8__reduce11ReduceAgentINS0_12zip_iteratorIN4cuda3std3__45tupleIJNS0_6detail15normal_iteratorINS0_10device_ptrI6vec_2dIfEEEEENS1_19counting_iterator_tIlEEEEEEEPNSA_IJSF_lEEESM_iNS1_9__extrema9arg_min_fISF_l7compareIfEEEEESL_SN_iN3cub17CUB_200400_750_NS13GridEvenShareIiEENSV_9GridQueueIjEESS_EEvT0_T1_T2_T3_T4_T5_(0x83)	register count: 34
	<0x5>
	Attribute:	EIATTR_MIN_STACK_SIZE
	Format:	EIFMT_SVAL
	Value:	function: _ZN6thrust20THRUST_200400_750_NS8cuda_cub4core13_kernel_agentINS1_8__reduce11ReduceAgentINS0_12zip_iteratorIN4cuda3std3__45tupleIJNS0_6detail15normal_iteratorINS0_10device_ptrI6vec_2dIfEEEEENS1_19counting_iterator_tIlEEEEEEEPNSA_IJSF_lEEESM_iNS1_9__extrema9arg_min_fISF_l7compareIfEEEEESL_SN_iN3cub17CUB_200400_750_NS13GridEvenShareIiEENSV_9GridQueueIjEESS_EEvT0_T1_T2_T3_T4_T5_(0x83)	min stack size: 0x0
	<0x6>
	Attribute:	EIATTR_FRAME_SIZE
	Format:	EIFMT_SVAL
	Value:	function: _ZN6thrust20THRUST_200400_750_NS8cuda_cub4core13_kernel_agentINS1_8__reduce11ReduceAgentINS0_12zip_iteratorIN4cuda3std3__45tupleIJNS0_6detail15normal_iteratorINS0_10device_ptrI6vec_2dIfEEEEENS1_19counting_iterator_tIlEEEEEEEPNSA_IJSF_lEEESM_iNS1_9__extrema9arg_min_fISF_l7compareIfEEEEESL_SN_iN3cub17CUB_200400_750_NS13GridEvenShareIiEENSV_9GridQueueIjEESS_EEvT0_T1_T2_T3_T4_T5_(0x83)	frame size: 0x0
	<0x7>
	Attribute:	EIATTR_REGCOUNT
	Format:	EIFMT_SVAL
	Value:	function: _ZN6thrust20THRUST_200400_750_NS8cuda_cub4core13_kernel_agentINS1_8__reduce10DrainAgentIiEEN3cub17CUB_200400_750_NS9GridQueueIjEEiEEvT0_T1_(0x82)	register count: 4
	<0x8>
	Attribute:	EIATTR_MIN_STACK_SIZE
	Format:	EIFMT_SVAL
	Value:	function: _ZN6thrust20THRUST_200400_750_NS8cuda_cub4core13_kernel_agentINS1_8__reduce10DrainAgentIiEEN3cub17CUB_200400_750_NS9GridQueueIjEEiEEvT0_T1_(0x82)	min stack size: 0x0
	<0x9>
	Attribute:	EIATTR_FRAME_SIZE
	Format:	EIFMT_SVAL
	Value:	function: _ZN6thrust20THRUST_200400_750_NS8cuda_cub4core13_kernel_agentINS1_8__reduce10DrainAgentIiEEN3cub17CUB_200400_750_NS9GridQueueIjEEiEEvT0_T1_(0x82)	frame size: 0x0
	<0x10>
	Attribute:	EIATTR_REGCOUNT
	Format:	EIFMT_SVAL
	Value:	function: _ZN6thrust20THRUST_200400_750_NS8cuda_cub4core13_kernel_agentINS1_8__reduce11ReduceAgentIPN4cuda3std3__45tupleIJ6vec_2dIfElEEESD_SC_iNS1_9__extrema9arg_min_fISB_l7compareIfEEEEESD_SD_iSI_EEvT0_T1_T2_T3_(0x81)	register count: 38
	<0x11>
	Attribute:	EIATTR_MIN_STACK_SIZE
	Format:	EIFMT_SVAL
	Value:	function: _ZN6thrust20THRUST_200400_750_NS8cuda_cub4core13_kernel_agentINS1_8__reduce11ReduceAgentIPN4cuda3std3__45tupleIJ6vec_2dIfElEEESD_SC_iNS1_9__extrema9arg_min_fISB_l7compareIfEEEEESD_SD_iSI_EEvT0_T1_T2_T3_(0x81)	min stack size: 0x0
	<0x12>
	Attribute:	EIATTR_FRAME_SIZE
	Format:	EIFMT_SVAL
	Value:	function: _ZN6thrust20THRUST_200400_750_NS8cuda_cub4core13_kernel_agentINS1_8__reduce11ReduceAgentIPN4cuda3std3__45tupleIJ6vec_2dIfElEEESD_SC_iNS1_9__extrema9arg_min_fISB_l7compareIfEEEEESD_SD_iSI_EEvT0_T1_T2_T3_(0x81)	frame size: 0x0
	<0x13>
	Attribute:	EIATTR_REGCOUNT
	Format:	EIFMT_SVAL
	Value:	function: _ZN6thrust20THRUST_200400_750_NS8cuda_cub4core13_kernel_agentINS1_8__reduce11ReduceAgentINS0_12zip_iteratorIN4cuda3std3__45tupleIJNS0_6detail15normal_iteratorINS0_10device_ptrI6vec_2dIfEEEEENS1_19counting_iterator_tIlEEEEEEEPNSA_IJSF_lEEESM_lNS1_9__extrema9arg_min_fISF_l7compareIfEEEEESL_SN_lSS_EEvT0_T1_T2_T3_(0x80)	register count: 32
	<0x14>
	Attribute:	EIATTR_MIN_STACK_SIZE
	Format:	EIFMT_SVAL
	Value:	function: _ZN6thrust20THRUST_200400_750_NS8cuda_cub4core13_kernel_agentINS1_8__reduce11ReduceAgentINS0_12zip_iteratorIN4cuda3std3__45tupleIJNS0_6detail15normal_iteratorINS0_10device_ptrI6vec_2dIfEEEEENS1_19counting_iterator_tIlEEEEEEEPNSA_IJSF_lEEESM_lNS1_9__extrema9arg_min_fISF_l7compareIfEEEEESL_SN_lSS_EEvT0_T1_T2_T3_(0x80)	min stack size: 0x0
	<0x15>
	Attribute:	EIATTR_FRAME_SIZE
	Format:	EIFMT_SVAL
	Value:	function: _ZN6thrust20THRUST_200400_750_NS8cuda_cub4core13_kernel_agentINS1_8__reduce11ReduceAgentINS0_12zip_iteratorIN4cuda3std3__45tupleIJNS0_6detail15normal_iteratorINS0_10device_ptrI6vec_2dIfEEEEENS1_19counting_iterator_tIlEEEEEEEPNSA_IJSF_lEEESM_lNS1_9__extrema9arg_min_fISF_l7compareIfEEEEESL_SN_lSS_EEvT0_T1_T2_T3_(0x80)	frame size: 0x0
	<0x16>
	Attribute:	EIATTR_REGCOUNT
	Format:	EIFMT_SVAL
	Value:	function: _ZN6thrust20THRUST_200400_750_NS8cuda_cub4core13_kernel_agentINS1_8__reduce11ReduceAgentINS0_12zip_iteratorIN4cuda3std3__45tupleIJNS0_6detail15normal_iteratorINS0_10device_ptrI6vec_2dIfEEEEENS1_19counting_iterator_tIlEEEEEEEPNSA_IJSF_lEEESM_lNS1_9__extrema9arg_min_fISF_l7compareIfEEEEESL_SN_lN3cub17CUB_200400_750_NS13GridEvenShareIlEENSV_9GridQueueIyEESS_EEvT0_T1_T2_T3_T4_T5_(0x7f)	register count: 32
	<0x17>
	Attribute:	EIATTR_MIN_STACK_SIZE
	Format:	EIFMT_SVAL
	Value:	function: _ZN6thrust20THRUST_200400_750_NS8cuda_cub4core13_kernel_agentINS1_8__reduce11ReduceAgentINS0_12zip_iteratorIN4cuda3std3__45tupleIJNS0_6detail15normal_iteratorINS0_10device_ptrI6vec_2dIfEEEEENS1_19counting_iterator_tIlEEEEEEEPNSA_IJSF_lEEESM_lNS1_9__extrema9arg_min_fISF_l7compareIfEEEEESL_SN_lN3cub17CUB_200400_750_NS13GridEvenShareIlEENSV_9GridQueueIyEESS_EEvT0_T1_T2_T3_T4_T5_(0x7f)	min stack size: 0x0
	<0x18>
	Attribute:	EIATTR_FRAME_SIZE
	Format:	EIFMT_SVAL
	Value:	function: _ZN6thrust20THRUST_200400_750_NS8cuda_cub4core13_kernel_agentINS1_8__reduce11ReduceAgentINS0_12zip_iteratorIN4cuda3std3__45tupleIJNS0_6detail15normal_iteratorINS0_10device_ptrI6vec_2dIfEEEEENS1_19counting_iterator_tIlEEEEEEEPNSA_IJSF_lEEESM_lNS1_9__extrema9arg_min_fISF_l7compareIfEEEEESL_SN_lN3cub17CUB_200400_750_NS13GridEvenShareIlEENSV_9GridQueueIyEESS_EEvT0_T1_T2_T3_T4_T5_(0x7f)	frame size: 0x0
	<0x19>
	Attribute:	EIATTR_REGCOUNT
	Format:	EIFMT_SVAL
	Value:	function: _ZN6thrust20THRUST_200400_750_NS8cuda_cub4core13_kernel_agentINS1_8__reduce10DrainAgentIlEEN3cub17CUB_200400_750_NS9GridQueueIyEElEEvT0_T1_(0x7e)	register count: 6
	<0x20>
	Attribute:	EIATTR_MIN_STACK_SIZE
	Format:	EIFMT_SVAL
	Value:	function: _ZN6thrust20THRUST_200400_750_NS8cuda_cub4core13_kernel_agentINS1_8__reduce10DrainAgentIlEEN3cub17CUB_200400_750_NS9GridQueueIyEElEEvT0_T1_(0x7e)	min stack size: 0x0
	<0x21>
	Attribute:	EIATTR_FRAME_SIZE
	Format:	EIFMT_SVAL
	Value:	function: _ZN6thrust20THRUST_200400_750_NS8cuda_cub4core13_kernel_agentINS1_8__reduce10DrainAgentIlEEN3cub17CUB_200400_750_NS9GridQueueIyEElEEvT0_T1_(0x7e)	frame size: 0x0
	<0x22>
	Attribute:	EIATTR_REGCOUNT
	Format:	EIFMT_SVAL
	Value:	function: _ZN6thrust20THRUST_200400_750_NS8cuda_cub4core13_kernel_agentINS1_8__reduce11ReduceAgentIPN4cuda3std3__45tupleIJ6vec_2dIfElEEESD_SC_lNS1_9__extrema9arg_min_fISB_l7compareIfEEEEESD_SD_iSI_EEvT0_T1_T2_T3_(0x7d)	register count: 42
	<0x23>
	Attribute:	EIATTR_MIN_STACK_SIZE
	Format:	EIFMT_SVAL
	Value:	function: _ZN6thrust20THRUST_200400_750_NS8cuda_cub4core13_kernel_agentINS1_8__reduce11ReduceAgentIPN4cuda3std3__45tupleIJ6vec_2dIfElEEESD_SC_lNS1_9__extrema9arg_min_fISB_l7compareIfEEEEESD_SD_iSI_EEvT0_T1_T2_T3_(0x7d)	min stack size: 0x0
	<0x24>
	Attribute:	EIATTR_FRAME_SIZE
	Format:	EIFMT_SVAL
	Value:	function: _ZN6thrust20THRUST_200400_750_NS8cuda_cub4core13_kernel_agentINS1_8__reduce11ReduceAgentIPN4cuda3std3__45tupleIJ6vec_2dIfElEEESD_SC_lNS1_9__extrema9arg_min_fISB_l7compareIfEEEEESD_SD_iSI_EEvT0_T1_T2_T3_(0x7d)	frame size: 0x0
	<0x25>
	Attribute:	EIATTR_REGCOUNT
	Format:	EIFMT_SVAL
	Value:	function: _ZN6thrust20THRUST_200400_750_NS8cuda_cub4core13_kernel_agentINS1_8__reduce11ReduceAgentINS0_12zip_iteratorIN4cuda3std3__45tupleIJNS0_6detail15normal_iteratorINS0_10device_ptrI6vec_2dIfEEEEENS1_19counting_iterator_tIlEEEEEEEPNSA_IJSF_lEEESM_iNS1_9__extrema9arg_max_fISF_l7compareIfEEEEESL_SN_iSS_EEvT0_T1_T2_T3_(0x7c)	register count: 44
	<0x26>
	Attribute:	EIATTR_MIN_STACK_SIZE
	Format:	EIFMT_SVAL
	Value:	function: _ZN6thrust20THRUST_200400_750_NS8cuda_cub4core13_kernel_agentINS1_8__reduce11ReduceAgentINS0_12zip_iteratorIN4cuda3std3__45tupleIJNS0_6detail15normal_iteratorINS0_10device_ptrI6vec_2dIfEEEEENS1_19counting_iterator_tIlEEEEEEEPNSA_IJSF_lEEESM_iNS1_9__extrema9arg_max_fISF_l7compareIfEEEEESL_SN_iSS_EEvT0_T1_T2_T3_(0x7c)	min stack size: 0x0
	<0x27>
	Attribute:	EIATTR_FRAME_SIZE
	Format:	EIFMT_SVAL
	Value:	function: _ZN6thrust20THRUST_200400_750_NS8cuda_cub4core13_kernel_agentINS1_8__reduce11ReduceAgentINS0_12zip_iteratorIN4cuda3std3__45tupleIJNS0_6detail15normal_iteratorINS0_10device_ptrI6vec_2dIfEEEEENS1_19counting_iterator_tIlEEEEEEEPNSA_IJSF_lEEESM_iNS1_9__extrema9arg_max_fISF_l7compareIfEEEEESL_SN_iSS_EEvT0_T1_T2_T3_(0x7c)	frame size: 0x0
	<0x28>
	Attribute:	EIATTR_REGCOUNT
	Format:	EIFMT_SVAL
	Value:	function: _ZN6thrust20THRUST_200400_750_NS8cuda_cub4core13_kernel_agentINS1_8__reduce11ReduceAgentINS0_12zip_iteratorIN4cuda3std3__45tupleIJNS0_6detail15normal_iteratorINS0_10device_ptrI6vec_2dIfEEEEENS1_19counting_iterator_tIlEEEEEEEPNSA_IJSF_lEEESM_iNS1_9__extrema9arg_max_fISF_l7compareIfEEEEESL_SN_iN3cub17CUB_200400_750_NS13GridEvenShareIiEENSV_9GridQueueIjEESS_EEvT0_T1_T2_T3_T4_T5_(0x7b)	register count: 44
	<0x29>
	Attribute:	EIATTR_MIN_STACK_SIZE
	Format:	EIFMT_SVAL
	Value:	function: _ZN6thrust20THRUST_200400_750_NS8cuda_cub4core13_kernel_agentINS1_8__reduce11ReduceAgentINS0_12zip_iteratorIN4cuda3std3__45tupleIJNS0_6detail15normal_iteratorINS0_10device_ptrI6vec_2dIfEEEEENS1_19counting_iterator_tIlEEEEEEEPNSA_IJSF_lEEESM_iNS1_9__extrema9arg_max_fISF_l7compareIfEEEEESL_SN_iN3cub17CUB_200400_750_NS13GridEvenShareIiEENSV_9GridQueueIjEESS_EEvT0_T1_T2_T3_T4_T5_(0x7b)	min stack size: 0x0
	<0x30>
	Attribute:	EIATTR_FRAME_SIZE
	Format:	EIFMT_SVAL
	Value:	function: _ZN6thrust20THRUST_200400_750_NS8cuda_cub4core13_kernel_agentINS1_8__reduce11ReduceAgentINS0_12zip_iteratorIN4cuda3std3__45tupleIJNS0_6detail15normal_iteratorINS0_10device_ptrI6vec_2dIfEEEEENS1_19counting_iterator_tIlEEEEEEEPNSA_IJSF_lEEESM_iNS1_9__extrema9arg_max_fISF_l7compareIfEEEEESL_SN_iN3cub17CUB_200400_750_NS13GridEvenShareIiEENSV_9GridQueueIjEESS_EEvT0_T1_T2_T3_T4_T5_(0x7b)	frame size: 0x0
	<0x31>
	Attribute:	EIATTR_REGCOUNT
	Format:	EIFMT_SVAL
	Value:	function: _ZN6thrust20THRUST_200400_750_NS8cuda_cub4core13_kernel_agentINS1_8__reduce11ReduceAgentIPN4cuda3std3__45tupleIJ6vec_2dIfElEEESD_SC_iNS1_9__extrema9arg_max_fISB_l7compareIfEEEEESD_SD_iSI_EEvT0_T1_T2_T3_(0x7a)	register count: 44
	<0x32>
	Attribute:	EIATTR_MIN_STACK_SIZE
	Format:	EIFMT_SVAL
	Value:	function: _ZN6thrust20THRUST_200400_750_NS8cuda_cub4core13_kernel_agentINS1_8__reduce11ReduceAgentIPN4cuda3std3__45tupleIJ6vec_2dIfElEEESD_SC_iNS1_9__extrema9arg_max_fISB_l7compareIfEEEEESD_SD_iSI_EEvT0_T1_T2_T3_(0x7a)	min stack size: 0x0
	<0x33>
	Attribute:	EIATTR_FRAME_SIZE
	Format:	EIFMT_SVAL
	Value:	function: _ZN6thrust20THRUST_200400_750_NS8cuda_cub4core13_kernel_agentINS1_8__reduce11ReduceAgentIPN4cuda3std3__45tupleIJ6vec_2dIfElEEESD_SC_iNS1_9__extrema9arg_max_fISB_l7compareIfEEEEESD_SD_iSI_EEvT0_T1_T2_T3_(0x7a)	frame size: 0x0
	<0x34>
	Attribute:	EIATTR_REGCOUNT
	Format:	EIFMT_SVAL
	Value:	function: _ZN6thrust20THRUST_200400_750_NS8cuda_cub4core13_kernel_agentINS1_8__reduce11ReduceAgentINS0_12zip_iteratorIN4cuda3std3__45tupleIJNS0_6detail15normal_iteratorINS0_10device_ptrI6vec_2dIfEEEEENS1_19counting_iterator_tIlEEEEEEEPNSA_IJSF_lEEESM_lNS1_9__extrema9arg_max_fISF_l7compareIfEEEEESL_SN_lSS_EEvT0_T1_T2_T3_(0x79)	register count: 44
	<0x35>
	Attribute:	EIATTR_MIN_STACK_SIZE
	Format:	EIFMT_SVAL
	Value:	function: _ZN6thrust20THRUST_200400_750_NS8cuda_cub4core13_kernel_agentINS1_8__reduce11ReduceAgentINS0_12zip_iteratorIN4cuda3std3__45tupleIJNS0_6detail15normal_iteratorINS0_10device_ptrI6vec_2dIfEEEEENS1_19counting_iterator_tIlEEEEEEEPNSA_IJSF_lEEESM_lNS1_9__extrema9arg_max_fISF_l7compareIfEEEEESL_SN_lSS_EEvT0_T1_T2_T3_(0x79)	min stack size: 0x0
	<0x36>
	Attribute:	EIATTR_FRAME_SIZE
	Format:	EIFMT_SVAL
	Value:	function: _ZN6thrust20THRUST_200400_750_NS8cuda_cub4core13_kernel_agentINS1_8__reduce11ReduceAgentINS0_12zip_iteratorIN4cuda3std3__45tupleIJNS0_6detail15normal_iteratorINS0_10device_ptrI6vec_2dIfEEEEENS1_19counting_iterator_tIlEEEEEEEPNSA_IJSF_lEEESM_lNS1_9__extrema9arg_max_fISF_l7compareIfEEEEESL_SN_lSS_EEvT0_T1_T2_T3_(0x79)	frame size: 0x0
	<0x37>
	Attribute:	EIATTR_REGCOUNT
	Format:	EIFMT_SVAL
	Value:	function: _ZN6thrust20THRUST_200400_750_NS8cuda_cub4core13_kernel_agentINS1_8__reduce11ReduceAgentINS0_12zip_iteratorIN4cuda3std3__45tupleIJNS0_6detail15normal_iteratorINS0_10device_ptrI6vec_2dIfEEEEENS1_19counting_iterator_tIlEEEEEEEPNSA_IJSF_lEEESM_lNS1_9__extrema9arg_max_fISF_l7compareIfEEEEESL_SN_lN3cub17CUB_200400_750_NS13GridEvenShareIlEENSV_9GridQueueIyEESS_EEvT0_T1_T2_T3_T4_T5_(0x78)	register count: 44
	<0x38>
	Attribute:	EIATTR_MIN_STACK_SIZE
	Format:	EIFMT_SVAL
	Value:	function: _ZN6thrust20THRUST_200400_750_NS8cuda_cub4core13_kernel_agentINS1_8__reduce11ReduceAgentINS0_12zip_iteratorIN4cuda3std3__45tupleIJNS0_6detail15normal_iteratorINS0_10device_ptrI6vec_2dIfEEEEENS1_19counting_iterator_tIlEEEEEEEPNSA_IJSF_lEEESM_lNS1_9__extrema9arg_max_fISF_l7compareIfEEEEESL_SN_lN3cub17CUB_200400_750_NS13GridEvenShareIlEENSV_9GridQueueIyEESS_EEvT0_T1_T2_T3_T4_T5_(0x78)	min stack size: 0x0
	<0x39>
	Attribute:	EIATTR_FRAME_SIZE
	Format:	EIFMT_SVAL
	Value:	function: _ZN6thrust20THRUST_200400_750_NS8cuda_cub4core13_kernel_agentINS1_8__reduce11ReduceAgentINS0_12zip_iteratorIN4cuda3std3__45tupleIJNS0_6detail15normal_iteratorINS0_10device_ptrI6vec_2dIfEEEEENS1_19counting_iterator_tIlEEEEEEEPNSA_IJSF_lEEESM_lNS1_9__extrema9arg_max_fISF_l7compareIfEEEEESL_SN_lN3cub17CUB_200400_750_NS13GridEvenShareIlEENSV_9GridQueueIyEESS_EEvT0_T1_T2_T3_T4_T5_(0x78)	frame size: 0x0
	<0x40>
	Attribute:	EIATTR_REGCOUNT
	Format:	EIFMT_SVAL
	Value:	function: _ZN6thrust20THRUST_200400_750_NS8cuda_cub4core13_kernel_agentINS1_8__reduce11ReduceAgentIPN4cuda3std3__45tupleIJ6vec_2dIfElEEESD_SC_lNS1_9__extrema9arg_max_fISB_l7compareIfEEEEESD_SD_iSI_EEvT0_T1_T2_T3_(0x77)	register count: 44
	<0x41>
	Attribute:	EIATTR_MIN_STACK_SIZE
	Format:	EIFMT_SVAL
	Value:	function: _ZN6thrust20THRUST_200400_750_NS8cuda_cub4core13_kernel_agentINS1_8__reduce11ReduceAgentIPN4cuda3std3__45tupleIJ6vec_2dIfElEEESD_SC_lNS1_9__extrema9arg_max_fISB_l7compareIfEEEEESD_SD_iSI_EEvT0_T1_T2_T3_(0x77)	min stack size: 0x0
	<0x42>
	Attribute:	EIATTR_FRAME_SIZE
	Format:	EIFMT_SVAL
	Value:	function: _ZN6thrust20THRUST_200400_750_NS8cuda_cub4core13_kernel_agentINS1_8__reduce11ReduceAgentIPN4cuda3std3__45tupleIJ6vec_2dIfElEEESD_SC_lNS1_9__extrema9arg_max_fISB_l7compareIfEEEEESD_SD_iSI_EEvT0_T1_T2_T3_(0x77)	frame size: 0x0
	<0x43>
	Attribute:	EIATTR_REGCOUNT
	Format:	EIFMT_SVAL
	Value:	function: _ZN6thrust20THRUST_200400_750_NS8cuda_cub4core13_kernel_agentINS1_8__reduce11ReduceAgentINS1_26transform_input_iterator_tIN4cuda3std3__45tupleIJNSA_IJ6vec_2dIfElEEESD_EEENS0_12zip_iteratorINSA_IJNS0_6detail15normal_iteratorINS0_10device_ptrISC_EEEENS1_19counting_iterator_tIlEEEEEEENS1_9__extrema12arg_minmax_fISC_l7compareIfEE15duplicate_tupleEEEPSE_SE_iST_EESV_SW_iST_EEvT0_T1_T2_T3_(0x76)	register count: 60
	<0x44>
	Attribute:	EIATTR_MIN_STACK_SIZE
	Format:	EIFMT_SVAL
	Value:	function: _ZN6thrust20THRUST_200400_750_NS8cuda_cub4core13_kernel_agentINS1_8__reduce11ReduceAgentINS1_26transform_input_iterator_tIN4cuda3std3__45tupleIJNSA_IJ6vec_2dIfElEEESD_EEENS0_12zip_iteratorINSA_IJNS0_6detail15normal_iteratorINS0_10device_ptrISC_EEEENS1_19counting_iterator_tIlEEEEEEENS1_9__extrema12arg_minmax_fISC_l7compareIfEE15duplicate_tupleEEEPSE_SE_iST_EESV_SW_iST_EEvT0_T1_T2_T3_(0x76)	min stack size: 0x0
	<0x45>
	Attribute:	EIATTR_FRAME_SIZE
	Format:	EIFMT_SVAL
	Value:	function: _ZN6thrust20THRUST_200400_750_NS8cuda_cub4core13_kernel_agentINS1_8__reduce11ReduceAgentINS1_26transform_input_iterator_tIN4cuda3std3__45tupleIJNSA_IJ6vec_2dIfElEEESD_EEENS0_12zip_iteratorINSA_IJNS0_6detail15normal_iteratorINS0_10device_ptrISC_EEEENS1_19counting_iterator_tIlEEEEEEENS1_9__extrema12arg_minmax_fISC_l7compareIfEE15duplicate_tupleEEEPSE_SE_iST_EESV_SW_iST_EEvT0_T1_T2_T3_(0x76)	frame size: 0x0
	<0x46>
	Attribute:	EIATTR_REGCOUNT
	Format:	EIFMT_SVAL
	Value:	function: _ZN6thrust20THRUST_200400_750_NS8cuda_cub4core13_kernel_agentINS1_8__reduce11ReduceAgentINS1_26transform_input_iterator_tIN4cuda3std3__45tupleIJNSA_IJ6vec_2dIfElEEESD_EEENS0_12zip_iteratorINSA_IJNS0_6detail15normal_iteratorINS0_10device_ptrISC_EEEENS1_19counting_iterator_tIlEEEEEEENS1_9__extrema12arg_minmax_fISC_l7compareIfEE15duplicate_tupleEEEPSE_SE_iST_EESV_SW_iN3cub17CUB_200400_750_NS13GridEvenShareIiEENSZ_9GridQueueIjEEST_EEvT0_T1_T2_T3_T4_T5_(0x75)	register count: 60
	<0x47>
	Attribute:	EIATTR_MIN_STACK_SIZE
	Format:	EIFMT_SVAL
	Value:	function: _ZN6thrust20THRUST_200400_750_NS8cuda_cub4core13_kernel_agentINS1_8__reduce11ReduceAgentINS1_26transform_input_iterator_tIN4cuda3std3__45tupleIJNSA_IJ6vec_2dIfElEEESD_EEENS0_12zip_iteratorINSA_IJNS0_6detail15normal_iteratorINS0_10device_ptrISC_EEEENS1_19counting_iterator_tIlEEEEEEENS1_9__extrema12arg_minmax_fISC_l7compareIfEE15duplicate_tupleEEEPSE_SE_iST_EESV_SW_iN3cub17CUB_200400_750_NS13GridEvenShareIiEENSZ_9GridQueueIjEEST_EEvT0_T1_T2_T3_T4_T5_(0x75)	min stack size: 0x0
	<0x48>
	Attribute:	EIATTR_FRAME_SIZE
	Format:	EIFMT_SVAL
	Value:	function: _ZN6thrust20THRUST_200400_750_NS8cuda_cub4core13_kernel_agentINS1_8__reduce11ReduceAgentINS1_26transform_input_iterator_tIN4cuda3std3__45tupleIJNSA_IJ6vec_2dIfElEEESD_EEENS0_12zip_iteratorINSA_IJNS0_6detail15normal_iteratorINS0_10device_ptrISC_EEEENS1_19counting_iterator_tIlEEEEEEENS1_9__extrema12arg_minmax_fISC_l7compareIfEE15duplicate_tupleEEEPSE_SE_iST_EESV_SW_iN3cub17CUB_200400_750_NS13GridEvenShareIiEENSZ_9GridQueueIjEEST_EEvT0_T1_T2_T3_T4_T5_(0x75)	frame size: 0x0
	<0x49>
	Attribute:	EIATTR_REGCOUNT
	Format:	EIFMT_SVAL
	Value:	function: _ZN6thrust20THRUST_200400_750_NS8cuda_cub4core13_kernel_agentINS1_8__reduce11ReduceAgentIPN4cuda3std3__45tupleIJNS9_IJ6vec_2dIfElEEESC_EEESE_SD_iNS1_9__extrema12arg_minmax_fISB_l7compareIfEEEEESE_SE_iSJ_EEvT0_T1_T2_T3_(0x74)	register count: 60
	<0x50>
	Attribute:	EIATTR_MIN_STACK_SIZE
	Format:	EIFMT_SVAL
	Value:	function: _ZN6thrust20THRUST_200400_750_NS8cuda_cub4core13_kernel_agentINS1_8__reduce11ReduceAgentIPN4cuda3std3__45tupleIJNS9_IJ6vec_2dIfElEEESC_EEESE_SD_iNS1_9__extrema12arg_minmax_fISB_l7compareIfEEEEESE_SE_iSJ_EEvT0_T1_T2_T3_(0x74)	min stack size: 0x0
	<0x51>
	Attribute:	EIATTR_FRAME_SIZE
	Format:	EIFMT_SVAL
	Value:	function: _ZN6thrust20THRUST_200400_750_NS8cuda_cub4core13_kernel_agentINS1_8__reduce11ReduceAgentIPN4cuda3std3__45tupleIJNS9_IJ6vec_2dIfElEEESC_EEESE_SD_iNS1_9__extrema12arg_minmax_fISB_l7compareIfEEEEESE_SE_iSJ_EEvT0_T1_T2_T3_(0x74)	frame size: 0x0
	<0x52>
	Attribute:	EIATTR_REGCOUNT
	Format:	EIFMT_SVAL
	Value:	function: _ZN6thrust20THRUST_200400_750_NS8cuda_cub4core13_kernel_agentINS1_8__reduce11ReduceAgentINS1_26transform_input_iterator_tIN4cuda3std3__45tupleIJNSA_IJ6vec_2dIfElEEESD_EEENS0_12zip_iteratorINSA_IJNS0_6detail15normal_iteratorINS0_10device_ptrISC_EEEENS1_19counting_iterator_tIlEEEEEEENS1_9__extrema12arg_minmax_fISC_l7compareIfEE15duplicate_tupleEEEPSE_SE_lST_EESV_SW_lST_EEvT0_T1_T2_T3_(0x73)	register count: 60
	<0x53>
	Attribute:	EIATTR_MIN_STACK_SIZE
	Format:	EIFMT_SVAL
	Value:	function: _ZN6thrust20THRUST_200400_750_NS8cuda_cub4core13_kernel_agentINS1_8__reduce11ReduceAgentINS1_26transform_input_iterator_tIN4cuda3std3__45tupleIJNSA_IJ6vec_2dIfElEEESD_EEENS0_12zip_iteratorINSA_IJNS0_6detail15normal_iteratorINS0_10device_ptrISC_EEEENS1_19counting_iterator_tIlEEEEEEENS1_9__extrema12arg_minmax_fISC_l7compareIfEE15duplicate_tupleEEEPSE_SE_lST_EESV_SW_lST_EEvT0_T1_T2_T3_(0x73)	min stack size: 0x0
	<0x54>
	Attribute:	EIATTR_FRAME_SIZE
	Format:	EIFMT_SVAL
	Value:	function: _ZN6thrust20THRUST_200400_750_NS8cuda_cub4core13_kernel_agentINS1_8__reduce11ReduceAgentINS1_26transform_input_iterator_tIN4cuda3std3__45tupleIJNSA_IJ6vec_2dIfElEEESD_EEENS0_12zip_iteratorINSA_IJNS0_6detail15normal_iteratorINS0_10device_ptrISC_EEEENS1_19counting_iterator_tIlEEEEEEENS1_9__extrema12arg_minmax_fISC_l7compareIfEE15duplicate_tupleEEEPSE_SE_lST_EESV_SW_lST_EEvT0_T1_T2_T3_(0x73)	frame size: 0x0
	<0x55>
	Attribute:	EIATTR_REGCOUNT
	Format:	EIFMT_SVAL
	Value:	function: _ZN6thrust20THRUST_200400_750_NS8cuda_cub4core13_kernel_agentINS1_8__reduce11ReduceAgentINS1_26transform_input_iterator_tIN4cuda3std3__45tupleIJNSA_IJ6vec_2dIfElEEESD_EEENS0_12zip_iteratorINSA_IJNS0_6detail15normal_iteratorINS0_10device_ptrISC_EEEENS1_19counting_iterator_tIlEEEEEEENS1_9__extrema12arg_minmax_fISC_l7compareIfEE15duplicate_tupleEEEPSE_SE_lST_EESV_SW_lN3cub17CUB_200400_750_NS13GridEvenShareIlEENSZ_9GridQueueIyEEST_EEvT0_T1_T2_T3_T4_T5_(0x72)	register count: 60
	<0x56>
	Attribute:	EIATTR_MIN_STACK_SIZE
	Format:	EIFMT_SVAL
	Value:	function: _ZN6thrust20THRUST_200400_750_NS8cuda_cub4core13_kernel_agentINS1_8__reduce11ReduceAgentINS1_26transform_input_iterator_tIN4cuda3std3__45tupleIJNSA_IJ6vec_2dIfElEEESD_EEENS0_12zip_iteratorINSA_IJNS0_6detail15normal_iteratorINS0_10device_ptrISC_EEEENS1_19counting_iterator_tIlEEEEEEENS1_9__extrema12arg_minmax_fISC_l7compareIfEE15duplicate_tupleEEEPSE_SE_lST_EESV_SW_lN3cub17CUB_200400_750_NS13GridEvenShareIlEENSZ_9GridQueueIyEEST_EEvT0_T1_T2_T3_T4_T5_(0x72)	min stack size: 0x0
	<0x57>
	Attribute:	EIATTR_FRAME_SIZE
	Format:	EIFMT_SVAL
	Value:	function: _ZN6thrust20THRUST_200400_750_NS8cuda_cub4core13_kernel_agentINS1_8__reduce11ReduceAgentINS1_26transform_input_iterator_tIN4cuda3std3__45tupleIJNSA_IJ6vec_2dIfElEEESD_EEENS0_12zip_iteratorINSA_IJNS0_6detail15normal_iteratorINS0_10device_ptrISC_EEEENS1_19counting_iterator_tIlEEEEEEENS1_9__extrema12arg_minmax_fISC_l7compareIfEE15duplicate_tupleEEEPSE_SE_lST_EESV_SW_lN3cub17CUB_200400_750_NS13GridEvenShareIlEENSZ_9GridQueueIyEEST_EEvT0_T1_T2_T3_T4_T5_(0x72)	frame size: 0x0
	<0x58>
	Attribute:	EIATTR_REGCOUNT
	Format:	EIFMT_SVAL
	Value:	function: _ZN6thrust20THRUST_200400_750_NS8cuda_cub4core13_kernel_agentINS1_8__reduce11ReduceAgentIPN4cuda3std3__45tupleIJNS9_IJ6vec_2dIfElEEESC_EEESE_SD_lNS1_9__extrema12arg_minmax_fISB_l7compareIfEEEEESE_SE_iSJ_EEvT0_T1_T2_T3_(0x71)	register count: 60
	<0x59>
	Attribute:	EIATTR_MIN_STACK_SIZE
	Format:	EIFMT_SVAL
	Value:	function: _ZN6thrust20THRUST_200400_750_NS8cuda_cub4core13_kernel_agentINS1_8__reduce11ReduceAgentIPN4cuda3std3__45tupleIJNS9_IJ6vec_2dIfElEEESC_EEESE_SD_lNS1_9__extrema12arg_minmax_fISB_l7compareIfEEEEESE_SE_iSJ_EEvT0_T1_T2_T3_(0x71)	min stack size: 0x0
	<0x60>
	Attribute:	EIATTR_FRAME_SIZE
	Format:	EIFMT_SVAL
	Value:	function: _ZN6thrust20THRUST_200400_750_NS8cuda_cub4core13_kernel_agentINS1_8__reduce11ReduceAgentIPN4cuda3std3__45tupleIJNS9_IJ6vec_2dIfElEEESC_EEESE_SD_lNS1_9__extrema12arg_minmax_fISB_l7compareIfEEEEESE_SE_iSJ_EEvT0_T1_T2_T3_(0x71)	frame size: 0x0
	<0x61>
	Attribute:	EIATTR_REGCOUNT
	Format:	EIFMT_SVAL
	Value:	function: _ZN3cub17CUB_200400_750_NS11EmptyKernelIvEEvv(0x70)	register count: 4
	<0x62>
	Attribute:	EIATTR_MIN_STACK_SIZE
	Format:	EIFMT_SVAL
	Value:	function: _ZN3cub17CUB_200400_750_NS11EmptyKernelIvEEvv(0x70)	min stack size: 0x0
	<0x63>
	Attribute:	EIATTR_FRAME_SIZE
	Format:	EIFMT_SVAL
	Value:	function: _ZN3cub17CUB_200400_750_NS11EmptyKernelIvEEvv(0x70)	frame size: 0x0
	<0x64>
	Attribute:	EIATTR_REGCOUNT
	Format:	EIFMT_SVAL
	Value:	function: _ZN3cub17CUB_200400_750_NS6detail8for_each13static_kernelINS2_12policy_hub_t12policy_350_tEmNS2_12op_wrapper_tImN6thrust20THRUST_200400_750_NS6detail23allocator_traits_detail24construct1_via_allocatorINS9_18no_throw_allocatorINS9_19temporary_allocatorIN4cuda3std3__45tupleIJ6vec_2dIfElEEENS8_8cuda_cub5par_tEEEEEEENS8_7pointerISK_SM_NS8_11use_defaultESR_EEEEEEvT0_T1_(0x6f)	register count: 9
	<0x65>
	Attribute:	EIATTR_MIN_STACK_SIZE
	Format:	EIFMT_SVAL
	Value:	function: _ZN3cub17CUB_200400_750_NS6detail8for_each13static_kernelINS2_12policy_hub_t12policy_350_tEmNS2_12op_wrapper_tImN6thrust20THRUST_200400_750_NS6detail23allocator_traits_detail24construct1_via_allocatorINS9_18no_throw_allocatorINS9_19temporary_allocatorIN4cuda3std3__45tupleIJ6vec_2dIfElEEENS8_8cuda_cub5par_tEEEEEEENS8_7pointerISK_SM_NS8_11use_defaultESR_EEEEEEvT0_T1_(0x6f)	min stack size: 0x0
	<0x66>
	Attribute:	EIATTR_FRAME_SIZE
	Format:	EIFMT_SVAL
	Value:	function: _ZN3cub17CUB_200400_750_NS6detail8for_each13static_kernelINS2_12policy_hub_t12policy_350_tEmNS2_12op_wrapper_tImN6thrust20THRUST_200400_750_NS6detail23allocator_traits_detail24construct1_via_allocatorINS9_18no_throw_allocatorINS9_19temporary_allocatorIN4cuda3std3__45tupleIJ6vec_2dIfElEEENS8_8cuda_cub5par_tEEEEEEENS8_7pointerISK_SM_NS8_11use_defaultESR_EEEEEEvT0_T1_(0x6f)	frame size: 0x0
	<0x67>
	Attribute:	EIATTR_REGCOUNT
	Format:	EIFMT_SVAL
	Value:	function: _ZN3cub17CUB_200400_750_NS6detail8for_each13static_kernelINS2_12policy_hub_t12policy_350_tElNS2_12op_wrapper_tIlN6thrust20THRUST_200400_750_NS6detail23allocator_traits_detail5gozerENS8_7pointerIN4cuda3std3__45tupleIJ6vec_2dIfElEEENS8_8cuda_cub5par_tENS8_11use_defaultESM_EEEEEEvT0_T1_(0x6e)	register count: 4
	<0x68>
	Attribute:	EIATTR_MIN_STACK_SIZE
	Format:	EIFMT_SVAL
	Value:	function: _ZN3cub17CUB_200400_750_NS6detail8for_each13static_kernelINS2_12policy_hub_t12policy_350_tElNS2_12op_wrapper_tIlN6thrust20THRUST_200400_750_NS6detail23allocator_traits_detail5gozerENS8_7pointerIN4cuda3std3__45tupleIJ6vec_2dIfElEEENS8_8cuda_cub5par_tENS8_11use_defaultESM_EEEEEEvT0_T1_(0x6e)	min stack size: 0x0
	<0x69>
	Attribute:	EIATTR_FRAME_SIZE
	Format:	EIFMT_SVAL
	Value:	function: _ZN3cub17CUB_200400_750_NS6detail8for_each13static_kernelINS2_12policy_hub_t12policy_350_tElNS2_12op_wrapper_tIlN6thrust20THRUST_200400_750_NS6detail23allocator_traits_detail5gozerENS8_7pointerIN4cuda3std3__45tupleIJ6vec_2dIfElEEENS8_8cuda_cub5par_tENS8_11use_defaultESM_EEEEEEvT0_T1_(0x6e)	frame size: 0x0
	<0x70>
	Attribute:	EIATTR_REGCOUNT
	Format:	EIFMT_SVAL
	Value:	function: _ZN3cub17CUB_200400_750_NS6detail8for_each13static_kernelINS2_12policy_hub_t12policy_350_tElN6thrust20THRUST_200400_750_NS8cuda_cub20__uninitialized_copy7functorIPN4cuda3std3__45tupleIJ6vec_2dIfElEEENS7_7pointerISH_NS8_5par_tENS7_11use_defaultESL_EEEEEEvT0_T1_(0x6d)	register count: 14
	<0x71>
	Attribute:	EIATTR_MIN_STACK_SIZE
	Format:	EIFMT_SVAL
	Value:	function: _ZN3cub17CUB_200400_750_NS6detail8for_each13static_kernelINS2_12policy_hub_t12policy_350_tElN6thrust20THRUST_200400_750_NS8cuda_cub20__uninitialized_copy7functorIPN4cuda3std3__45tupleIJ6vec_2dIfElEEENS7_7pointerISH_NS8_5par_tENS7_11use_defaultESL_EEEEEEvT0_T1_(0x6d)	min stack size: 0x0
	<0x72>
	Attribute:	EIATTR_FRAME_SIZE
	Format:	EIFMT_SVAL
	Value:	function: _ZN3cub17CUB_200400_750_NS6detail8for_each13static_kernelINS2_12policy_hub_t12policy_350_tElN6thrust20THRUST_200400_750_NS8cuda_cub20__uninitialized_copy7functorIPN4cuda3std3__45tupleIJ6vec_2dIfElEEENS7_7pointerISH_NS8_5par_tENS7_11use_defaultESL_EEEEEEvT0_T1_(0x6d)	frame size: 0x0
	<0x73>
	Attribute:	EIATTR_REGCOUNT
	Format:	EIFMT_SVAL
	Value:	function: _ZN3cub17CUB_200400_750_NS6detail8for_each13static_kernelINS2_12policy_hub_t12policy_350_tElN6thrust20THRUST_200400_750_NS8cuda_cub11__transform17unary_transform_fIPN4cuda3std3__45tupleIJ6vec_2dIfElEEESI_NS9_14no_stencil_tagENS7_8identityISH_EENS9_21always_true_predicateEEEEEvT0_T1_(0x6c)	register count: 14
	<0x74>
	Attribute:	EIATTR_MIN_STACK_SIZE
	Format:	EIFMT_SVAL
	Value:	function: _ZN3cub17CUB_200400_750_NS6detail8for_each13static_kernelINS2_12policy_hub_t12policy_350_tElN6thrust20THRUST_200400_750_NS8cuda_cub11__transform17unary_transform_fIPN4cuda3std3__45tupleIJ6vec_2dIfElEEESI_NS9_14no_stencil_tagENS7_8identityISH_EENS9_21always_true_predicateEEEEEvT0_T1_(0x6c)	min stack size: 0x0
	<0x75>
	Attribute:	EIATTR_FRAME_SIZE
	Format:	EIFMT_SVAL
	Value:	function: _ZN3cub17CUB_200400_750_NS6detail8for_each13static_kernelINS2_12policy_hub_t12policy_350_tElN6thrust20THRUST_200400_750_NS8cuda_cub11__transform17unary_transform_fIPN4cuda3std3__45tupleIJ6vec_2dIfElEEESI_NS9_14no_stencil_tagENS7_8identityISH_EENS9_21always_true_predicateEEEEEvT0_T1_(0x6c)	frame size: 0x0
	<0x76>
	Attribute:	EIATTR_REGCOUNT
	Format:	EIFMT_SVAL
	Value:	function: _ZN3cub17CUB_200400_750_NS6detail8for_each13static_kernelINS2_12policy_hub_t12policy_350_tEmNS2_12op_wrapper_tImN6thrust20THRUST_200400_750_NS6detail23allocator_traits_detail24construct1_via_allocatorINS9_18no_throw_allocatorINS9_19temporary_allocatorIN4cuda3std3__45tupleIJNSH_IJ6vec_2dIfElEEESK_EEENS8_8cuda_cub5par_tEEEEEEENS8_7pointerISL_SN_NS8_11use_defaultESS_EEEEEEvT0_T1_(0x6b)	register count: 9
	<0x77>
	Attribute:	EIATTR_MIN_STACK_SIZE
	Format:	EIFMT_SVAL
	Value:	function: _ZN3cub17CUB_200400_750_NS6detail8for_each13static_kernelINS2_12policy_hub_t12policy_350_tEmNS2_12op_wrapper_tImN6thrust20THRUST_200400_750_NS6detail23allocator_traits_detail24construct1_via_allocatorINS9_18no_throw_allocatorINS9_19temporary_allocatorIN4cuda3std3__45tupleIJNSH_IJ6vec_2dIfElEEESK_EEENS8_8cuda_cub5par_tEEEEEEENS8_7pointerISL_SN_NS8_11use_defaultESS_EEEEEEvT0_T1_(0x6b)	min stack size: 0x0
	<0x78>
	Attribute:	EIATTR_FRAME_SIZE
	Format:	EIFMT_SVAL
	Value:	function: _ZN3cub17CUB_200400_750_NS6detail8for_each13static_kernelINS2_12policy_hub_t12policy_350_tEmNS2_12op_wrapper_tImN6thrust20THRUST_200400_750_NS6detail23allocator_traits_detail24construct1_via_allocatorINS9_18no_throw_allocatorINS9_19temporary_allocatorIN4cuda3std3__45tupleIJNSH_IJ6vec_2dIfElEEESK_EEENS8_8cuda_cub5par_tEEEEEEENS8_7pointerISL_SN_NS8_11use_defaultESS_EEEEEEvT0_T1_(0x6b)	frame size: 0x0
	<0x79>
	Attribute:	EIATTR_REGCOUNT
	Format:	EIFMT_SVAL
	Value:	function: _ZN3cub17CUB_200400_750_NS6detail8for_each13static_kernelINS2_12policy_hub_t12policy_350_tElNS2_12op_wrapper_tIlN6thrust20THRUST_200400_750_NS6detail23allocator_traits_detail5gozerENS8_7pointerIN4cuda3std3__45tupleIJNSG_IJ6vec_2dIfElEEESJ_EEENS8_8cuda_cub5par_tENS8_11use_defaultESN_EEEEEEvT0_T1_(0x6a)	register count: 4
	<0x80>
	Attribute:	EIATTR_MIN_STACK_SIZE
	Format:	EIFMT_SVAL
	Value:	function: _ZN3cub17CUB_200400_750_NS6detail8for_each13static_kernelINS2_12policy_hub_t12policy_350_tElNS2_12op_wrapper_tIlN6thrust20THRUST_200400_750_NS6detail23allocator_traits_detail5gozerENS8_7pointerIN4cuda3std3__45tupleIJNSG_IJ6vec_2dIfElEEESJ_EEENS8_8cuda_cub5par_tENS8_11use_defaultESN_EEEEEEvT0_T1_(0x6a)	min stack size: 0x0
	<0x81>
	Attribute:	EIATTR_FRAME_SIZE
	Format:	EIFMT_SVAL
	Value:	function: _ZN3cub17CUB_200400_750_NS6detail8for_each13static_kernelINS2_12policy_hub_t12policy_350_tElNS2_12op_wrapper_tIlN6thrust20THRUST_200400_750_NS6detail23allocator_traits_detail5gozerENS8_7pointerIN4cuda3std3__45tupleIJNSG_IJ6vec_2dIfElEEESJ_EEENS8_8cuda_cub5par_tENS8_11use_defaultESN_EEEEEEvT0_T1_(0x6a)	frame size: 0x0
	<0x82>
	Attribute:	EIATTR_REGCOUNT
	Format:	EIFMT_SVAL
	Value:	function: _ZN3cub17CUB_200400_750_NS6detail8for_each13static_kernelINS2_12policy_hub_t12policy_350_tElN6thrust20THRUST_200400_750_NS8cuda_cub20__uninitialized_copy7functorIPN4cuda3std3__45tupleIJNSE_IJ6vec_2dIfElEEESH_EEENS7_7pointerISI_NS8_5par_tENS7_11use_defaultESM_EEEEEEvT0_T1_(0x69)	register count: 22
	<0x83>
	Attribute:	EIATTR_MIN_STACK_SIZE
	Format:	EIFMT_SVAL
	Value:	function: _ZN3cub17CUB_200400_750_NS6detail8for_each13static_kernelINS2_12policy_hub_t12policy_350_tElN6thrust20THRUST_200400_750_NS8cuda_cub20__uninitialized_copy7functorIPN4cuda3std3__45tupleIJNSE_IJ6vec_2dIfElEEESH_EEENS7_7pointerISI_NS8_5par_tENS7_11use_defaultESM_EEEEEEvT0_T1_(0x69)	min stack size: 0x0
	<0x84>
	Attribute:	EIATTR_FRAME_SIZE
	Format:	EIFMT_SVAL
	Value:	function: _ZN3cub17CUB_200400_750_NS6detail8for_each13static_kernelINS2_12policy_hub_t12policy_350_tElN6thrust20THRUST_200400_750_NS8cuda_cub20__uninitialized_copy7functorIPN4cuda3std3__45tupleIJNSE_IJ6vec_2dIfElEEESH_EEENS7_7pointerISI_NS8_5par_tENS7_11use_defaultESM_EEEEEEvT0_T1_(0x69)	frame size: 0x0
	<0x85>
	Attribute:	EIATTR_REGCOUNT
	Format:	EIFMT_SVAL
	Value:	function: _ZN3cub17CUB_200400_750_NS6detail8for_each13static_kernelINS2_12policy_hub_t12policy_350_tElN6thrust20THRUST_200400_750_NS8cuda_cub11__transform17unary_transform_fIPN4cuda3std3__45tupleIJNSE_IJ6vec_2dIfElEEESH_EEESJ_NS9_14no_stencil_tagENS7_8identityISI_EENS9_21always_true_predicateEEEEEvT0_T1_(0x68)	register count: 18
	<0x86>
	Attribute:	EIATTR_MIN_STACK_SIZE
	Format:	EIFMT_SVAL
	Value:	function: _ZN3cub17CUB_200400_750_NS6detail8for_each13static_kernelINS2_12policy_hub_t12policy_350_tElN6thrust20THRUST_200400_750_NS8cuda_cub11__transform17unary_transform_fIPN4cuda3std3__45tupleIJNSE_IJ6vec_2dIfElEEESH_EEESJ_NS9_14no_stencil_tagENS7_8identityISI_EENS9_21always_true_predicateEEEEEvT0_T1_(0x68)	min stack size: 0x0
	<0x87>
	Attribute:	EIATTR_FRAME_SIZE
	Format:	EIFMT_SVAL
	Value:	function: _ZN3cub17CUB_200400_750_NS6detail8for_each13static_kernelINS2_12policy_hub_t12policy_350_tElN6thrust20THRUST_200400_750_NS8cuda_cub11__transform17unary_transform_fIPN4cuda3std3__45tupleIJNSE_IJ6vec_2dIfElEEESH_EEESJ_NS9_14no_stencil_tagENS7_8identityISI_EENS9_21always_true_predicateEEEEEvT0_T1_(0x68)	frame size: 0x0
	<0x88>
	Attribute:	EIATTR_MIN_STACK_SIZE
	Format:	EIFMT_SVAL
	Value:	function: _ZN3cub17CUB_200400_750_NS6detail8for_each13static_kernelINS2_12policy_hub_t12policy_350_tElN6thrust20THRUST_200400_750_NS8cuda_cub11__transform17unary_transform_fIPN4cuda3std3__45tupleIJNSE_IJ6vec_2dIfElEEESH_EEESJ_NS9_14no_stencil_tagENS7_8identityISI_EENS9_21always_true_predicateEEEEEvT0_T1_(0x68)	min stack size: 0x0
	<0x89>
	Attribute:	EIATTR_MIN_STACK_SIZE
	Format:	EIFMT_SVAL
	Value:	function: _ZN3cub17CUB_200400_750_NS6detail8for_each13static_kernelINS2_12policy_hub_t12policy_350_tElN6thrust20THRUST_200400_750_NS8cuda_cub20__uninitialized_copy7functorIPN4cuda3std3__45tupleIJNSE_IJ6vec_2dIfElEEESH_EEENS7_7pointerISI_NS8_5par_tENS7_11use_defaultESM_EEEEEEvT0_T1_(0x69)	min stack size: 0x0
	<0x90>
	Attribute:	EIATTR_MIN_STACK_SIZE
	Format:	EIFMT_SVAL
	Value:	function: _ZN3cub17CUB_200400_750_NS6detail8for_each13static_kernelINS2_12policy_hub_t12policy_350_tElNS2_12op_wrapper_tIlN6thrust20THRUST_200400_750_NS6detail23allocator_traits_detail5gozerENS8_7pointerIN4cuda3std3__45tupleIJNSG_IJ6vec_2dIfElEEESJ_EEENS8_8cuda_cub5par_tENS8_11use_defaultESN_EEEEEEvT0_T1_(0x6a)	min stack size: 0x0
	<0x91>
	Attribute:	EIATTR_MIN_STACK_SIZE
	Format:	EIFMT_SVAL
	Value:	function: _ZN3cub17CUB_200400_750_NS6detail8for_each13static_kernelINS2_12policy_hub_t12policy_350_tEmNS2_12op_wrapper_tImN6thrust20THRUST_200400_750_NS6detail23allocator_traits_detail24construct1_via_allocatorINS9_18no_throw_allocatorINS9_19temporary_allocatorIN4cuda3std3__45tupleIJNSH_IJ6vec_2dIfElEEESK_EEENS8_8cuda_cub5par_tEEEEEEENS8_7pointerISL_SN_NS8_11use_defaultESS_EEEEEEvT0_T1_(0x6b)	min stack size: 0x0
	<0x92>
	Attribute:	EIATTR_MIN_STACK_SIZE
	Format:	EIFMT_SVAL
	Value:	function: _ZN3cub17CUB_200400_750_NS6detail8for_each13static_kernelINS2_12policy_hub_t12policy_350_tElN6thrust20THRUST_200400_750_NS8cuda_cub11__transform17unary_transform_fIPN4cuda3std3__45tupleIJ6vec_2dIfElEEESI_NS9_14no_stencil_tagENS7_8identityISH_EENS9_21always_true_predicateEEEEEvT0_T1_(0x6c)	min stack size: 0x0
	<0x93>
	Attribute:	EIATTR_MIN_STACK_SIZE
	Format:	EIFMT_SVAL
	Value:	function: _ZN3cub17CUB_200400_750_NS6detail8for_each13static_kernelINS2_12policy_hub_t12policy_350_tElN6thrust20THRUST_200400_750_NS8cuda_cub20__uninitialized_copy7functorIPN4cuda3std3__45tupleIJ6vec_2dIfElEEENS7_7pointerISH_NS8_5par_tENS7_11use_defaultESL_EEEEEEvT0_T1_(0x6d)	min stack size: 0x0
	<0x94>
	Attribute:	EIATTR_MIN_STACK_SIZE
	Format:	EIFMT_SVAL
	Value:	function: _ZN3cub17CUB_200400_750_NS6detail8for_each13static_kernelINS2_12policy_hub_t12policy_350_tElNS2_12op_wrapper_tIlN6thrust20THRUST_200400_750_NS6detail23allocator_traits_detail5gozerENS8_7pointerIN4cuda3std3__45tupleIJ6vec_2dIfElEEENS8_8cuda_cub5par_tENS8_11use_defaultESM_EEEEEEvT0_T1_(0x6e)	min stack size: 0x0
	<0x95>
	Attribute:	EIATTR_MIN_STACK_SIZE
	Format:	EIFMT_SVAL
	Value:	function: _ZN3cub17CUB_200400_750_NS6detail8for_each13static_kernelINS2_12policy_hub_t12policy_350_tEmNS2_12op_wrapper_tImN6thrust20THRUST_200400_750_NS6detail23allocator_traits_detail24construct1_via_allocatorINS9_18no_throw_allocatorINS9_19temporary_allocatorIN4cuda3std3__45tupleIJ6vec_2dIfElEEENS8_8cuda_cub5par_tEEEEEEENS8_7pointerISK_SM_NS8_11use_defaultESR_EEEEEEvT0_T1_(0x6f)	min stack size: 0x0
	<0x96>
	Attribute:	EIATTR_MIN_STACK_SIZE
	Format:	EIFMT_SVAL
	Value:	function: _ZN3cub17CUB_200400_750_NS11EmptyKernelIvEEvv(0x70)	min stack size: 0x0
	<0x97>
	Attribute:	EIATTR_MIN_STACK_SIZE
	Format:	EIFMT_SVAL
	Value:	function: _ZN6thrust20THRUST_200400_750_NS8cuda_cub4core13_kernel_agentINS1_8__reduce11ReduceAgentIPN4cuda3std3__45tupleIJNS9_IJ6vec_2dIfElEEESC_EEESE_SD_lNS1_9__extrema12arg_minmax_fISB_l7compareIfEEEEESE_SE_iSJ_EEvT0_T1_T2_T3_(0x71)	min stack size: 0x0
	<0x98>
	Attribute:	EIATTR_MIN_STACK_SIZE
	Format:	EIFMT_SVAL
	Value:	function: _ZN6thrust20THRUST_200400_750_NS8cuda_cub4core13_kernel_agentINS1_8__reduce11ReduceAgentINS1_26transform_input_iterator_tIN4cuda3std3__45tupleIJNSA_IJ6vec_2dIfElEEESD_EEENS0_12zip_iteratorINSA_IJNS0_6detail15normal_iteratorINS0_10device_ptrISC_EEEENS1_19counting_iterator_tIlEEEEEEENS1_9__extrema12arg_minmax_fISC_l7compareIfEE15duplicate_tupleEEEPSE_SE_lST_EESV_SW_lN3cub17CUB_200400_750_NS13GridEvenShareIlEENSZ_9GridQueueIyEEST_EEvT0_T1_T2_T3_T4_T5_(0x72)	min stack size: 0x0
	<0x99>
	Attribute:	EIATTR_MIN_STACK_SIZE
	Format:	EIFMT_SVAL
	Value:	function: _ZN6thrust20THRUST_200400_750_NS8cuda_cub4core13_kernel_agentINS1_8__reduce11ReduceAgentINS1_26transform_input_iterator_tIN4cuda3std3__45tupleIJNSA_IJ6vec_2dIfElEEESD_EEENS0_12zip_iteratorINSA_IJNS0_6detail15normal_iteratorINS0_10device_ptrISC_EEEENS1_19counting_iterator_tIlEEEEEEENS1_9__extrema12arg_minmax_fISC_l7compareIfEE15duplicate_tupleEEEPSE_SE_lST_EESV_SW_lST_EEvT0_T1_T2_T3_(0x73)	min stack size: 0x0
	<0x100>
	Attribute:	EIATTR_MIN_STACK_SIZE
	Format:	EIFMT_SVAL
	Value:	function: _ZN6thrust20THRUST_200400_750_NS8cuda_cub4core13_kernel_agentINS1_8__reduce11ReduceAgentIPN4cuda3std3__45tupleIJNS9_IJ6vec_2dIfElEEESC_EEESE_SD_iNS1_9__extrema12arg_minmax_fISB_l7compareIfEEEEESE_SE_iSJ_EEvT0_T1_T2_T3_(0x74)	min stack size: 0x0
	<0x101>
	Attribute:	EIATTR_MIN_STACK_SIZE
	Format:	EIFMT_SVAL
	Value:	function: _ZN6thrust20THRUST_200400_750_NS8cuda_cub4core13_kernel_agentINS1_8__reduce11ReduceAgentINS1_26transform_input_iterator_tIN4cuda3std3__45tupleIJNSA_IJ6vec_2dIfElEEESD_EEENS0_12zip_iteratorINSA_IJNS0_6detail15normal_iteratorINS0_10device_ptrISC_EEEENS1_19counting_iterator_tIlEEEEEEENS1_9__extrema12arg_minmax_fISC_l7compareIfEE15duplicate_tupleEEEPSE_SE_iST_EESV_SW_iN3cub17CUB_200400_750_NS13GridEvenShareIiEENSZ_9GridQueueIjEEST_EEvT0_T1_T2_T3_T4_T5_(0x75)	min stack size: 0x0
	<0x102>
	Attribute:	EIATTR_MIN_STACK_SIZE
	Format:	EIFMT_SVAL
	Value:	function: _ZN6thrust20THRUST_200400_750_NS8cuda_cub4core13_kernel_agentINS1_8__reduce11ReduceAgentINS1_26transform_input_iterator_tIN4cuda3std3__45tupleIJNSA_IJ6vec_2dIfElEEESD_EEENS0_12zip_iteratorINSA_IJNS0_6detail15normal_iteratorINS0_10device_ptrISC_EEEENS1_19counting_iterator_tIlEEEEEEENS1_9__extrema12arg_minmax_fISC_l7compareIfEE15duplicate_tupleEEEPSE_SE_iST_EESV_SW_iST_EEvT0_T1_T2_T3_(0x76)	min stack size: 0x0
	<0x103>
	Attribute:	EIATTR_MIN_STACK_SIZE
	Format:	EIFMT_SVAL
	Value:	function: _ZN6thrust20THRUST_200400_750_NS8cuda_cub4core13_kernel_agentINS1_8__reduce11ReduceAgentIPN4cuda3std3__45tupleIJ6vec_2dIfElEEESD_SC_lNS1_9__extrema9arg_max_fISB_l7compareIfEEEEESD_SD_iSI_EEvT0_T1_T2_T3_(0x77)	min stack size: 0x0
	<0x104>
	Attribute:	EIATTR_MIN_STACK_SIZE
	Format:	EIFMT_SVAL
	Value:	function: _ZN6thrust20THRUST_200400_750_NS8cuda_cub4core13_kernel_agentINS1_8__reduce11ReduceAgentINS0_12zip_iteratorIN4cuda3std3__45tupleIJNS0_6detail15normal_iteratorINS0_10device_ptrI6vec_2dIfEEEEENS1_19counting_iterator_tIlEEEEEEEPNSA_IJSF_lEEESM_lNS1_9__extrema9arg_max_fISF_l7compareIfEEEEESL_SN_lN3cub17CUB_200400_750_NS13GridEvenShareIlEENSV_9GridQueueIyEESS_EEvT0_T1_T2_T3_T4_T5_(0x78)	min stack size: 0x0
	<0x105>
	Attribute:	EIATTR_MIN_STACK_SIZE
	Format:	EIFMT_SVAL
	Value:	function: _ZN6thrust20THRUST_200400_750_NS8cuda_cub4core13_kernel_agentINS1_8__reduce11ReduceAgentINS0_12zip_iteratorIN4cuda3std3__45tupleIJNS0_6detail15normal_iteratorINS0_10device_ptrI6vec_2dIfEEEEENS1_19counting_iterator_tIlEEEEEEEPNSA_IJSF_lEEESM_lNS1_9__extrema9arg_max_fISF_l7compareIfEEEEESL_SN_lSS_EEvT0_T1_T2_T3_(0x79)	min stack size: 0x0
	<0x106>
	Attribute:	EIATTR_MIN_STACK_SIZE
	Format:	EIFMT_SVAL
	Value:	function: _ZN6thrust20THRUST_200400_750_NS8cuda_cub4core13_kernel_agentINS1_8__reduce11ReduceAgentIPN4cuda3std3__45tupleIJ6vec_2dIfElEEESD_SC_iNS1_9__extrema9arg_max_fISB_l7compareIfEEEEESD_SD_iSI_EEvT0_T1_T2_T3_(0x7a)	min stack size: 0x0
	<0x107>
	Attribute:	EIATTR_MIN_STACK_SIZE
	Format:	EIFMT_SVAL
	Value:	function: _ZN6thrust20THRUST_200400_750_NS8cuda_cub4core13_kernel_agentINS1_8__reduce11ReduceAgentINS0_12zip_iteratorIN4cuda3std3__45tupleIJNS0_6detail15normal_iteratorINS0_10device_ptrI6vec_2dIfEEEEENS1_19counting_iterator_tIlEEEEEEEPNSA_IJSF_lEEESM_iNS1_9__extrema9arg_max_fISF_l7compareIfEEEEESL_SN_iN3cub17CUB_200400_750_NS13GridEvenShareIiEENSV_9GridQueueIjEESS_EEvT0_T1_T2_T3_T4_T5_(0x7b)	min stack size: 0x0
	<0x108>
	Attribute:	EIATTR_MIN_STACK_SIZE
	Format:	EIFMT_SVAL
	Value:	function: _ZN6thrust20THRUST_200400_750_NS8cuda_cub4core13_kernel_agentINS1_8__reduce11ReduceAgentINS0_12zip_iteratorIN4cuda3std3__45tupleIJNS0_6detail15normal_iteratorINS0_10device_ptrI6vec_2dIfEEEEENS1_19counting_iterator_tIlEEEEEEEPNSA_IJSF_lEEESM_iNS1_9__extrema9arg_max_fISF_l7compareIfEEEEESL_SN_iSS_EEvT0_T1_T2_T3_(0x7c)	min stack size: 0x0
	<0x109>
	Attribute:	EIATTR_MIN_STACK_SIZE
	Format:	EIFMT_SVAL
	Value:	function: _ZN6thrust20THRUST_200400_750_NS8cuda_cub4core13_kernel_agentINS1_8__reduce11ReduceAgentIPN4cuda3std3__45tupleIJ6vec_2dIfElEEESD_SC_lNS1_9__extrema9arg_min_fISB_l7compareIfEEEEESD_SD_iSI_EEvT0_T1_T2_T3_(0x7d)	min stack size: 0x0
	<0x110>
	Attribute:	EIATTR_MIN_STACK_SIZE
	Format:	EIFMT_SVAL
	Value:	function: _ZN6thrust20THRUST_200400_750_NS8cuda_cub4core13_kernel_agentINS1_8__reduce10DrainAgentIlEEN3cub17CUB_200400_750_NS9GridQueueIyEElEEvT0_T1_(0x7e)	min stack size: 0x0
	<0x111>
	Attribute:	EIATTR_MIN_STACK_SIZE
	Format:	EIFMT_SVAL
	Value:	function: _ZN6thrust20THRUST_200400_750_NS8cuda_cub4core13_kernel_agentINS1_8__reduce11ReduceAgentINS0_12zip_iteratorIN4cuda3std3__45tupleIJNS0_6detail15normal_iteratorINS0_10device_ptrI6vec_2dIfEEEEENS1_19counting_iterator_tIlEEEEEEEPNSA_IJSF_lEEESM_lNS1_9__extrema9arg_min_fISF_l7compareIfEEEEESL_SN_lN3cub17CUB_200400_750_NS13GridEvenShareIlEENSV_9GridQueueIyEESS_EEvT0_T1_T2_T3_T4_T5_(0x7f)	min stack size: 0x0
	<0x112>
	Attribute:	EIATTR_MIN_STACK_SIZE
	Format:	EIFMT_SVAL
	Value:	function: _ZN6thrust20THRUST_200400_750_NS8cuda_cub4core13_kernel_agentINS1_8__reduce11ReduceAgentINS0_12zip_iteratorIN4cuda3std3__45tupleIJNS0_6detail15normal_iteratorINS0_10device_ptrI6vec_2dIfEEEEENS1_19counting_iterator_tIlEEEEEEEPNSA_IJSF_lEEESM_lNS1_9__extrema9arg_min_fISF_l7compareIfEEEEESL_SN_lSS_EEvT0_T1_T2_T3_(0x80)	min stack size: 0x0
	<0x113>
	Attribute:	EIATTR_MIN_STACK_SIZE
	Format:	EIFMT_SVAL
	Value:	function: _ZN6thrust20THRUST_200400_750_NS8cuda_cub4core13_kernel_agentINS1_8__reduce11ReduceAgentIPN4cuda3std3__45tupleIJ6vec_2dIfElEEESD_SC_iNS1_9__extrema9arg_min_fISB_l7compareIfEEEEESD_SD_iSI_EEvT0_T1_T2_T3_(0x81)	min stack size: 0x0
	<0x114>
	Attribute:	EIATTR_MIN_STACK_SIZE
	Format:	EIFMT_SVAL
	Value:	function: _ZN6thrust20THRUST_200400_750_NS8cuda_cub4core13_kernel_agentINS1_8__reduce10DrainAgentIiEEN3cub17CUB_200400_750_NS9GridQueueIjEEiEEvT0_T1_(0x82)	min stack size: 0x0
	<0x115>
	Attribute:	EIATTR_MIN_STACK_SIZE
	Format:	EIFMT_SVAL
	Value:	function: _ZN6thrust20THRUST_200400_750_NS8cuda_cub4core13_kernel_agentINS1_8__reduce11ReduceAgentINS0_12zip_iteratorIN4cuda3std3__45tupleIJNS0_6detail15normal_iteratorINS0_10device_ptrI6vec_2dIfEEEEENS1_19counting_iterator_tIlEEEEEEEPNSA_IJSF_lEEESM_iNS1_9__extrema9arg_min_fISF_l7compareIfEEEEESL_SN_iN3cub17CUB_200400_750_NS13GridEvenShareIiEENSV_9GridQueueIjEESS_EEvT0_T1_T2_T3_T4_T5_(0x83)	min stack size: 0x0
	<0x116>
	Attribute:	EIATTR_MIN_STACK_SIZE
	Format:	EIFMT_SVAL
	Value:	function: _ZN6thrust20THRUST_200400_750_NS8cuda_cub4core13_kernel_agentINS1_8__reduce11ReduceAgentINS0_12zip_iteratorIN4cuda3std3__45tupleIJNS0_6detail15normal_iteratorINS0_10device_ptrI6vec_2dIfEEEEENS1_19counting_iterator_tIlEEEEEEEPNSA_IJSF_lEEESM_iNS1_9__extrema9arg_min_fISF_l7compareIfEEEEESL_SN_iSS_EEvT0_T1_T2_T3_(0x84)	min stack size: 0x0


.nv.info._ZN3cub17CUB_200400_750_NS6detail8for_each13static_kernelINS2_12policy_hub_t12policy_350_tElN6thrust20THRUST_200400_750_NS8cuda_cub11__transform17unary_transform_fIPN4cuda3std3__45tupleIJNSE_IJ6vec_2dIfElEEESH_EEESJ_NS9_14no_stencil_tagENS7_8identityISI_EENS9_21always_true_predicateEEEEEvT0_T1_
	<0x1>
	Attribute:	EIATTR_SW_WAR
	Format:	EIFMT_SVAL
	Value:	0x1 
	<0x2>
	Attribute:	EIATTR_CUDA_API_VERSION
	Format:	EIFMT_SVAL
	Value:	0x7d 
	<0x3>
	Attribute:	EIATTR_PARAM_CBANK
	Format:	EIFMT_SVAL
	Value:	0x26 0x200160 
	<0x4>
	Attribute:	EIATTR_CBANK_PARAM_SIZE
	Format:	EIFMT_HVAL
	Value:	0x20
	<0x5>
	Attribute:	EIATTR_KPARAM_INFO
	Format:	EIFMT_SVAL
	Value:	Index : 0x0	Ordinal : 0x1	Offset  : 0x8	Size    : 0x18
		Pointee's logAlignment : 0x0	Space : 0x0	cbank : 0x1f	Parameter Space : CBANK	
	<0x6>
	Attribute:	EIATTR_KPARAM_INFO
	Format:	EIFMT_SVAL
	Value:	Index : 0x0	Ordinal : 0x0	Offset  : 0x0	Size    : 0x8
		Pointee's logAlignment : 0x0	Space : 0x0	cbank : 0x1f	Parameter Space : CBANK	
	<0x7>
	Attribute:	EIATTR_MAXREG_COUNT
	Format:	EIFMT_HVAL
	Value:	0xff
	<0x8>
	Attribute:	EIATTR_EXIT_INSTR_OFFSETS
	Format:	EIFMT_SVAL
	Value:	0x210 0x2c0 0x410 
	<0x9>
	Attribute:	EIATTR_MAX_THREADS
	Format:	EIFMT_SVAL
	Value:	0x100 0x1 0x1 
	<0x10>
	Attribute:	EIATTR_CRS_STACK_SIZE
	Format:	EIFMT_SVAL
	Value:	0x0 


.nv.info._ZN3cub17CUB_200400_750_NS6detail8for_each13static_kernelINS2_12policy_hub_t12policy_350_tElN6thrust20THRUST_200400_750_NS8cuda_cub20__uninitialized_copy7functorIPN4cuda3std3__45tupleIJNSE_IJ6vec_2dIfElEEESH_EEENS7_7pointerISI_NS8_5par_tENS7_11use_defaultESM_EEEEEEvT0_T1_
	<0x1>
	Attribute:	EIATTR_SW_WAR
	Format:	EIFMT_SVAL
	Value:	0x1 
	<0x2>
	Attribute:	EIATTR_CUDA_API_VERSION
	Format:	EIFMT_SVAL
	Value:	0x7d 
	<0x3>
	Attribute:	EIATTR_PARAM_CBANK
	Format:	EIFMT_SVAL
	Value:	0x28 0x180160 
	<0x4>
	Attribute:	EIATTR_CBANK_PARAM_SIZE
	Format:	EIFMT_HVAL
	Value:	0x18
	<0x5>
	Attribute:	EIATTR_KPARAM_INFO
	Format:	EIFMT_SVAL
	Value:	Index : 0x0	Ordinal : 0x1	Offset  : 0x8	Size    : 0x10
		Pointee's logAlignment : 0x0	Space : 0x0	cbank : 0x1f	Parameter Space : CBANK	
	<0x6>
	Attribute:	EIATTR_KPARAM_INFO
	Format:	EIFMT_SVAL
	Value:	Index : 0x0	Ordinal : 0x0	Offset  : 0x0	Size    : 0x8
		Pointee's logAlignment : 0x0	Space : 0x0	cbank : 0x1f	Parameter Space : CBANK	
	<0x7>
	Attribute:	EIATTR_MAXREG_COUNT
	Format:	EIFMT_HVAL
	Value:	0xff
	<0x8>
	Attribute:	EIATTR_EXIT_INSTR_OFFSETS
	Format:	EIFMT_SVAL
	Value:	0x210 0x2c0 0x410 
	<0x9>
	Attribute:	EIATTR_MAX_THREADS
	Format:	EIFMT_SVAL
	Value:	0x100 0x1 0x1 
	<0x10>
	Attribute:	EIATTR_CRS_STACK_SIZE
	Format:	EIFMT_SVAL
	Value:	0x0 


.nv.info._ZN3cub17CUB_200400_750_NS6detail8for_each13static_kernelINS2_12policy_hub_t12policy_350_tElNS2_12op_wrapper_tIlN6thrust20THRUST_200400_750_NS6detail23allocator_traits_detail5gozerENS8_7pointerIN4cuda3std3__45tupleIJNSG_IJ6vec_2dIfElEEESJ_EEENS8_8cuda_cub5par_tENS8_11use_defaultESN_EEEEEEvT0_T1_
	<0x1>
	Attribute:	EIATTR_SW_WAR
	Format:	EIFMT_SVAL
	Value:	0x1 
	<0x2>
	Attribute:	EIATTR_CUDA_API_VERSION
	Format:	EIFMT_SVAL
	Value:	0x7d 
	<0x3>
	Attribute:	EIATTR_PARAM_CBANK
	Format:	EIFMT_SVAL
	Value:	0x2a 0x180160 
	<0x4>
	Attribute:	EIATTR_CBANK_PARAM_SIZE
	Format:	EIFMT_HVAL
	Value:	0x18
	<0x5>
	Attribute:	EIATTR_KPARAM_INFO
	Format:	EIFMT_SVAL
	Value:	Index : 0x0	Ordinal : 0x1	Offset  : 0x8	Size    : 0x10
		Pointee's logAlignment : 0x0	Space : 0x0	cbank : 0x1f	Parameter Space : CBANK	
	<0x6>
	Attribute:	EIATTR_KPARAM_INFO
	Format:	EIFMT_SVAL
	Value:	Index : 0x0	Ordinal : 0x0	Offset  : 0x0	Size    : 0x8
		Pointee's logAlignment : 0x0	Space : 0x0	cbank : 0x1f	Parameter Space : CBANK	
	<0x7>
	Attribute:	EIATTR_MAXREG_COUNT
	Format:	EIFMT_HVAL
	Value:	0xff
	<0x8>
	Attribute:	EIATTR_EXIT_INSTR_OFFSETS
	Format:	EIFMT_SVAL
	Value:	0x10 
	<0x9>
	Attribute:	EIATTR_MAX_THREADS
	Format:	EIFMT_SVAL
	Value:	0x100 0x1 0x1 


.nv.info._ZN3cub17CUB_200400_750_NS6detail8for_each13static_kernelINS2_12policy_hub_t12policy_350_tEmNS2_12op_wrapper_tImN6thrust20THRUST_200400_750_NS6detail23allocator_traits_detail24construct1_via_allocatorINS9_18no_throw_allocatorINS9_19temporary_allocatorIN4cuda3std3__45tupleIJNSH_IJ6vec_2dIfElEEESK_EEENS8_8cuda_cub5par_tEEEEEEENS8_7pointerISL_SN_NS8_11use_defaultESS_EEEEEEvT0_T1_
	<0x1>
	Attribute:	EIATTR_SW_WAR
	Format:	EIFMT_SVAL
	Value:	0x1 
	<0x2>
	Attribute:	EIATTR_CUDA_API_VERSION
	Format:	EIFMT_SVAL
	Value:	0x7d 
	<0x3>
	Attribute:	EIATTR_PARAM_CBANK
	Format:	EIFMT_SVAL
	Value:	0x2c 0x180160 
	<0x4>
	Attribute:	EIATTR_CBANK_PARAM_SIZE
	Format:	EIFMT_HVAL
	Value:	0x18
	<0x5>
	Attribute:	EIATTR_KPARAM_INFO
	Format:	EIFMT_SVAL
	Value:	Index : 0x0	Ordinal : 0x1	Offset  : 0x8	Size    : 0x10
		Pointee's logAlignment : 0x0	Space : 0x0	cbank : 0x1f	Parameter Space : CBANK	
	<0x6>
	Attribute:	EIATTR_KPARAM_INFO
	Format:	EIFMT_SVAL
	Value:	Index : 0x0	Ordinal : 0x0	Offset  : 0x0	Size    : 0x8
		Pointee's logAlignment : 0x0	Space : 0x0	cbank : 0x1f	Parameter Space : CBANK	
	<0x7>
	Attribute:	EIATTR_MAXREG_COUNT
	Format:	EIFMT_HVAL
	Value:	0xff
	<0x8>
	Attribute:	EIATTR_EXIT_INSTR_OFFSETS
	Format:	EIFMT_SVAL
	Value:	0x170 0x1c0 0x250 
	<0x9>
	Attribute:	EIATTR_MAX_THREADS
	Format:	EIFMT_SVAL
	Value:	0x100 0x1 0x1 


.nv.info._ZN3cub17CUB_200400_750_NS6detail8for_each13static_kernelINS2_12policy_hub_t12policy_350_tElN6thrust20THRUST_200400_750_NS8cuda_cub11__transform17unary_transform_fIPN4cuda3std3__45tupleIJ6vec_2dIfElEEESI_NS9_14no_stencil_tagENS7_8identityISH_EENS9_21always_true_predicateEEEEEvT0_T1_
	<0x1>
	Attribute:	EIATTR_SW_WAR
	Format:	EIFMT_SVAL
	Value:	0x1 
	<0x2>
	Attribute:	EIATTR_CUDA_API_VERSION
	Format:	EIFMT_SVAL
	Value:	0x7d 
	<0x3>
	Attribute:	EIATTR_PARAM_CBANK
	Format:	EIFMT_SVAL
	Value:	0x2e 0x200160 
	<0x4>
	Attribute:	EIATTR_CBANK_PARAM_SIZE
	Format:	EIFMT_HVAL
	Value:	0x20
	<0x5>
	Attribute:	EIATTR_KPARAM_INFO
	Format:	EIFMT_SVAL
	Value:	Index : 0x0	Ordinal : 0x1	Offset  : 0x8	Size    : 0x18
		Pointee's logAlignment : 0x0	Space : 0x0	cbank : 0x1f	Parameter Space : CBANK	
	<0x6>
	Attribute:	EIATTR_KPARAM_INFO
	Format:	EIFMT_SVAL
	Value:	Index : 0x0	Ordinal : 0x0	Offset  : 0x0	Size    : 0x8
		Pointee's logAlignment : 0x0	Space : 0x0	cbank : 0x1f	Parameter Space : CBANK	
	<0x7>
	Attribute:	EIATTR_MAXREG_COUNT
	Format:	EIFMT_HVAL
	Value:	0xff
	<0x8>
	Attribute:	EIATTR_EXIT_INSTR_OFFSETS
	Format:	EIFMT_SVAL
	Value:	0x1d0 0x240 0x310 
	<0x9>
	Attribute:	EIATTR_MAX_THREADS
	Format:	EIFMT_SVAL
	Value:	0x100 0x1 0x1 
	<0x10>
	Attribute:	EIATTR_CRS_STACK_SIZE
	Format:	EIFMT_SVAL
	Value:	0x0 


.nv.info._ZN3cub17CUB_200400_750_NS6detail8for_each13static_kernelINS2_12policy_hub_t12policy_350_tElN6thrust20THRUST_200400_750_NS8cuda_cub20__uninitialized_copy7functorIPN4cuda3std3__45tupleIJ6vec_2dIfElEEENS7_7pointerISH_NS8_5par_tENS7_11use_defaultESL_EEEEEEvT0_T1_
	<0x1>
	Attribute:	EIATTR_SW_WAR
	Format:	EIFMT_SVAL
	Value:	0x1 
	<0x2>
	Attribute:	EIATTR_CUDA_API_VERSION
	Format:	EIFMT_SVAL
	Value:	0x7d 
	<0x3>
	Attribute:	EIATTR_PARAM_CBANK
	Format:	EIFMT_SVAL
	Value:	0x30 0x180160 
	<0x4>
	Attribute:	EIATTR_CBANK_PARAM_SIZE
	Format:	EIFMT_HVAL
	Value:	0x18
	<0x5>
	Attribute:	EIATTR_KPARAM_INFO
	Format:	EIFMT_SVAL
	Value:	Index : 0x0	Ordinal : 0x1	Offset  : 0x8	Size    : 0x10
		Pointee's logAlignment : 0x0	Space : 0x0	cbank : 0x1f	Parameter Space : CBANK	
	<0x6>
	Attribute:	EIATTR_KPARAM_INFO
	Format:	EIFMT_SVAL
	Value:	Index : 0x0	Ordinal : 0x0	Offset  : 0x0	Size    : 0x8
		Pointee's logAlignment : 0x0	Space : 0x0	cbank : 0x1f	Parameter Space : CBANK	
	<0x7>
	Attribute:	EIATTR_MAXREG_COUNT
	Format:	EIFMT_HVAL
	Value:	0xff
	<0x8>
	Attribute:	EIATTR_EXIT_INSTR_OFFSETS
	Format:	EIFMT_SVAL
	Value:	0x1d0 0x240 0x310 
	<0x9>
	Attribute:	EIATTR_MAX_THREADS
	Format:	EIFMT_SVAL
	Value:	0x100 0x1 0x1 
	<0x10>
	Attribute:	EIATTR_CRS_STACK_SIZE
	Format:	EIFMT_SVAL
	Value:	0x0 


.nv.info._ZN3cub17CUB_200400_750_NS6detail8for_each13static_kernelINS2_12policy_hub_t12policy_350_tElNS2_12op_wrapper_tIlN6thrust20THRUST_200400_750_NS6detail23allocator_traits_detail5gozerENS8_7pointerIN4cuda3std3__45tupleIJ6vec_2dIfElEEENS8_8cuda_cub5par_tENS8_11use_defaultESM_EEEEEEvT0_T1_
	<0x1>
	Attribute:	EIATTR_SW_WAR
	Format:	EIFMT_SVAL
	Value:	0x1 
	<0x2>
	Attribute:	EIATTR_CUDA_API_VERSION
	Format:	EIFMT_SVAL
	Value:	0x7d 
	<0x3>
	Attribute:	EIATTR_PARAM_CBANK
	Format:	EIFMT_SVAL
	Value:	0x32 0x180160 
	<0x4>
	Attribute:	EIATTR_CBANK_PARAM_SIZE
	Format:	EIFMT_HVAL
	Value:	0x18
	<0x5>
	Attribute:	EIATTR_KPARAM_INFO
	Format:	EIFMT_SVAL
	Value:	Index : 0x0	Ordinal : 0x1	Offset  : 0x8	Size    : 0x10
		Pointee's logAlignment : 0x0	Space : 0x0	cbank : 0x1f	Parameter Space : CBANK	
	<0x6>
	Attribute:	EIATTR_KPARAM_INFO
	Format:	EIFMT_SVAL
	Value:	Index : 0x0	Ordinal : 0x0	Offset  : 0x0	Size    : 0x8
		Pointee's logAlignment : 0x0	Space : 0x0	cbank : 0x1f	Parameter Space : CBANK	
	<0x7>
	Attribute:	EIATTR_MAXREG_COUNT
	Format:	EIFMT_HVAL
	Value:	0xff
	<0x8>
	Attribute:	EIATTR_EXIT_INSTR_OFFSETS
	Format:	EIFMT_SVAL
	Value:	0x10 
	<0x9>
	Attribute:	EIATTR_MAX_THREADS
	Format:	EIFMT_SVAL
	Value:	0x100 0x1 0x1 


.nv.info._ZN3cub17CUB_200400_750_NS6detail8for_each13static_kernelINS2_12policy_hub_t12policy_350_tEmNS2_12op_wrapper_tImN6thrust20THRUST_200400_750_NS6detail23allocator_traits_detail24construct1_via_allocatorINS9_18no_throw_allocatorINS9_19temporary_allocatorIN4cuda3std3__45tupleIJ6vec_2dIfElEEENS8_8cuda_cub5par_tEEEEEEENS8_7pointerISK_SM_NS8_11use_defaultESR_EEEEEEvT0_T1_
	<0x1>
	Attribute:	EIATTR_SW_WAR
	Format:	EIFMT_SVAL
	Value:	0x1 
	<0x2>
	Attribute:	EIATTR_CUDA_API_VERSION
	Format:	EIFMT_SVAL
	Value:	0x7d 
	<0x3>
	Attribute:	EIATTR_PARAM_CBANK
	Format:	EIFMT_SVAL
	Value:	0x34 0x180160 
	<0x4>
	Attribute:	EIATTR_CBANK_PARAM_SIZE
	Format:	EIFMT_HVAL
	Value:	0x18
	<0x5>
	Attribute:	EIATTR_KPARAM_INFO
	Format:	EIFMT_SVAL
	Value:	Index : 0x0	Ordinal : 0x1	Offset  : 0x8	Size    : 0x10
		Pointee's logAlignment : 0x0	Space : 0x0	cbank : 0x1f	Parameter Space : CBANK	
	<0x6>
	Attribute:	EIATTR_KPARAM_INFO
	Format:	EIFMT_SVAL
	Value:	Index : 0x0	Ordinal : 0x0	Offset  : 0x0	Size    : 0x8
		Pointee's logAlignment : 0x0	Space : 0x0	cbank : 0x1f	Parameter Space : CBANK	
	<0x7>
	Attribute:	EIATTR_MAXREG_COUNT
	Format:	EIFMT_HVAL
	Value:	0xff
	<0x8>
	Attribute:	EIATTR_EXIT_INSTR_OFFSETS
	Format:	EIFMT_SVAL
	Value:	0x150 0x180 0x1d0 
	<0x9>
	Attribute:	EIATTR_MAX_THREADS
	Format:	EIFMT_SVAL
	Value:	0x100 0x1 0x1 


.nv.info._ZN3cub17CUB_200400_750_NS11EmptyKernelIvEEvv
	<0x1>
	Attribute:	EIATTR_SW_WAR
	Format:	EIFMT_SVAL
	Value:	0x1 
	<0x2>
	Attribute:	EIATTR_CUDA_API_VERSION
	Format:	EIFMT_SVAL
	Value:	0x7d 
	<0x3>
	Attribute:	EIATTR_MAXREG_COUNT
	Format:	EIFMT_HVAL
	Value:	0xff
	<0x4>
	Attribute:	EIATTR_EXIT_INSTR_OFFSETS
	Format:	EIFMT_SVAL
	Value:	0x10 


.nv.info._ZN6thrust20THRUST_200400_750_NS8cuda_cub4core13_kernel_agentINS1_8__reduce11ReduceAgentIPN4cuda3std3__45tupleIJNS9_IJ6vec_2dIfElEEESC_EEESE_SD_lNS1_9__extrema12arg_minmax_fISB_l7compareIfEEEEESE_SE_iSJ_EEvT0_T1_T2_T3_
	<0x1>
	Attribute:	EIATTR_SW_WAR
	Format:	EIFMT_SVAL
	Value:	0x1 
	<0x2>
	Attribute:	EIATTR_CUDA_API_VERSION
	Format:	EIFMT_SVAL
	Value:	0x7d 
	<0x3>
	Attribute:	EIATTR_PARAM_CBANK
	Format:	EIFMT_SVAL
	Value:	0x38 0x150160 
	<0x4>
	Attribute:	EIATTR_CBANK_PARAM_SIZE
	Format:	EIFMT_HVAL
	Value:	0x15
	<0x5>
	Attribute:	EIATTR_KPARAM_INFO
	Format:	EIFMT_SVAL
	Value:	Index : 0x0	Ordinal : 0x3	Offset  : 0x14	Size    : 0x1
		Pointee's logAlignment : 0x0	Space : 0x0	cbank : 0x1f	Parameter Space : CBANK	
	<0x6>
	Attribute:	EIATTR_KPARAM_INFO
	Format:	EIFMT_SVAL
	Value:	Index : 0x0	Ordinal : 0x2	Offset  : 0x10	Size    : 0x4
		Pointee's logAlignment : 0x0	Space : 0x0	cbank : 0x1f	Parameter Space : CBANK	
	<0x7>
	Attribute:	EIATTR_KPARAM_INFO
	Format:	EIFMT_SVAL
	Value:	Index : 0x0	Ordinal : 0x1	Offset  : 0x8	Size    : 0x8
		Pointee's logAlignment : 0x0	Space : 0x0	cbank : 0x1f	Parameter Space : CBANK	
	<0x8>
	Attribute:	EIATTR_KPARAM_INFO
	Format:	EIFMT_SVAL
	Value:	Index : 0x0	Ordinal : 0x0	Offset  : 0x0	Size    : 0x8
		Pointee's logAlignment : 0x0	Space : 0x0	cbank : 0x1f	Parameter Space : CBANK	
	<0x9>
	Attribute:	EIATTR_MAXREG_COUNT
	Format:	EIFMT_HVAL
	Value:	0xff
	<0x10>
	Attribute:	EIATTR_COOP_GROUP_MASK_REGIDS
	Format:	EIFMT_SVAL
	Value:	0xffffffff 0xffffffff 0xffffffff 0xffffffff 0xffffffff 0xffffffff 0xffffffff 0xffffffff 0xffffffff 0xffffffff 0xffffffff 0xffffffff 0xffffffff 0xffffffff 0xffffffff 0xffffffff 0xffffffff 0xffffffff 0xffffffff 0xffffffff 0xffffffff 0xffffffff 0xffffffff 0xffffffff 0xffffffff 0xffffffff 0xffffffff 0xffffffff 0xffffffff 0xffffffff 0xffffffff 0xffffffff 0xffffffff 0xffffffff 0xffffffff 0xffffffff 0xffffffff 0xffffffff 0xffffffff 0xffffffff 0xffffffff 0xffffffff 0xffffffff 0xffffffff 0xffffffff 0xffffffff 0xffffffff 0xffffffff 0xffffffff 0xffffffff 0xffffffff 0xffffffff 0xffffffff 0xffffffff 0xffffffff 0xffffffff 0xffffffff 0xffffffff 0xffffffff 0xffffffff 0xffffffff 0xffffffff 0xffffffff 0xffffffff 0xffffffff 0xffffffff 0xffffffff 0xffffffff 0xffffffff 0xffffffff 0xffffffff 0xffffffff 0xffffffff 0xffffffff 0xffffffff 0xffffffff 0xffffffff 0xffffffff 0xffffffff 0xffffffff 0xffffffff 0xffffffff 0xffffffff 0xffffffff 0xffffffff 0xffffffff 0xffffffff 0xffffffff 0xffffffff 0xffffffff 0xffffffff 0xffffffff 0xffffffff 0xffffffff 0xffffffff 0xffffffff 0xffffffff 0xffffffff 0xffffffff 0xffffffff 0xffffffff 0xffffffff 0xffffffff 0xffffffff 0xffffffff 0xffffffff 0xffffffff 0xffffffff 0xffffffff 0xffffffff 0xffffffff 0xffffffff 0xffffffff 0xffffffff 0xffffffff 0xffffffff 0xffffffff 0xffffffff 0xffffffff 0xffffffff 
	<0x11>
	Attribute:	EIATTR_COOP_GROUP_INSTR_OFFSETS
	Format:	EIFMT_SVAL
	Value:	0x1d60 0x1da0 0x1db0 0x1dc0 0x1dd0 0x1df0 0x1e00 0x1e10 0x2230 0x2270 0x22a0 0x22b0 0x22c0 0x22d0 0x22e0 0x22f0 0x2710 0x2750 0x2780 0x2790 0x27a0 0x27b0 0x27c0 0x27d0 0x2bf0 0x2c30 0x2c60 0x2c70 0x2c80 0x2c90 0x2ca0 0x2cb0 0x30d0 0x3110 0x3140 0x3150 0x3160 0x3170 0x3180 0x3190 0x5df0 0x5e00 0x5e10 0x5e20 0x5e30 0x5e40 0x5e50 0x5e60 0x61c0 0x6200 0x6230 0x6250 0x6260 0x6270 0x6280 0x6290 0x66b0 0x66f0 0x6720 0x6740 0x6750 0x6760 0x6770 0x6780 0x6ba0 0x6be0 0x6c10 0x6c30 0x6c40 0x6c50 0x6c60 0x6c70 0x7090 0x70d0 0x7100 0x7120 0x7130 0x7140 0x7150 0x7160 0x95f0 0x9630 0x9670 0x96a0 0x96c0 0x96d0 0x96e0 0x96f0 0x9a50 0x9a90 0x9ac0 0x9ad0 0x9ae0 0x9af0 0x9b00 0x9b10 0x9f30 0x9f70 0x9fa0 0x9fb0 0x9fc0 0x9fd0 0x9fe0 0x9ff0 0xa410 0xa450 0xa480 0xa490 0xa4a0 0xa4b0 0xa4c0 0xa4d0 0xa8f0 0xa930 0xa960 0xa970 0xa980 0xa990 0xa9a0 0xa9b0 
	<0x12>
	Attribute:	EIATTR_EXIT_INSTR_OFFSETS
	Format:	EIFMT_SVAL
	Value:	0x20 0xc5e0 0xc640 
	<0x13>
	Attribute:	EIATTR_MAX_THREADS
	Format:	EIFMT_SVAL
	Value:	0x100 0x1 0x1 
	<0x14>
	Attribute:	EIATTR_CRS_STACK_SIZE
	Format:	EIFMT_SVAL
	Value:	0x0 


.nv.info._ZN6thrust20THRUST_200400_750_NS8cuda_cub4core13_kernel_agentINS1_8__reduce11ReduceAgentINS1_26transform_input_iterator_tIN4cuda3std3__45tupleIJNSA_IJ6vec_2dIfElEEESD_EEENS0_12zip_iteratorINSA_IJNS0_6detail15normal_iteratorINS0_10device_ptrISC_EEEENS1_19counting_iterator_tIlEEEEEEENS1_9__extrema12arg_minmax_fISC_l7compareIfEE15duplicate_tupleEEEPSE_SE_lST_EESV_SW_lN3cub17CUB_200400_750_NS13GridEvenShareIlEENSZ_9GridQueueIyEEST_EEvT0_T1_T2_T3_T4_T5_
	<0x1>
	Attribute:	EIATTR_SW_WAR
	Format:	EIFMT_SVAL
	Value:	0x1 
	<0x2>
	Attribute:	EIATTR_CUDA_API_VERSION
	Format:	EIFMT_SVAL
	Value:	0x7d 
	<0x3>
	Attribute:	EIATTR_PARAM_CBANK
	Format:	EIFMT_SVAL
	Value:	0x3b 0x790160 
	<0x4>
	Attribute:	EIATTR_CBANK_PARAM_SIZE
	Format:	EIFMT_HVAL
	Value:	0x79
	<0x5>
	Attribute:	EIATTR_KPARAM_INFO
	Format:	EIFMT_SVAL
	Value:	Index : 0x0	Ordinal : 0x5	Offset  : 0x78	Size    : 0x1
		Pointee's logAlignment : 0x0	Space : 0x0	cbank : 0x1f	Parameter Space : CBANK	
	<0x6>
	Attribute:	EIATTR_KPARAM_INFO
	Format:	EIFMT_SVAL
	Value:	Index : 0x0	Ordinal : 0x4	Offset  : 0x70	Size    : 0x8
		Pointee's logAlignment : 0x0	Space : 0x0	cbank : 0x1f	Parameter Space : CBANK	
	<0x7>
	Attribute:	EIATTR_KPARAM_INFO
	Format:	EIFMT_SVAL
	Value:	Index : 0x0	Ordinal : 0x3	Offset  : 0x28	Size    : 0x48
		Pointee's logAlignment : 0x0	Space : 0x0	cbank : 0x1f	Parameter Space : CBANK	
	<0x8>
	Attribute:	EIATTR_KPARAM_INFO
	Format:	EIFMT_SVAL
	Value:	Index : 0x0	Ordinal : 0x2	Offset  : 0x20	Size    : 0x8
		Pointee's logAlignment : 0x0	Space : 0x0	cbank : 0x1f	Parameter Space : CBANK	
	<0x9>
	Attribute:	EIATTR_KPARAM_INFO
	Format:	EIFMT_SVAL
	Value:	Index : 0x0	Ordinal : 0x1	Offset  : 0x18	Size    : 0x8
		Pointee's logAlignment : 0x0	Space : 0x0	cbank : 0x1f	Parameter Space : CBANK	
	<0x10>
	Attribute:	EIATTR_KPARAM_INFO
	Format:	EIFMT_SVAL
	Value:	Index : 0x0	Ordinal : 0x0	Offset  : 0x0	Size    : 0x18
		Pointee's logAlignment : 0x0	Space : 0x0	cbank : 0x1f	Parameter Space : CBANK	
	<0x11>
	Attribute:	EIATTR_MAXREG_COUNT
	Format:	EIFMT_HVAL
	Value:	0xff
	<0x12>
	Attribute:	EIATTR_COOP_GROUP_MASK_REGIDS
	Format:	EIFMT_SVAL
	Value:	0xffffffff 0xffffffff 0xffffffff 0xffffffff 0xffffffff 0xffffffff 0xffffffff 0xffffffff 0xffffffff 0xffffffff 0xffffffff 0xffffffff 0xffffffff 0xffffffff 0xffffffff 0xffffffff 0xffffffff 0xffffffff 0xffffffff 0xffffffff 0xffffffff 0xffffffff 0xffffffff 0xffffffff 0xffffffff 0xffffffff 0xffffffff 0xffffffff 0xffffffff 0xffffffff 0xffffffff 0xffffffff 0xffffffff 0xffffffff 0xffffffff 0xffffffff 0xffffffff 0xffffffff 0xffffffff 0xffffffff 0xffffffff 0xffffffff 0xffffffff 0xffffffff 0xffffffff 0xffffffff 0xffffffff 0xffffffff 0xffffffff 0xffffffff 0xffffffff 0xffffffff 0xffffffff 0xffffffff 0xffffffff 0xffffffff 0xffffffff 0xffffffff 0xffffffff 0xffffffff 0xffffffff 0xffffffff 0xffffffff 0xffffffff 0xffffffff 0xffffffff 0xffffffff 0xffffffff 0xffffffff 0xffffffff 0xffffffff 0xffffffff 0xffffffff 0xffffffff 0xffffffff 0xffffffff 0xffffffff 0xffffffff 0xffffffff 0xffffffff 0xffffffff 0xffffffff 0xffffffff 0xffffffff 0xffffffff 0xffffffff 0xffffffff 0xffffffff 0xffffffff 0xffffffff 0xffffffff 0xffffffff 0xffffffff 0xffffffff 0xffffffff 0xffffffff 0xffffffff 0xffffffff 0xffffffff 0xffffffff 0xffffffff 0xffffffff 0xffffffff 0xffffffff 0xffffffff 0xffffffff 0xffffffff 0xffffffff 0xffffffff 0xffffffff 0xffffffff 0xffffffff 0xffffffff 0xffffffff 0xffffffff 0xffffffff 0xffffffff 0xffffffff 0xffffffff 0xffffffff 
	<0x13>
	Attribute:	EIATTR_COOP_GROUP_INSTR_OFFSETS
	Format:	EIFMT_SVAL
	Value:	0x21b0 0x21e0 0x2200 0x2210 0x2220 0x2240 0x2250 0x2260 0x2680 0x26c0 0x26f0 0x2700 0x2710 0x2720 0x2730 0x2740 0x2b60 0x2ba0 0x2bd0 0x2be0 0x2bf0 0x2c00 0x2c10 0x2c20 0x3040 0x3070 0x30a0 0x30c0 0x30d0 0x30e0 0x30f0 0x3100 0x3540 0x3580 0x35a0 0x35b0 0x35c0 0x35d0 0x35e0 0x35f0 0x68f0 0x6900 0x6910 0x6920 0x6930 0x6940 0x6950 0x6960 0x6cc0 0x6d00 0x6d30 0x6d50 0x6d60 0x6d70 0x6d80 0x6d90 0x71b0 0x71f0 0x7220 0x7240 0x7250 0x7260 0x7270 0x7280 0x76a0 0x76e0 0x7720 0x7730 0x7740 0x7750 0x7760 0x7770 0x7b90 0x7bd0 0x7c00 0x7c20 0x7c30 0x7c40 0x7c50 0x7c60 0xa100 0xa140 0xa170 0xa1a0 0xa1d0 0xa1e0 0xa1f0 0xa200 0xa560 0xa5a0 0xa5d0 0xa5e0 0xa5f0 0xa600 0xa610 0xa620 0xaa40 0xaa80 0xaab0 0xaac0 0xaad0 0xaae0 0xaaf0 0xab00 0xaf20 0xaf60 0xaf90 0xafa0 0xafb0 0xafc0 0xafd0 0xafe0 0xb400 0xb430 0xb460 0xb480 0xb490 0xb4a0 0xb4b0 0xb4c0 
	<0x14>
	Attribute:	EIATTR_EXIT_INSTR_OFFSETS
	Format:	EIFMT_SVAL
	Value:	0xd0f0 0xd180 
	<0x15>
	Attribute:	EIATTR_MAX_THREADS
	Format:	EIFMT_SVAL
	Value:	0x100 0x1 0x1 
	<0x16>
	Attribute:	EIATTR_CRS_STACK_SIZE
	Format:	EIFMT_SVAL
	Value:	0x0 


.nv.info._ZN6thrust20THRUST_200400_750_NS8cuda_cub4core13_kernel_agentINS1_8__reduce11ReduceAgentINS1_26transform_input_iterator_tIN4cuda3std3__45tupleIJNSA_IJ6vec_2dIfElEEESD_EEENS0_12zip_iteratorINSA_IJNS0_6detail15normal_iteratorINS0_10device_ptrISC_EEEENS1_19counting_iterator_tIlEEEEEEENS1_9__extrema12arg_minmax_fISC_l7compareIfEE15duplicate_tupleEEEPSE_SE_lST_EESV_SW_lST_EEvT0_T1_T2_T3_
	<0x1>
	Attribute:	EIATTR_SW_WAR
	Format:	EIFMT_SVAL
	Value:	0x1 
	<0x2>
	Attribute:	EIATTR_CUDA_API_VERSION
	Format:	EIFMT_SVAL
	Value:	0x7d 
	<0x3>
	Attribute:	EIATTR_PARAM_CBANK
	Format:	EIFMT_SVAL
	Value:	0x3d 0x290160 
	<0x4>
	Attribute:	EIATTR_CBANK_PARAM_SIZE
	Format:	EIFMT_HVAL
	Value:	0x29
	<0x5>
	Attribute:	EIATTR_KPARAM_INFO
	Format:	EIFMT_SVAL
	Value:	Index : 0x0	Ordinal : 0x3	Offset  : 0x28	Size    : 0x1
		Pointee's logAlignment : 0x0	Space : 0x0	cbank : 0x1f	Parameter Space : CBANK	
	<0x6>
	Attribute:	EIATTR_KPARAM_INFO
	Format:	EIFMT_SVAL
	Value:	Index : 0x0	Ordinal : 0x2	Offset  : 0x20	Size    : 0x8
		Pointee's logAlignment : 0x0	Space : 0x0	cbank : 0x1f	Parameter Space : CBANK	
	<0x7>
	Attribute:	EIATTR_KPARAM_INFO
	Format:	EIFMT_SVAL
	Value:	Index : 0x0	Ordinal : 0x1	Offset  : 0x18	Size    : 0x8
		Pointee's logAlignment : 0x0	Space : 0x0	cbank : 0x1f	Parameter Space : CBANK	
	<0x8>
	Attribute:	EIATTR_KPARAM_INFO
	Format:	EIFMT_SVAL
	Value:	Index : 0x0	Ordinal : 0x0	Offset  : 0x0	Size    : 0x18
		Pointee's logAlignment : 0x0	Space : 0x0	cbank : 0x1f	Parameter Space : CBANK	
	<0x9>
	Attribute:	EIATTR_MAXREG_COUNT
	Format:	EIFMT_HVAL
	Value:	0xff
	<0x10>
	Attribute:	EIATTR_COOP_GROUP_MASK_REGIDS
	Format:	EIFMT_SVAL
	Value:	0xffffffff 0xffffffff 0xffffffff 0xffffffff 0xffffffff 0xffffffff 0xffffffff 0xffffffff 0xffffffff 0xffffffff 0xffffffff 0xffffffff 0xffffffff 0xffffffff 0xffffffff 0xffffffff 0xffffffff 0xffffffff 0xffffffff 0xffffffff 0xffffffff 0xffffffff 0xffffffff 0xffffffff 0xffffffff 0xffffffff 0xffffffff 0xffffffff 0xffffffff 0xffffffff 0xffffffff 0xffffffff 0xffffffff 0xffffffff 0xffffffff 0xffffffff 0xffffffff 0xffffffff 0xffffffff 0xffffffff 0xffffffff 0xffffffff 0xffffffff 0xffffffff 0xffffffff 0xffffffff 0xffffffff 0xffffffff 0xffffffff 0xffffffff 0xffffffff 0xffffffff 0xffffffff 0xffffffff 0xffffffff 0xffffffff 0xffffffff 0xffffffff 0xffffffff 0xffffffff 0xffffffff 0xffffffff 0xffffffff 0xffffffff 0xffffffff 0xffffffff 0xffffffff 0xffffffff 0xffffffff 0xffffffff 0xffffffff 0xffffffff 0xffffffff 0xffffffff 0xffffffff 0xffffffff 0xffffffff 0xffffffff 0xffffffff 0xffffffff 0xffffffff 0xffffffff 0xffffffff 0xffffffff 0xffffffff 0xffffffff 0xffffffff 0xffffffff 0xffffffff 0xffffffff 0xffffffff 0xffffffff 0xffffffff 0xffffffff 0xffffffff 0xffffffff 0xffffffff 0xffffffff 0xffffffff 0xffffffff 0xffffffff 0xffffffff 0xffffffff 0xffffffff 0xffffffff 0xffffffff 0xffffffff 0xffffffff 0xffffffff 0xffffffff 0xffffffff 0xffffffff 0xffffffff 0xffffffff 0xffffffff 0xffffffff 0xffffffff 0xffffffff 0xffffffff 0xffffffff 
	<0x11>
	Attribute:	EIATTR_COOP_GROUP_INSTR_OFFSETS
	Format:	EIFMT_SVAL
	Value:	0x1f20 0x1f60 0x1f70 0x1f80 0x1f90 0x1fb0 0x1fc0 0x1fd0 0x23f0 0x2430 0x2460 0x2470 0x2480 0x2490 0x24a0 0x24b0 0x28d0 0x2900 0x2930 0x2950 0x2960 0x2970 0x2980 0x2990 0x2db0 0x2df0 0x2e20 0x2e30 0x2e40 0x2e50 0x2e60 0x2e70 0x3290 0x32d0 0x3300 0x3310 0x3320 0x3330 0x3340 0x3350 0x65c0 0x65d0 0x65e0 0x65f0 0x6600 0x6610 0x6620 0x6630 0x6990 0x69d0 0x6a00 0x6a20 0x6a30 0x6a40 0x6a50 0x6a60 0x6e80 0x6ec0 0x6f00 0x6f10 0x6f20 0x6f30 0x6f40 0x6f50 0x7370 0x73b0 0x73e0 0x7400 0x7410 0x7420 0x7430 0x7440 0x7860 0x78a0 0x78d0 0x78f0 0x7900 0x7910 0x7920 0x7930 0x9dc0 0x9e00 0x9e30 0x9e60 0x9e90 0x9ea0 0x9eb0 0x9ec0 0xa220 0xa260 0xa290 0xa2a0 0xa2b0 0xa2c0 0xa2d0 0xa2e0 0xa700 0xa740 0xa770 0xa780 0xa790 0xa7a0 0xa7b0 0xa7c0 0xabe0 0xac20 0xac50 0xac60 0xac70 0xac80 0xac90 0xaca0 0xb0c0 0xb0f0 0xb120 0xb140 0xb150 0xb160 0xb170 0xb180 
	<0x12>
	Attribute:	EIATTR_EXIT_INSTR_OFFSETS
	Format:	EIFMT_SVAL
	Value:	0x30 0xcdb0 0xce10 
	<0x13>
	Attribute:	EIATTR_MAX_THREADS
	Format:	EIFMT_SVAL
	Value:	0x100 0x1 0x1 
	<0x14>
	Attribute:	EIATTR_CRS_STACK_SIZE
	Format:	EIFMT_SVAL
	Value:	0x0 


.nv.info._ZN6thrust20THRUST_200400_750_NS8cuda_cub4core13_kernel_agentINS1_8__reduce11ReduceAgentIPN4cuda3std3__45tupleIJNS9_IJ6vec_2dIfElEEESC_EEESE_SD_iNS1_9__extrema12arg_minmax_fISB_l7compareIfEEEEESE_SE_iSJ_EEvT0_T1_T2_T3_
	<0x1>
	Attribute:	EIATTR_SW_WAR
	Format:	EIFMT_SVAL
	Value:	0x1 
	<0x2>
	Attribute:	EIATTR_CUDA_API_VERSION
	Format:	EIFMT_SVAL
	Value:	0x7d 
	<0x3>
	Attribute:	EIATTR_PARAM_CBANK
	Format:	EIFMT_SVAL
	Value:	0x3f 0x150160 
	<0x4>
	Attribute:	EIATTR_CBANK_PARAM_SIZE
	Format:	EIFMT_HVAL
	Value:	0x15
	<0x5>
	Attribute:	EIATTR_KPARAM_INFO
	Format:	EIFMT_SVAL
	Value:	Index : 0x0	Ordinal : 0x3	Offset  : 0x14	Size    : 0x1
		Pointee's logAlignment : 0x0	Space : 0x0	cbank : 0x1f	Parameter Space : CBANK	
	<0x6>
	Attribute:	EIATTR_KPARAM_INFO
	Format:	EIFMT_SVAL
	Value:	Index : 0x0	Ordinal : 0x2	Offset  : 0x10	Size    : 0x4
		Pointee's logAlignment : 0x0	Space : 0x0	cbank : 0x1f	Parameter Space : CBANK	
	<0x7>
	Attribute:	EIATTR_KPARAM_INFO
	Format:	EIFMT_SVAL
	Value:	Index : 0x0	Ordinal : 0x1	Offset  : 0x8	Size    : 0x8
		Pointee's logAlignment : 0x0	Space : 0x0	cbank : 0x1f	Parameter Space : CBANK	
	<0x8>
	Attribute:	EIATTR_KPARAM_INFO
	Format:	EIFMT_SVAL
	Value:	Index : 0x0	Ordinal : 0x0	Offset  : 0x0	Size    : 0x8
		Pointee's logAlignment : 0x0	Space : 0x0	cbank : 0x1f	Parameter Space : CBANK	
	<0x9>
	Attribute:	EIATTR_MAXREG_COUNT
	Format:	EIFMT_HVAL
	Value:	0xff
	<0x10>
	Attribute:	EIATTR_COOP_GROUP_MASK_REGIDS
	Format:	EIFMT_SVAL
	Value:	0xffffffff 0xffffffff 0xffffffff 0xffffffff 0xffffffff 0xffffffff 0xffffffff 0xffffffff 0xffffffff 0xffffffff 0xffffffff 0xffffffff 0xffffffff 0xffffffff 0xffffffff 0xffffffff 0xffffffff 0xffffffff 0xffffffff 0xffffffff 0xffffffff 0xffffffff 0xffffffff 0xffffffff 0xffffffff 0xffffffff 0xffffffff 0xffffffff 0xffffffff 0xffffffff 0xffffffff 0xffffffff 0xffffffff 0xffffffff 0xffffffff 0xffffffff 0xffffffff 0xffffffff 0xffffffff 0xffffffff 0xffffffff 0xffffffff 0xffffffff 0xffffffff 0xffffffff 0xffffffff 0xffffffff 0xffffffff 0xffffffff 0xffffffff 0xffffffff 0xffffffff 0xffffffff 0xffffffff 0xffffffff 0xffffffff 0xffffffff 0xffffffff 0xffffffff 0xffffffff 0xffffffff 0xffffffff 0xffffffff 0xffffffff 0xffffffff 0xffffffff 0xffffffff 0xffffffff 0xffffffff 0xffffffff 0xffffffff 0xffffffff 0xffffffff 0xffffffff 0xffffffff 0xffffffff 0xffffffff 0xffffffff 0xffffffff 0xffffffff 0xffffffff 0xffffffff 0xffffffff 0xffffffff 0xffffffff 0xffffffff 0xffffffff 0xffffffff 0xffffffff 0xffffffff 0xffffffff 0xffffffff 0xffffffff 0xffffffff 0xffffffff 0xffffffff 0xffffffff 0xffffffff 0xffffffff 0xffffffff 0xffffffff 0xffffffff 0xffffffff 0xffffffff 0xffffffff 0xffffffff 0xffffffff 0xffffffff 0xffffffff 0xffffffff 0xffffffff 0xffffffff 0xffffffff 0xffffffff 0xffffffff 0xffffffff 0xffffffff 0xffffffff 0xffffffff 0xffffffff 
	<0x11>
	Attribute:	EIATTR_COOP_GROUP_INSTR_OFFSETS
	Format:	EIFMT_SVAL
	Value:	0x1c80 0x1cc0 0x1cd0 0x1ce0 0x1cf0 0x1d10 0x1d20 0x1d30 0x2150 0x2190 0x21c0 0x21d0 0x21e0 0x21f0 0x2200 0x2210 0x2630 0x2670 0x26a0 0x26b0 0x26c0 0x26d0 0x26e0 0x26f0 0x2b10 0x2b50 0x2b80 0x2b90 0x2ba0 0x2bb0 0x2bc0 0x2bd0 0x2ff0 0x3030 0x3060 0x3070 0x3080 0x3090 0x30a0 0x30b0 0x5d10 0x5d20 0x5d30 0x5d40 0x5d50 0x5d60 0x5d70 0x5d80 0x60e0 0x6120 0x6150 0x6170 0x6180 0x6190 0x61a0 0x61b0 0x65d0 0x6610 0x6640 0x6660 0x6670 0x6680 0x6690 0x66a0 0x6ac0 0x6b00 0x6b30 0x6b50 0x6b60 0x6b70 0x6b80 0x6b90 0x6fb0 0x6ff0 0x7020 0x7040 0x7050 0x7060 0x7070 0x7080 0x9510 0x9550 0x9590 0x95c0 0x95e0 0x95f0 0x9600 0x9610 0x9970 0x99b0 0x99e0 0x99f0 0x9a00 0x9a10 0x9a20 0x9a30 0x9e50 0x9e90 0x9ec0 0x9ed0 0x9ee0 0x9ef0 0x9f00 0x9f10 0xa330 0xa370 0xa3a0 0xa3b0 0xa3c0 0xa3d0 0xa3e0 0xa3f0 0xa810 0xa850 0xa880 0xa890 0xa8a0 0xa8b0 0xa8c0 0xa8d0 
	<0x12>
	Attribute:	EIATTR_EXIT_INSTR_OFFSETS
	Format:	EIFMT_SVAL
	Value:	0x20 0xc500 0xc560 
	<0x13>
	Attribute:	EIATTR_MAX_THREADS
	Format:	EIFMT_SVAL
	Value:	0x100 0x1 0x1 
	<0x14>
	Attribute:	EIATTR_CRS_STACK_SIZE
	Format:	EIFMT_SVAL
	Value:	0x0 


.nv.info._ZN6thrust20THRUST_200400_750_NS8cuda_cub4core13_kernel_agentINS1_8__reduce11ReduceAgentINS1_26transform_input_iterator_tIN4cuda3std3__45tupleIJNSA_IJ6vec_2dIfElEEESD_EEENS0_12zip_iteratorINSA_IJNS0_6detail15normal_iteratorINS0_10device_ptrISC_EEEENS1_19counting_iterator_tIlEEEEEEENS1_9__extrema12arg_minmax_fISC_l7compareIfEE15duplicate_tupleEEEPSE_SE_iST_EESV_SW_iN3cub17CUB_200400_750_NS13GridEvenShareIiEENSZ_9GridQueueIjEEST_EEvT0_T1_T2_T3_T4_T5_
	<0x1>
	Attribute:	EIATTR_SW_WAR
	Format:	EIFMT_SVAL
	Value:	0x1 
	<0x2>
	Attribute:	EIATTR_CUDA_API_VERSION
	Format:	EIFMT_SVAL
	Value:	0x7d 
	<0x3>
	Attribute:	EIATTR_PARAM_CBANK
	Format:	EIFMT_SVAL
	Value:	0x42 0x590160 
	<0x4>
	Attribute:	EIATTR_CBANK_PARAM_SIZE
	Format:	EIFMT_HVAL
	Value:	0x59
	<0x5>
	Attribute:	EIATTR_KPARAM_INFO
	Format:	EIFMT_SVAL
	Value:	Index : 0x0	Ordinal : 0x5	Offset  : 0x58	Size    : 0x1
		Pointee's logAlignment : 0x0	Space : 0x0	cbank : 0x1f	Parameter Space : CBANK	
	<0x6>
	Attribute:	EIATTR_KPARAM_INFO
	Format:	EIFMT_SVAL
	Value:	Index : 0x0	Ordinal : 0x4	Offset  : 0x50	Size    : 0x8
		Pointee's logAlignment : 0x0	Space : 0x0	cbank : 0x1f	Parameter Space : CBANK	
	<0x7>
	Attribute:	EIATTR_KPARAM_INFO
	Format:	EIFMT_SVAL
	Value:	Index : 0x0	Ordinal : 0x3	Offset  : 0x24	Size    : 0x28
		Pointee's logAlignment : 0x0	Space : 0x0	cbank : 0x1f	Parameter Space : CBANK	
	<0x8>
	Attribute:	EIATTR_KPARAM_INFO
	Format:	EIFMT_SVAL
	Value:	Index : 0x0	Ordinal : 0x2	Offset  : 0x20	Size    : 0x4
		Pointee's logAlignment : 0x0	Space : 0x0	cbank : 0x1f	Parameter Space : CBANK	
	<0x9>
	Attribute:	EIATTR_KPARAM_INFO
	Format:	EIFMT_SVAL
	Value:	Index : 0x0	Ordinal : 0x1	Offset  : 0x18	Size    : 0x8
		Pointee's logAlignment : 0x0	Space : 0x0	cbank : 0x1f	Parameter Space : CBANK	
	<0x10>
	Attribute:	EIATTR_KPARAM_INFO
	Format:	EIFMT_SVAL
	Value:	Index : 0x0	Ordinal : 0x0	Offset  : 0x0	Size    : 0x18
		Pointee's logAlignment : 0x0	Space : 0x0	cbank : 0x1f	Parameter Space : CBANK	
	<0x11>
	Attribute:	EIATTR_MAXREG_COUNT
	Format:	EIFMT_HVAL
	Value:	0xff
	<0x12>
	Attribute:	EIATTR_COOP_GROUP_MASK_REGIDS
	Format:	EIFMT_SVAL
	Value:	0xffffffff 0xffffffff 0xffffffff 0xffffffff 0xffffffff 0xffffffff 0xffffffff 0xffffffff 0xffffffff 0xffffffff 0xffffffff 0xffffffff 0xffffffff 0xffffffff 0xffffffff 0xffffffff 0xffffffff 0xffffffff 0xffffffff 0xffffffff 0xffffffff 0xffffffff 0xffffffff 0xffffffff 0xffffffff 0xffffffff 0xffffffff 0xffffffff 0xffffffff 0xffffffff 0xffffffff 0xffffffff 0xffffffff 0xffffffff 0xffffffff 0xffffffff 0xffffffff 0xffffffff 0xffffffff 0xffffffff 0xffffffff 0xffffffff 0xffffffff 0xffffffff 0xffffffff 0xffffffff 0xffffffff 0xffffffff 0xffffffff 0xffffffff 0xffffffff 0xffffffff 0xffffffff 0xffffffff 0xffffffff 0xffffffff 0xffffffff 0xffffffff 0xffffffff 0xffffffff 0xffffffff 0xffffffff 0xffffffff 0xffffffff 0xffffffff 0xffffffff 0xffffffff 0xffffffff 0xffffffff 0xffffffff 0xffffffff 0xffffffff 0xffffffff 0xffffffff 0xffffffff 0xffffffff 0xffffffff 0xffffffff 0xffffffff 0xffffffff 0xffffffff 0xffffffff 0xffffffff 0xffffffff 0xffffffff 0xffffffff 0xffffffff 0xffffffff 0xffffffff 0xffffffff 0xffffffff 0xffffffff 0xffffffff 0xffffffff 0xffffffff 0xffffffff 0xffffffff 0xffffffff 0xffffffff 0xffffffff 0xffffffff 0xffffffff 0xffffffff 0xffffffff 0xffffffff 0xffffffff 0xffffffff 0xffffffff 0xffffffff 0xffffffff 0xffffffff 0xffffffff 0xffffffff 0xffffffff 0xffffffff 0xffffffff 0xffffffff 0xffffffff 0xffffffff 0xffffffff 
	<0x13>
	Attribute:	EIATTR_COOP_GROUP_INSTR_OFFSETS
	Format:	EIFMT_SVAL
	Value:	0x2150 0x2180 0x21a0 0x21b0 0x21c0 0x21e0 0x21f0 0x2200 0x2620 0x2660 0x2690 0x26a0 0x26b0 0x26c0 0x26d0 0x26e0 0x2b00 0x2b40 0x2b70 0x2b80 0x2b90 0x2ba0 0x2bb0 0x2bc0 0x2fe0 0x3010 0x3040 0x3060 0x3070 0x3080 0x3090 0x30a0 0x34e0 0x3520 0x3540 0x3550 0x3560 0x3570 0x3580 0x3590 0x6840 0x6850 0x6860 0x6870 0x6880 0x6890 0x68a0 0x68b0 0x6c10 0x6c50 0x6c90 0x6ca0 0x6cb0 0x6cc0 0x6cd0 0x6ce0 0x7100 0x7140 0x7170 0x7190 0x71a0 0x71b0 0x71c0 0x71d0 0x75f0 0x7630 0x7670 0x7680 0x7690 0x76a0 0x76b0 0x76c0 0x7ae0 0x7b20 0x7b50 0x7b70 0x7b80 0x7b90 0x7ba0 0x7bb0 0xa050 0xa090 0xa0d0 0xa100 0xa120 0xa130 0xa140 0xa150 0xa4b0 0xa4f0 0xa520 0xa530 0xa540 0xa550 0xa560 0xa570 0xa990 0xa9c0 0xa9f0 0xaa10 0xaa20 0xaa30 0xaa40 0xaa50 0xae70 0xaeb0 0xaee0 0xaef0 0xaf00 0xaf10 0xaf20 0xaf30 0xb350 0xb390 0xb3c0 0xb3d0 0xb3e0 0xb3f0 0xb400 0xb410 
	<0x14>
	Attribute:	EIATTR_EXIT_INSTR_OFFSETS
	Format:	EIFMT_SVAL
	Value:	0xd040 0xd0d0 
	<0x15>
	Attribute:	EIATTR_MAX_THREADS
	Format:	EIFMT_SVAL
	Value:	0x100 0x1 0x1 
	<0x16>
	Attribute:	EIATTR_CRS_STACK_SIZE
	Format:	EIFMT_SVAL
	Value:	0x0 


.nv.info._ZN6thrust20THRUST_200400_750_NS8cuda_cub4core13_kernel_agentINS1_8__reduce11ReduceAgentINS1_26transform_input_iterator_tIN4cuda3std3__45tupleIJNSA_IJ6vec_2dIfElEEESD_EEENS0_12zip_iteratorINSA_IJNS0_6detail15normal_iteratorINS0_10device_ptrISC_EEEENS1_19counting_iterator_tIlEEEEEEENS1_9__extrema12arg_minmax_fISC_l7compareIfEE15duplicate_tupleEEEPSE_SE_iST_EESV_SW_iST_EEvT0_T1_T2_T3_
	<0x1>
	Attribute:	EIATTR_SW_WAR
	Format:	EIFMT_SVAL
	Value:	0x1 
	<0x2>
	Attribute:	EIATTR_CUDA_API_VERSION
	Format:	EIFMT_SVAL
	Value:	0x7d 
	<0x3>
	Attribute:	EIATTR_PARAM_CBANK
	Format:	EIFMT_SVAL
	Value:	0x44 0x250160 
	<0x4>
	Attribute:	EIATTR_CBANK_PARAM_SIZE
	Format:	EIFMT_HVAL
	Value:	0x25
	<0x5>
	Attribute:	EIATTR_KPARAM_INFO
	Format:	EIFMT_SVAL
	Value:	Index : 0x0	Ordinal : 0x3	Offset  : 0x24	Size    : 0x1
		Pointee's logAlignment : 0x0	Space : 0x0	cbank : 0x1f	Parameter Space : CBANK	
	<0x6>
	Attribute:	EIATTR_KPARAM_INFO
	Format:	EIFMT_SVAL
	Value:	Index : 0x0	Ordinal : 0x2	Offset  : 0x20	Size    : 0x4
		Pointee's logAlignment : 0x0	Space : 0x0	cbank : 0x1f	Parameter Space : CBANK	
	<0x7>
	Attribute:	EIATTR_KPARAM_INFO
	Format:	EIFMT_SVAL
	Value:	Index : 0x0	Ordinal : 0x1	Offset  : 0x18	Size    : 0x8
		Pointee's logAlignment : 0x0	Space : 0x0	cbank : 0x1f	Parameter Space : CBANK	
	<0x8>
	Attribute:	EIATTR_KPARAM_INFO
	Format:	EIFMT_SVAL
	Value:	Index : 0x0	Ordinal : 0x0	Offset  : 0x0	Size    : 0x18
		Pointee's logAlignment : 0x0	Space : 0x0	cbank : 0x1f	Parameter Space : CBANK	
	<0x9>
	Attribute:	EIATTR_MAXREG_COUNT
	Format:	EIFMT_HVAL
	Value:	0xff
	<0x10>
	Attribute:	EIATTR_COOP_GROUP_MASK_REGIDS
	Format:	EIFMT_SVAL
	Value:	0xffffffff 0xffffffff 0xffffffff 0xffffffff 0xffffffff 0xffffffff 0xffffffff 0xffffffff 0xffffffff 0xffffffff 0xffffffff 0xffffffff 0xffffffff 0xffffffff 0xffffffff 0xffffffff 0xffffffff 0xffffffff 0xffffffff 0xffffffff 0xffffffff 0xffffffff 0xffffffff 0xffffffff 0xffffffff 0xffffffff 0xffffffff 0xffffffff 0xffffffff 0xffffffff 0xffffffff 0xffffffff 0xffffffff 0xffffffff 0xffffffff 0xffffffff 0xffffffff 0xffffffff 0xffffffff 0xffffffff 0xffffffff 0xffffffff 0xffffffff 0xffffffff 0xffffffff 0xffffffff 0xffffffff 0xffffffff 0xffffffff 0xffffffff 0xffffffff 0xffffffff 0xffffffff 0xffffffff 0xffffffff 0xffffffff 0xffffffff 0xffffffff 0xffffffff 0xffffffff 0xffffffff 0xffffffff 0xffffffff 0xffffffff 0xffffffff 0xffffffff 0xffffffff 0xffffffff 0xffffffff 0xffffffff 0xffffffff 0xffffffff 0xffffffff 0xffffffff 0xffffffff 0xffffffff 0xffffffff 0xffffffff 0xffffffff 0xffffffff 0xffffffff 0xffffffff 0xffffffff 0xffffffff 0xffffffff 0xffffffff 0xffffffff 0xffffffff 0xffffffff 0xffffffff 0xffffffff 0xffffffff 0xffffffff 0xffffffff 0xffffffff 0xffffffff 0xffffffff 0xffffffff 0xffffffff 0xffffffff 0xffffffff 0xffffffff 0xffffffff 0xffffffff 0xffffffff 0xffffffff 0xffffffff 0xffffffff 0xffffffff 0xffffffff 0xffffffff 0xffffffff 0xffffffff 0xffffffff 0xffffffff 0xffffffff 0xffffffff 0xffffffff 0xffffffff 0xffffffff 
	<0x11>
	Attribute:	EIATTR_COOP_GROUP_INSTR_OFFSETS
	Format:	EIFMT_SVAL
	Value:	0x1e80 0x1ec0 0x1ed0 0x1ee0 0x1ef0 0x1f10 0x1f20 0x1f30 0x2350 0x2390 0x23c0 0x23d0 0x23e0 0x23f0 0x2400 0x2410 0x2830 0x2870 0x28a0 0x28b0 0x28c0 0x28d0 0x28e0 0x28f0 0x2d10 0x2d50 0x2d80 0x2d90 0x2da0 0x2db0 0x2dc0 0x2dd0 0x31f0 0x3220 0x3250 0x3270 0x3280 0x3290 0x32a0 0x32b0 0x64f0 0x6500 0x6510 0x6520 0x6530 0x6540 0x6550 0x6560 0x68c0 0x6900 0x6930 0x6950 0x6960 0x6970 0x6980 0x6990 0x6db0 0x6df0 0x6e30 0x6e40 0x6e50 0x6e60 0x6e70 0x6e80 0x72a0 0x72e0 0x7310 0x7330 0x7340 0x7350 0x7360 0x7370 0x7790 0x77d0 0x7800 0x7820 0x7830 0x7840 0x7850 0x7860 0x9cf0 0x9d30 0x9d60 0x9d90 0x9dc0 0x9dd0 0x9de0 0x9df0 0xa150 0xa190 0xa1c0 0xa1d0 0xa1e0 0xa1f0 0xa200 0xa210 0xa630 0xa670 0xa6a0 0xa6b0 0xa6c0 0xa6d0 0xa6e0 0xa6f0 0xab10 0xab50 0xab80 0xab90 0xaba0 0xabb0 0xabc0 0xabd0 0xaff0 0xb030 0xb060 0xb070 0xb080 0xb090 0xb0a0 0xb0b0 
	<0x12>
	Attribute:	EIATTR_EXIT_INSTR_OFFSETS
	Format:	EIFMT_SVAL
	Value:	0x20 0xcce0 0xcd40 
	<0x13>
	Attribute:	EIATTR_MAX_THREADS
	Format:	EIFMT_SVAL
	Value:	0x100 0x1 0x1 
	<0x14>
	Attribute:	EIATTR_CRS_STACK_SIZE
	Format:	EIFMT_SVAL
	Value:	0x0 


.nv.info._ZN6thrust20THRUST_200400_750_NS8cuda_cub4core13_kernel_agentINS1_8__reduce11ReduceAgentIPN4cuda3std3__45tupleIJ6vec_2dIfElEEESD_SC_lNS1_9__extrema9arg_max_fISB_l7compareIfEEEEESD_SD_iSI_EEvT0_T1_T2_T3_
	<0x1>
	Attribute:	EIATTR_SW_WAR
	Format:	EIFMT_SVAL
	Value:	0x1 
	<0x2>
	Attribute:	EIATTR_CUDA_API_VERSION
	Format:	EIFMT_SVAL
	Value:	0x7d 
	<0x3>
	Attribute:	EIATTR_PARAM_CBANK
	Format:	EIFMT_SVAL
	Value:	0x46 0x150160 
	<0x4>
	Attribute:	EIATTR_CBANK_PARAM_SIZE
	Format:	EIFMT_HVAL
	Value:	0x15
	<0x5>
	Attribute:	EIATTR_KPARAM_INFO
	Format:	EIFMT_SVAL
	Value:	Index : 0x0	Ordinal : 0x3	Offset  : 0x14	Size    : 0x1
		Pointee's logAlignment : 0x0	Space : 0x0	cbank : 0x1f	Parameter Space : CBANK	
	<0x6>
	Attribute:	EIATTR_KPARAM_INFO
	Format:	EIFMT_SVAL
	Value:	Index : 0x0	Ordinal : 0x2	Offset  : 0x10	Size    : 0x4
		Pointee's logAlignment : 0x0	Space : 0x0	cbank : 0x1f	Parameter Space : CBANK	
	<0x7>
	Attribute:	EIATTR_KPARAM_INFO
	Format:	EIFMT_SVAL
	Value:	Index : 0x0	Ordinal : 0x1	Offset  : 0x8	Size    : 0x8
		Pointee's logAlignment : 0x0	Space : 0x0	cbank : 0x1f	Parameter Space : CBANK	
	<0x8>
	Attribute:	EIATTR_KPARAM_INFO
	Format:	EIFMT_SVAL
	Value:	Index : 0x0	Ordinal : 0x0	Offset  : 0x0	Size    : 0x8
		Pointee's logAlignment : 0x0	Space : 0x0	cbank : 0x1f	Parameter Space : CBANK	
	<0x9>
	Attribute:	EIATTR_MAXREG_COUNT
	Format:	EIFMT_HVAL
	Value:	0xff
	<0x10>
	Attribute:	EIATTR_COOP_GROUP_MASK_REGIDS
	Format:	EIFMT_SVAL
	Value:	0xffffffff 0xffffffff 0xffffffff 0xffffffff 0xffffffff 0xffffffff 0xffffffff 0xffffffff 0xffffffff 0xffffffff 0xffffffff 0xffffffff 0xffffffff 0xffffffff 0xffffffff 0xffffffff 0xffffffff 0xffffffff 0xffffffff 0xffffffff 0xffffffff 0xffffffff 0xffffffff 0xffffffff 0xffffffff 0xffffffff 0xffffffff 0xffffffff 0xffffffff 0xffffffff 0xffffffff 0xffffffff 0xffffffff 0xffffffff 0xffffffff 0xffffffff 0xffffffff 0xffffffff 0xffffffff 0xffffffff 0xffffffff 0xffffffff 0xffffffff 0xffffffff 0xffffffff 0xffffffff 0xffffffff 0xffffffff 0xffffffff 0xffffffff 0xffffffff 0xffffffff 0xffffffff 0xffffffff 0xffffffff 0xffffffff 0xffffffff 0xffffffff 0xffffffff 0xffffffff 
	<0x11>
	Attribute:	EIATTR_COOP_GROUP_INSTR_OFFSETS
	Format:	EIFMT_SVAL
	Value:	0x1fe0 0x2010 0x2030 0x2040 0x2230 0x2270 0x22b0 0x22e0 0x24a0 0x24e0 0x2520 0x2530 0x26e0 0x2720 0x2750 0x2770 0x2920 0x2960 0x2990 0x29a0 0x45e0 0x4620 0x4660 0x4690 0x4840 0x4880 0x48c0 0x48d0 0x4a80 0x4ac0 0x4af0 0x4b00 0x4cb0 0x4cf0 0x4d20 0x4d30 0x4ee0 0x4f20 0x4f50 0x4f60 0x6040 0x6080 0x60c0 0x60e0 0x6290 0x62d0 0x6310 0x6340 0x64f0 0x6530 0x6560 0x6570 0x6720 0x6760 0x6790 0x67a0 0x6950 0x6990 0x69c0 0x69d0 
	<0x12>
	Attribute:	EIATTR_EXIT_INSTR_OFFSETS
	Format:	EIFMT_SVAL
	Value:	0x20 0x78a0 0x78e0 
	<0x13>
	Attribute:	EIATTR_MAX_THREADS
	Format:	EIFMT_SVAL
	Value:	0x100 0x1 0x1 
	<0x14>
	Attribute:	EIATTR_CRS_STACK_SIZE
	Format:	EIFMT_SVAL
	Value:	0x0 


.nv.info._ZN6thrust20THRUST_200400_750_NS8cuda_cub4core13_kernel_agentINS1_8__reduce11ReduceAgentINS0_12zip_iteratorIN4cuda3std3__45tupleIJNS0_6detail15normal_iteratorINS0_10device_ptrI6vec_2dIfEEEEENS1_19counting_iterator_tIlEEEEEEEPNSA_IJSF_lEEESM_lNS1_9__extrema9arg_max_fISF_l7compareIfEEEEESL_SN_lN3cub17CUB_200400_750_NS13GridEvenShareIlEENSV_9GridQueueIyEESS_EEvT0_T1_T2_T3_T4_T5_
	<0x1>
	Attribute:	EIATTR_SW_WAR
	Format:	EIFMT_SVAL
	Value:	0x1 
	<0x2>
	Attribute:	EIATTR_CUDA_API_VERSION
	Format:	EIFMT_SVAL
	Value:	0x7d 
	<0x3>
	Attribute:	EIATTR_PARAM_CBANK
	Format:	EIFMT_SVAL
	Value:	0x49 0x710160 
	<0x4>
	Attribute:	EIATTR_CBANK_PARAM_SIZE
	Format:	EIFMT_HVAL
	Value:	0x71
	<0x5>
	Attribute:	EIATTR_KPARAM_INFO
	Format:	EIFMT_SVAL
	Value:	Index : 0x0	Ordinal : 0x5	Offset  : 0x70	Size    : 0x1
		Pointee's logAlignment : 0x0	Space : 0x0	cbank : 0x1f	Parameter Space : CBANK	
	<0x6>
	Attribute:	EIATTR_KPARAM_INFO
	Format:	EIFMT_SVAL
	Value:	Index : 0x0	Ordinal : 0x4	Offset  : 0x68	Size    : 0x8
		Pointee's logAlignment : 0x0	Space : 0x0	cbank : 0x1f	Parameter Space : CBANK	
	<0x7>
	Attribute:	EIATTR_KPARAM_INFO
	Format:	EIFMT_SVAL
	Value:	Index : 0x0	Ordinal : 0x3	Offset  : 0x20	Size    : 0x48
		Pointee's logAlignment : 0x0	Space : 0x0	cbank : 0x1f	Parameter Space : CBANK	
	<0x8>
	Attribute:	EIATTR_KPARAM_INFO
	Format:	EIFMT_SVAL
	Value:	Index : 0x0	Ordinal : 0x2	Offset  : 0x18	Size    : 0x8
		Pointee's logAlignment : 0x0	Space : 0x0	cbank : 0x1f	Parameter Space : CBANK	
	<0x9>
	Attribute:	EIATTR_KPARAM_INFO
	Format:	EIFMT_SVAL
	Value:	Index : 0x0	Ordinal : 0x1	Offset  : 0x10	Size    : 0x8
		Pointee's logAlignment : 0x0	Space : 0x0	cbank : 0x1f	Parameter Space : CBANK	
	<0x10>
	Attribute:	EIATTR_KPARAM_INFO
	Format:	EIFMT_SVAL
	Value:	Index : 0x0	Ordinal : 0x0	Offset  : 0x0	Size    : 0x10
		Pointee's logAlignment : 0x0	Space : 0x0	cbank : 0x1f	Parameter Space : CBANK	
	<0x11>
	Attribute:	EIATTR_MAXREG_COUNT
	Format:	EIFMT_HVAL
	Value:	0xff
	<0x12>
	Attribute:	EIATTR_COOP_GROUP_MASK_REGIDS
	Format:	EIFMT_SVAL
	Value:	0xffffffff 0xffffffff 0xffffffff 0xffffffff 0xffffffff 0xffffffff 0xffffffff 0xffffffff 0xffffffff 0xffffffff 0xffffffff 0xffffffff 0xffffffff 0xffffffff 0xffffffff 0xffffffff 0xffffffff 0xffffffff 0xffffffff 0xffffffff 0xffffffff 0xffffffff 0xffffffff 0xffffffff 0xffffffff 0xffffffff 0xffffffff 0xffffffff 0xffffffff 0xffffffff 0xffffffff 0xffffffff 0xffffffff 0xffffffff 0xffffffff 0xffffffff 0xffffffff 0xffffffff 0xffffffff 0xffffffff 0xffffffff 0xffffffff 0xffffffff 0xffffffff 0xffffffff 0xffffffff 0xffffffff 0xffffffff 0xffffffff 0xffffffff 0xffffffff 0xffffffff 0xffffffff 0xffffffff 0xffffffff 0xffffffff 0xffffffff 0xffffffff 0xffffffff 0xffffffff 
	<0x13>
	Attribute:	EIATTR_COOP_GROUP_INSTR_OFFSETS
	Format:	EIFMT_SVAL
	Value:	0x1fd0 0x1fe0 0x1ff0 0x2000 0x2200 0x2240 0x2280 0x22c0 0x2470 0x24b0 0x24e0 0x2500 0x26b0 0x26f0 0x2720 0x2740 0x28f0 0x2930 0x2960 0x2970 0x4730 0x4770 0x4790 0x47a0 0x4950 0x4990 0x49c0 0x49e0 0x4b90 0x4bd0 0x4c00 0x4c10 0x4dc0 0x4e00 0x4e30 0x4e40 0x4ff0 0x5020 0x5050 0x5070 0x6170 0x61b0 0x61f0 0x6210 0x63c0 0x6400 0x6440 0x6470 0x6620 0x6660 0x6690 0x66a0 0x6850 0x6890 0x68c0 0x68d0 0x6a80 0x6ac0 0x6af0 0x6b00 
	<0x14>
	Attribute:	EIATTR_EXIT_INSTR_OFFSETS
	Format:	EIFMT_SVAL
	Value:	0x79f0 0x7a70 
	<0x15>
	Attribute:	EIATTR_MAX_THREADS
	Format:	EIFMT_SVAL
	Value:	0x100 0x1 0x1 
	<0x16>
	Attribute:	EIATTR_CRS_STACK_SIZE
	Format:	EIFMT_SVAL
	Value:	0x0 


.nv.info._ZN6thrust20THRUST_200400_750_NS8cuda_cub4core13_kernel_agentINS1_8__reduce11ReduceAgentINS0_12zip_iteratorIN4cuda3std3__45tupleIJNS0_6detail15normal_iteratorINS0_10device_ptrI6vec_2dIfEEEEENS1_19counting_iterator_tIlEEEEEEEPNSA_IJSF_lEEESM_lNS1_9__extrema9arg_max_fISF_l7compareIfEEEEESL_SN_lSS_EEvT0_T1_T2_T3_
	<0x1>
	Attribute:	EIATTR_SW_WAR
	Format:	EIFMT_SVAL
	Value:	0x1 
	<0x2>
	Attribute:	EIATTR_CUDA_API_VERSION
	Format:	EIFMT_SVAL
	Value:	0x7d 
	<0x3>
	Attribute:	EIATTR_PARAM_CBANK
	Format:	EIFMT_SVAL
	Value:	0x4b 0x210160 
	<0x4>
	Attribute:	EIATTR_CBANK_PARAM_SIZE
	Format:	EIFMT_HVAL
	Value:	0x21
	<0x5>
	Attribute:	EIATTR_KPARAM_INFO
	Format:	EIFMT_SVAL
	Value:	Index : 0x0	Ordinal : 0x3	Offset  : 0x20	Size    : 0x1
		Pointee's logAlignment : 0x0	Space : 0x0	cbank : 0x1f	Parameter Space : CBANK	
	<0x6>
	Attribute:	EIATTR_KPARAM_INFO
	Format:	EIFMT_SVAL
	Value:	Index : 0x0	Ordinal : 0x2	Offset  : 0x18	Size    : 0x8
		Pointee's logAlignment : 0x0	Space : 0x0	cbank : 0x1f	Parameter Space : CBANK	
	<0x7>
	Attribute:	EIATTR_KPARAM_INFO
	Format:	EIFMT_SVAL
	Value:	Index : 0x0	Ordinal : 0x1	Offset  : 0x10	Size    : 0x8
		Pointee's logAlignment : 0x0	Space : 0x0	cbank : 0x1f	Parameter Space : CBANK	
	<0x8>
	Attribute:	EIATTR_KPARAM_INFO
	Format:	EIFMT_SVAL
	Value:	Index : 0x0	Ordinal : 0x0	Offset  : 0x0	Size    : 0x10
		Pointee's logAlignment : 0x0	Space : 0x0	cbank : 0x1f	Parameter Space : CBANK	
	<0x9>
	Attribute:	EIATTR_MAXREG_COUNT
	Format:	EIFMT_HVAL
	Value:	0xff
	<0x10>
	Attribute:	EIATTR_COOP_GROUP_MASK_REGIDS
	Format:	EIFMT_SVAL
	Value:	0xffffffff 0xffffffff 0xffffffff 0xffffffff 0xffffffff 0xffffffff 0xffffffff 0xffffffff 0xffffffff 0xffffffff 0xffffffff 0xffffffff 0xffffffff 0xffffffff 0xffffffff 0xffffffff 0xffffffff 0xffffffff 0xffffffff 0xffffffff 0xffffffff 0xffffffff 0xffffffff 0xffffffff 0xffffffff 0xffffffff 0xffffffff 0xffffffff 0xffffffff 0xffffffff 0xffffffff 0xffffffff 0xffffffff 0xffffffff 0xffffffff 0xffffffff 0xffffffff 0xffffffff 0xffffffff 0xffffffff 0xffffffff 0xffffffff 0xffffffff 0xffffffff 0xffffffff 0xffffffff 0xffffffff 0xffffffff 0xffffffff 0xffffffff 0xffffffff 0xffffffff 0xffffffff 0xffffffff 0xffffffff 0xffffffff 0xffffffff 0xffffffff 0xffffffff 0xffffffff 
	<0x11>
	Attribute:	EIATTR_COOP_GROUP_INSTR_OFFSETS
	Format:	EIFMT_SVAL
	Value:	0x1cb0 0x1ce0 0x1d00 0x1d10 0x1f00 0x1f40 0x1f80 0x1fb0 0x2170 0x21b0 0x21e0 0x2200 0x23b0 0x23f0 0x2420 0x2440 0x25f0 0x2630 0x2660 0x2670 0x4370 0x43b0 0x43f0 0x4400 0x45b0 0x45f0 0x4630 0x4640 0x47f0 0x4830 0x4860 0x4870 0x4a20 0x4a60 0x4a90 0x4aa0 0x4c50 0x4c90 0x4cc0 0x4cd0 0x5dd0 0x5e10 0x5e50 0x5e70 0x6020 0x6060 0x60a0 0x60d0 0x6280 0x62c0 0x62f0 0x6300 0x64b0 0x64f0 0x6520 0x6530 0x66e0 0x6720 0x6750 0x6760 
	<0x12>
	Attribute:	EIATTR_EXIT_INSTR_OFFSETS
	Format:	EIFMT_SVAL
	Value:	0x30 0x7650 0x76a0 
	<0x13>
	Attribute:	EIATTR_MAX_THREADS
	Format:	EIFMT_SVAL
	Value:	0x100 0x1 0x1 
	<0x14>
	Attribute:	EIATTR_CRS_STACK_SIZE
	Format:	EIFMT_SVAL
	Value:	0x0 


.nv.info._ZN6thrust20THRUST_200400_750_NS8cuda_cub4core13_kernel_agentINS1_8__reduce11ReduceAgentIPN4cuda3std3__45tupleIJ6vec_2dIfElEEESD_SC_iNS1_9__extrema9arg_max_fISB_l7compareIfEEEEESD_SD_iSI_EEvT0_T1_T2_T3_
	<0x1>
	Attribute:	EIATTR_SW_WAR
	Format:	EIFMT_SVAL
	Value:	0x1 
	<0x2>
	Attribute:	EIATTR_CUDA_API_VERSION
	Format:	EIFMT_SVAL
	Value:	0x7d 
	<0x3>
	Attribute:	EIATTR_PARAM_CBANK
	Format:	EIFMT_SVAL
	Value:	0x4d 0x150160 
	<0x4>
	Attribute:	EIATTR_CBANK_PARAM_SIZE
	Format:	EIFMT_HVAL
	Value:	0x15
	<0x5>
	Attribute:	EIATTR_KPARAM_INFO
	Format:	EIFMT_SVAL
	Value:	Index : 0x0	Ordinal : 0x3	Offset  : 0x14	Size    : 0x1
		Pointee's logAlignment : 0x0	Space : 0x0	cbank : 0x1f	Parameter Space : CBANK	
	<0x6>
	Attribute:	EIATTR_KPARAM_INFO
	Format:	EIFMT_SVAL
	Value:	Index : 0x0	Ordinal : 0x2	Offset  : 0x10	Size    : 0x4
		Pointee's logAlignment : 0x0	Space : 0x0	cbank : 0x1f	Parameter Space : CBANK	
	<0x7>
	Attribute:	EIATTR_KPARAM_INFO
	Format:	EIFMT_SVAL
	Value:	Index : 0x0	Ordinal : 0x1	Offset  : 0x8	Size    : 0x8
		Pointee's logAlignment : 0x0	Space : 0x0	cbank : 0x1f	Parameter Space : CBANK	
	<0x8>
	Attribute:	EIATTR_KPARAM_INFO
	Format:	EIFMT_SVAL
	Value:	Index : 0x0	Ordinal : 0x0	Offset  : 0x0	Size    : 0x8
		Pointee's logAlignment : 0x0	Space : 0x0	cbank : 0x1f	Parameter Space : CBANK	
	<0x9>
	Attribute:	EIATTR_MAXREG_COUNT
	Format:	EIFMT_HVAL
	Value:	0xff
	<0x10>
	Attribute:	EIATTR_COOP_GROUP_MASK_REGIDS
	Format:	EIFMT_SVAL
	Value:	0xffffffff 0xffffffff 0xffffffff 0xffffffff 0xffffffff 0xffffffff 0xffffffff 0xffffffff 0xffffffff 0xffffffff 0xffffffff 0xffffffff 0xffffffff 0xffffffff 0xffffffff 0xffffffff 0xffffffff 0xffffffff 0xffffffff 0xffffffff 0xffffffff 0xffffffff 0xffffffff 0xffffffff 0xffffffff 0xffffffff 0xffffffff 0xffffffff 0xffffffff 0xffffffff 0xffffffff 0xffffffff 0xffffffff 0xffffffff 0xffffffff 0xffffffff 0xffffffff 0xffffffff 0xffffffff 0xffffffff 0xffffffff 0xffffffff 0xffffffff 0xffffffff 0xffffffff 0xffffffff 0xffffffff 0xffffffff 0xffffffff 0xffffffff 0xffffffff 0xffffffff 0xffffffff 0xffffffff 0xffffffff 0xffffffff 0xffffffff 0xffffffff 0xffffffff 0xffffffff 
	<0x11>
	Attribute:	EIATTR_COOP_GROUP_INSTR_OFFSETS
	Format:	EIFMT_SVAL
	Value:	0x1f10 0x1f40 0x1f60 0x1f70 0x2160 0x21a0 0x21e0 0x2220 0x23d0 0x2410 0x2440 0x2460 0x2610 0x2650 0x2690 0x26a0 0x2850 0x2890 0x28c0 0x28d0 0x4510 0x4550 0x4590 0x45c0 0x4770 0x47b0 0x47f0 0x4800 0x49b0 0x49f0 0x4a20 0x4a30 0x4be0 0x4c20 0x4c50 0x4c60 0x4e10 0x4e50 0x4e80 0x4e90 0x5f70 0x5fb0 0x5ff0 0x6010 0x61c0 0x6200 0x6240 0x6270 0x6420 0x6460 0x6490 0x64a0 0x6650 0x6690 0x66c0 0x66d0 0x6880 0x68c0 0x68f0 0x6900 
	<0x12>
	Attribute:	EIATTR_EXIT_INSTR_OFFSETS
	Format:	EIFMT_SVAL
	Value:	0x20 0x77d0 0x7810 
	<0x13>
	Attribute:	EIATTR_MAX_THREADS
	Format:	EIFMT_SVAL
	Value:	0x100 0x1 0x1 
	<0x14>
	Attribute:	EIATTR_CRS_STACK_SIZE
	Format:	EIFMT_SVAL
	Value:	0x0 


.nv.info._ZN6thrust20THRUST_200400_750_NS8cuda_cub4core13_kernel_agentINS1_8__reduce11ReduceAgentINS0_12zip_iteratorIN4cuda3std3__45tupleIJNS0_6detail15normal_iteratorINS0_10device_ptrI6vec_2dIfEEEEENS1_19counting_iterator_tIlEEEEEEEPNSA_IJSF_lEEESM_iNS1_9__extrema9arg_max_fISF_l7compareIfEEEEESL_SN_iN3cub17CUB_200400_750_NS13GridEvenShareIiEENSV_9GridQueueIjEESS_EEvT0_T1_T2_T3_T4_T5_
	<0x1>
	Attribute:	EIATTR_SW_WAR
	Format:	EIFMT_SVAL
	Value:	0x1 
	<0x2>
	Attribute:	EIATTR_CUDA_API_VERSION
	Format:	EIFMT_SVAL
	Value:	0x7d 
	<0x3>
	Attribute:	EIATTR_PARAM_CBANK
	Format:	EIFMT_SVAL
	Value:	0x50 0x510160 
	<0x4>
	Attribute:	EIATTR_CBANK_PARAM_SIZE
	Format:	EIFMT_HVAL
	Value:	0x51
	<0x5>
	Attribute:	EIATTR_KPARAM_INFO
	Format:	EIFMT_SVAL
	Value:	Index : 0x0	Ordinal : 0x5	Offset  : 0x50	Size    : 0x1
		Pointee's logAlignment : 0x0	Space : 0x0	cbank : 0x1f	Parameter Space : CBANK	
	<0x6>
	Attribute:	EIATTR_KPARAM_INFO
	Format:	EIFMT_SVAL
	Value:	Index : 0x0	Ordinal : 0x4	Offset  : 0x48	Size    : 0x8
		Pointee's logAlignment : 0x0	Space : 0x0	cbank : 0x1f	Parameter Space : CBANK	
	<0x7>
	Attribute:	EIATTR_KPARAM_INFO
	Format:	EIFMT_SVAL
	Value:	Index : 0x0	Ordinal : 0x3	Offset  : 0x1c	Size    : 0x28
		Pointee's logAlignment : 0x0	Space : 0x0	cbank : 0x1f	Parameter Space : CBANK	
	<0x8>
	Attribute:	EIATTR_KPARAM_INFO
	Format:	EIFMT_SVAL
	Value:	Index : 0x0	Ordinal : 0x2	Offset  : 0x18	Size    : 0x4
		Pointee's logAlignment : 0x0	Space : 0x0	cbank : 0x1f	Parameter Space : CBANK	
	<0x9>
	Attribute:	EIATTR_KPARAM_INFO
	Format:	EIFMT_SVAL
	Value:	Index : 0x0	Ordinal : 0x1	Offset  : 0x10	Size    : 0x8
		Pointee's logAlignment : 0x0	Space : 0x0	cbank : 0x1f	Parameter Space : CBANK	
	<0x10>
	Attribute:	EIATTR_KPARAM_INFO
	Format:	EIFMT_SVAL
	Value:	Index : 0x0	Ordinal : 0x0	Offset  : 0x0	Size    : 0x10
		Pointee's logAlignment : 0x0	Space : 0x0	cbank : 0x1f	Parameter Space : CBANK	
	<0x11>
	Attribute:	EIATTR_MAXREG_COUNT
	Format:	EIFMT_HVAL
	Value:	0xff
	<0x12>
	Attribute:	EIATTR_COOP_GROUP_MASK_REGIDS
	Format:	EIFMT_SVAL
	Value:	0xffffffff 0xffffffff 0xffffffff 0xffffffff 0xffffffff 0xffffffff 0xffffffff 0xffffffff 0xffffffff 0xffffffff 0xffffffff 0xffffffff 0xffffffff 0xffffffff 0xffffffff 0xffffffff 0xffffffff 0xffffffff 0xffffffff 0xffffffff 0xffffffff 0xffffffff 0xffffffff 0xffffffff 0xffffffff 0xffffffff 0xffffffff 0xffffffff 0xffffffff 0xffffffff 0xffffffff 0xffffffff 0xffffffff 0xffffffff 0xffffffff 0xffffffff 0xffffffff 0xffffffff 0xffffffff 0xffffffff 0xffffffff 0xffffffff 0xffffffff 0xffffffff 0xffffffff 0xffffffff 0xffffffff 0xffffffff 0xffffffff 0xffffffff 0xffffffff 0xffffffff 0xffffffff 0xffffffff 0xffffffff 0xffffffff 0xffffffff 0xffffffff 0xffffffff 0xffffffff 
	<0x13>
	Attribute:	EIATTR_COOP_GROUP_INSTR_OFFSETS
	Format:	EIFMT_SVAL
	Value:	0x1f30 0x1f40 0x1f50 0x1f60 0x2160 0x21a0 0x21e0 0x2220 0x23d0 0x2410 0x2450 0x2460 0x2610 0x2650 0x2680 0x26a0 0x2850 0x2890 0x28c0 0x28d0 0x4630 0x4670 0x4690 0x46a0 0x4850 0x4890 0x48d0 0x48e0 0x4a90 0x4ad0 0x4b00 0x4b10 0x4cc0 0x4d00 0x4d30 0x4d40 0x4ef0 0x4f30 0x4f60 0x4f70 0x6070 0x60b0 0x60f0 0x6110 0x62c0 0x6300 0x6340 0x6370 0x6520 0x6560 0x6590 0x65a0 0x6750 0x6790 0x67c0 0x67d0 0x6980 0x69c0 0x69f0 0x6a00 
	<0x14>
	Attribute:	EIATTR_EXIT_INSTR_OFFSETS
	Format:	EIFMT_SVAL
	Value:	0x78f0 0x7970 
	<0x15>
	Attribute:	EIATTR_MAX_THREADS
	Format:	EIFMT_SVAL
	Value:	0x100 0x1 0x1 
	<0x16>
	Attribute:	EIATTR_CRS_STACK_SIZE
	Format:	EIFMT_SVAL
	Value:	0x0 


.nv.info._ZN6thrust20THRUST_200400_750_NS8cuda_cub4core13_kernel_agentINS1_8__reduce11ReduceAgentINS0_12zip_iteratorIN4cuda3std3__45tupleIJNS0_6detail15normal_iteratorINS0_10device_ptrI6vec_2dIfEEEEENS1_19counting_iterator_tIlEEEEEEEPNSA_IJSF_lEEESM_iNS1_9__extrema9arg_max_fISF_l7compareIfEEEEESL_SN_iSS_EEvT0_T1_T2_T3_
	<0x1>
	Attribute:	EIATTR_SW_WAR
	Format:	EIFMT_SVAL
	Value:	0x1 
	<0x2>
	Attribute:	EIATTR_CUDA_API_VERSION
	Format:	EIFMT_SVAL
	Value:	0x7d 
	<0x3>
	Attribute:	EIATTR_PARAM_CBANK
	Format:	EIFMT_SVAL
	Value:	0x52 0x1d0160 
	<0x4>
	Attribute:	EIATTR_CBANK_PARAM_SIZE
	Format:	EIFMT_HVAL
	Value:	0x1d
	<0x5>
	Attribute:	EIATTR_KPARAM_INFO
	Format:	EIFMT_SVAL
	Value:	Index : 0x0	Ordinal : 0x3	Offset  : 0x1c	Size    : 0x1
		Pointee's logAlignment : 0x0	Space : 0x0	cbank : 0x1f	Parameter Space : CBANK	
	<0x6>
	Attribute:	EIATTR_KPARAM_INFO
	Format:	EIFMT_SVAL
	Value:	Index : 0x0	Ordinal : 0x2	Offset  : 0x18	Size    : 0x4
		Pointee's logAlignment : 0x0	Space : 0x0	cbank : 0x1f	Parameter Space : CBANK	
	<0x7>
	Attribute:	EIATTR_KPARAM_INFO
	Format:	EIFMT_SVAL
	Value:	Index : 0x0	Ordinal : 0x1	Offset  : 0x10	Size    : 0x8
		Pointee's logAlignment : 0x0	Space : 0x0	cbank : 0x1f	Parameter Space : CBANK	
	<0x8>
	Attribute:	EIATTR_KPARAM_INFO
	Format:	EIFMT_SVAL
	Value:	Index : 0x0	Ordinal : 0x0	Offset  : 0x0	Size    : 0x10
		Pointee's logAlignment : 0x0	Space : 0x0	cbank : 0x1f	Parameter Space : CBANK	
	<0x9>
	Attribute:	EIATTR_MAXREG_COUNT
	Format:	EIFMT_HVAL
	Value:	0xff
	<0x10>
	Attribute:	EIATTR_COOP_GROUP_MASK_REGIDS
	Format:	EIFMT_SVAL
	Value:	0xffffffff 0xffffffff 0xffffffff 0xffffffff 0xffffffff 0xffffffff 0xffffffff 0xffffffff 0xffffffff 0xffffffff 0xffffffff 0xffffffff 0xffffffff 0xffffffff 0xffffffff 0xffffffff 0xffffffff 0xffffffff 0xffffffff 0xffffffff 0xffffffff 0xffffffff 0xffffffff 0xffffffff 0xffffffff 0xffffffff 0xffffffff 0xffffffff 0xffffffff 0xffffffff 0xffffffff 0xffffffff 0xffffffff 0xffffffff 0xffffffff 0xffffffff 0xffffffff 0xffffffff 0xffffffff 0xffffffff 0xffffffff 0xffffffff 0xffffffff 0xffffffff 0xffffffff 0xffffffff 0xffffffff 0xffffffff 0xffffffff 0xffffffff 0xffffffff 0xffffffff 0xffffffff 0xffffffff 0xffffffff 0xffffffff 0xffffffff 0xffffffff 0xffffffff 0xffffffff 
	<0x11>
	Attribute:	EIATTR_COOP_GROUP_INSTR_OFFSETS
	Format:	EIFMT_SVAL
	Value:	0x1bf0 0x1c20 0x1c40 0x1c50 0x1e40 0x1e80 0x1ec0 0x1ef0 0x20b0 0x20f0 0x2120 0x2140 0x22f0 0x2320 0x2350 0x2380 0x2530 0x2560 0x2590 0x25b0 0x4250 0x4290 0x42d0 0x42e0 0x4490 0x44d0 0x4510 0x4520 0x46d0 0x4710 0x4740 0x4750 0x4900 0x4940 0x4970 0x4980 0x4b30 0x4b70 0x4ba0 0x4bb0 0x5c90 0x5cd0 0x5d10 0x5d30 0x5ee0 0x5f20 0x5f60 0x5f90 0x6140 0x6170 0x61a0 0x61c0 0x6370 0x63b0 0x63e0 0x63f0 0x65a0 0x65e0 0x6610 0x6620 
	<0x12>
	Attribute:	EIATTR_EXIT_INSTR_OFFSETS
	Format:	EIFMT_SVAL
	Value:	0x20 0x74f0 0x7530 
	<0x13>
	Attribute:	EIATTR_MAX_THREADS
	Format:	EIFMT_SVAL
	Value:	0x100 0x1 0x1 
	<0x14>
	Attribute:	EIATTR_CRS_STACK_SIZE
	Format:	EIFMT_SVAL
	Value:	0x0 


.nv.info._ZN6thrust20THRUST_200400_750_NS8cuda_cub4core13_kernel_agentINS1_8__reduce11ReduceAgentIPN4cuda3std3__45tupleIJ6vec_2dIfElEEESD_SC_lNS1_9__extrema9arg_min_fISB_l7compareIfEEEEESD_SD_iSI_EEvT0_T1_T2_T3_
	<0x1>
	Attribute:	EIATTR_SW_WAR
	Format:	EIFMT_SVAL
	Value:	0x1 
	<0x2>
	Attribute:	EIATTR_CUDA_API_VERSION
	Format:	EIFMT_SVAL
	Value:	0x7d 
	<0x3>
	Attribute:	EIATTR_PARAM_CBANK
	Format:	EIFMT_SVAL
	Value:	0x54 0x150160 
	<0x4>
	Attribute:	EIATTR_CBANK_PARAM_SIZE
	Format:	EIFMT_HVAL
	Value:	0x15
	<0x5>
	Attribute:	EIATTR_KPARAM_INFO
	Format:	EIFMT_SVAL
	Value:	Index : 0x0	Ordinal : 0x3	Offset  : 0x14	Size    : 0x1
		Pointee's logAlignment : 0x0	Space : 0x0	cbank : 0x1f	Parameter Space : CBANK	
	<0x6>
	Attribute:	EIATTR_KPARAM_INFO
	Format:	EIFMT_SVAL
	Value:	Index : 0x0	Ordinal : 0x2	Offset  : 0x10	Size    : 0x4
		Pointee's logAlignment : 0x0	Space : 0x0	cbank : 0x1f	Parameter Space : CBANK	
	<0x7>
	Attribute:	EIATTR_KPARAM_INFO
	Format:	EIFMT_SVAL
	Value:	Index : 0x0	Ordinal : 0x1	Offset  : 0x8	Size    : 0x8
		Pointee's logAlignment : 0x0	Space : 0x0	cbank : 0x1f	Parameter Space : CBANK	
	<0x8>
	Attribute:	EIATTR_KPARAM_INFO
	Format:	EIFMT_SVAL
	Value:	Index : 0x0	Ordinal : 0x0	Offset  : 0x0	Size    : 0x8
		Pointee's logAlignment : 0x0	Space : 0x0	cbank : 0x1f	Parameter Space : CBANK	
	<0x9>
	Attribute:	EIATTR_MAXREG_COUNT
	Format:	EIFMT_HVAL
	Value:	0xff
	<0x10>
	Attribute:	EIATTR_COOP_GROUP_MASK_REGIDS
	Format:	EIFMT_SVAL
	Value:	0xffffffff 0xffffffff 0xffffffff 0xffffffff 0xffffffff 0xffffffff 0xffffffff 0xffffffff 0xffffffff 0xffffffff 0xffffffff 0xffffffff 0xffffffff 0xffffffff 0xffffffff 0xffffffff 0xffffffff 0xffffffff 0xffffffff 0xffffffff 0xffffffff 0xffffffff 0xffffffff 0xffffffff 0xffffffff 0xffffffff 0xffffffff 0xffffffff 0xffffffff 0xffffffff 0xffffffff 0xffffffff 0xffffffff 0xffffffff 0xffffffff 0xffffffff 0xffffffff 0xffffffff 0xffffffff 0xffffffff 0xffffffff 0xffffffff 0xffffffff 0xffffffff 0xffffffff 0xffffffff 0xffffffff 0xffffffff 0xffffffff 0xffffffff 0xffffffff 0xffffffff 0xffffffff 0xffffffff 0xffffffff 0xffffffff 0xffffffff 0xffffffff 0xffffffff 0xffffffff 
	<0x11>
	Attribute:	EIATTR_COOP_GROUP_INSTR_OFFSETS
	Format:	EIFMT_SVAL
	Value:	0x1f60 0x1f90 0x1fb0 0x1fc0 0x21b0 0x21f0 0x2230 0x2270 0x2420 0x2460 0x2490 0x24b0 0x2660 0x26a0 0x26d0 0x26f0 0x28a0 0x28e0 0x2910 0x2920 0x44f0 0x4530 0x4560 0x4570 0x4720 0x4760 0x4790 0x47b0 0x4960 0x4990 0x49c0 0x49e0 0x4b90 0x4bd0 0x4c00 0x4c10 0x4dc0 0x4e00 0x4e30 0x4e40 0x5ea0 0x5ee0 0x5f20 0x5f40 0x60f0 0x6130 0x6170 0x61a0 0x6350 0x6390 0x63c0 0x63d0 0x6580 0x65c0 0x65f0 0x6600 0x67b0 0x67f0 0x6820 0x6830 
	<0x12>
	Attribute:	EIATTR_EXIT_INSTR_OFFSETS
	Format:	EIFMT_SVAL
	Value:	0x20 0x7680 0x76c0 
	<0x13>
	Attribute:	EIATTR_MAX_THREADS
	Format:	EIFMT_SVAL
	Value:	0x100 0x1 0x1 
	<0x14>
	Attribute:	EIATTR_CRS_STACK_SIZE
	Format:	EIFMT_SVAL
	Value:	0x0 


.nv.info._ZN6thrust20THRUST_200400_750_NS8cuda_cub4core13_kernel_agentINS1_8__reduce10DrainAgentIlEEN3cub17CUB_200400_750_NS9GridQueueIyEElEEvT0_T1_
	<0x1>
	Attribute:	EIATTR_SW_WAR
	Format:	EIFMT_SVAL
	Value:	0x1 
	<0x2>
	Attribute:	EIATTR_CUDA_API_VERSION
	Format:	EIFMT_SVAL
	Value:	0x7d 
	<0x3>
	Attribute:	EIATTR_PARAM_CBANK
	Format:	EIFMT_SVAL
	Value:	0x56 0x100160 
	<0x4>
	Attribute:	EIATTR_CBANK_PARAM_SIZE
	Format:	EIFMT_HVAL
	Value:	0x10
	<0x5>
	Attribute:	EIATTR_KPARAM_INFO
	Format:	EIFMT_SVAL
	Value:	Index : 0x0	Ordinal : 0x1	Offset  : 0x8	Size    : 0x8
		Pointee's logAlignment : 0x0	Space : 0x0	cbank : 0x1f	Parameter Space : CBANK	
	<0x6>
	Attribute:	EIATTR_KPARAM_INFO
	Format:	EIFMT_SVAL
	Value:	Index : 0x0	Ordinal : 0x0	Offset  : 0x0	Size    : 0x8
		Pointee's logAlignment : 0x0	Space : 0x0	cbank : 0x1f	Parameter Space : CBANK	
	<0x7>
	Attribute:	EIATTR_MAXREG_COUNT
	Format:	EIFMT_HVAL
	Value:	0xff
	<0x8>
	Attribute:	EIATTR_EXIT_INSTR_OFFSETS
	Format:	EIFMT_SVAL
	Value:	0x60 
	<0x9>
	Attribute:	EIATTR_MAX_THREADS
	Format:	EIFMT_SVAL
	Value:	0x1 0x1 0x1 


.nv.info._ZN6thrust20THRUST_200400_750_NS8cuda_cub4core13_kernel_agentINS1_8__reduce11ReduceAgentINS0_12zip_iteratorIN4cuda3std3__45tupleIJNS0_6detail15normal_iteratorINS0_10device_ptrI6vec_2dIfEEEEENS1_19counting_iterator_tIlEEEEEEEPNSA_IJSF_lEEESM_lNS1_9__extrema9arg_min_fISF_l7compareIfEEEEESL_SN_lN3cub17CUB_200400_750_NS13GridEvenShareIlEENSV_9GridQueueIyEESS_EEvT0_T1_T2_T3_T4_T5_
	<0x1>
	Attribute:	EIATTR_SW_WAR
	Format:	EIFMT_SVAL
	Value:	0x1 
	<0x2>
	Attribute:	EIATTR_CUDA_API_VERSION
	Format:	EIFMT_SVAL
	Value:	0x7d 
	<0x3>
	Attribute:	EIATTR_PARAM_CBANK
	Format:	EIFMT_SVAL
	Value:	0x59 0x710160 
	<0x4>
	Attribute:	EIATTR_CBANK_PARAM_SIZE
	Format:	EIFMT_HVAL
	Value:	0x71
	<0x5>
	Attribute:	EIATTR_KPARAM_INFO
	Format:	EIFMT_SVAL
	Value:	Index : 0x0	Ordinal : 0x5	Offset  : 0x70	Size    : 0x1
		Pointee's logAlignment : 0x0	Space : 0x0	cbank : 0x1f	Parameter Space : CBANK	
	<0x6>
	Attribute:	EIATTR_KPARAM_INFO
	Format:	EIFMT_SVAL
	Value:	Index : 0x0	Ordinal : 0x4	Offset  : 0x68	Size    : 0x8
		Pointee's logAlignment : 0x0	Space : 0x0	cbank : 0x1f	Parameter Space : CBANK	
	<0x7>
	Attribute:	EIATTR_KPARAM_INFO
	Format:	EIFMT_SVAL
	Value:	Index : 0x0	Ordinal : 0x3	Offset  : 0x20	Size    : 0x48
		Pointee's logAlignment : 0x0	Space : 0x0	cbank : 0x1f	Parameter Space : CBANK	
	<0x8>
	Attribute:	EIATTR_KPARAM_INFO
	Format:	EIFMT_SVAL
	Value:	Index : 0x0	Ordinal : 0x2	Offset  : 0x18	Size    : 0x8
		Pointee's logAlignment : 0x0	Space : 0x0	cbank : 0x1f	Parameter Space : CBANK	
	<0x9>
	Attribute:	EIATTR_KPARAM_INFO
	Format:	EIFMT_SVAL
	Value:	Index : 0x0	Ordinal : 0x1	Offset  : 0x10	Size    : 0x8
		Pointee's logAlignment : 0x0	Space : 0x0	cbank : 0x1f	Parameter Space : CBANK	
	<0x10>
	Attribute:	EIATTR_KPARAM_INFO
	Format:	EIFMT_SVAL
	Value:	Index : 0x0	Ordinal : 0x0	Offset  : 0x0	Size    : 0x10
		Pointee's logAlignment : 0x0	Space : 0x0	cbank : 0x1f	Parameter Space : CBANK	
	<0x11>
	Attribute:	EIATTR_MAXREG_COUNT
	Format:	EIFMT_HVAL
	Value:	0xff
	<0x12>
	Attribute:	EIATTR_COOP_GROUP_MASK_REGIDS
	Format:	EIFMT_SVAL
	Value:	0xffffffff 0xffffffff 0xffffffff 0xffffffff 0xffffffff 0xffffffff 0xffffffff 0xffffffff 0xffffffff 0xffffffff 0xffffffff 0xffffffff 0xffffffff 0xffffffff 0xffffffff 0xffffffff 0xffffffff 0xffffffff 0xffffffff 0xffffffff 0xffffffff 0xffffffff 0xffffffff 0xffffffff 0xffffffff 0xffffffff 0xffffffff 0xffffffff 0xffffffff 0xffffffff 0xffffffff 0xffffffff 0xffffffff 0xffffffff 0xffffffff 0xffffffff 0xffffffff 0xffffffff 0xffffffff 0xffffffff 0xffffffff 0xffffffff 0xffffffff 0xffffffff 0xffffffff 0xffffffff 0xffffffff 0xffffffff 0xffffffff 0xffffffff 0xffffffff 0xffffffff 0xffffffff 0xffffffff 0xffffffff 0xffffffff 0xffffffff 0xffffffff 0xffffffff 0xffffffff 
	<0x13>
	Attribute:	EIATTR_COOP_GROUP_INSTR_OFFSETS
	Format:	EIFMT_SVAL
	Value:	0x1f20 0x1f30 0x1f40 0x1f50 0x2150 0x2190 0x21d0 0x2210 0x23c0 0x2400 0x2430 0x2450 0x2600 0x2640 0x2670 0x2690 0x2840 0x2870 0x28a0 0x28c0 0x45a0 0x45e0 0x4600 0x4610 0x47c0 0x4800 0x4830 0x4850 0x4a00 0x4a40 0x4a70 0x4a80 0x4c30 0x4c60 0x4c90 0x4cb0 0x4e60 0x4ea0 0x4ed0 0x4ee0 0x5f40 0x5f80 0x5fc0 0x5fe0 0x6190 0x61d0 0x6210 0x6240 0x63f0 0x6430 0x6460 0x6470 0x6620 0x6650 0x6680 0x66a0 0x6850 0x6890 0x68c0 0x68d0 
	<0x14>
	Attribute:	EIATTR_EXIT_INSTR_OFFSETS
	Format:	EIFMT_SVAL
	Value:	0x7720 0x7790 
	<0x15>
	Attribute:	EIATTR_MAX_THREADS
	Format:	EIFMT_SVAL
	Value:	0x100 0x1 0x1 
	<0x16>
	Attribute:	EIATTR_CRS_STACK_SIZE
	Format:	EIFMT_SVAL
	Value:	0x0 


.nv.info._ZN6thrust20THRUST_200400_750_NS8cuda_cub4core13_kernel_agentINS1_8__reduce11ReduceAgentINS0_12zip_iteratorIN4cuda3std3__45tupleIJNS0_6detail15normal_iteratorINS0_10device_ptrI6vec_2dIfEEEEENS1_19counting_iterator_tIlEEEEEEEPNSA_IJSF_lEEESM_lNS1_9__extrema9arg_min_fISF_l7compareIfEEEEESL_SN_lSS_EEvT0_T1_T2_T3_
	<0x1>
	Attribute:	EIATTR_SW_WAR
	Format:	EIFMT_SVAL
	Value:	0x1 
	<0x2>
	Attribute:	EIATTR_CUDA_API_VERSION
	Format:	EIFMT_SVAL
	Value:	0x7d 
	<0x3>
	Attribute:	EIATTR_PARAM_CBANK
	Format:	EIFMT_SVAL
	Value:	0x5b 0x210160 
	<0x4>
	Attribute:	EIATTR_CBANK_PARAM_SIZE
	Format:	EIFMT_HVAL
	Value:	0x21
	<0x5>
	Attribute:	EIATTR_KPARAM_INFO
	Format:	EIFMT_SVAL
	Value:	Index : 0x0	Ordinal : 0x3	Offset  : 0x20	Size    : 0x1
		Pointee's logAlignment : 0x0	Space : 0x0	cbank : 0x1f	Parameter Space : CBANK	
	<0x6>
	Attribute:	EIATTR_KPARAM_INFO
	Format:	EIFMT_SVAL
	Value:	Index : 0x0	Ordinal : 0x2	Offset  : 0x18	Size    : 0x8
		Pointee's logAlignment : 0x0	Space : 0x0	cbank : 0x1f	Parameter Space : CBANK	
	<0x7>
	Attribute:	EIATTR_KPARAM_INFO
	Format:	EIFMT_SVAL
	Value:	Index : 0x0	Ordinal : 0x1	Offset  : 0x10	Size    : 0x8
		Pointee's logAlignment : 0x0	Space : 0x0	cbank : 0x1f	Parameter Space : CBANK	
	<0x8>
	Attribute:	EIATTR_KPARAM_INFO
	Format:	EIFMT_SVAL
	Value:	Index : 0x0	Ordinal : 0x0	Offset  : 0x0	Size    : 0x10
		Pointee's logAlignment : 0x0	Space : 0x0	cbank : 0x1f	Parameter Space : CBANK	
	<0x9>
	Attribute:	EIATTR_MAXREG_COUNT
	Format:	EIFMT_HVAL
	Value:	0xff
	<0x10>
	Attribute:	EIATTR_COOP_GROUP_MASK_REGIDS
	Format:	EIFMT_SVAL
	Value:	0xffffffff 0xffffffff 0xffffffff 0xffffffff 0xffffffff 0xffffffff 0xffffffff 0xffffffff 0xffffffff 0xffffffff 0xffffffff 0xffffffff 0xffffffff 0xffffffff 0xffffffff 0xffffffff 0xffffffff 0xffffffff 0xffffffff 0xffffffff 0xffffffff 0xffffffff 0xffffffff 0xffffffff 0xffffffff 0xffffffff 0xffffffff 0xffffffff 0xffffffff 0xffffffff 0xffffffff 0xffffffff 0xffffffff 0xffffffff 0xffffffff 0xffffffff 0xffffffff 0xffffffff 0xffffffff 0xffffffff 0xffffffff 0xffffffff 0xffffffff 0xffffffff 0xffffffff 0xffffffff 0xffffffff 0xffffffff 0xffffffff 0xffffffff 0xffffffff 0xffffffff 0xffffffff 0xffffffff 0xffffffff 0xffffffff 0xffffffff 0xffffffff 0xffffffff 0xffffffff 
	<0x11>
	Attribute:	EIATTR_COOP_GROUP_INSTR_OFFSETS
	Format:	EIFMT_SVAL
	Value:	0x1c70 0x1ca0 0x1cc0 0x1cd0 0x1ec0 0x1f00 0x1f40 0x1f70 0x2130 0x2170 0x21a0 0x21c0 0x2370 0x23b0 0x23e0 0x2400 0x25b0 0x25e0 0x2610 0x2630 0x4290 0x42d0 0x4300 0x4310 0x44c0 0x4500 0x4530 0x4550 0x4700 0x4740 0x4770 0x4780 0x4930 0x4970 0x49a0 0x49b0 0x4b60 0x4b90 0x4bc0 0x4be0 0x5c20 0x5c60 0x5ca0 0x5cc0 0x5e70 0x5eb0 0x5ef0 0x5f20 0x60d0 0x6100 0x6130 0x6150 0x6300 0x6340 0x6370 0x6380 0x6530 0x6570 0x65a0 0x65b0 
	<0x12>
	Attribute:	EIATTR_EXIT_INSTR_OFFSETS
	Format:	EIFMT_SVAL
	Value:	0x30 0x7400 0x7440 
	<0x13>
	Attribute:	EIATTR_MAX_THREADS
	Format:	EIFMT_SVAL
	Value:	0x100 0x1 0x1 
	<0x14>
	Attribute:	EIATTR_CRS_STACK_SIZE
	Format:	EIFMT_SVAL
	Value:	0x0 


.nv.info._ZN6thrust20THRUST_200400_750_NS8cuda_cub4core13_kernel_agentINS1_8__reduce11ReduceAgentIPN4cuda3std3__45tupleIJ6vec_2dIfElEEESD_SC_iNS1_9__extrema9arg_min_fISB_l7compareIfEEEEESD_SD_iSI_EEvT0_T1_T2_T3_
	<0x1>
	Attribute:	EIATTR_SW_WAR
	Format:	EIFMT_SVAL
	Value:	0x1 
	<0x2>
	Attribute:	EIATTR_CUDA_API_VERSION
	Format:	EIFMT_SVAL
	Value:	0x7d 
	<0x3>
	Attribute:	EIATTR_PARAM_CBANK
	Format:	EIFMT_SVAL
	Value:	0x5d 0x150160 
	<0x4>
	Attribute:	EIATTR_CBANK_PARAM_SIZE
	Format:	EIFMT_HVAL
	Value:	0x15
	<0x5>
	Attribute:	EIATTR_KPARAM_INFO
	Format:	EIFMT_SVAL
	Value:	Index : 0x0	Ordinal : 0x3	Offset  : 0x14	Size    : 0x1
		Pointee's logAlignment : 0x0	Space : 0x0	cbank : 0x1f	Parameter Space : CBANK	
	<0x6>
	Attribute:	EIATTR_KPARAM_INFO
	Format:	EIFMT_SVAL
	Value:	Index : 0x0	Ordinal : 0x2	Offset  : 0x10	Size    : 0x4
		Pointee's logAlignment : 0x0	Space : 0x0	cbank : 0x1f	Parameter Space : CBANK	
	<0x7>
	Attribute:	EIATTR_KPARAM_INFO
	Format:	EIFMT_SVAL
	Value:	Index : 0x0	Ordinal : 0x1	Offset  : 0x8	Size    : 0x8
		Pointee's logAlignment : 0x0	Space : 0x0	cbank : 0x1f	Parameter Space : CBANK	
	<0x8>
	Attribute:	EIATTR_KPARAM_INFO
	Format:	EIFMT_SVAL
	Value:	Index : 0x0	Ordinal : 0x0	Offset  : 0x0	Size    : 0x8
		Pointee's logAlignment : 0x0	Space : 0x0	cbank : 0x1f	Parameter Space : CBANK	
	<0x9>
	Attribute:	EIATTR_MAXREG_COUNT
	Format:	EIFMT_HVAL
	Value:	0xff
	<0x10>
	Attribute:	EIATTR_COOP_GROUP_MASK_REGIDS
	Format:	EIFMT_SVAL
	Value:	0xffffffff 0xffffffff 0xffffffff 0xffffffff 0xffffffff 0xffffffff 0xffffffff 0xffffffff 0xffffffff 0xffffffff 0xffffffff 0xffffffff 0xffffffff 0xffffffff 0xffffffff 0xffffffff 0xffffffff 0xffffffff 0xffffffff 0xffffffff 0xffffffff 0xffffffff 0xffffffff 0xffffffff 0xffffffff 0xffffffff 0xffffffff 0xffffffff 0xffffffff 0xffffffff 0xffffffff 0xffffffff 0xffffffff 0xffffffff 0xffffffff 0xffffffff 0xffffffff 0xffffffff 0xffffffff 0xffffffff 0xffffffff 0xffffffff 0xffffffff 0xffffffff 0xffffffff 0xffffffff 0xffffffff 0xffffffff 0xffffffff 0xffffffff 0xffffffff 0xffffffff 0xffffffff 0xffffffff 0xffffffff 0xffffffff 0xffffffff 0xffffffff 0xffffffff 0xffffffff 
	<0x11>
	Attribute:	EIATTR_COOP_GROUP_INSTR_OFFSETS
	Format:	EIFMT_SVAL
	Value:	0x1e90 0x1ed0 0x1ee0 0x1ef0 0x20e0 0x2120 0x2160 0x21a0 0x2350 0x2390 0x23c0 0x23e0 0x2590 0x25d0 0x2600 0x2620 0x27d0 0x2800 0x2830 0x2850 0x4410 0x4450 0x4480 0x44a0 0x4650 0x4690 0x46d0 0x46e0 0x4890 0x48d0 0x4900 0x4910 0x4ac0 0x4b00 0x4b30 0x4b40 0x4cf0 0x4d30 0x4d60 0x4d70 0x5dd0 0x5e10 0x5e50 0x5e70 0x6020 0x6060 0x60a0 0x60d0 0x6280 0x62c0 0x62f0 0x6300 0x64b0 0x64f0 0x6520 0x6530 0x66e0 0x6720 0x6750 0x6760 
	<0x12>
	Attribute:	EIATTR_EXIT_INSTR_OFFSETS
	Format:	EIFMT_SVAL
	Value:	0x20 0x75b0 0x75f0 
	<0x13>
	Attribute:	EIATTR_MAX_THREADS
	Format:	EIFMT_SVAL
	Value:	0x100 0x1 0x1 
	<0x14>
	Attribute:	EIATTR_CRS_STACK_SIZE
	Format:	EIFMT_SVAL
	Value:	0x0 


.nv.info._ZN6thrust20THRUST_200400_750_NS8cuda_cub4core13_kernel_agentINS1_8__reduce10DrainAgentIiEEN3cub17CUB_200400_750_NS9GridQueueIjEEiEEvT0_T1_
	<0x1>
	Attribute:	EIATTR_SW_WAR
	Format:	EIFMT_SVAL
	Value:	0x1 
	<0x2>
	Attribute:	EIATTR_CUDA_API_VERSION
	Format:	EIFMT_SVAL
	Value:	0x7d 
	<0x3>
	Attribute:	EIATTR_PARAM_CBANK
	Format:	EIFMT_SVAL
	Value:	0x5f 0xc0160 
	<0x4>
	Attribute:	EIATTR_CBANK_PARAM_SIZE
	Format:	EIFMT_HVAL
	Value:	0xc
	<0x5>
	Attribute:	EIATTR_KPARAM_INFO
	Format:	EIFMT_SVAL
	Value:	Index : 0x0	Ordinal : 0x1	Offset  : 0x8	Size    : 0x4
		Pointee's logAlignment : 0x0	Space : 0x0	cbank : 0x1f	Parameter Space : CBANK	
	<0x6>
	Attribute:	EIATTR_KPARAM_INFO
	Format:	EIFMT_SVAL
	Value:	Index : 0x0	Ordinal : 0x0	Offset  : 0x0	Size    : 0x8
		Pointee's logAlignment : 0x0	Space : 0x0	cbank : 0x1f	Parameter Space : CBANK	
	<0x7>
	Attribute:	EIATTR_MAXREG_COUNT
	Format:	EIFMT_HVAL
	Value:	0xff
	<0x8>
	Attribute:	EIATTR_EXIT_INSTR_OFFSETS
	Format:	EIFMT_SVAL
	Value:	0x50 
	<0x9>
	Attribute:	EIATTR_MAX_THREADS
	Format:	EIFMT_SVAL
	Value:	0x1 0x1 0x1 


.nv.info._ZN6thrust20THRUST_200400_750_NS8cuda_cub4core13_kernel_agentINS1_8__reduce11ReduceAgentINS0_12zip_iteratorIN4cuda3std3__45tupleIJNS0_6detail15normal_iteratorINS0_10device_ptrI6vec_2dIfEEEEENS1_19counting_iterator_tIlEEEEEEEPNSA_IJSF_lEEESM_iNS1_9__extrema9arg_min_fISF_l7compareIfEEEEESL_SN_iN3cub17CUB_200400_750_NS13GridEvenShareIiEENSV_9GridQueueIjEESS_EEvT0_T1_T2_T3_T4_T5_
	<0x1>
	Attribute:	EIATTR_SW_WAR
	Format:	EIFMT_SVAL
	Value:	0x1 
	<0x2>
	Attribute:	EIATTR_CUDA_API_VERSION
	Format:	EIFMT_SVAL
	Value:	0x7d 
	<0x3>
	Attribute:	EIATTR_PARAM_CBANK
	Format:	EIFMT_SVAL
	Value:	0x62 0x510160 
	<0x4>
	Attribute:	EIATTR_CBANK_PARAM_SIZE
	Format:	EIFMT_HVAL
	Value:	0x51
	<0x5>
	Attribute:	EIATTR_KPARAM_INFO
	Format:	EIFMT_SVAL
	Value:	Index : 0x0	Ordinal : 0x5	Offset  : 0x50	Size    : 0x1
		Pointee's logAlignment : 0x0	Space : 0x0	cbank : 0x1f	Parameter Space : CBANK	
	<0x6>
	Attribute:	EIATTR_KPARAM_INFO
	Format:	EIFMT_SVAL
	Value:	Index : 0x0	Ordinal : 0x4	Offset  : 0x48	Size    : 0x8
		Pointee's logAlignment : 0x0	Space : 0x0	cbank : 0x1f	Parameter Space : CBANK	
	<0x7>
	Attribute:	EIATTR_KPARAM_INFO
	Format:	EIFMT_SVAL
	Value:	Index : 0x0	Ordinal : 0x3	Offset  : 0x1c	Size    : 0x28
		Pointee's logAlignment : 0x0	Space : 0x0	cbank : 0x1f	Parameter Space : CBANK	
	<0x8>
	Attribute:	EIATTR_KPARAM_INFO
	Format:	EIFMT_SVAL
	Value:	Index : 0x0	Ordinal : 0x2	Offset  : 0x18	Size    : 0x4
		Pointee's logAlignment : 0x0	Space : 0x0	cbank : 0x1f	Parameter Space : CBANK	
	<0x9>
	Attribute:	EIATTR_KPARAM_INFO
	Format:	EIFMT_SVAL
	Value:	Index : 0x0	Ordinal : 0x1	Offset  : 0x10	Size    : 0x8
		Pointee's logAlignment : 0x0	Space : 0x0	cbank : 0x1f	Parameter Space : CBANK	
	<0x10>
	Attribute:	EIATTR_KPARAM_INFO
	Format:	EIFMT_SVAL
	Value:	Index : 0x0	Ordinal : 0x0	Offset  : 0x0	Size    : 0x10
		Pointee's logAlignment : 0x0	Space : 0x0	cbank : 0x1f	Parameter Space : CBANK	
	<0x11>
	Attribute:	EIATTR_MAXREG_COUNT
	Format:	EIFMT_HVAL
	Value:	0xff
	<0x12>
	Attribute:	EIATTR_COOP_GROUP_MASK_REGIDS
	Format:	EIFMT_SVAL
	Value:	0xffffffff 0xffffffff 0xffffffff 0xffffffff 0xffffffff 0xffffffff 0xffffffff 0xffffffff 0xffffffff 0xffffffff 0xffffffff 0xffffffff 0xffffffff 0xffffffff 0xffffffff 0xffffffff 0xffffffff 0xffffffff 0xffffffff 0xffffffff 0xffffffff 0xffffffff 0xffffffff 0xffffffff 0xffffffff 0xffffffff 0xffffffff 0xffffffff 0xffffffff 0xffffffff 0xffffffff 0xffffffff 0xffffffff 0xffffffff 0xffffffff 0xffffffff 0xffffffff 0xffffffff 0xffffffff 0xffffffff 0xffffffff 0xffffffff 0xffffffff 0xffffffff 0xffffffff 0xffffffff 0xffffffff 0xffffffff 0xffffffff 0xffffffff 0xffffffff 0xffffffff 0xffffffff 0xffffffff 0xffffffff 0xffffffff 0xffffffff 0xffffffff 0xffffffff 0xffffffff 
	<0x13>
	Attribute:	EIATTR_COOP_GROUP_INSTR_OFFSETS
	Format:	EIFMT_SVAL
	Value:	0x1eb0 0x1ec0 0x1ed0 0x1ee0 0x20e0 0x2120 0x2160 0x2190 0x2350 0x2390 0x23c0 0x23e0 0x2590 0x25d0 0x2600 0x2620 0x27d0 0x2810 0x2840 0x2850 0x44f0 0x4530 0x4550 0x4560 0x4710 0x4750 0x4780 0x47a0 0x4950 0x4980 0x49b0 0x49d0 0x4b80 0x4bb0 0x4be0 0x4c00 0x4db0 0x4de0 0x4e10 0x4e30 0x5e90 0x5ed0 0x5f10 0x5f30 0x60e0 0x6120 0x6160 0x6190 0x6340 0x6380 0x63b0 0x63c0 0x6570 0x65b0 0x65e0 0x65f0 0x67a0 0x67e0 0x6810 0x6820 
	<0x14>
	Attribute:	EIATTR_EXIT_INSTR_OFFSETS
	Format:	EIFMT_SVAL
	Value:	0x7670 0x76e0 
	<0x15>
	Attribute:	EIATTR_MAX_THREADS
	Format:	EIFMT_SVAL
	Value:	0x100 0x1 0x1 
	<0x16>
	Attribute:	EIATTR_CRS_STACK_SIZE
	Format:	EIFMT_SVAL
	Value:	0x0 


.nv.info._ZN6thrust20THRUST_200400_750_NS8cuda_cub4core13_kernel_agentINS1_8__reduce11ReduceAgentINS0_12zip_iteratorIN4cuda3std3__45tupleIJNS0_6detail15normal_iteratorINS0_10device_ptrI6vec_2dIfEEEEENS1_19counting_iterator_tIlEEEEEEEPNSA_IJSF_lEEESM_iNS1_9__extrema9arg_min_fISF_l7compareIfEEEEESL_SN_iSS_EEvT0_T1_T2_T3_
	<0x1>
	Attribute:	EIATTR_SW_WAR
	Format:	EIFMT_SVAL
	Value:	0x1 
	<0x2>
	Attribute:	EIATTR_CUDA_API_VERSION
	Format:	EIFMT_SVAL
	Value:	0x7d 
	<0x3>
	Attribute:	EIATTR_PARAM_CBANK
	Format:	EIFMT_SVAL
	Value:	0x64 0x1d0160 
	<0x4>
	Attribute:	EIATTR_CBANK_PARAM_SIZE
	Format:	EIFMT_HVAL
	Value:	0x1d
	<0x5>
	Attribute:	EIATTR_KPARAM_INFO
	Format:	EIFMT_SVAL
	Value:	Index : 0x0	Ordinal : 0x3	Offset  : 0x1c	Size    : 0x1
		Pointee's logAlignment : 0x0	Space : 0x0	cbank : 0x1f	Parameter Space : CBANK	
	<0x6>
	Attribute:	EIATTR_KPARAM_INFO
	Format:	EIFMT_SVAL
	Value:	Index : 0x0	Ordinal : 0x2	Offset  : 0x18	Size    : 0x4
		Pointee's logAlignment : 0x0	Space : 0x0	cbank : 0x1f	Parameter Space : CBANK	
	<0x7>
	Attribute:	EIATTR_KPARAM_INFO
	Format:	EIFMT_SVAL
	Value:	Index : 0x0	Ordinal : 0x1	Offset  : 0x10	Size    : 0x8
		Pointee's logAlignment : 0x0	Space : 0x0	cbank : 0x1f	Parameter Space : CBANK	
	<0x8>
	Attribute:	EIATTR_KPARAM_INFO
	Format:	EIFMT_SVAL
	Value:	Index : 0x0	Ordinal : 0x0	Offset  : 0x0	Size    : 0x10
		Pointee's logAlignment : 0x0	Space : 0x0	cbank : 0x1f	Parameter Space : CBANK	
	<0x9>
	Attribute:	EIATTR_MAXREG_COUNT
	Format:	EIFMT_HVAL
	Value:	0xff
	<0x10>
	Attribute:	EIATTR_COOP_GROUP_MASK_REGIDS
	Format:	EIFMT_SVAL
	Value:	0xffffffff 0xffffffff 0xffffffff 0xffffffff 0xffffffff 0xffffffff 0xffffffff 0xffffffff 0xffffffff 0xffffffff 0xffffffff 0xffffffff 0xffffffff 0xffffffff 0xffffffff 0xffffffff 0xffffffff 0xffffffff 0xffffffff 0xffffffff 0xffffffff 0xffffffff 0xffffffff 0xffffffff 0xffffffff 0xffffffff 0xffffffff 0xffffffff 0xffffffff 0xffffffff 0xffffffff 0xffffffff 0xffffffff 0xffffffff 0xffffffff 0xffffffff 0xffffffff 0xffffffff 0xffffffff 0xffffffff 0xffffffff 0xffffffff 0xffffffff 0xffffffff 0xffffffff 0xffffffff 0xffffffff 0xffffffff 0xffffffff 0xffffffff 0xffffffff 0xffffffff 0xffffffff 0xffffffff 0xffffffff 0xffffffff 0xffffffff 0xffffffff 0xffffffff 0xffffffff 
	<0x11>
	Attribute:	EIATTR_COOP_GROUP_INSTR_OFFSETS
	Format:	EIFMT_SVAL
	Value:	0x1bd0 0x1c10 0x1c20 0x1c30 0x1e20 0x1e60 0x1ea0 0x1ed0 0x2090 0x20d0 0x2100 0x2120 0x22d0 0x2310 0x2340 0x2360 0x2510 0x2550 0x2580 0x2590 0x41c0 0x41f0 0x4220 0x4240 0x43f0 0x4430 0x4460 0x4480 0x4630 0x4660 0x4690 0x46b0 0x4860 0x4890 0x48c0 0x48e0 0x4a90 0x4ac0 0x4af0 0x4b10 0x5b70 0x5bb0 0x5bf0 0x5c10 0x5dc0 0x5e00 0x5e40 0x5e70 0x6020 0x6060 0x6090 0x60a0 0x6250 0x6290 0x62c0 0x62d0 0x6480 0x64c0 0x64f0 0x6500 
	<0x12>
	Attribute:	EIATTR_EXIT_INSTR_OFFSETS
	Format:	EIFMT_SVAL
	Value:	0x20 0x7350 0x7390 
	<0x13>
	Attribute:	EIATTR_MAX_THREADS
	Format:	EIFMT_SVAL
	Value:	0x100 0x1 0x1 
	<0x14>
	Attribute:	EIATTR_CRS_STACK_SIZE
	Format:	EIFMT_SVAL
	Value:	0x0 


.nv.callgraph
 <0,-1>
 <0,-2>
 <0,-3>
 <0,-4>


.nv.rel.action
Header : Base Relocation : R_CUDA_CONST_FIELD22_37
Reloc type : Symbol Kind,Addend Shift,Source Position1,length1,Destination Position1,Source Position2,length2,Destination Position2
R_CUDA_CONST_FIELD22_37 : EIVALUE_SYM_KIND_ADDR,0,0,17,37,0,5,54


.text._ZN3cub17CUB_200400_750_NS6detail8for_each13static_kernelINS2_12policy_hub_t12policy_350_tElN6thrust20THRUST_200400_750_NS8cuda_cub11__transform17unary_transform_fIPN4cuda3std3__45tupleIJNSE_IJ6vec_2dIfElEEESH_EEESJ_NS9_14no_stencil_tagENS7_8identityISI_EENS9_21always_true_predicateEEEEEvT0_T1_
bar = 0	reg = 18	lmem=0	smem=0
0xff017624 0x00000a00 0x078e00ff 0x000fe400
0x00027919 0x00000000 0x00002500 0x000e2800
0x00057919 0x00000000 0x00002100 0x000e6200
0x02027825 0x00000200 0x078e00ff 0x001fca00
0x02047a10 0x00005800 0x07f3e1ff 0x040fe400
0x02007210 0x00000005 0x07f5e0ff 0x002fe400
0x0400780c 0x000001ff 0x03f04070 0x000fe400
0x03027a10 0x00005900 0x00ffe5ff 0x000fe200
0xff037224 0x000000ff 0x010e0603 0x000fe400
0x00067824 0x00000020 0x078e00ff 0x000fe200
0x0200720c 0x000000ff 0x03f04300 0x000fc400
0x00077819 0x00000005 0x00010203 0x000fd400
0x00000947 0x00000200 0x03800000 0x000fea00
0x0400720c 0x00000005 0x03f04070 0x000fe200
0x00ff7355 0x00000000 0x00100000 0x000fe200
0xff027819 0x0000001f 0x00011404 0x000fe200
0x00007945 0x00000100 0x03800000 0x000fe200
0x05007810 0x00000100 0x07ffe0ff 0x000fe400
0x0200720c 0x000000ff 0x03f04300 0x000fe400
0x0400720c 0x00000000 0x03f24070 0x000fc800
0x0200720c 0x000000ff 0x03f24310 0x000fcc00
0x00008947 0x000000a0 0x03800000 0x000fea00
0x00047ab9 0x00005a00 0x00000a00 0x000fe400
0x06087981 0x00000004 0x0c1eeb00 0x000ea200
0x00067ab9 0x00005c00 0x00000a00 0x000fc600
0x06007986 0x00000008 0x0c10eb06 0x0041e800
0x06027981 0x00000804 0x0c1eeb00 0x000ea800
0x06007986 0x00000802 0x0c10eb06 0x0041e800
0x060a7981 0x00001004 0x0c1eeb00 0x000ea800
0x06007986 0x0000100a 0x0c10eb06 0x0041e800
0x06047981 0x00001804 0x0c1eeb00 0x000ea800
0x06007986 0x00001804 0x0c10eb06 0x0041e400
0x00007941 0x00000000 0x03800000 0x000fea00
0x0000994d 0x00000000 0x03800000 0x000fea00
0x00047ab9 0x00005a00 0x00000a00 0x000fe400
0x06087981 0x00200004 0x0c1eeb00 0x001ea200
0x00067ab9 0x00005c00 0x00000a00 0x000fc600
0x06007986 0x00200008 0x0c10eb06 0x004fe800
0x06027981 0x00200804 0x0c1eeb00 0x000ea800
0x06007986 0x00200802 0x0c10eb06 0x004fe800
0x060a7981 0x00201004 0x0c1eeb00 0x000ea800
0x06007986 0x0020100a 0x0c10eb06 0x004fe800
0x06047981 0x00201804 0x0c1eeb00 0x000ea800
0x06007986 0x00201804 0x0c10eb06 0x004fe200
0x0000794d 0x00000000 0x03800000 0x000fea00
0xff087224 0x000000ff 0x078e0006 0x000fe200
0x00047ab9 0x00005a00 0x00000a00 0x000fe200
0xff097224 0x000000ff 0x078e0007 0x000fd000
0x080a7981 0x00000004 0x0c1eeb00 0x000ea200
0x00067ab9 0x00005c00 0x00000a00 0x000fc600
0x08007986 0x0000000a 0x0c10eb06 0x0041e800
0x08027981 0x00000804 0x0c1eeb00 0x000ea800
0x08007986 0x00000802 0x0c10eb06 0x0043e800
0x080c7981 0x00001004 0x0c1eeb00 0x000ea800
0x08007986 0x0000100c 0x0c10eb06 0x004fe800
0x08047981 0x00001804 0x0c1eeb00 0x000ea800
0x08007986 0x00001804 0x0c10eb06 0x004fe800
0x080e7981 0x00200004 0x0c1eeb00 0x000ea800
0x08007986 0x0020000e 0x0c10eb06 0x004fe800
0x08067981 0x00200804 0x0c1eeb00 0x000ea800
0x08007986 0x00200806 0x0c10eb06 0x004fe800
0x080a7981 0x00201004 0x0c1eeb00 0x001ea800
0x08007986 0x0020100a 0x0c10eb06 0x004fe800
0x08027981 0x00201804 0x0c1eeb00 0x002ea800
0x08007986 0x00201802 0x0c10eb06 0x004fe200
0x0000794d 0x00000000 0x03800000 0x000fea00
0x00007947 0xfffffff0 0x0383ffff 0x000fc000
0x00007918 0x00000000 0x00000000 0x000fc000
0x00007918 0x00000000 0x00000000 0x000fc000
0x00007918 0x00000000 0x00000000 0x000fc000
0x00007918 0x00000000 0x00000000 0x000fc000
0x00007918 0x00000000 0x00000000 0x000fc000



.text._ZN3cub17CUB_200400_750_NS6detail8for_each13static_kernelINS2_12policy_hub_t12policy_350_tElN6thrust20THRUST_200400_750_NS8cuda_cub20__uninitialized_copy7functorIPN4cuda3std3__45tupleIJNSE_IJ6vec_2dIfElEEESH_EEENS7_7pointerISI_NS8_5par_tENS7_11use_defaultESM_EEEEEEvT0_T1_
bar = 0	reg = 22	lmem=0	smem=0
0xff017624 0x00000a00 0x078e00ff 0x000fe400
0x00027919 0x00000000 0x00002500 0x000e2800
0x00057919 0x00000000 0x00002100 0x000e6200
0x02027825 0x00000200 0x078e00ff 0x001fca00
0x02047a10 0x00005800 0x07f3e1ff 0x040fe400
0x02007210 0x00000005 0x07f5e0ff 0x002fe400
0x0400780c 0x000001ff 0x03f04070 0x000fe400
0x03027a10 0x00005900 0x00ffe5ff 0x000fe200
0xff037224 0x000000ff 0x010e0603 0x000fe400
0x00067824 0x00000020 0x078e00ff 0x000fe200
0x0200720c 0x000000ff 0x03f04300 0x000fc400
0x00077819 0x00000005 0x00010203 0x000fd400
0x00000947 0x00000200 0x03800000 0x000fea00
0x0400720c 0x00000005 0x03f04070 0x000fe200
0x00ff7355 0x00000000 0x00100000 0x000fe200
0xff027819 0x0000001f 0x00011404 0x000fe200
0x00007945 0x00000100 0x03800000 0x000fe200
0x05007810 0x00000100 0x07ffe0ff 0x000fe400
0x0200720c 0x000000ff 0x03f04300 0x000fe400
0x0400720c 0x00000000 0x03f24070 0x000fc800
0x0200720c 0x000000ff 0x03f24310 0x000fcc00
0x00008947 0x000000a0 0x03800000 0x000fea00
0x00047ab9 0x00005a00 0x00000a00 0x000fe400
0x06087981 0x00000004 0x0c1eeb00 0x000ea800
0x06027981 0x00000804 0x0c1eeb00 0x000ee800
0x060a7981 0x00001004 0x0c1eeb00 0x000f2800
0x06047981 0x00001804 0x0c1eeb00 0x000f6200
0x00047ab9 0x00005c00 0x00000a00 0x000fc600
0x06007986 0x00000008 0x0c10eb04 0x0041e800
0x06007986 0x00000802 0x0c10eb04 0x0081e800
0x06007986 0x0000100a 0x0c10eb04 0x0101e800
0x06007986 0x00001804 0x0c10eb04 0x0201e400
0x00007941 0x00000000 0x03800000 0x000fea00
0x0000994d 0x00000000 0x03800000 0x000fea00
0x00047ab9 0x00005a00 0x00000a00 0x000fe400
0x06087981 0x00200004 0x0c1eeb00 0x001ea800
0x06027981 0x00200804 0x0c1eeb00 0x000ee800
0x060a7981 0x00201004 0x0c1eeb00 0x000f2800
0x06047981 0x00201804 0x0c1eeb00 0x000f6200
0x00047ab9 0x00005c00 0x00000a00 0x000fc600
0x06007986 0x00200008 0x0c10eb04 0x004fe800
0x06007986 0x00200802 0x0c10eb04 0x008fe800
0x06007986 0x0020100a 0x0c10eb04 0x010fe800
0x06007986 0x00201804 0x0c10eb04 0x020fe200
0x0000794d 0x00000000 0x03800000 0x000fea00
0xff0a7224 0x000000ff 0x078e0006 0x000fe200
0x00047ab9 0x00005a00 0x00000a00 0x000fe200
0xff0b7224 0x000000ff 0x078e0007 0x000fd000
0x0a0c7981 0x00000004 0x0c1eeb00 0x000ea800
0x0a027981 0x00000804 0x0c1eeb00 0x000ee800
0x0a0e7981 0x00001004 0x0c1eeb00 0x000f2800
0x0a047981 0x00001804 0x0c1eeb00 0x000f6200
0x00067ab9 0x00005c00 0x00000a00 0x000fc600
0x0a007986 0x0000000c 0x0c10eb06 0x004fe800
0x0a007986 0x00000802 0x0c10eb06 0x008fe800
0x0a007986 0x0000100e 0x0c10eb06 0x010fe800
0x0a007986 0x00001804 0x0c10eb06 0x020fe800
0x0a107981 0x00200004 0x0c1eeb00 0x000ea800
0x0a067981 0x00200804 0x0c1eeb00 0x000ee800
0x0a127981 0x00201004 0x0c1eeb00 0x000f2800
0x0a087981 0x00201804 0x0c1eeb00 0x000f6800
0x0a007986 0x00200010 0x0c10eb06 0x004fe800
0x0a007986 0x00200806 0x0c10eb06 0x008fe800
0x0a007986 0x00201012 0x0c10eb06 0x010fe800
0x0a007986 0x00201808 0x0c10eb06 0x020fe200
0x0000794d 0x00000000 0x03800000 0x000fea00
0x00007947 0xfffffff0 0x0383ffff 0x000fc000
0x00007918 0x00000000 0x00000000 0x000fc000
0x00007918 0x00000000 0x00000000 0x000fc000
0x00007918 0x00000000 0x00000000 0x000fc000
0x00007918 0x00000000 0x00000000 0x000fc000
0x00007918 0x00000000 0x00000000 0x000fc000



.text._ZN3cub17CUB_200400_750_NS6detail8for_each13static_kernelINS2_12policy_hub_t12policy_350_tElNS2_12op_wrapper_tIlN6thrust20THRUST_200400_750_NS6detail23allocator_traits_detail5gozerENS8_7pointerIN4cuda3std3__45tupleIJNSG_IJ6vec_2dIfElEEESJ_EEENS8_8cuda_cub5par_tENS8_11use_defaultESN_EEEEEEvT0_T1_
bar = 0	reg = 4	lmem=0	smem=0
0x00017a02 0x00000a00 0x00000f00 0x000fc600
0x0000794d 0x00000000 0x03800000 0x000fea00
0x00007947 0xfffffff0 0x0383ffff 0x000fc000
0x00007918 0x00000000 0x00000000 0x000fc000
0x00007918 0x00000000 0x00000000 0x000fc000
0x00007918 0x00000000 0x00000000 0x000fc000
0x00007918 0x00000000 0x00000000 0x000fc000
0x00007918 0x00000000 0x00000000 0x000fc000



.text._ZN3cub17CUB_200400_750_NS6detail8for_each13static_kernelINS2_12policy_hub_t12policy_350_tEmNS2_12op_wrapper_tImN6thrust20THRUST_200400_750_NS6detail23allocator_traits_detail24construct1_via_allocatorINS9_18no_throw_allocatorINS9_19temporary_allocatorIN4cuda3std3__45tupleIJNSH_IJ6vec_2dIfElEEESK_EEENS8_8cuda_cub5par_tEEEEEEENS8_7pointerISL_SN_NS8_11use_defaultESS_EEEEEEvT0_T1_
bar = 0	reg = 9	lmem=0	smem=0
0xff017624 0x00000a00 0x078e00ff 0x000fe400
0x00027919 0x00000000 0x00002500 0x000e2800
0x00057919 0x00000000 0x00002100 0x000e6200
0x02027825 0x00000200 0x078e00ff 0x001fca00
0x02047a10 0x00005800 0x07f3e1ff 0x040fe400
0x02007210 0x00000005 0x07f5e0ff 0x002fe400
0x0400780c 0x000001ff 0x03f04070 0x000fe400
0x03067a10 0x00005900 0x00ffe5ff 0x000fe200
0xff037224 0x000000ff 0x010e0603 0x000fe200
0x00027a11 0x00005a00 0x078228ff 0x000fe400
0x0600720c 0x000000ff 0x03f04100 0x000fc400
0x00037a11 0x00005b00 0x008f2c03 0x000fd400
0x00000947 0x00000100 0x03800000 0x000fea00
0x0400720c 0x00000005 0x03f04070 0x000fe400
0xff067819 0x0000001f 0x00011404 0x000fe400
0x05007810 0x00000100 0x07ffe0ff 0x000fe400
0x0600720c 0x000000ff 0x03f04100 0x000fd800
0x02000386 0x000000ff 0x0010eb00 0x0001e800
0x02000386 0x000008ff 0x0010eb00 0x0001e800
0x02000386 0x000010ff 0x0010eb00 0x0001e800
0x02000386 0x000018ff 0x0010eb00 0x0001e200
0x0400720c 0x00000000 0x03f04070 0x000fc800
0x0600720c 0x000000ff 0x03f04100 0x000fd800
0x0000894d 0x00000000 0x03800000 0x000fea00
0x02007386 0x002000ff 0x0010eb00 0x001fe800
0x02007386 0x002008ff 0x0010eb00 0x000fe800
0x02007386 0x002010ff 0x0010eb00 0x000fe800
0x02007386 0x002018ff 0x0010eb00 0x000fe200
0x0000794d 0x00000000 0x03800000 0x000fea00
0x02007386 0x000000ff 0x0010eb00 0x000fe800
0x02007386 0x000008ff 0x0010eb00 0x000fe800
0x02007386 0x000010ff 0x0010eb00 0x000fe800
0x02007386 0x000018ff 0x0010eb00 0x000fe800
0x02007386 0x002000ff 0x0010eb00 0x000fe800
0x02007386 0x002008ff 0x0010eb00 0x000fe800
0x02007386 0x002010ff 0x0010eb00 0x000fe800
0x02007386 0x002018ff 0x0010eb00 0x000fe200
0x0000794d 0x00000000 0x03800000 0x000fea00
0x00007947 0xfffffff0 0x0383ffff 0x000fc000
0x00007918 0x00000000 0x00000000 0x000fc000



.text._ZN3cub17CUB_200400_750_NS6detail8for_each13static_kernelINS2_12policy_hub_t12policy_350_tElN6thrust20THRUST_200400_750_NS8cuda_cub11__transform17unary_transform_fIPN4cuda3std3__45tupleIJ6vec_2dIfElEEESI_NS9_14no_stencil_tagENS7_8identityISH_EENS9_21always_true_predicateEEEEEvT0_T1_
bar = 0	reg = 14	lmem=0	smem=0
0xff017624 0x00000a00 0x078e00ff 0x000fe400
0x00027919 0x00000000 0x00002500 0x000e2800
0x00077919 0x00000000 0x00002100 0x000e6200
0x02027825 0x00000200 0x078e00ff 0x001fca00
0x02067a10 0x00005800 0x07f3e1ff 0x040fe400
0x02007210 0x00000007 0x07f5e0ff 0x002fe400
0x0600780c 0x000001ff 0x03f04070 0x000fe400
0x03027a10 0x00005900 0x00ffe5ff 0x000fe200
0xff037224 0x000000ff 0x010e0603 0x000fe400
0x00047824 0x00000010 0x078e00ff 0x000fe200
0x0200720c 0x000000ff 0x03f04300 0x000fc400
0x00057819 0x00000004 0x00010203 0x000fd400
0x00000947 0x00000180 0x03800000 0x000fea00
0x0600720c 0x00000007 0x03f04070 0x000fe200
0x00ff7355 0x00000000 0x00100000 0x000fe200
0xff027819 0x0000001f 0x00011406 0x000fe200
0x00007945 0x000000c0 0x03800000 0x000fe200
0x07007810 0x00000100 0x07ffe0ff 0x000fe400
0x0200720c 0x000000ff 0x03f04300 0x000fe400
0x0600720c 0x00000000 0x03f24070 0x000fc800
0x0200720c 0x000000ff 0x03f24310 0x000fcc00
0x00008947 0x00000060 0x03800000 0x000fea00
0x00047ab9 0x00005a00 0x00000a00 0x000fe400
0x04067981 0x00000004 0x0c1eeb00 0x000ea200
0x00067ab9 0x00005c00 0x00000a00 0x000fc600
0x04007986 0x00000006 0x0c10eb06 0x0041e800
0x04027981 0x00000804 0x0c1eeb00 0x000ea800
0x04007986 0x00000802 0x0c10eb06 0x0041e400
0x00007941 0x00000000 0x03800000 0x000fea00
0x0000994d 0x00000000 0x03800000 0x000fea00
0x00047ab9 0x00005a00 0x00000a00 0x000fe400
0x04067981 0x00100004 0x0c1eeb00 0x001ea200
0x00067ab9 0x00005c00 0x00000a00 0x000fc600
0x04007986 0x00100006 0x0c10eb06 0x004fe800
0x04027981 0x00100804 0x0c1eeb00 0x000ea800
0x04007986 0x00100802 0x0c10eb06 0x004fe200
0x0000794d 0x00000000 0x03800000 0x000fea00
0xff067224 0x000000ff 0x078e0004 0x000fe200
0x00047ab9 0x00005a00 0x00000a00 0x000fe200
0xff077224 0x000000ff 0x078e0005 0x000fd000
0x06087981 0x00000004 0x0c1eeb00 0x000ea200
0x00067ab9 0x00005c00 0x00000a00 0x000fc600
0x06007986 0x00000008 0x0c10eb06 0x004fe800
0x06027981 0x00000804 0x0c1eeb00 0x000ea800
0x06007986 0x00000802 0x0c10eb06 0x004fe800
0x060a7981 0x00100004 0x0c1eeb00 0x000ea800
0x06007986 0x0010000a 0x0c10eb06 0x004fe800
0x06047981 0x00100804 0x0c1eeb00 0x000ea800
0x06007986 0x00100804 0x0c10eb06 0x004fe200
0x0000794d 0x00000000 0x03800000 0x000fea00
0x00007947 0xfffffff0 0x0383ffff 0x000fc000
0x00007918 0x00000000 0x00000000 0x000fc000
0x00007918 0x00000000 0x00000000 0x000fc000
0x00007918 0x00000000 0x00000000 0x000fc000
0x00007918 0x00000000 0x00000000 0x000fc000
0x00007918 0x00000000 0x00000000 0x000fc000



.text._ZN3cub17CUB_200400_750_NS6detail8for_each13static_kernelINS2_12policy_hub_t12policy_350_tElN6thrust20THRUST_200400_750_NS8cuda_cub20__uninitialized_copy7functorIPN4cuda3std3__45tupleIJ6vec_2dIfElEEENS7_7pointerISH_NS8_5par_tENS7_11use_defaultESL_EEEEEEvT0_T1_
bar = 0	reg = 14	lmem=0	smem=0
0xff017624 0x00000a00 0x078e00ff 0x000fe400
0x00027919 0x00000000 0x00002500 0x000e2800
0x00077919 0x00000000 0x00002100 0x000e6200
0x02027825 0x00000200 0x078e00ff 0x001fca00
0x02067a10 0x00005800 0x07f3e1ff 0x040fe400
0x02007210 0x00000007 0x07f5e0ff 0x002fe400
0x0600780c 0x000001ff 0x03f04070 0x000fe400
0x03027a10 0x00005900 0x00ffe5ff 0x000fe200
0xff037224 0x000000ff 0x010e0603 0x000fe400
0x00047824 0x00000010 0x078e00ff 0x000fe200
0x0200720c 0x000000ff 0x03f04300 0x000fc400
0x00057819 0x00000004 0x00010203 0x000fd400
0x00000947 0x00000180 0x03800000 0x000fea00
0x0600720c 0x00000007 0x03f04070 0x000fe200
0x00ff7355 0x00000000 0x00100000 0x000fe200
0xff027819 0x0000001f 0x00011406 0x000fe200
0x00007945 0x000000c0 0x03800000 0x000fe200
0x07007810 0x00000100 0x07ffe0ff 0x000fe400
0x0200720c 0x000000ff 0x03f04300 0x000fe400
0x0600720c 0x00000000 0x03f24070 0x000fc800
0x0200720c 0x000000ff 0x03f24310 0x000fcc00
0x00008947 0x00000060 0x03800000 0x000fea00
0x00047ab9 0x00005a00 0x00000a00 0x000fe400
0x04067981 0x00000004 0x0c1eeb00 0x000ea800
0x04027981 0x00000804 0x0c1eeb00 0x000ee200
0x00047ab9 0x00005c00 0x00000a00 0x000fc600
0x04007986 0x00000006 0x0c10eb04 0x0041e800
0x04007986 0x00000802 0x0c10eb04 0x0081e400
0x00007941 0x00000000 0x03800000 0x000fea00
0x0000994d 0x00000000 0x03800000 0x000fea00
0x00047ab9 0x00005a00 0x00000a00 0x000fe400
0x04067981 0x00100004 0x0c1eeb00 0x001ea800
0x04027981 0x00100804 0x0c1eeb00 0x000ee200
0x00047ab9 0x00005c00 0x00000a00 0x000fc600
0x04007986 0x00100006 0x0c10eb04 0x004fe800
0x04007986 0x00100802 0x0c10eb04 0x008fe200
0x0000794d 0x00000000 0x03800000 0x000fea00
0xff067224 0x000000ff 0x078e0004 0x000fe200
0x00047ab9 0x00005a00 0x00000a00 0x000fe200
0xff077224 0x000000ff 0x078e0005 0x000fd000
0x06087981 0x00000004 0x0c1eeb00 0x000ea800
0x06027981 0x00000804 0x0c1eeb00 0x000ee200
0x00067ab9 0x00005c00 0x00000a00 0x000fc600
0x06007986 0x00000008 0x0c10eb06 0x004fe800
0x06007986 0x00000802 0x0c10eb06 0x008fe800
0x060a7981 0x00100004 0x0c1eeb00 0x000ea800
0x06047981 0x00100804 0x0c1eeb00 0x000ee800
0x06007986 0x0010000a 0x0c10eb06 0x004fe800
0x06007986 0x00100804 0x0c10eb06 0x008fe200
0x0000794d 0x00000000 0x03800000 0x000fea00
0x00007947 0xfffffff0 0x0383ffff 0x000fc000
0x00007918 0x00000000 0x00000000 0x000fc000
0x00007918 0x00000000 0x00000000 0x000fc000
0x00007918 0x00000000 0x00000000 0x000fc000
0x00007918 0x00000000 0x00000000 0x000fc000
0x00007918 0x00000000 0x00000000 0x000fc000



.text._ZN3cub17CUB_200400_750_NS6detail8for_each13static_kernelINS2_12policy_hub_t12policy_350_tElNS2_12op_wrapper_tIlN6thrust20THRUST_200400_750_NS6detail23allocator_traits_detail5gozerENS8_7pointerIN4cuda3std3__45tupleIJ6vec_2dIfElEEENS8_8cuda_cub5par_tENS8_11use_defaultESM_EEEEEEvT0_T1_
bar = 0	reg = 4	lmem=0	smem=0
0x00017a02 0x00000a00 0x00000f00 0x000fc600
0x0000794d 0x00000000 0x03800000 0x000fea00
0x00007947 0xfffffff0 0x0383ffff 0x000fc000
0x00007918 0x00000000 0x00000000 0x000fc000
0x00007918 0x00000000 0x00000000 0x000fc000
0x00007918 0x00000000 0x00000000 0x000fc000
0x00007918 0x00000000 0x00000000 0x000fc000
0x00007918 0x00000000 0x00000000 0x000fc000



.text._ZN3cub17CUB_200400_750_NS6detail8for_each13static_kernelINS2_12policy_hub_t12policy_350_tEmNS2_12op_wrapper_tImN6thrust20THRUST_200400_750_NS6detail23allocator_traits_detail24construct1_via_allocatorINS9_18no_throw_allocatorINS9_19temporary_allocatorIN4cuda3std3__45tupleIJ6vec_2dIfElEEENS8_8cuda_cub5par_tEEEEEEENS8_7pointerISK_SM_NS8_11use_defaultESR_EEEEEEvT0_T1_
bar = 0	reg = 9	lmem=0	smem=0
0xff017624 0x00000a00 0x078e00ff 0x000fe400
0x00027919 0x00000000 0x00002500 0x000e2800
0x00057919 0x00000000 0x00002100 0x000e6200
0x02027825 0x00000200 0x078e00ff 0x001fca00
0x02047a10 0x00005800 0x07f3e1ff 0x040fe400
0x02007210 0x00000005 0x07f5e0ff 0x002fe400
0x0400780c 0x000001ff 0x03f04070 0x000fe400
0x03067a10 0x00005900 0x00ffe5ff 0x000fe200
0xff037224 0x000000ff 0x010e0603 0x000fe200
0x00027a11 0x00005a00 0x078220ff 0x000fe400
0x0600720c 0x000000ff 0x03f04100 0x000fc400
0x00037a11 0x00005b00 0x008f2403 0x000fd400
0x00000947 0x000000c0 0x03800000 0x000fea00
0x0400720c 0x00000005 0x03f04070 0x000fe400
0xff067819 0x0000001f 0x00011404 0x000fe400
0x05007810 0x00000100 0x07ffe0ff 0x000fe400
0x0600720c 0x000000ff 0x03f04100 0x000fd800
0x02000386 0x000000ff 0x0010eb00 0x0001e800
0x02000386 0x000008ff 0x0010eb00 0x0001e200
0x0400720c 0x00000000 0x03f04070 0x000fc800
0x0600720c 0x000000ff 0x03f04100 0x000fd800
0x0000894d 0x00000000 0x03800000 0x000fea00
0x02007386 0x001000ff 0x0010eb00 0x001fe800
0x02007386 0x001008ff 0x0010eb00 0x000fe200
0x0000794d 0x00000000 0x03800000 0x000fea00
0x02007386 0x000000ff 0x0010eb00 0x000fe800
0x02007386 0x000008ff 0x0010eb00 0x000fe800
0x02007386 0x001000ff 0x0010eb00 0x000fe800
0x02007386 0x001008ff 0x0010eb00 0x000fe200
0x0000794d 0x00000000 0x03800000 0x000fea00
0x00007947 0xfffffff0 0x0383ffff 0x000fc000
0x00007918 0x00000000 0x00000000 0x000fc000



.text._ZN3cub17CUB_200400_750_NS11EmptyKernelIvEEvv
bar = 0	reg = 4	lmem=0	smem=0
0x00017a02 0x00000a00 0x00000f00 0x000fc600
0x0000794d 0x00000000 0x03800000 0x000fea00
0x00007947 0xfffffff0 0x0383ffff 0x000fc000
0x00007918 0x00000000 0x00000000 0x000fc000
0x00007918 0x00000000 0x00000000 0x000fc000
0x00007918 0x00000000 0x00000000 0x000fc000
0x00007918 0x00000000 0x00000000 0x000fc000
0x00007918 0x00000000 0x00000000 0x000fc000



.text._ZN6thrust20THRUST_200400_750_NS8cuda_cub4core13_kernel_agentINS1_8__reduce11ReduceAgentIPN4cuda3std3__45tupleIJNS9_IJ6vec_2dIfElEEESC_EEESE_SD_lNS1_9__extrema12arg_minmax_fISB_l7compareIfEEEEESE_SE_iSJ_EEvT0_T1_T2_T3_
bar = 1	reg = 60	lmem=0	smem=0
0xff017624 0x00000a00 0x078e00ff 0x000fe400
0xff007a0c 0x00005c00 0x03f05270 0x000fd800
0x0000894d 0x00000000 0x03800000 0x000fea00
0x00007919 0x00000000 0x00002100 0x000e2200
0xff1c7624 0x00005c00 0x078e00ff 0x000fe200
0x00ff7355 0x00000000 0x00100000 0x000fe200
0x00007945 0x0000c570 0x03800000 0x000fe600
0x1c00780c 0x00000200 0x03f06270 0x000fd800
0x00008947 0x00004dc0 0x03800000 0x000fea00
0xff0b7424 0x00000020 0x078e00ff 0x000fc800
0x000a7625 0x00005800 0x078e020b 0x001fd000
0x0a107381 0x00000000 0x001e6b00 0x000ea800
0x0a147381 0x00200000 0x001e6b00 0x000ee800
0x0a167381 0x00001000 0x001e6b00 0x000f2800
0x0a187381 0x00201000 0x001e6b00 0x000f2800
0x0a027381 0x00000800 0x001e6b00 0x000f2800
0x0a047381 0x00001800 0x001e6b00 0x00016800
0x0a087381 0x00201800 0x001e6b00 0x00016200
0x01ff7355 0x00000000 0x00100000 0x000fe200
0x00017945 0x000001e0 0x03800000 0x000fe200
0x1c00780c 0x00000400 0x03f26270 0x000fe200
0x11067220 0x00000011 0x00400000 0x084fe200
0x00137202 0x00000011 0x00000f00 0x000fe200
0xff127224 0x000000ff 0x078e0010 0x000fc400
0x15077220 0x00000015 0x00400000 0x008fe400
0x100c7223 0x00000010 0x00000006 0x000fe400
0x140d7223 0x00000014 0x00000007 0x000fe400
0x170e7220 0x00000017 0x00400000 0x010fe400
0x190f7220 0x00000019 0x00400000 0x000fe200
0x0c00720b 0x0000000d 0x03f0e000 0x000fe200
0x160e7223 0x00000016 0x0000000e 0x000fc400
0x180f7223 0x00000018 0x0000000f 0x000fe400
0xff067224 0x000000ff 0x078e0002 0x000fe400
0xff077224 0x000000ff 0x078e0003 0x000fe200
0x0e00720b 0x0000000f 0x03f4e000 0x000fc800
0x00008947 0x000000d0 0x03800000 0x000fea00
0x0a067381 0x00200800 0x001e6b00 0x00116200
0x0d00720b 0x0000000c 0x03f0e000 0x000fe200
0xff127224 0x000000ff 0x078e0014 0x000fe400
0xff137224 0x000000ff 0x078e0015 0x000fd200
0x00008947 0x00000080 0x03800000 0x000fea00
0x0200720c 0x00000006 0x03f06070 0x021fe200
0xff137224 0x000000ff 0x078e0015 0x000fe200
0x00127202 0x00000014 0x00000f00 0x000fe400
0x0300720c 0x00000007 0x03f06300 0x000fd800
0xff068224 0x000000ff 0x078e0002 0x000fe200
0x00138202 0x00000011 0x00000f00 0x000fe200
0xff078224 0x000000ff 0x078e0003 0x000fe400
0xff128224 0x000000ff 0x078e0010 0x000fc600
0x00017941 0x00000000 0x03800000 0x001fea00
0x01ff7355 0x00000000 0x00100000 0x000fe200
0x00017945 0x00000160 0x03800000 0x000fe200
0xff147224 0x000000ff 0x078e0018 0x000fe400
0xff157224 0x000000ff 0x078e0019 0x000fe400
0xff027224 0x000000ff 0x078e0008 0x020fc400
0xff037224 0x000000ff 0x078e0009 0x000fe200
0x0000a947 0x00000100 0x03800000 0x000fea00
0x0f00720b 0x0000000e 0x03f0e000 0x000fe200
0xff157224 0x000000ff 0x078e0017 0x000fe200
0x00147202 0x00000016 0x00000f00 0x000fe200
0xff027224 0x000000ff 0x078e0004 0x000fe400
0xff037224 0x000000ff 0x078e0005 0x000fce00
0x00008947 0x000000a0 0x03800000 0x000fea00
0x0400720c 0x00000008 0x03f06070 0x000fe200
0xff147224 0x000000ff 0x078e0018 0x000fe200
0x00037202 0x00000009 0x00000f00 0x080fe200
0xff027224 0x000000ff 0x078e0008 0x000fe200
0x0500720c 0x00000009 0x03f06300 0x000fe200
0xff157224 0x000000ff 0x078e0019 0x000fd600
0xff028224 0x000000ff 0x078e0004 0x000fe200
0x00148202 0x00000016 0x00000f00 0x000fe200
0xff038224 0x000000ff 0x078e0005 0x000fe400
0xff158224 0x000000ff 0x078e0017 0x000fc600
0x00017941 0x00000000 0x03800000 0x000fea00
0xff167424 0x00000200 0x078e00ff 0x000fe400
0xff1f7224 0x000000ff 0x078e00ff 0x000fe200
0x00009947 0x00000900 0x03800000 0x000fea00
0xff1c7819 0x0000001f 0x0001141c 0x000fe200
0xff1e7424 0x00000400 0x078e00ff 0x000fe200
0x001d7202 0x000000ff 0x00000f00 0x000fe200
0xff0e7224 0x000000ff 0x078e000a 0x000fc400
0xff0f7224 0x000000ff 0x078e000b 0x000fe400
0xff0c7224 0x000000ff 0x078e000e 0x000fe400
0xff0d7224 0x000000ff 0x078e000f 0x000fd000
0x0c1a7381 0x00400000 0x001e6b00 0x000ea800
0x0c187381 0x00401000 0x001e6b00 0x000ee800
0x0c167381 0x00401800 0x001e6b00 0x00016800
0x0c0e7381 0x00600000 0x001e6b00 0x00016800
0x0c107381 0x00600800 0x001e6b00 0x00016800
0x0c087381 0x00601000 0x001e6b00 0x00016800
0x0c047381 0x00601800 0x001e6b00 0x00016200
0x131f7220 0x00000013 0x00400000 0x000fe200
0x01ff7355 0x00000000 0x00100000 0x000fe200
0x15237220 0x00000015 0x00400000 0x000fe200
0x00017945 0x000001f0 0x03800000 0x000fe200
0x12267223 0x00000012 0x0000001f 0x080fe200
0x001f7202 0x00000012 0x00000f00 0x000fe200
0x14287223 0x00000014 0x00000023 0x000fc400
0xff227224 0x000000ff 0x078e0013 0x000fe400
0xff237224 0x000000ff 0x078e0006 0x000fe400
0xff247224 0x000000ff 0x078e0007 0x000fe400
0x1b217220 0x0000001b 0x00400000 0x004fc800
0x1a277223 0x0000001a 0x00000021 0x000fe400
0x19257220 0x00000019 0x00400000 0x008fc600
0x2600720b 0x00000027 0x03f0e000 0x000fe200
0x18257223 0x00000018 0x00000025 0x000fca00
0x2800720b 0x00000025 0x03f2e000 0x000fcc00
0x00008947 0x00000110 0x03800000 0x000fea00
0x0c207381 0x00400800 0x001e6b00 0x001ea200
0x2700720b 0x00000026 0x03f0e000 0x000fe200
0xff1f7224 0x000000ff 0x078e001a 0x000fe200
0x00227202 0x0000001b 0x00000f00 0x000fe200
0xff237224 0x000000ff 0x078e0020 0x004fe400
0xff247224 0x000000ff 0x078e0021 0x000fce00
0x00008947 0x000000a0 0x03800000 0x000fea00
0x0600720c 0x00000020 0x03f06070 0x000fe200
0xff227224 0x000000ff 0x078e001b 0x000fe200
0x001f7202 0x0000001a 0x00000f00 0x000fe200
0xff237224 0x000000ff 0x078e0020 0x000fe200
0x0700720c 0x00000021 0x03f06300 0x000fe200
0xff247224 0x000000ff 0x078e0021 0x000fd600
0xff238224 0x000000ff 0x078e0006 0x000fe200
0x00228202 0x00000013 0x00000f00 0x000fe200
0xff248224 0x000000ff 0x078e0007 0x000fe400
0xff1f8224 0x000000ff 0x078e0012 0x000fc600
0x00017941 0x00000000 0x03800000 0x001fea00
0x01ff7355 0x00000000 0x00100000 0x000fe200
0x00017945 0x00000160 0x03800000 0x000fe200
0xff1a7224 0x000000ff 0x078e0018 0x000fe400
0xff1b7224 0x000000ff 0x078e0019 0x000fe400
0xff217224 0x000000ff 0x078e0016 0x020fc400
0xff207224 0x000000ff 0x078e0017 0x000fe200
0x00009947 0x00000100 0x03800000 0x000fea00
0x2500720b 0x00000028 0x03f0e000 0x000fe200
0xff1b7224 0x000000ff 0x078e0015 0x000fe200
0x001a7202 0x00000014 0x00000f00 0x000fe200
0xff217224 0x000000ff 0x078e0002 0x000fe400
0xff207224 0x000000ff 0x078e0003 0x000fce00
0x00008947 0x000000a0 0x03800000 0x000fea00
0x0200720c 0x00000016 0x03f06070 0x000fe200
0xff1a7224 0x000000ff 0x078e0018 0x000fe200
0x00207202 0x00000017 0x00000f00 0x080fe200
0xff217224 0x000000ff 0x078e0016 0x000fe200
0x0300720c 0x00000017 0x03f06300 0x000fe200
0xff1b7224 0x000000ff 0x078e0019 0x000fd600
0xff218224 0x000000ff 0x078e0002 0x000fe200
0x001a8202 0x00000014 0x00000f00 0x000fe200
0xff208224 0x000000ff 0x078e0003 0x000fe400
0xff1b8224 0x000000ff 0x078e0015 0x000fc600
0x00017941 0x00000000 0x03800000 0x000fea00
0x0f037220 0x0000000f 0x00400000 0x000fe200
0x01ff7355 0x00000000 0x00100000 0x000fe200
0x22027220 0x00000022 0x00400000 0x000fe200
0x00017945 0x000001c0 0x03800000 0x000fe200
0x0e177223 0x0000000e 0x00000003 0x000fe200
0x00037202 0x00000024 0x00000f00 0x000fe200
0x1f147223 0x0000001f 0x00000002 0x000fc400
0xff027224 0x000000ff 0x078e0023 0x000fe400
0x09157220 0x00000009 0x00400000 0x000fe200
0x1400720b 0x00000017 0x03f0e000 0x000fe200
0xff127224 0x000000ff 0x078e001f 0x000fe400
0xff137224 0x000000ff 0x078e0022 0x000fe400
0xff067224 0x000000ff 0x078e0002 0x000fe400
0xff077224 0x000000ff 0x078e0003 0x000fca00
0x00008947 0x00000100 0x03800000 0x000fea00
0x1700720b 0x00000014 0x03f0e000 0x000fe200
0xff127224 0x000000ff 0x078e000e 0x000fe200
0x00067202 0x00000010 0x00000f00 0x000fe200
0xff137224 0x000000ff 0x078e000f 0x000fe400
0xff077224 0x000000ff 0x078e0011 0x000fce00
0x00008947 0x000000a0 0x03800000 0x000fea00
0x2300720c 0x00000010 0x03f06070 0x000fe200
0xff067224 0x000000ff 0x078e0010 0x000fe200
0x00137202 0x0000000f 0x00000f00 0x000fe200
0xff077224 0x000000ff 0x078e0011 0x000fe200
0x2400720c 0x00000011 0x03f06300 0x000fe200
0xff127224 0x000000ff 0x078e000e 0x000fd600
0xff068224 0x000000ff 0x078e0002 0x000fe400
0xff078224 0x000000ff 0x078e0003 0x000fe400
0xff128224 0x000000ff 0x078e001f 0x000fe400
0xff138224 0x000000ff 0x078e0022 0x000fc600
0x00017941 0x00000000 0x03800000 0x000fea00
0x1b037220 0x0000001b 0x00400000 0x000fe200
0x0c0e7810 0x00004000 0x07f1e0ff 0x000fe200
0x08117223 0x00000008 0x00000015 0x000fe200
0x01ff7355 0x00000000 0x00100000 0x000fe200
0x1a0c7223 0x0000001a 0x00000003 0x000fe200
0xff0f7210 0x0000000d 0x007fe4ff 0x000fe200
0x00017945 0x000001b0 0x03800000 0x000fe200
0xff167224 0x000000ff 0x078e001e 0x000fe200
0x00027202 0x00000004 0x00000f00 0x000fe200
0xff1f7224 0x000000ff 0x078e001d 0x000fe200
0x0c00720b 0x00000011 0x03f0e000 0x000fe200
0xff147224 0x000000ff 0x078e0008 0x000fc400
0xff157224 0x000000ff 0x078e0009 0x000fe400
0xff037224 0x000000ff 0x078e0005 0x000fce00
0x00008947 0x00000120 0x03800000 0x000fea00
0x1100720b 0x0000000c 0x03f0e000 0x000fe200
0xff0c7224 0x000000ff 0x078e0021 0x000fe200
0x000d7202 0x00000020 0x00000f00 0x000fe200
0xff147224 0x000000ff 0x078e001a 0x000fe400
0xff157224 0x000000ff 0x078e001b 0x000fe400
0xff027224 0x000000ff 0x078e000c 0x000fe400
0xff037224 0x000000ff 0x078e000d 0x000fc600
0x00008947 0x000000a0 0x03800000 0x000fea00
0x2100720c 0x00000004 0x03f06070 0x000fe200
0xff157224 0x000000ff 0x078e0009 0x000fe200
0x00147202 0x00000008 0x00000f00 0x000fe200
0xff027224 0x000000ff 0x078e0004 0x000fe200
0x2000720c 0x00000005 0x03f06300 0x000fe200
0xff037224 0x000000ff 0x078e0005 0x000fd600
0xff028224 0x000000ff 0x078e000c 0x000fe200
0x00158202 0x0000001b 0x00000f00 0x000fe200
0xff038224 0x000000ff 0x078e000d 0x000fe400
0xff148224 0x000000ff 0x078e001a 0x000fc600
0x00017941 0x00000000 0x03800000 0x000fea00
0x161e7810 0x00000200 0x07f3e0ff 0x000fc800
0x1e007a0c 0x00005c00 0x03f04070 0x000fe200
0xff1d7224 0x000000ff 0x008e061f 0x000fca00
0x1d00720c 0x0000001c 0x03f04300 0x000fd800
0x00008947 0xfffff750 0x0383ffff 0x000fea00
0xff047624 0x00005c00 0x078e00ff 0x000fe200
0x16007a0c 0x00005c00 0x03f06070 0x000fe200
0xff0e7224 0x000000ff 0x078e0002 0x000fe200
0x00117202 0x00000015 0x00000f00 0x000fe200
0xff0f7224 0x000000ff 0x078e0003 0x000fe200
0xff047819 0x0000001f 0x00011404 0x000fe200
0xff107224 0x000000ff 0x078e0014 0x000fe400
0xff087224 0x000000ff 0x078e0006 0x000fe200
0x1f00720c 0x00000004 0x03f06300 0x000fe200
0xff097224 0x000000ff 0x078e0007 0x000fe200
0x00047202 0x00000012 0x00000f00 0x000fe200
0xff057224 0x000000ff 0x078e0013 0x000fd200
0x00000947 0x00000e80 0x03800000 0x000fea00
0x160d7a10 0x00005c00 0x07ffe1ff 0x000fe200
0x01ff7355 0x00000000 0x00100000 0x000fe200
0x00017945 0x00000e50 0x03800000 0x000fe200
0xff0e7224 0x000000ff 0x078e0002 0x000fe200
0x0000720c 0x0000000d 0x03f06270 0x000fe200
0xff0f7224 0x000000ff 0x078e0003 0x000fe200
0x00087202 0x00000006 0x00000f00 0x000fe200
0xff117224 0x000000ff 0x078e0015 0x000fe400
0xff107224 0x000000ff 0x078e0014 0x000fe400
0xff097224 0x000000ff 0x078e0007 0x000fc400
0xff057224 0x000000ff 0x078e0013 0x000fe400
0xff047224 0x000000ff 0x078e0012 0x000fe200
0x00000947 0x00000da0 0x03800000 0x000fea00
0xff057212 0x00000016 0x078e33ff 0x000fe200
0x02ff7355 0x00000000 0x00100000 0x000fe200
0x00027945 0x00000450 0x03800000 0x000fe200
0xff0c7224 0x000000ff 0x078e0000 0x000fe200
0x00177a10 0x00005c00 0x07ffe105 0x000fe200
0xff097224 0x000000ff 0x078e0007 0x000fe200
0x00087202 0x00000006 0x00000f00 0x000fe200
0xff107224 0x000000ff 0x078e0014 0x000fe200
0x17ff7812 0x00000100 0x0780c0ff 0x000fe200
0xff117224 0x000000ff 0x078e0015 0x000fe200
0x000e7202 0x00000002 0x00000f00 0x000fe200
0xff0f7224 0x000000ff 0x078e0003 0x000fc400
0xff047224 0x000000ff 0x078e0012 0x000fe400
0xff057224 0x000000ff 0x078e0013 0x000fca00
0x00000947 0x00000380 0x03800000 0x000fea00
0x160e7211 0x0000000a 0x078028ff 0x000fc800
0x160f7211 0x0000000b 0x000f2c1f 0x000fd000
0x0e107381 0x00000000 0x001e6b00 0x000ea800
0x0e187381 0x00001000 0x001e6b00 0x000ee800
0x0e0a7381 0x00001800 0x001e6b00 0x00016200
0x12047220 0x00000012 0x00400000 0x000fe200
0x03ff7355 0x00000000 0x00100000 0x000fe200
0x00037945 0x000001c0 0x03800000 0x000fe200
0x00087202 0x00000006 0x00000f00 0x000fe200
0x130c7223 0x00000013 0x00000004 0x000fc400
0x14047220 0x00000014 0x00400000 0x000fe400
0xff097224 0x000000ff 0x078e0007 0x000fe400
0x151a7223 0x00000015 0x00000004 0x000fe400
0xff047224 0x000000ff 0x078e0012 0x000fe400
0x11057220 0x00000011 0x00400000 0x004fc800
0x101b7223 0x00000010 0x00000005 0x000fe400
0x19057220 0x00000019 0x00400000 0x008fc600
0x0c00720b 0x0000001b 0x03f0e000 0x000fe200
0x181d7223 0x00000018 0x00000005 0x000fe400
0xff057224 0x000000ff 0x078e0013 0x000fd200
0x00008947 0x000000e0 0x03800000 0x000fea00
0x0e0e7381 0x00000800 0x001e6b00 0x001ea200
0x1b00720b 0x0000000c 0x03f4e000 0x000fe200
0xff047224 0x000000ff 0x078e0010 0x000fe200
0x00057202 0x00000011 0x00000f00 0x000fd400
0x0600220c 0x0000000e 0x03f21070 0x0c4fe200
0xff087224 0x000000ff 0x078e000e 0x000fe200
0x0600220c 0x0000000e 0x03f06070 0x0c0fe200
0xff097224 0x000000ff 0x078e000f 0x000fe200
0x0700220c 0x0000000f 0x03f21310 0x0c0fe400
0x0700220c 0x0000000f 0x03f06300 0x0c0fe400
0x06082207 0x0000000e 0x00800000 0x000fe400
0x07092207 0x0000000f 0x00800000 0x000fc400
0x13052208 0x00000011 0x04000000 0x000fe400
0x12042208 0x00000010 0x04000000 0x000fc600
0x00037941 0x00000000 0x03800000 0x001fea00
0x1a00720b 0x0000001d 0x03f0e000 0x000fe200
0xff117224 0x000000ff 0x078e0019 0x000fe200
0x000c7810 0x00000100 0x07ffe0ff 0x000fe200
0xff0e7224 0x000000ff 0x078e000a 0x020fe200
0x00107202 0x00000018 0x00000f00 0x000fe200
0xff0f7224 0x000000ff 0x078e000b 0x000fce00
0x00008947 0x000000d0 0x03800000 0x000fea00
0x1d00720b 0x0000001a 0x03f4e000 0x000fe200
0xff0f7224 0x000000ff 0x078e0003 0x000fe200
0x000e7202 0x00000002 0x00000f00 0x000fe200
0xff117224 0x000000ff 0x078e0015 0x000fe400
0xff107224 0x000000ff 0x078e0014 0x000fce00
0x0200220c 0x0000000a 0x03f21070 0x0c0fe400
0x0200220c 0x0000000a 0x03f06070 0x0c0fe400
0x0300220c 0x0000000b 0x03f21310 0x0c0fe400
0x0300220c 0x0000000b 0x03f06300 0x0c0fe400
0x020e2207 0x0000000a 0x00800000 0x000fe400
0x030f2207 0x0000000b 0x00800000 0x000fc400
0x15112208 0x00000019 0x04000000 0x000fe400
0x14102208 0x00000018 0x04000000 0x000fc600
0x00027941 0x00000000 0x03800000 0x000fea00
0x17ff7812 0xffffff00 0x0780c0ff 0x000fd800
0x00008947 0x00000900 0x03800000 0x000fea00
0x0c067810 0x00000100 0x07ffe0ff 0x040fe200
0x0c027825 0x00000020 0x078e02ff 0x000fe200
0x161d7a11 0x00005800 0x078028ff 0x000fc600
0x06067825 0x00000020 0x078e02ff 0x000fe200
0x161f7a11 0x00005900 0x000f2c1f 0x000fe400
0x02267812 0x00000018 0x078efcff 0x040fe400
0x02247812 0x00000010 0x078efcff 0x040fe400
0x02227812 0x00000008 0x078efcff 0x000fe400
0x06207812 0x00000018 0x078efcff 0x040fe400
0x061e7812 0x00000010 0x078efcff 0x000fc400
0x061c7812 0x00000008 0x078efcff 0x000fe400
0x020a7210 0x0000001d 0x07f1e0ff 0x000fe400
0x1d147210 0x00000024 0x07f3e0ff 0x000fe400
0x030b7210 0x0000001f 0x007fe4ff 0x000fc600
0x03157824 0x00000001 0x008e061f 0x000fca00
0x0a0a7381 0x00000000 0x001e6b00 0x000ea200
0x1d187210 0x00000026 0x07f1e0ff 0x040fe400
0x06127210 0x0000001d 0x07f3e0ff 0x000fe200
0x14147381 0x00000000 0x001e6b00 0x000ee200
0x1d1a7210 0x00000020 0x07f7e0ff 0x000fe200
0x03197824 0x00000001 0x000e061f 0x100fe200
0x1d167210 0x0000001e 0x07f5e0ff 0x000fe200
0x07137824 0x00000001 0x008e061f 0x140fe400
0x071b7824 0x00000001 0x018e061f 0x040fe200
0x07177210 0x0000001f 0x017fe4ff 0x000fc600
0x18187381 0x00000000 0x001e6b00 0x000f6800
0x12127381 0x00000000 0x001e6b00 0x000f6800
0x16167381 0x00000000 0x001e6b00 0x000f6800
0x1a1a7381 0x00000000 0x001e6b00 0x000f6200
0x102a7220 0x00000010 0x00400000 0x000fe200
0x02ff7355 0x00000000 0x00100000 0x000fe200
0x04287220 0x00000004 0x00400000 0x000fe200
0x00027945 0x000001e0 0x03800000 0x000fe200
0x112c7223 0x00000011 0x0000002a 0x000fe200
0x002f7202 0x00000009 0x00000f00 0x000fe200
0x05257223 0x00000005 0x00000028 0x000fe200
0x1d287210 0x00000022 0x07f3e0ff 0x000fe200
0xff2d7224 0x000000ff 0x078e0008 0x000fc800
0x03297824 0x00000001 0x008e061f 0x000fe400
0x0b217220 0x0000000b 0x00400000 0x004fc800
0x0a2a7223 0x0000000a 0x00000021 0x000fe400
0x15237220 0x00000015 0x00400000 0x008fe400
0xff217224 0x000000ff 0x078e0005 0x000fe200
0x2500720b 0x0000002a 0x03f0e000 0x000fe200
0x14317223 0x00000014 0x00000023 0x000fe400
0xff237224 0x000000ff 0x078e0004 0x000fc600
0x2c00720b 0x00000031 0x03f4e000 0x000fcc00
0x00008947 0x000000e0 0x03800000 0x000fea00
0x28287381 0x00000000 0x001e6b00 0x000ea200
0x2a00720b 0x00000025 0x03f6e000 0x000fe200
0xff217224 0x000000ff 0x078e000b 0x000fe400
0xff237224 0x000000ff 0x078e000a 0x000fd200
0x0800320c 0x00000028 0x03f21070 0x0c4fe200
0xff2f7224 0x000000ff 0x078e0029 0x000fe200
0x0800320c 0x00000028 0x03f06070 0x0c0fe400
0x002d7202 0x00000028 0x00000f00 0x080fe400
0x0900320c 0x00000029 0x03f21310 0x0c0fe400
0x0900320c 0x00000029 0x03f06300 0x000fe400
0x082d3207 0x00000028 0x00800000 0x000fc400
0x092f3207 0x00000029 0x00800000 0x000fe400
0x05213208 0x0000000b 0x04000000 0x000fe400
0x04233208 0x0000000a 0x04000000 0x000fc600
0x00027941 0x00000000 0x03800000 0x000fea00
0x02ff7355 0x00000000 0x00100000 0x000fe200
0x00027945 0x00000130 0x03800000 0x000fe200
0xff257224 0x000000ff 0x078e0015 0x000fe200
0x00277202 0x00000014 0x00000f00 0x000fe200
0xff297224 0x000000ff 0x078e0018 0x020fe400
0xff2b7224 0x000000ff 0x078e0019 0x000fe200
0x0000a947 0x000000d0 0x03800000 0x000fea00
0x3100720b 0x0000002c 0x03f4e000 0x000fe200
0xff297224 0x000000ff 0x078e000e 0x000fe200
0x002b7202 0x0000000f 0x00000f00 0x000fe200
0xff257224 0x000000ff 0x078e0011 0x000fc400
0xff277224 0x000000ff 0x078e0010 0x000fce00
0x0e00220c 0x00000018 0x03f21070 0x0c0fe400
0x0e00220c 0x00000018 0x03f06070 0x0c0fe400
0x0f00220c 0x00000019 0x03f21310 0x0c0fe400
0x0f00220c 0x00000019 0x03f06300 0x0c0fe400
0x0e292207 0x00000018 0x00800000 0x000fe400
0x0f2b2207 0x00000019 0x00800000 0x000fc400
0x11252208 0x00000015 0x04000000 0x000fe400
0x10272208 0x00000014 0x04000000 0x000fc600
0x00027941 0x00000000 0x03800000 0x000fea00
0x13057220 0x00000013 0x00400000 0x000fe200
0x1d0a7210 0x0000001c 0x07f1e0ff 0x000fe200
0x23047220 0x00000023 0x00400000 0x000fe200
0x02ff7355 0x00000000 0x00100000 0x000fe200
0x12117223 0x00000012 0x00000005 0x000fe200
0x00027945 0x00000180 0x03800000 0x000fe200
0x210e7223 0x00000021 0x00000004 0x000fe200
0x00087202 0x0000002d 0x00000f00 0x000fe200
0x070b7824 0x00000001 0x000e061f 0x000fc400
0x170f7220 0x00000017 0x00400000 0x000fe200
0x0e00720b 0x00000011 0x03f0e000 0x000fe200
0xff097224 0x000000ff 0x078e002f 0x000fe400
0xff057224 0x000000ff 0x078e0021 0x000fe400
0xff047224 0x000000ff 0x078e0023 0x000fce00
0x00008947 0x000000e0 0x03800000 0x000fea00
0x0a0a7381 0x00000000 0x001e6b00 0x000ea200
0x1100720b 0x0000000e 0x03f4e000 0x000fe200
0xff047224 0x000000ff 0x078e0012 0x000fe200
0x00057202 0x00000013 0x00000f00 0x000fd400
0x2d00220c 0x0000000a 0x03f21070 0x0c4fe200
0xff087224 0x000000ff 0x078e000a 0x000fe200
0x2d00220c 0x0000000a 0x03f06070 0x080fe200
0xff097224 0x000000ff 0x078e000b 0x000fe200
0x2f00220c 0x0000000b 0x03f21310 0x0c0fe400
0x2f00220c 0x0000000b 0x03f06300 0x080fe400
0x2d082207 0x0000000a 0x00800000 0x000fe400
0x2f092207 0x0000000b 0x00800000 0x000fc400
0x21052208 0x00000013 0x04000000 0x000fe400
0x23042208 0x00000012 0x04000000 0x000fc600
0x00027941 0x00000000 0x03800000 0x000fea00
0x270a7220 0x00000027 0x00400000 0x000fe200
0x02ff7355 0x00000000 0x00100000 0x000fe200
0x160b7223 0x00000016 0x0000000f 0x000fe200
0x00027945 0x00000150 0x03800000 0x000fe200
0x250a7223 0x00000025 0x0000000a 0x000fe200
0x00117202 0x00000017 0x00000f00 0x000fe200
0xff107224 0x000000ff 0x078e0016 0x000fe400
0xff0e7224 0x000000ff 0x078e001a 0x000fe200
0x0a00720b 0x0000000b 0x03f0e000 0x000fe200
0xff0f7224 0x000000ff 0x078e001b 0x000fd600
0x00008947 0x000000d0 0x03800000 0x000fea00
0x0b00720b 0x0000000a 0x03f4e000 0x000fe200
0xff0f7224 0x000000ff 0x078e002b 0x000fe200
0x000e7202 0x00000029 0x00000f00 0x000fe200
0xff117224 0x000000ff 0x078e0025 0x000fe400
0xff107224 0x000000ff 0x078e0027 0x000fce00
0x2900220c 0x0000001a 0x03f21070 0x0c0fe400
0x2900220c 0x0000001a 0x03f06070 0x080fe400
0x2b00220c 0x0000001b 0x03f21310 0x0c0fe400
0x2b00220c 0x0000001b 0x03f06300 0x080fe400
0x290e2207 0x0000001a 0x00800000 0x000fe400
0x2b0f2207 0x0000001b 0x00800000 0x000fc400
0x25112208 0x00000017 0x04000000 0x000fe400
0x27102208 0x00000016 0x04000000 0x000fc600
0x00027941 0x00000000 0x03800000 0x000fea00
0x0c0c7810 0x00000200 0x07ffe0ff 0x000fe400
0x1d1d7810 0x00004000 0x07f3e0ff 0x000fe400
0x0c00720c 0x0000000d 0x03f06270 0x000fe400
0xff1f7210 0x0000001f 0x00ffe4ff 0x000fd400
0x00008947 0xfffff7b0 0x0383ffff 0x000fea00
0x00017941 0x00000000 0x03800000 0x000fea00
0x00127919 0x00000000 0x00000000 0x000e2200
0x01ff7355 0x00000000 0x00100000 0x000fe200
0x00017945 0x000004c0 0x03800000 0x000fe200
0xff027224 0x000000ff 0x078e0010 0x000fe200
0x040c7f89 0x08201f00 0x000e0000 0x0002a200
0xff037224 0x000000ff 0x078e0011 0x000fe200
0x00147202 0x0000000f 0x00000f00 0x000fe200
0xff137224 0x000000ff 0x078e000e 0x000fe200
0x05167f89 0x08201f00 0x000e0000 0x0002e800
0x080d7f89 0x08201f00 0x000e0000 0x00032800
0x09187f89 0x08201f00 0x000e0000 0x00026800
0x10157f89 0x08201f00 0x000e0000 0x00026200
0x1200780c 0x0000001e 0x03f04270 0x001fc600
0x111a7f89 0x08201f00 0x000e0000 0x00002800
0x0e177f89 0x08201f00 0x000e0000 0x00002800
0x0f1c7f89 0x08201f00 0x000e0000 0x00002200
0x00000947 0x000003d0 0x03800000 0x000fea00
0x04027220 0x00000004 0x00400000 0x01cfe200
0x02ff7355 0x00000000 0x00100000 0x000fe200
0x16037220 0x00000016 0x00400000 0x000fe200
0x00027945 0x000001a0 0x03800000 0x000fe200
0x05137223 0x00000005 0x00000002 0x000fe200
0x00077202 0x00000004 0x00000f00 0x000fe200
0x0c147223 0x0000000c 0x00000003 0x000fc400
0x10027220 0x00000010 0x00400000 0x000fe400
0x1a037220 0x0000001a 0x00400000 0x001fe200
0x1300720b 0x00000014 0x03f0e000 0x000fe200
0xff0a7224 0x000000ff 0x078e0008 0x000fe400
0xff0b7224 0x000000ff 0x078e0009 0x000fe400
0x11197223 0x00000011 0x00000002 0x000fe400
0x151e7223 0x00000015 0x00000003 0x002fc400
0xff067224 0x000000ff 0x078e0005 0x000fc600
0x00008947 0x000000d0 0x03800000 0x000fea00
0x1400720b 0x00000013 0x03f4e000 0x000fe200
0xff0a7224 0x000000ff 0x078e000d 0x000fe200
0x00077202 0x0000000c 0x00000f00 0x000fe200
0xff0b7224 0x000000ff 0x078e0018 0x000fe400
0xff067224 0x000000ff 0x078e0016 0x000fce00
0x0800220c 0x0000000d 0x03f21070 0x0c0fe400
0x0800220c 0x0000000d 0x03f06070 0x0c0fe400
0x0900220c 0x00000018 0x03f21310 0x0c0fe400
0x0900220c 0x00000018 0x03f06300 0x0c0fe400
0x080a2207 0x0000000d 0x00800000 0x000fe400
0x090b2207 0x00000018 0x00800000 0x000fc400
0x05062208 0x00000016 0x04000000 0x000fe400
0x04072208 0x0000000c 0x04000000 0x000fc600
0x00027941 0x00000000 0x03800000 0x000fea00
0x1900720b 0x0000001e 0x03f0e000 0x000fe200
0xff027224 0x000000ff 0x078e0015 0x000fe200
0x00147202 0x0000001c 0x00000f00 0x000fe200
0xff037224 0x000000ff 0x078e001a 0x000fe200
0x00057202 0x00000006 0x00000f00 0x000fe200
0xff137224 0x000000ff 0x078e0017 0x000fe400
0xff087224 0x000000ff 0x078e000a 0x000fe400
0xff097224 0x000000ff 0x078e000b 0x000fc400
0xff047224 0x000000ff 0x078e0007 0x000fe200
0x00008947 0x00000150 0x03800000 0x000fea00
0x1e00720b 0x00000019 0x03f4e000 0x000fe200
0xff137224 0x000000ff 0x078e000e 0x000fe200
0x00097202 0x0000000b 0x00000f00 0x000fe200
0xff147224 0x000000ff 0x078e000f 0x000fe200
0x00027202 0x00000010 0x00000f00 0x000fe200
0xff037224 0x000000ff 0x078e0011 0x000fe400
0xff057224 0x000000ff 0x078e0006 0x000fe400
0xff087224 0x000000ff 0x078e000a 0x000fc400
0xff047224 0x000000ff 0x078e0007 0x000fe200
0x0e00220c 0x00000017 0x03f21070 0x0c0fe200
0xff082224 0x000000ff 0x078e000a 0x000fe200
0x0e00220c 0x00000017 0x03f06070 0x0c0fe200
0xff092224 0x000000ff 0x078e000b 0x000fe200
0x0f00220c 0x0000001c 0x03f21310 0x0c0fe200
0xff042224 0x000000ff 0x078e0007 0x000fe200
0x0f00220c 0x0000001c 0x03f06300 0x0c0fe400
0x0e132207 0x00000017 0x00800000 0x000fe400
0x0f142207 0x0000001c 0x00800000 0x000fc400
0x11032208 0x0000001a 0x04000000 0x000fe400
0x10022208 0x00000015 0x04000000 0x000fe400
0x00052202 0x00000006 0x00000f00 0x000fc600
0x00017941 0x00000000 0x03800000 0x01cfea00
0x1200780c 0x0000001d 0x03f04270 0x000fe200
0x01ff7355 0x00000000 0x00100000 0x000fe200
0x040f7f89 0x08401f00 0x000e0000 0x0010a200
0x00017945 0x000004a0 0x03800000 0x000fe200
0xff067224 0x000000ff 0x078e0002 0x000fe200
0x00117202 0x00000014 0x00000f00 0x000fe200
0x050e7f89 0x08401f00 0x000e0000 0x0000e200
0xff077224 0x000000ff 0x078e0003 0x000fc400
0xff107224 0x000000ff 0x078e0013 0x002fe200
0x08157f89 0x08401f00 0x000e0000 0x00006800
0x09167f89 0x08401f00 0x000e0000 0x00012800
0x02177f89 0x08401f00 0x000e0000 0x00002800
0x03187f89 0x08401f00 0x000e0000 0x00002800
0x131a7f89 0x08401f00 0x000e0000 0x00002800
0x14197f89 0x08401f00 0x000e0000 0x00002200
0x00000947 0x000003d0 0x03800000 0x000fea00
0x05077220 0x00000005 0x00400000 0x00cfe200
0x02ff7355 0x00000000 0x00100000 0x000fe200
0x0e067220 0x0000000e 0x00400000 0x000fe200
0x00027945 0x000001a0 0x03800000 0x000fe200
0x04107223 0x00000004 0x00000007 0x080fe200
0x000b7202 0x00000004 0x00000f00 0x000fe200
0x0f117223 0x0000000f 0x00000006 0x000fc400
0x03077220 0x00000003 0x00400000 0x000fe400
0x18067220 0x00000018 0x00400000 0x001fe200
0x1000720b 0x00000011 0x03f0e000 0x000fe200
0xff0c7224 0x000000ff 0x078e0008 0x000fe400
0xff0d7224 0x000000ff 0x078e0009 0x000fe400
0x021b7223 0x00000002 0x00000007 0x000fe400
0x171c7223 0x00000017 0x00000006 0x000fc400
0xff0a7224 0x000000ff 0x078e0005 0x000fc600
0x00008947 0x000000d0 0x03800000 0x000fea00
0x1100720b 0x00000010 0x03f4e000 0x000fe200
0xff0c7224 0x000000ff 0x078e0015 0x002fe200
0x000b7202 0x0000000f 0x00000f00 0x000fe200
0xff0d7224 0x000000ff 0x078e0016 0x010fe400
0xff0a7224 0x000000ff 0x078e000e 0x000fce00
0x0800220c 0x00000015 0x03f21070 0x0c0fe400
0x0800220c 0x00000015 0x03f06070 0x0c0fe400
0x0900220c 0x00000016 0x03f21310 0x0c0fe400
0x0900220c 0x00000016 0x03f06300 0x0c0fe400
0x080c2207 0x00000015 0x00800000 0x000fe400
0x090d2207 0x00000016 0x00800000 0x000fc400
0x050a2208 0x0000000e 0x04000000 0x000fe400
0x040b2208 0x0000000f 0x04000000 0x000fc600
0x00027941 0x00000000 0x03800000 0x000fea00
0x1b00720b 0x0000001c 0x03f0e000 0x000fe200
0xff067224 0x000000ff 0x078e0017 0x000fe200
0x00117202 0x00000019 0x00000f00 0x000fe200
0xff077224 0x000000ff 0x078e0018 0x000fe200
0x00057202 0x0000000a 0x00000f00 0x000fe200
0xff107224 0x000000ff 0x078e001a 0x000fe400
0xff087224 0x000000ff 0x078e000c 0x000fe400
0xff097224 0x000000ff 0x078e000d 0x000fc400
0xff047224 0x000000ff 0x078e000b 0x000fe200
0x00008947 0x00000150 0x03800000 0x000fea00
0x1c00720b 0x0000001b 0x03f4e000 0x000fe200
0xff107224 0x000000ff 0x078e0013 0x000fe200
0x00097202 0x0000000d 0x00000f00 0x000fe200
0xff117224 0x000000ff 0x078e0014 0x000fe200
0x00067202 0x00000002 0x00000f00 0x000fe200
0xff077224 0x000000ff 0x078e0003 0x000fe400
0xff057224 0x000000ff 0x078e000a 0x000fe400
0xff087224 0x000000ff 0x078e000c 0x000fc400
0xff047224 0x000000ff 0x078e000b 0x000fe200
0x1300220c 0x0000001a 0x03f21070 0x0c0fe200
0xff082224 0x000000ff 0x078e000c 0x000fe200
0x1300220c 0x0000001a 0x03f06070 0x0c0fe200
0xff092224 0x000000ff 0x078e000d 0x000fe200
0x1400220c 0x00000019 0x03f21310 0x0c0fe200
0xff042224 0x000000ff 0x078e000b 0x000fe200
0x1400220c 0x00000019 0x03f06300 0x0c0fe400
0x13102207 0x0000001a 0x00800000 0x000fe400
0x14112207 0x00000019 0x00800000 0x000fc400
0x03072208 0x00000018 0x04000000 0x000fe400
0x02062208 0x00000017 0x04000000 0x000fe400
0x00052202 0x0000000a 0x00000f00 0x000fc600
0x00017941 0x00000000 0x03800000 0x00cfea00
0x1200780c 0x0000001b 0x03f04270 0x000fe200
0x01ff7355 0x00000000 0x00100000 0x000fe200
0x04137f89 0x08801f00 0x000e0000 0x0010a200
0x00017945 0x000004a0 0x03800000 0x000fe200
0xff027224 0x000000ff 0x078e0006 0x000fe200
0x000f7202 0x00000011 0x00000f00 0x000fe200
0x05147f89 0x08801f00 0x000e0000 0x0000e200
0xff037224 0x000000ff 0x078e0007 0x000fc400
0xff0e7224 0x000000ff 0x078e0010 0x000fe200
0x08157f89 0x08801f00 0x000e0000 0x00206800
0x09167f89 0x08801f00 0x000e0000 0x01012800
0x06177f89 0x08801f00 0x000e0000 0x00002800
0x07187f89 0x08801f00 0x000e0000 0x00002800
0x10197f89 0x08801f00 0x000e0000 0x00002800
0x111a7f89 0x08801f00 0x000e0000 0x00002200
0x00000947 0x000003d0 0x03800000 0x000fea00
0x05037220 0x00000005 0x00400000 0x00cfe200
0x02ff7355 0x00000000 0x00100000 0x000fe200
0x14027220 0x00000014 0x00400000 0x000fe200
0x00027945 0x000001a0 0x03800000 0x000fe200
0x040f7223 0x00000004 0x00000003 0x080fe200
0x000b7202 0x00000004 0x00000f00 0x000fe200
0x130e7223 0x00000013 0x00000002 0x000fc400
0x07037220 0x00000007 0x00400000 0x000fe400
0x18027220 0x00000018 0x00400000 0x001fe200
0x0f00720b 0x0000000e 0x03f0e000 0x000fe200
0xff0c7224 0x000000ff 0x078e0008 0x000fe400
0xff0d7224 0x000000ff 0x078e0009 0x000fe400
0x061b7223 0x00000006 0x00000003 0x000fe400
0x171c7223 0x00000017 0x00000002 0x000fc400
0xff0a7224 0x000000ff 0x078e0005 0x000fc600
0x00008947 0x000000d0 0x03800000 0x000fea00
0x0e00720b 0x0000000f 0x03f4e000 0x000fe200
0xff0c7224 0x000000ff 0x078e0015 0x002fe200
0x000b7202 0x00000013 0x00000f00 0x000fe200
0xff0d7224 0x000000ff 0x078e0016 0x010fe400
0xff0a7224 0x000000ff 0x078e0014 0x000fce00
0x0800220c 0x00000015 0x03f21070 0x0c0fe400
0x0800220c 0x00000015 0x03f06070 0x0c0fe400
0x0900220c 0x00000016 0x03f21310 0x0c0fe400
0x0900220c 0x00000016 0x03f06300 0x0c0fe400
0x080c2207 0x00000015 0x00800000 0x000fe400
0x090d2207 0x00000016 0x00800000 0x000fc400
0x050a2208 0x00000014 0x04000000 0x000fe400
0x040b2208 0x00000013 0x04000000 0x000fc600
0x00027941 0x00000000 0x03800000 0x000fea00
0x1b00720b 0x0000001c 0x03f0e000 0x000fe200
0xff027224 0x000000ff 0x078e0017 0x000fe200
0x000f7202 0x0000001a 0x00000f00 0x000fe200
0xff037224 0x000000ff 0x078e0018 0x000fe200
0x00057202 0x0000000a 0x00000f00 0x000fe200
0xff0e7224 0x000000ff 0x078e0019 0x000fe400
0xff087224 0x000000ff 0x078e000c 0x000fe400
0xff097224 0x000000ff 0x078e000d 0x000fc400
0xff047224 0x000000ff 0x078e000b 0x000fe200
0x00008947 0x00000150 0x03800000 0x000fea00
0x1c00720b 0x0000001b 0x03f4e000 0x000fe200
0xff0e7224 0x000000ff 0x078e0010 0x000fe200
0x00097202 0x0000000d 0x00000f00 0x000fe200
0xff0f7224 0x000000ff 0x078e0011 0x000fe200
0x00027202 0x00000006 0x00000f00 0x000fe200
0xff037224 0x000000ff 0x078e0007 0x000fe400
0xff057224 0x000000ff 0x078e000a 0x000fe400
0xff087224 0x000000ff 0x078e000c 0x000fc400
0xff047224 0x000000ff 0x078e000b 0x000fe200
0x1000220c 0x00000019 0x03f21070 0x0c0fe200
0xff082224 0x000000ff 0x078e000c 0x000fe200
0x1000220c 0x00000019 0x03f06070 0x0c0fe200
0xff092224 0x000000ff 0x078e000d 0x000fe200
0x1100220c 0x0000001a 0x03f21310 0x0c0fe200
0xff042224 0x000000ff 0x078e000b 0x000fe200
0x1100220c 0x0000001a 0x03f06300 0x0c0fe400
0x100e2207 0x00000019 0x00800000 0x000fe400
0x110f2207 0x0000001a 0x00800000 0x000fc400
0x07032208 0x00000018 0x04000000 0x000fe400
0x06022208 0x00000017 0x04000000 0x000fe400
0x00052202 0x0000000a 0x00000f00 0x000fc600
0x00017941 0x00000000 0x03800000 0x00cfea00
0x1200780c 0x00000017 0x03f04270 0x000fe200
0x01ff7355 0x00000000 0x00100000 0x000fe200
0x04137f89 0x09001f00 0x000e0000 0x0004e200
0x00017945 0x000004a0 0x03800000 0x000fe200
0xff0a7224 0x000000ff 0x078e0002 0x000fe200
0x00117202 0x0000000f 0x00000f00 0x001fe200
0x05147f89 0x09001f00 0x000e0000 0x00042200
0xff0b7224 0x000000ff 0x078e0003 0x000fc400
0xff107224 0x000000ff 0x078e000e 0x000fe200
0x08157f89 0x09001f00 0x000e0000 0x00246800
0x09167f89 0x09001f00 0x000e0000 0x01052800
0x02177f89 0x09001f00 0x000e0000 0x00042800
0x03187f89 0x09001f00 0x000e0000 0x00042800
0x0e197f89 0x09001f00 0x000e0000 0x00042800
0x0f1a7f89 0x09001f00 0x000e0000 0x00042200
0x00000947 0x000003d0 0x03800000 0x000fea00
0x05077220 0x00000005 0x00400000 0x008fe200
0x02ff7355 0x00000000 0x00100000 0x000fe200
0x14067220 0x00000014 0x00400000 0x001fe200
0x00027945 0x000001a0 0x03800000 0x000fe200
0x040b7223 0x00000004 0x00000007 0x000fc400
0x130a7223 0x00000013 0x00000006 0x000fe400
0x03077220 0x00000003 0x00400000 0x000fe400
0x18067220 0x00000018 0x00400000 0x000fe200
0x0b00720b 0x0000000a 0x03f0e000 0x000fe200
0x021b7223 0x00000002 0x00000007 0x000fe200
0x00077202 0x00000004 0x00000f00 0x000fe200
0x171c7223 0x00000017 0x00000006 0x000fe400
0xff0c7224 0x000000ff 0x078e0008 0x000fc400
0xff0d7224 0x000000ff 0x078e0009 0x000fe400
0xff067224 0x000000ff 0x078e0005 0x000fc600
0x00008947 0x000000d0 0x03800000 0x000fea00
0x0a00720b 0x0000000b 0x03f4e000 0x000fe200
0xff0c7224 0x000000ff 0x078e0015 0x002fe200
0x00077202 0x00000013 0x00000f00 0x000fe200
0xff0d7224 0x000000ff 0x078e0016 0x010fe400
0xff067224 0x000000ff 0x078e0014 0x000fce00
0x0800220c 0x00000015 0x03f21070 0x0c0fe400
0x0800220c 0x00000015 0x03f06070 0x0c0fe400
0x0900220c 0x00000016 0x03f21310 0x0c0fe400
0x0900220c 0x00000016 0x03f06300 0x0c0fe400
0x080c2207 0x00000015 0x00800000 0x000fe400
0x090d2207 0x00000016 0x00800000 0x000fc400
0x05062208 0x00000014 0x04000000 0x000fe400
0x04072208 0x00000013 0x04000000 0x000fc600
0x00027941 0x00000000 0x03800000 0x000fea00
0x1b00720b 0x0000001c 0x03f0e000 0x000fe200
0xff0a7224 0x000000ff 0x078e0017 0x000fe200
0x00117202 0x0000001a 0x00000f00 0x000fe200
0xff0b7224 0x000000ff 0x078e0018 0x000fe200
0x00057202 0x00000006 0x00000f00 0x004fe200
0xff107224 0x000000ff 0x078e0019 0x000fe400
0xff087224 0x000000ff 0x078e000c 0x000fe400
0xff097224 0x000000ff 0x078e000d 0x000fc400
0xff047224 0x000000ff 0x078e0007 0x000fe200
0x00008947 0x00000150 0x03800000 0x000fea00
0x1c00720b 0x0000001b 0x03f4e000 0x000fe200
0xff107224 0x000000ff 0x078e000e 0x000fe200
0x00097202 0x0000000d 0x00000f00 0x000fe200
0xff117224 0x000000ff 0x078e000f 0x000fe200
0x000a7202 0x00000002 0x00000f00 0x000fe200
0xff0b7224 0x000000ff 0x078e0003 0x000fe400
0xff057224 0x000000ff 0x078e0006 0x000fe400
0xff087224 0x000000ff 0x078e000c 0x000fc400
0xff047224 0x000000ff 0x078e0007 0x000fe200
0x0e00220c 0x00000019 0x03f21070 0x0c0fe200
0xff082224 0x000000ff 0x078e000c 0x000fe200
0x0e00220c 0x00000019 0x03f06070 0x0c0fe200
0xff092224 0x000000ff 0x078e000d 0x000fe200
0x0f00220c 0x0000001a 0x03f21310 0x0c0fe200
0xff042224 0x000000ff 0x078e0007 0x000fe200
0x0f00220c 0x0000001a 0x03f06300 0x0c0fe400
0x0e102207 0x00000019 0x00800000 0x000fe400
0x0f112207 0x0000001a 0x00800000 0x000fc400
0x030b2208 0x00000018 0x04000000 0x000fe400
0x020a2208 0x00000017 0x04000000 0x000fe400
0x00052202 0x00000006 0x00000f00 0x000fc600
0x00017941 0x00000000 0x03800000 0x008fea00
0x1200780c 0x0000000f 0x03f04270 0x000fe200
0x01ff7355 0x00000000 0x00100000 0x000fe200
0x04137f89 0x0a001f00 0x000e0000 0x0006a200
0x00017945 0x000004a0 0x03800000 0x000fe200
0xff067224 0x000000ff 0x078e0010 0x000fe200
0x00037202 0x0000000b 0x00000f00 0x004fe200
0x05147f89 0x0a001f00 0x000e0000 0x00162200
0xff077224 0x000000ff 0x078e0011 0x000fc400
0xff027224 0x000000ff 0x078e000a 0x000fe200
0x08157f89 0x0a001f00 0x000e0000 0x00266800
0x09167f89 0x0a001f00 0x000e0000 0x0106a800
0x0a177f89 0x0a001f00 0x000e0000 0x00072800
0x0b187f89 0x0a001f00 0x000e0000 0x00062800
0x10197f89 0x0a001f00 0x000e0000 0x00062800
0x111a7f89 0x0a001f00 0x000e0000 0x00062200
0x00000947 0x000003d0 0x03800000 0x000fea00
0x05037220 0x00000005 0x00400000 0x000fe200
0x02ff7355 0x00000000 0x00100000 0x000fe200
0x14027220 0x00000014 0x00400000 0x001fe200
0x00027945 0x000001a0 0x03800000 0x000fe200
0x04077223 0x00000004 0x00000003 0x080fe200
0x000d7202 0x00000004 0x00000f00 0x000fe200
0x13067223 0x00000013 0x00000002 0x000fc400
0x0b037220 0x0000000b 0x00400000 0x000fe400
0x18027220 0x00000018 0x00400000 0x000fe200
0x0700720b 0x00000006 0x03f0e000 0x000fe200
0xff0e7224 0x000000ff 0x078e0008 0x000fe400
0xff0f7224 0x000000ff 0x078e0009 0x000fe400
0x0a1b7223 0x0000000a 0x00000003 0x000fe400
0x171c7223 0x00000017 0x00000002 0x010fc400
0xff0c7224 0x000000ff 0x078e0005 0x000fc600
0x00008947 0x000000d0 0x03800000 0x000fea00
0x0600720b 0x00000007 0x03f4e000 0x000fe200
0xff0e7224 0x000000ff 0x078e0015 0x002fe200
0x000d7202 0x00000013 0x00000f00 0x000fe200
0xff0f7224 0x000000ff 0x078e0016 0x004fe400
0xff0c7224 0x000000ff 0x078e0014 0x000fce00
0x0800220c 0x00000015 0x03f21070 0x0c0fe400
0x0800220c 0x00000015 0x03f06070 0x0c0fe400
0x0900220c 0x00000016 0x03f21310 0x0c0fe400
0x0900220c 0x00000016 0x03f06300 0x0c0fe400
0x080e2207 0x00000015 0x00800000 0x000fe400
0x090f2207 0x00000016 0x00800000 0x000fc400
0x050c2208 0x00000014 0x04000000 0x000fe400
0x040d2208 0x00000013 0x04000000 0x000fc600
0x00027941 0x00000000 0x03800000 0x000fea00
0x1b00720b 0x0000001c 0x03f0e000 0x000fe200
0xff067224 0x000000ff 0x078e0019 0x000fe200
0x00037202 0x00000018 0x00000f00 0x000fe200
0xff077224 0x000000ff 0x078e001a 0x000fe200
0x00057202 0x0000000c 0x00000f00 0x008fe200
0xff027224 0x000000ff 0x078e0017 0x000fe400
0xff087224 0x000000ff 0x078e000e 0x000fe400
0xff097224 0x000000ff 0x078e000f 0x000fc400
0xff047224 0x000000ff 0x078e000d 0x000fe200
0x00008947 0x00000150 0x03800000 0x000fea00
0x1c00720b 0x0000001b 0x03f4e000 0x000fe200
0xff067224 0x000000ff 0x078e0010 0x000fe200
0x00097202 0x0000000f 0x00000f00 0x000fe200
0xff077224 0x000000ff 0x078e0011 0x000fe200
0x00057202 0x0000000c 0x00000f00 0x000fe200
0xff037224 0x000000ff 0x078e000b 0x000fe400
0xff027224 0x000000ff 0x078e000a 0x000fe400
0xff087224 0x000000ff 0x078e000e 0x000fc400
0xff047224 0x000000ff 0x078e000d 0x000fe200
0x1000220c 0x00000019 0x03f21070 0x0c0fe200
0xff082224 0x000000ff 0x078e000e 0x000fe200
0x1000220c 0x00000019 0x03f06070 0x0c0fe200
0xff092224 0x000000ff 0x078e000f 0x000fe200
0x1100220c 0x0000001a 0x03f21310 0x0c0fe200
0xff042224 0x000000ff 0x078e000d 0x000fe200
0x1100220c 0x0000001a 0x03f06300 0x0c0fe400
0x10062207 0x00000019 0x00800000 0x000fe400
0x11072207 0x0000001a 0x00800000 0x000fc400
0x00052202 0x0000000c 0x00000f00 0x000fe400
0x0b032208 0x00000018 0x04000000 0x000fe400
0x0a022208 0x00000017 0x04000000 0x000fc600
0x00017941 0x00000000 0x03800000 0x000fea00
0x1200720c 0x000000ff 0x03f05270 0x000fe200
0x01ff7355 0x00000000 0x00100000 0x000fe200
0x00017945 0x00000090 0x03800000 0x000ff400
0x00000947 0x00000070 0x03800000 0x000fea00
0xff0b7819 0x0000001f 0x00011400 0x008fc800
0x0b0b7211 0x00000000 0x078f28ff 0x000fc800
0x0b0b7812 0xffffffe0 0x078ec0ff 0x000fd000
0x0b007388 0x00001008 0x00000a00 0x0007e800
0x0b007388 0x00002006 0x00000a00 0x0007e800
0x0b007388 0x00000804 0x00000a00 0x0007e800
0x0b007388 0x00001802 0x00000a00 0x0007e400
0x00017941 0x00000000 0x03800000 0x000fea00
0x00007b1d 0x00000000 0x00000000 0x000fea00
0x0000720c 0x000000ff 0x03f45270 0x000fd800
0x00002947 0x00008f50 0x03800000 0x000fea00
0xff327984 0x00002800 0x00001a00 0x000f6200
0x05377220 0x00000005 0x00400000 0x000fe200
0x01ff7355 0x00000000 0x00100000 0x000fe200
0x00017945 0x000002a0 0x03800000 0x000fe200
0xff307984 0x00004000 0x00001a00 0x000ee200
0x04397223 0x00000004 0x00000037 0x080fe200
0x00377202 0x00000004 0x00000f00 0x000fe200
0xff347224 0x000000ff 0x078e0008 0x000fe200
0xff2e7984 0x00003800 0x00001a00 0x000f2200
0xff007224 0x000000ff 0x078e0005 0x000fc600
0xff2c7984 0x00004800 0x00001a00 0x000ea800
0xff2a7984 0x00005800 0x00001a00 0x000e6800
0xff287984 0x00006000 0x00001a00 0x000e2800
0xff267984 0x00006800 0x00001a00 0x000e2800
0xff247984 0x00007800 0x00001a00 0x000e2800
0xff227984 0x00008000 0x00001a00 0x000e2800
0xff207984 0x00008800 0x00001a00 0x000e2800
0xff1e7984 0x00009800 0x00001a00 0x000e2200
0x33357220 0x00000033 0x00400000 0x020fc600
0xff1c7984 0x0000a000 0x00001a00 0x000e2200
0x32367223 0x00000032 0x00000035 0x000fe400
0xff357224 0x000000ff 0x078e0009 0x000fe200
0xff1a7984 0x0000a800 0x00001a00 0x001e2400
0x3900720b 0x00000036 0x03f0e000 0x000fe400
0xff187984 0x0000b800 0x00001a00 0x000e2800
0xff167984 0x0000c000 0x00001a00 0x014ea800
0xff147984 0x0000c800 0x00001a00 0x002e6800
0xff127984 0x0000d800 0x00001a00 0x000f2800
0xff107984 0x0000e000 0x00001a00 0x008ee800
0xff0e7984 0x0000e800 0x00001a00 0x000e2800
0xff0c7984 0x0000f800 0x00001a00 0x000e2800
0xff0a7984 0x00010000 0x00001a00 0x000e2200
0x00008947 0x000000c0 0x03800000 0x000fea00
0xff347984 0x00003000 0x00001a00 0x000f6200
0x3600720b 0x00000039 0x03f6e000 0x000fe200
0xff007224 0x000000ff 0x078e0033 0x000fc400
0xff377224 0x000000ff 0x078e0032 0x000fd200
0x0800320c 0x00000034 0x03f06070 0x0e0fe400
0x0800320c 0x00000034 0x03f21070 0x0c0fe400
0x0900320c 0x00000035 0x03f06300 0x0c0fe400
0x0900320c 0x00000035 0x03f21310 0x000fe400
0x05003208 0x00000033 0x04000000 0x000fe400
0x08343207 0x00000034 0x00800000 0x000fc400
0x09353207 0x00000035 0x00800000 0x000fe400
0x04373208 0x00000032 0x04000000 0x000fc600
0x00017941 0x00000000 0x03800000 0x000fea00
0x03057220 0x00000003 0x00400000 0x000fe200
0x01ff7355 0x00000000 0x00100000 0x000fe200
0x2f097220 0x0000002f 0x00400000 0x000fe200
0x00017945 0x00000170 0x03800000 0x000fe200
0x02337223 0x00000002 0x00000005 0x000fe400
0x2e327223 0x0000002e 0x00000009 0x080fe200
0x00097202 0x0000002e 0x00000f00 0x000fe200
0xff087224 0x000000ff 0x078e002f 0x000fc400
0xff047224 0x000000ff 0x078e0030 0x000fe200
0x3300720b 0x00000032 0x03f0e000 0x000fe200
0xff057224 0x000000ff 0x078e0031 0x000fd600
0x00008947 0x000000e0 0x03800000 0x000fea00
0x3200720b 0x00000033 0x03f0e000 0x000fe200
0xff087224 0x000000ff 0x078e0003 0x000fe200
0x00097202 0x00000002 0x00000f00 0x000fe200
0xff047224 0x000000ff 0x078e0006 0x000fe400
0xff057224 0x000000ff 0x078e0007 0x000fce00
0x00008947 0x00000080 0x03800000 0x000fea00
0x0600720c 0x00000030 0x03f21070 0x0c0fe400
0x0600720c 0x00000030 0x03f06070 0x0c0fe400
0x0700720c 0x00000031 0x03f21310 0x0c0fe400
0x0700720c 0x00000031 0x03f06300 0x0c0fe400
0x06047207 0x00000030 0x00800000 0x000fe400
0x07057207 0x00000031 0x00800000 0x000fc400
0x03087208 0x0000002f 0x04000000 0x000fe400
0x02097208 0x0000002e 0x04000000 0x000fc600
0x00017941 0x00000000 0x03800000 0x000fea00
0x2d077220 0x0000002d 0x00400000 0x000fe200
0x01ff7355 0x00000000 0x00100000 0x000fe200
0x37037220 0x00000037 0x00400000 0x000fe200
0x00017945 0x00000150 0x03800000 0x000fe200
0x2c2e7223 0x0000002c 0x00000007 0x000fe400
0x002f7223 0x00000000 0x00000003 0x000fe200
0x00037202 0x00000035 0x00000f00 0x000fe200
0xff027224 0x000000ff 0x078e0034 0x000fc400
0xff067224 0x000000ff 0x078e0000 0x000fe200
0x2f00720b 0x0000002e 0x03f0e000 0x000fe200
0xff077224 0x000000ff 0x078e0037 0x000fd600
0x00008947 0x000000c0 0x03800000 0x000fea00
0xff027984 0x00005000 0x00001a00 0x000f6200
0x2e00720b 0x0000002f 0x03f6e000 0x000fe200
0xff067224 0x000000ff 0x078e002d 0x000fe200
0x00077202 0x0000002c 0x00000f00 0x000fd400
0x3400320c 0x00000002 0x03f06070 0x0e0fe400
0x3400320c 0x00000002 0x03f21070 0x080fe400
0x3500320c 0x00000003 0x03f06300 0x0c0fe400
0x3500320c 0x00000003 0x03f21310 0x000fe400
0x00063208 0x0000002d 0x04000000 0x000fe400
0x34023207 0x00000002 0x00800000 0x000fc400
0x35033207 0x00000003 0x00800000 0x000fe400
0x37073208 0x0000002c 0x04000000 0x000fc600
0x00017941 0x00000000 0x03800000 0x000fea00
0x2b2f7220 0x0000002b 0x00400000 0x000fe200
0x01ff7355 0x00000000 0x00100000 0x000fe200
0x092d7220 0x00000009 0x00400000 0x000fe200
0x00017945 0x00000160 0x03800000 0x000fe200
0x2a2e7223 0x0000002a 0x0000002f 0x000fe200
0x002c7202 0x00000029 0x00000f00 0x000fe200
0x08317223 0x00000008 0x0000002d 0x000fe400
0xff007224 0x000000ff 0x078e002b 0x000fc400
0xff2d7224 0x000000ff 0x078e002a 0x000fe200
0x3100720b 0x0000002e 0x03f0e000 0x000fe200
0xff2f7224 0x000000ff 0x078e0028 0x000fd600
0x00008947 0x000000d0 0x03800000 0x000fea00
0x2e00720b 0x00000031 0x03f6e000 0x000fe200
0xff2f7224 0x000000ff 0x078e0004 0x000fe200
0x002d7202 0x00000009 0x00000f00 0x000fe200
0xff2c7224 0x000000ff 0x078e0005 0x000fe400
0xff007224 0x000000ff 0x078e0008 0x000fce00
0x0400320c 0x00000028 0x03f21070 0x0c0fe400
0x0400320c 0x00000028 0x03f06070 0x0c0fe400
0x0500320c 0x00000029 0x03f21310 0x0c0fe400
0x0500320c 0x00000029 0x03f06300 0x0c0fe400
0x042f3207 0x00000028 0x00800000 0x000fe400
0x052c3207 0x00000029 0x00800000 0x000fc400
0x08003208 0x0000002b 0x04000000 0x000fe400
0x092d3208 0x0000002a 0x04000000 0x000fc600
0x00017941 0x00000000 0x03800000 0x000fea00
0x27097220 0x00000027 0x00400000 0x000fe200
0x01ff7355 0x00000000 0x00100000 0x000fe200
0x07057220 0x00000007 0x00400000 0x080fe200
0x00017945 0x00000150 0x03800000 0x000fe200
0x26287223 0x00000026 0x00000009 0x000fe400
0x06297223 0x00000006 0x00000005 0x000fe200
0x00057202 0x00000007 0x00000f00 0x000fe200
0xff087224 0x000000ff 0x078e0002 0x000fc400
0xff097224 0x000000ff 0x078e0003 0x000fe200
0x2900720b 0x00000028 0x03f0e000 0x000fe200
0xff047224 0x000000ff 0x078e0006 0x000fd600
0x00008947 0x000000c0 0x03800000 0x000fea00
0xff087984 0x00007000 0x00001a00 0x000f6200
0x2800720b 0x00000029 0x03f6e000 0x000fe200
0xff047224 0x000000ff 0x078e0027 0x000fe400
0xff057224 0x000000ff 0x078e0026 0x000fd200
0x0200320c 0x00000008 0x03f06070 0x0e0fe400
0x0200320c 0x00000008 0x03f21070 0x080fe400
0x0300320c 0x00000009 0x03f06300 0x0c0fe400
0x0300320c 0x00000009 0x03f21310 0x000fe400
0x06043208 0x00000027 0x04000000 0x000fe400
0x02083207 0x00000008 0x00800000 0x000fc400
0x03093207 0x00000009 0x00800000 0x000fe400
0x07053208 0x00000026 0x04000000 0x000fc600
0x00017941 0x00000000 0x03800000 0x000fea00
0x25077220 0x00000025 0x00400000 0x000fe200
0x01ff7355 0x00000000 0x00100000 0x000fe200
0x2d037220 0x0000002d 0x00400000 0x000fe200
0x00017945 0x00000160 0x03800000 0x000fe200
0x24077223 0x00000024 0x00000007 0x000fe400
0x00067223 0x00000000 0x00000003 0x000fe200
0x00037202 0x00000024 0x00000f00 0x000fe200
0xff027224 0x000000ff 0x078e0025 0x000fc400
0xff277224 0x000000ff 0x078e0022 0x000fe200
0x0600720b 0x00000007 0x03f0e000 0x000fe200
0xff267224 0x000000ff 0x078e0023 0x000fd600
0x00008947 0x000000d0 0x03800000 0x000fea00
0x0700720b 0x00000006 0x03f6e000 0x000fe200
0xff277224 0x000000ff 0x078e002f 0x000fe200
0x00267202 0x0000002c 0x00000f00 0x000fe200
0xff027224 0x000000ff 0x078e0000 0x000fe400
0xff037224 0x000000ff 0x078e002d 0x000fce00
0x2f00320c 0x00000022 0x03f21070 0x0c0fe400
0x2f00320c 0x00000022 0x03f06070 0x0c0fe400
0x2c00320c 0x00000023 0x03f21310 0x0c0fe400
0x2c00320c 0x00000023 0x03f06300 0x0c0fe400
0x2f273207 0x00000022 0x00800000 0x000fe400
0x2c263207 0x00000023 0x00800000 0x000fc400
0x00023208 0x00000025 0x04000000 0x000fe400
0x2d033208 0x00000024 0x04000000 0x000fc600
0x00017941 0x00000000 0x03800000 0x000fea00
0x21237220 0x00000021 0x00400000 0x000fe200
0x01ff7355 0x00000000 0x00100000 0x000fe200
0x05077220 0x00000005 0x00400000 0x000fe200
0x00017945 0x00000170 0x03800000 0x000fe200
0x20237223 0x00000020 0x00000023 0x000fe200
0x00247202 0x00000009 0x00000f00 0x000fe200
0x04067223 0x00000004 0x00000007 0x000fe400
0xff227224 0x000000ff 0x078e0008 0x000fc400
0xff007224 0x000000ff 0x078e0004 0x000fe200
0x0600720b 0x00000023 0x03f0e000 0x000fe200
0xff077224 0x000000ff 0x078e0005 0x000fd600
0x00008947 0x000000e0 0x03800000 0x000fea00
0xff287984 0x00009000 0x00001a00 0x000f6200
0x2300720b 0x00000006 0x03f6e000 0x000fe200
0xff007224 0x000000ff 0x078e0021 0x000fe400
0xff077224 0x000000ff 0x078e0020 0x000fd200
0x0800320c 0x00000028 0x03f06070 0x0e0fe200
0xff247224 0x000000ff 0x078e0029 0x000fe200
0x0800320c 0x00000028 0x03f21070 0x080fe400
0x00227202 0x00000028 0x00000f00 0x000fe400
0x0900320c 0x00000029 0x03f06300 0x0c0fe400
0x0900320c 0x00000029 0x03f21310 0x000fe400
0x04003208 0x00000021 0x04000000 0x000fc400
0x08223207 0x00000028 0x00800000 0x000fe400
0x09243207 0x00000029 0x00800000 0x000fe400
0x05073208 0x00000020 0x04000000 0x000fc600
0x00017941 0x00000000 0x03800000 0x000fea00
0x1f097220 0x0000001f 0x00400000 0x000fe200
0x01ff7355 0x00000000 0x00100000 0x000fe200
0x03057220 0x00000003 0x00400000 0x000fe200
0x00017945 0x00000160 0x03800000 0x000fe200
0x1e097223 0x0000001e 0x00000009 0x000fe400
0x02087223 0x00000002 0x00000005 0x000fe200
0x00057202 0x0000001e 0x00000f00 0x000fe200
0xff047224 0x000000ff 0x078e001f 0x000fc400
0xff217224 0x000000ff 0x078e001c 0x000fe200
0x0800720b 0x00000009 0x03f0e000 0x000fe200
0xff067224 0x000000ff 0x078e001d 0x000fd600
0x00008947 0x000000d0 0x03800000 0x000fea00
0x0900720b 0x00000008 0x03f6e000 0x000fe200
0xff217224 0x000000ff 0x078e0027 0x000fe200
0x00067202 0x00000026 0x00000f00 0x000fe200
0xff047224 0x000000ff 0x078e0002 0x000fe400
0xff057224 0x000000ff 0x078e0003 0x000fce00
0x2700320c 0x0000001c 0x03f21070 0x0c0fe400
0x2700320c 0x0000001c 0x03f06070 0x0c0fe400
0x2600320c 0x0000001d 0x03f21310 0x0c0fe400
0x2600320c 0x0000001d 0x03f06300 0x0c0fe400
0x27213207 0x0000001c 0x00800000 0x000fe400
0x26063207 0x0000001d 0x00800000 0x000fc400
0x02043208 0x0000001f 0x04000000 0x000fe400
0x03053208 0x0000001e 0x04000000 0x000fc600
0x00017941 0x00000000 0x03800000 0x000fea00
0x1b097220 0x0000001b 0x00400000 0x001fe200
0x01ff7355 0x00000000 0x00100000 0x000fe200
0x07037220 0x00000007 0x00400000 0x000fe200
0x00017945 0x00000150 0x03800000 0x000fe200
0x1a097223 0x0000001a 0x00000009 0x000fe200
0x001d7202 0x00000024 0x00000f00 0x000fe200
0x00087223 0x00000000 0x00000003 0x000fe400
0xff1c7224 0x000000ff 0x078e0022 0x000fc400
0xff027224 0x000000ff 0x078e0000 0x000fe200
0x0800720b 0x00000009 0x03f0e000 0x000fe200
0xff037224 0x000000ff 0x078e0007 0x000fd600
0x00008947 0x000000c0 0x03800000 0x000fea00
0xff1c7984 0x0000b000 0x00001a00 0x000e2200
0x0900720b 0x00000008 0x03f6e000 0x000fe200
0xff027224 0x000000ff 0x078e001b 0x000fe200
0x00037202 0x0000001a 0x00000f00 0x000fd400
0x2200320c 0x0000001c 0x03f06070 0x0c1fe400
0x2200320c 0x0000001c 0x03f21070 0x080fe400
0x2400320c 0x0000001d 0x03f06300 0x0c0fe400
0x2400320c 0x0000001d 0x03f21310 0x000fe400
0x00023208 0x0000001b 0x04000000 0x000fe400
0x221c3207 0x0000001c 0x00800000 0x000fc400
0x241d3207 0x0000001d 0x00800000 0x000fe400
0x07033208 0x0000001a 0x04000000 0x000fc600
0x00017941 0x00000000 0x03800000 0x000fea00
0x19097220 0x00000019 0x00400000 0x000fe200
0x01ff7355 0x00000000 0x00100000 0x000fe200
0x05077220 0x00000005 0x00400000 0x000fe200
0x00017945 0x00000160 0x03800000 0x000fe200
0x18097223 0x00000018 0x00000009 0x000fe200
0x00087202 0x00000017 0x00000f00 0x004fe200
0x041a7223 0x00000004 0x00000007 0x000fe400
0xff007224 0x000000ff 0x078e0019 0x000fc400
0xff077224 0x000000ff 0x078e0018 0x000fe200
0x1a00720b 0x00000009 0x03f0e000 0x000fe200
0xff1b7224 0x000000ff 0x078e0016 0x000fd600
0x00008947 0x000000d0 0x03800000 0x000fea00
0x0900720b 0x0000001a 0x03f6e000 0x000fe200
0xff1b7224 0x000000ff 0x078e0021 0x000fe200
0x00077202 0x00000005 0x00000f00 0x000fe200
0xff087224 0x000000ff 0x078e0006 0x000fe400
0xff007224 0x000000ff 0x078e0004 0x000fce00
0x2100320c 0x00000016 0x03f21070 0x0c0fe400
0x2100320c 0x00000016 0x03f06070 0x0c0fe400
0x0600320c 0x00000017 0x03f21310 0x0c0fe400
0x0600320c 0x00000017 0x03f06300 0x0c0fe400
0x211b3207 0x00000016 0x00800000 0x000fe400
0x06083207 0x00000017 0x00800000 0x000fc400
0x04003208 0x00000019 0x04000000 0x000fe400
0x05073208 0x00000018 0x04000000 0x000fc600
0x00017941 0x00000000 0x03800000 0x000fea00
0x15097220 0x00000015 0x00400000 0x002fe200
0x01ff7355 0x00000000 0x00100000 0x000fe200
0x03057220 0x00000003 0x00400000 0x080fe200
0x00017945 0x00000160 0x03800000 0x000fe200
0x14097223 0x00000014 0x00000009 0x000fe200
0x00177202 0x00000003 0x00000f00 0x000fe200
0x02047223 0x00000002 0x00000005 0x000fe400
0xff187224 0x000000ff 0x078e001c 0x000fc400
0xff1a7224 0x000000ff 0x078e001d 0x000fe200
0x0400720b 0x00000009 0x03f0e000 0x000fe200
0xff067224 0x000000ff 0x078e0002 0x000fd600
0x00008947 0x000000d0 0x03800000 0x000fea00
0xff187984 0x0000d000 0x00001a00 0x000e2200
0x0900720b 0x00000004 0x03f6e000 0x000fe200
0xff067224 0x000000ff 0x078e0015 0x000fe400
0xff177224 0x000000ff 0x078e0014 0x000fd200
0x1c00320c 0x00000018 0x03f06070 0x0c1fe200
0xff1a7224 0x000000ff 0x078e0019 0x000fe200
0x1c00320c 0x00000018 0x03f21070 0x080fe400
0x1d00320c 0x00000019 0x03f06300 0x0c0fe400
0x1d00320c 0x00000019 0x03f21310 0x000fe400
0x02063208 0x00000015 0x04000000 0x000fe400
0x1c183207 0x00000018 0x00800000 0x000fc400
0x1d1a3207 0x00000019 0x00800000 0x000fe400
0x03173208 0x00000014 0x04000000 0x000fc600
0x00017941 0x00000000 0x03800000 0x000fea00
0x13057220 0x00000013 0x00400000 0x010fe200
0x01ff7355 0x00000000 0x00100000 0x000fe200
0x07037220 0x00000007 0x00400000 0x000fe200
0x00017945 0x00000160 0x03800000 0x000fe200
0x12057223 0x00000012 0x00000005 0x000fe200
0x00147202 0x00000013 0x00000f00 0x000fe200
0x00027223 0x00000000 0x00000003 0x000fe400
0xff157224 0x000000ff 0x078e0012 0x000fc400
0xff197224 0x000000ff 0x078e0010 0x008fe200
0x0200720b 0x00000005 0x03f0e000 0x000fe200
0xff167224 0x000000ff 0x078e0011 0x000fd600
0x00008947 0x000000d0 0x03800000 0x000fea00
0x0500720b 0x00000002 0x03f6e000 0x000fe200
0xff167224 0x000000ff 0x078e0008 0x000fe200
0x00197202 0x0000001b 0x00000f00 0x000fe200
0xff147224 0x000000ff 0x078e0000 0x000fe400
0xff157224 0x000000ff 0x078e0007 0x000fce00
0x1b00320c 0x00000010 0x03f21070 0x0c0fe400
0x1b00320c 0x00000010 0x03f06070 0x0c0fe400
0x0800320c 0x00000011 0x03f21310 0x0c0fe400
0x0800320c 0x00000011 0x03f06300 0x0c0fe400
0x1b193207 0x00000010 0x00800000 0x000fe400
0x08163207 0x00000011 0x00800000 0x000fc400
0x00143208 0x00000013 0x04000000 0x000fe400
0x07153208 0x00000012 0x04000000 0x000fc600
0x00017941 0x00000000 0x03800000 0x000fea00
0x0f057220 0x0000000f 0x00400000 0x000fe200
0x01ff7355 0x00000000 0x00100000 0x000fe200
0x17037220 0x00000017 0x00400000 0x000fe200
0x00017945 0x00000160 0x03800000 0x000fe200
0x0e007223 0x0000000e 0x00000005 0x000fe200
0x00087202 0x00000018 0x00000f00 0x000fe200
0x06037223 0x00000006 0x00000003 0x000fe400
0x0d077220 0x0000000d 0x00400000 0x000fc400
0xff097224 0x000000ff 0x078e001a 0x000fe200
0x0300720b 0x00000000 0x03f0e000 0x000fe200
0xff057224 0x000000ff 0x078e0006 0x000fe400
0xff047224 0x000000ff 0x078e0017 0x000fd200
0x00008947 0x000000c0 0x03800000 0x000fea00
0xff087984 0x0000f000 0x00001a00 0x000e2200
0x0000720b 0x00000003 0x03f6e000 0x000fe200
0xff047224 0x000000ff 0x078e000e 0x000fe200
0x00057202 0x0000000f 0x00000f00 0x000fd400
0x1800320c 0x00000008 0x03f21070 0x0c1fe400
0x1800320c 0x00000008 0x03f06070 0x080fe400
0x1a00320c 0x00000009 0x03f21310 0x0c0fe400
0x1a00320c 0x00000009 0x03f06300 0x080fe400
0x18083207 0x00000008 0x00800000 0x000fe400
0x1a093207 0x00000009 0x00800000 0x000fc400
0x06053208 0x0000000f 0x04000000 0x000fe400
0x17043208 0x0000000e 0x04000000 0x000fc600
0x00017941 0x00000000 0x03800000 0x000fea00
0x15037220 0x00000015 0x00400000 0x000fe200
0x00027202 0x0000000c 0x00000f00 0x080fe200
0x0c007223 0x0000000c 0x00000007 0x000fe400
0x140f7223 0x00000014 0x00000003 0x000fe400
0xff067224 0x000000ff 0x078e000a 0x000fe400
0xff077224 0x000000ff 0x078e000b 0x000fe200
0x0f00720b 0x00000000 0x03f0e000 0x000fe200
0xff037224 0x000000ff 0x078e000d 0x000fd600
0x00008947 0x00007870 0x03800000 0x000fea00
0x0000720b 0x0000000f 0x03f0e000 0x000fe200
0xff067224 0x000000ff 0x078e0019 0x000fe200
0x00027202 0x00000015 0x00000f00 0x000fe200
0xff077224 0x000000ff 0x078e0016 0x000fe400
0xff037224 0x000000ff 0x078e0014 0x000fce00
0x00008947 0x00007810 0x03800000 0x000fea00
0x1900720c 0x0000000a 0x03f21070 0x0c0fe400
0x1900720c 0x0000000a 0x03f06070 0x0c0fe400
0x1600720c 0x0000000b 0x03f21310 0x0c0fe400
0x1600720c 0x0000000b 0x03f06300 0x0c0fe400
0x19067207 0x0000000a 0x00800000 0x000fe400
0x16077207 0x0000000b 0x00800000 0x000fc400
0x14037208 0x0000000d 0x04000000 0x000fe400
0x15027208 0x0000000c 0x04000000 0x000fe200
0x00007947 0x00007780 0x03800000 0x000fea00
0x00007a0c 0x00005c00 0x03f06270 0x001fe200
0x000c7805 0x00000000 0x0001ff00 0x000fe200
0x000a7805 0x00000000 0x0001ff00 0x000fe200
0x00067805 0x00000000 0x0001ff00 0x000fe200
0x00027805 0x00000000 0x0001ff00 0x000fe200
0xff047224 0x000000ff 0x078e0000 0x000fce00
0xff098424 0x00000020 0x078e00ff 0x000fc800
0x00088625 0x00005800 0x078e0209 0x040fe200
0x00048810 0x00000100 0x07ffe0ff 0x000fce00
0x080c8381 0x00000000 0x001e6b00 0x00016800
0x080a8381 0x00000800 0x001e6b00 0x00016800
0x08068381 0x00001000 0x001e6b00 0x00016800
0x08028381 0x00001800 0x001e6b00 0x00016200
0x04007a0c 0x00005c00 0x03f06270 0x000fe200
0x02ff7355 0x00000000 0x00100000 0x000fe200
0x00027945 0x00000d10 0x03800000 0x000ff400
0x00000947 0x00000cf0 0x03800000 0x000fea00
0xff057212 0x00000004 0x078e33ff 0x001fe200
0x01ff7355 0x00000000 0x00100000 0x000fe200
0x00017945 0x000004d0 0x03800000 0x000fe200
0x00167202 0x0000000c 0x00000f00 0x020fe200
0xff107224 0x000000ff 0x078e0006 0x000fe200
0x05197a10 0x00005c00 0x07ffe0ff 0x000fe200
0xff057224 0x000000ff 0x078e000d 0x000fe200
0x00087202 0x0000000a 0x00000f00 0x000fe200
0xff117224 0x000000ff 0x078e0007 0x000fe200
0x19ff7812 0x00000100 0x0780c0ff 0x000fe200
0xff097224 0x000000ff 0x078e000b 0x000fc400
0xff0e7224 0x000000ff 0x078e0002 0x000fe400
0xff0f7224 0x000000ff 0x078e0003 0x000fce00
0x00000947 0x00000410 0x03800000 0x000fea00
0x000f7802 0x00000020 0x00000f00 0x000fca00
0x040e7625 0x00005800 0x078e020f 0x000fd000
0x0e107381 0x00000000 0x001e6b00 0x000ea800
0x0e127381 0x00001000 0x001e6b00 0x000ee800
0x0e147381 0x00001800 0x001e6b00 0x00016200
0x0c167220 0x0000000c 0x00400000 0x000fe200
0x03ff7355 0x00000000 0x00100000 0x000fe200
0x06187220 0x00000006 0x00400000 0x000fe200
0x00037945 0x00000190 0x03800000 0x000fe200
0x0d1a7223 0x0000000d 0x00000016 0x000fc400
0x07187223 0x00000007 0x00000018 0x000fe400
0xff167224 0x000000ff 0x078e000c 0x000fe400
0x11057220 0x00000011 0x00400000 0x004fc800
0x101b7223 0x00000010 0x00000005 0x000fe400
0x13177220 0x00000013 0x00400000 0x008fe400
0xff057224 0x000000ff 0x078e000d 0x000fe200
0x1a00720b 0x0000001b 0x03f0e000 0x000fe200
0x12177223 0x00000012 0x00000017 0x000fca00
0x1800720b 0x00000017 0x03f4e000 0x000fcc00
0x00008947 0x000000d0 0x03800000 0x000fea00
0x0e087381 0x00000800 0x001e6b00 0x00116200
0x1b00720b 0x0000001a 0x03f0e000 0x000fe200
0xff057224 0x000000ff 0x078e0011 0x000fe200
0x00167202 0x00000010 0x00000f00 0x000fd400
0x00008947 0x00000080 0x03800000 0x000fea00
0x0a00720c 0x00000008 0x03f21070 0x0e1fe400
0x0a00720c 0x00000008 0x03f06070 0x0c0fe400
0x0b00720c 0x00000009 0x03f21310 0x0c0fe400
0x0b00720c 0x00000009 0x03f06300 0x0c0fe400
0x0a087207 0x00000008 0x00800000 0x000fe400
0x0b097207 0x00000009 0x00800000 0x000fc400
0x0d057208 0x00000011 0x04000000 0x000fe400
0x0c167208 0x00000010 0x04000000 0x000fc600
0x00037941 0x00000000 0x03800000 0x001fea00
0x03ff7355 0x00000000 0x00100000 0x000fe200
0x00037945 0x00000150 0x03800000 0x000fe200
0x04047810 0x00000100 0x07ffe0ff 0x000fe200
0xff117224 0x000000ff 0x078e0013 0x000fe200
0x000f7202 0x00000015 0x00000f00 0x020fe200
0xff107224 0x000000ff 0x078e0012 0x000fe400
0xff0e7224 0x000000ff 0x078e0014 0x000fe200
0x0000a947 0x000000e0 0x03800000 0x000fea00
0x1700720b 0x00000018 0x03f0e000 0x000fe200
0xff0e7224 0x000000ff 0x078e0002 0x000fe200
0x00107202 0x00000006 0x00000f00 0x000fe200
0xff0f7224 0x000000ff 0x078e0003 0x000fc400
0xff117224 0x000000ff 0x078e0007 0x000fce00
0x00008947 0x00000080 0x03800000 0x000fea00
0x0200720c 0x00000014 0x03f21070 0x0c0fe400
0x0200720c 0x00000014 0x03f06070 0x0c0fe400
0x0300720c 0x00000015 0x03f21310 0x0c0fe400
0x0300720c 0x00000015 0x03f06300 0x0c0fe400
0x020e7207 0x00000014 0x00800000 0x000fe400
0x030f7207 0x00000015 0x00800000 0x000fc400
0x07117208 0x00000013 0x04000000 0x000fe400
0x06107208 0x00000012 0x04000000 0x000fc600
0x00037941 0x00000000 0x03800000 0x000fea00
0xff027224 0x000000ff 0x078e000e 0x000fe200
0x00067202 0x00000010 0x00000f00 0x000fe200
0xff037224 0x000000ff 0x078e000f 0x000fe200
0x000c7202 0x00000016 0x00000f00 0x000fe200
0xff077224 0x000000ff 0x078e0011 0x000fe400
0xff0a7224 0x000000ff 0x078e0008 0x000fe400
0xff0b7224 0x000000ff 0x078e0009 0x000fc400
0xff0d7224 0x000000ff 0x078e0005 0x000fc600
0x00017941 0x00000000 0x03800000 0x000fea00
0x19ff7812 0xffffff00 0x0780c0ff 0x000fd800
0x00008947 0x000007d0 0x03800000 0x000fea00
0xff0a7224 0x000000ff 0x078e0008 0x000fe200
0x00037202 0x0000000f 0x00000f00 0x000fe200
0xff0b7224 0x000000ff 0x078e0009 0x000fe200
0x00077202 0x00000011 0x00000f00 0x000fe200
0xff027224 0x000000ff 0x078e000e 0x000fe400
0xff0c7224 0x000000ff 0x078e0016 0x000fe400
0xff0d7224 0x000000ff 0x078e0005 0x000fe400
0xff067224 0x000000ff 0x078e0010 0x000fc400
0xff137424 0x00000020 0x078e00ff 0x000fc800
0x04127625 0x00005800 0x078e0213 0x000fd000
0x12147381 0x00000000 0x001e6b00 0x000ea800
0x12187381 0x00001000 0x001e6b00 0x000ee800
0x121a7381 0x00001800 0x001e6b00 0x00016800
0x12107381 0x00200000 0x001e6b00 0x00016800
0x120e7381 0x00201000 0x001e6b00 0x00016800
0x12087381 0x00201800 0x001e6b00 0x00016200
0x0c167220 0x0000000c 0x00400000 0x000fe200
0x01ff7355 0x00000000 0x00100000 0x000fe200
0x061c7220 0x00000006 0x00400000 0x000fe200
0x00017945 0x000001c0 0x03800000 0x000fe200
0x0d1e7223 0x0000000d 0x00000016 0x000fc400
0x071c7223 0x00000007 0x0000001c 0x000fe400
0xff237224 0x000000ff 0x078e000a 0x000fe400
0xff257224 0x000000ff 0x078e000b 0x000fe400
0xff1d7224 0x000000ff 0x078e000c 0x000fe400
0x15057220 0x00000015 0x00400000 0x004fc800
0x141f7223 0x00000014 0x00000005 0x000fe200
0x00057202 0x0000000d 0x00000f00 0x000fe200
0x19177220 0x00000019 0x00400000 0x008fc600
0x1e00720b 0x0000001f 0x03f0e000 0x000fe200
0x18277223 0x00000018 0x00000017 0x000fca00
0x1c00720b 0x00000027 0x03f4e000 0x000fcc00
0x00008947 0x000000e0 0x03800000 0x000fea00
0x12167381 0x00000800 0x001e6b00 0x001ea200
0x1f00720b 0x0000001e 0x03f6e000 0x000fe200
0xff057224 0x000000ff 0x078e0015 0x000fe400
0xff1d7224 0x000000ff 0x078e0014 0x000fd200
0x0a00320c 0x00000016 0x03f21070 0x0c4fe200
0xff237224 0x000000ff 0x078e0016 0x000fe200
0x0a00320c 0x00000016 0x03f06070 0x0c0fe400
0x0b00320c 0x00000017 0x03f21310 0x0c0fe400
0x00257202 0x00000017 0x00000f00 0x080fe400
0x0b00320c 0x00000017 0x03f06300 0x000fe400
0x0a233207 0x00000016 0x00800000 0x000fc400
0x0b253207 0x00000017 0x00800000 0x000fe400
0x0d053208 0x00000015 0x04000000 0x000fe400
0x0c1d3208 0x00000014 0x04000000 0x000fc600
0x00017941 0x00000000 0x03800000 0x001fea00
0x01ff7355 0x00000000 0x00100000 0x000fe200
0x00017945 0x00000130 0x03800000 0x000fe200
0xff157224 0x000000ff 0x078e0019 0x000fe200
0x001f7202 0x0000001a 0x00000f00 0x020fe200
0xff177224 0x000000ff 0x078e0018 0x000fe400
0xff217224 0x000000ff 0x078e001b 0x000fe200
0x0000a947 0x000000d0 0x03800000 0x000fea00
0x2700720b 0x0000001c 0x03f4e000 0x000fe200
0xff1f7224 0x000000ff 0x078e0002 0x000fe200
0x00157202 0x00000007 0x00000f00 0x000fe200
0xff217224 0x000000ff 0x078e0003 0x000fc400
0xff177224 0x000000ff 0x078e0006 0x000fce00
0x0200220c 0x0000001a 0x03f21070 0x0c0fe400
0x0200220c 0x0000001a 0x03f06070 0x0c0fe400
0x0300220c 0x0000001b 0x03f21310 0x0c0fe400
0x0300220c 0x0000001b 0x03f06300 0x0c0fe400
0x021f2207 0x0000001a 0x00800000 0x000fe400
0x03212207 0x0000001b 0x00800000 0x000fc400
0x07152208 0x00000019 0x04000000 0x000fe400
0x06172208 0x00000018 0x04000000 0x000fc600
0x00017941 0x00000000 0x03800000 0x000fea00
0x11037220 0x00000011 0x00400000 0x000fe200
0x01ff7355 0x00000000 0x00100000 0x000fe200
0x1d027220 0x0000001d 0x00400000 0x000fe200
0x00017945 0x00000180 0x03800000 0x000fe200
0x10077223 0x00000010 0x00000003 0x000fe200
0x000d7202 0x00000005 0x00000f00 0x080fe200
0x05027223 0x00000005 0x00000002 0x000fe400
0x0f037220 0x0000000f 0x00400000 0x000fc400
0xff0a7224 0x000000ff 0x078e0023 0x000fe200
0x0200720b 0x00000007 0x03f0e000 0x000fe200
0xff0b7224 0x000000ff 0x078e0025 0x000fe400
0xff0c7224 0x000000ff 0x078e001d 0x000fd200
0x00008947 0x000000e0 0x03800000 0x000fea00
0x12127381 0x00200800 0x001e6b00 0x000ea200
0x0700720b 0x00000002 0x03f4e000 0x000fe200
0xff0d7224 0x000000ff 0x078e0011 0x000fe400
0xff0c7224 0x000000ff 0x078e0010 0x000fd200
0x2300220c 0x00000012 0x03f21070 0x0c4fe200
0xff0a7224 0x000000ff 0x078e0012 0x000fe200
0x2300220c 0x00000012 0x03f06070 0x080fe400
0x2500220c 0x00000013 0x03f21310 0x0c0fe400
0x000b7202 0x00000013 0x00000f00 0x080fe400
0x2500220c 0x00000013 0x03f06300 0x000fe400
0x230a2207 0x00000012 0x00800000 0x000fc400
0x250b2207 0x00000013 0x00800000 0x000fe400
0x050d2208 0x00000011 0x04000000 0x000fe400
0x1d0c2208 0x00000010 0x04000000 0x000fc600
0x00017941 0x00000000 0x03800000 0x000fea00
0x17027220 0x00000017 0x00400000 0x000fe200
0x01ff7355 0x00000000 0x00100000 0x000fe200
0x0e107223 0x0000000e 0x00000003 0x000fe200
0x00017945 0x00000150 0x03800000 0x000fe200
0x15057223 0x00000015 0x00000002 0x000fe200
0x00027202 0x00000008 0x00000f00 0x000fe200
0xff077224 0x000000ff 0x078e000f 0x000fc400
0xff067224 0x000000ff 0x078e000e 0x000fe200
0x0500720b 0x00000010 0x03f0e000 0x000fe200
0xff037224 0x000000ff 0x078e0009 0x000fd600
0x00008947 0x000000d0 0x03800000 0x000fea00
0x1000720b 0x00000005 0x03f4e000 0x000fe200
0xff027224 0x000000ff 0x078e001f 0x000fe200
0x00077202 0x00000015 0x00000f00 0x000fe200
0xff037224 0x000000ff 0x078e0021 0x000fe400
0xff067224 0x000000ff 0x078e0017 0x000fce00
0x1f00220c 0x00000008 0x03f21070 0x0c0fe400
0x1f00220c 0x00000008 0x03f06070 0x080fe400
0x2100220c 0x00000009 0x03f21310 0x0c0fe400
0x2100220c 0x00000009 0x03f06300 0x080fe400
0x1f022207 0x00000008 0x00800000 0x000fe400
0x21032207 0x00000009 0x00800000 0x000fc400
0x15072208 0x0000000f 0x04000000 0x000fe400
0x17062208 0x0000000e 0x04000000 0x000fc600
0x00017941 0x00000000 0x03800000 0x000fea00
0x04047810 0x00000200 0x07ffe0ff 0x000fc800
0x04007a0c 0x00005c00 0x03f06270 0x000fd800
0x00008947 0xfffff8b0 0x0383ffff 0x000fea00
0x00027941 0x00000000 0x03800000 0x001fea00
0x000f7919 0x00000000 0x00000000 0x000e2200
0xff147624 0x00005c00 0x078e00ff 0x000fe200
0xff057819 0x0000001f 0x00011400 0x000fc800
0x1400780c 0x000000ff 0x03f04270 0x000fe400
0x05057211 0x00000000 0x078f28ff 0x000fc800
0x050e7812 0xffffffe0 0x078ec0ff 0x000fcc00
0x00000947 0x00003900 0x03800000 0x000fea00
0xff047819 0x00000005 0x00011405 0x000fe200
0x01ff7355 0x00000000 0x00100000 0x000fe200
0x00017945 0x000004a0 0x03800000 0x000fe200
0x00127202 0x0000000a 0x00000f00 0x020fe200
0xff137224 0x000000ff 0x078e000b 0x000fe200
0x00157202 0x00000002 0x00000f00 0x000fe200
0x04047824 0x00000020 0x078e00ff 0x000fe400
0xff097224 0x000000ff 0x078e0007 0x000fe400
0xff177224 0x000000ff 0x078e0003 0x000fe200
0x04057810 0x00000020 0x07ffe0ff 0x000fe200
0xff107224 0x000000ff 0x078e000c 0x000fe200
0xff047212 0x00000004 0x078e33ff 0x000fe200
0xff117224 0x000000ff 0x078e000d 0x000fe200
0x05007a0c 0x00005c00 0x03f04270 0x000fe200
0xff057224 0x000000ff 0x078e0006 0x000fe200
0x04047a10 0x00005c00 0x07ffe0ff 0x000fc800
0x04047807 0x0000001f 0x00000000 0x000fc800
0x0f00720c 0x00000004 0x03f06270 0x001fc800
0x0c167989 0x08200000 0x000e0004 0x00006800
0x0d187989 0x08200000 0x000e0004 0x0000a800
0x0a197989 0x08200000 0x000e0004 0x0000e800
0x0b1a7989 0x08200000 0x000e0004 0x00012800
0x061b7989 0x08200000 0x000e0004 0x00002800
0x071c7989 0x08200000 0x000e0004 0x00002800
0x021d7989 0x08200000 0x000e0004 0x00002800
0x031e7989 0x08200000 0x000e0004 0x00002200
0x00000947 0x00000310 0x03800000 0x000fea00
0x0c087220 0x0000000c 0x00400000 0x006fe200
0x02ff7355 0x00000000 0x00100000 0x000fe200
0x18057220 0x00000018 0x00400000 0x000fe200
0x00027945 0x000001c0 0x03800000 0x000fe200
0x0d087223 0x0000000d 0x00000008 0x000fe200
0x00127202 0x0000000a 0x00000f00 0x000fe200
0x16157223 0x00000016 0x00000005 0x000fc400
0x06107220 0x00000006 0x00400000 0x000fe400
0x1c097220 0x0000001c 0x00400000 0x001fe200
0x0800720b 0x00000015 0x03f0e000 0x000fe200
0x071f7223 0x00000007 0x00000010 0x000fe200
0x00107202 0x0000000c 0x00000f00 0x000fe200
0x1b207223 0x0000001b 0x00000009 0x000fe400
0xff137224 0x000000ff 0x078e000b 0x000fe400
0xff057224 0x000000ff 0x078e001b 0x000fe200
0x1f00720b 0x00000020 0x03f4e000 0x000fe200
0xff117224 0x000000ff 0x078e000d 0x000fc600
0x00008947 0x000000d0 0x03800000 0x000fea00
0x1500720b 0x00000008 0x03f6e000 0x000fe200
0xff127224 0x000000ff 0x078e0019 0x008fe200
0x00107202 0x00000016 0x00000f00 0x000fe200
0xff137224 0x000000ff 0x078e001a 0x010fe400
0xff117224 0x000000ff 0x078e0018 0x000fce00
0x0a00320c 0x00000019 0x03f21070 0x0c0fe400
0x0a00320c 0x00000019 0x03f06070 0x0c0fe400
0x0b00320c 0x0000001a 0x03f21310 0x0c0fe400
0x0b00320c 0x0000001a 0x03f06300 0x0c0fe400
0x0a123207 0x00000019 0x00800000 0x000fe400
0x0b133207 0x0000001a 0x00800000 0x000fc400
0x0d113208 0x00000018 0x04000000 0x000fe400
0x0c103208 0x00000016 0x04000000 0x000fc600
0x00027941 0x00000000 0x03800000 0x000fea00
0xff097224 0x000000ff 0x078e001c 0x000fe400
0xff157224 0x000000ff 0x078e001d 0x000fe400
0xff177224 0x000000ff 0x078e001e 0x000fe200
0x0000a947 0x000000d0 0x03800000 0x000fea00
0x2000720b 0x0000001f 0x03f4e000 0x000fe200
0xff177224 0x000000ff 0x078e0003 0x000fe200
0x00157202 0x00000002 0x00000f00 0x000fe200
0xff097224 0x000000ff 0x078e0007 0x000fc400
0xff057224 0x000000ff 0x078e0006 0x000fce00
0x0200220c 0x0000001d 0x03f21070 0x0c0fe400
0x0200220c 0x0000001d 0x03f06070 0x0c0fe400
0x0300220c 0x0000001e 0x03f21310 0x0c0fe400
0x0300220c 0x0000001e 0x03f06300 0x0c0fe400
0x02152207 0x0000001d 0x00800000 0x000fe400
0x03172207 0x0000001e 0x00800000 0x000fc400
0x07092208 0x0000001c 0x04000000 0x000fe400
0x06052208 0x0000001b 0x04000000 0x000fc600
0x00017941 0x00000000 0x03800000 0x006fea00
0x0f037810 0x00000002 0x07ffe0ff 0x001fe200
0x01ff7355 0x00000000 0x00100000 0x000fe200
0x10197989 0x08400000 0x000e0004 0x00806200
0x00017945 0x000004b0 0x03800000 0x000fe200
0x0300720c 0x00000004 0x03f04270 0x000fe200
0xff077224 0x000000ff 0x078e0009 0x000fe200
0x110c7989 0x08400000 0x000e0004 0x0000a200
0x00037202 0x00000005 0x00000f00 0x000fe200
0xff0b7224 0x000000ff 0x078e0015 0x000fc400
0x121b7989 0x08400000 0x000e0004 0x0000e200
0xff0d7224 0x000000ff 0x078e0017 0x000fc600
0x13167989 0x08400000 0x000e0004 0x00012800
0x05187989 0x08400000 0x000e0004 0x00002800
0x091a7989 0x08400000 0x000e0004 0x01082800
0x151c7989 0x08400000 0x000e0004 0x00082800
0x171e7989 0x08400000 0x000e0004 0x00082200
0x00000947 0x000003d0 0x03800000 0x000fea00
0x11037220 0x00000011 0x00400000 0x006fe200
0x02ff7355 0x00000000 0x00100000 0x000fe200
0x0c027220 0x0000000c 0x00400000 0x000fe200
0x00027945 0x000001a0 0x03800000 0x000fe200
0x10077223 0x00000010 0x00000003 0x000fe200
0x00087202 0x00000012 0x00000f00 0x000fe200
0x19207223 0x00000019 0x00000002 0x000fc400
0x09027220 0x00000009 0x00400000 0x000fe400
0x1a037220 0x0000001a 0x00400000 0x001fe200
0x0700720b 0x00000020 0x03f0e000 0x000fe200
0x051d7223 0x00000005 0x00000002 0x000fe400
0xff0a7224 0x000000ff 0x078e0013 0x000fe400
0x18227223 0x00000018 0x00000003 0x000fe400
0xff027224 0x000000ff 0x078e0011 0x000fc400
0xff067224 0x000000ff 0x078e0010 0x000fc600
0x00008947 0x000000d0 0x03800000 0x000fea00
0x2000720b 0x00000007 0x03f4e000 0x000fe200
0xff0a7224 0x000000ff 0x078e0016 0x000fe200
0x00087202 0x0000001b 0x00000f00 0x008fe200
0xff027224 0x000000ff 0x078e000c 0x000fe400
0xff067224 0x000000ff 0x078e0019 0x000fce00
0x1200220c 0x0000001b 0x03f21070 0x0c0fe400
0x1200220c 0x0000001b 0x03f06070 0x0c0fe400
0x1300220c 0x00000016 0x03f21310 0x0c0fe400
0x1300220c 0x00000016 0x03f06300 0x0c0fe400
0x12082207 0x0000001b 0x00800000 0x000fe400
0x130a2207 0x00000016 0x00800000 0x000fc400
0x11022208 0x0000000c 0x04000000 0x000fe400
0x10062208 0x00000019 0x04000000 0x000fc600
0x00027941 0x00000000 0x03800000 0x000fea00
0x1d00720b 0x00000022 0x03f0e000 0x000fe200
0xff077224 0x000000ff 0x078e001a 0x000fe200
0x00037202 0x00000018 0x00000f00 0x000fe200
0xff0b7224 0x000000ff 0x078e001c 0x000fe200
0x00127202 0x00000008 0x00000f00 0x000fe200
0xff0d7224 0x000000ff 0x078e001e 0x000fe400
0xff137224 0x000000ff 0x078e000a 0x000fe400
0xff107224 0x000000ff 0x078e0006 0x000fc400
0xff117224 0x000000ff 0x078e0002 0x000fe200
0x00008947 0x00000150 0x03800000 0x000fea00
0x2200720b 0x0000001d 0x03f4e000 0x000fe200
0xff0b7224 0x000000ff 0x078e0015 0x000fe200
0x00127202 0x00000008 0x00000f00 0x000fe200
0xff077224 0x000000ff 0x078e0009 0x000fe200
0x00107202 0x00000006 0x00000f00 0x000fe200
0xff037224 0x000000ff 0x078e0005 0x000fe200
0x000d7202 0x00000017 0x00000f00 0x000fe200
0xff137224 0x000000ff 0x078e000a 0x000fe400
0xff117224 0x000000ff 0x078e0002 0x000fc600
0x1500220c 0x0000001c 0x03f21070 0x0c0fe200
0xff122224 0x000000ff 0x078e0008 0x000fe200
0x1500220c 0x0000001c 0x03f06070 0x000fe200
0xff132224 0x000000ff 0x078e000a 0x000fe200
0x1700220c 0x0000001e 0x03f21310 0x0c0fe200
0xff102224 0x000000ff 0x078e0006 0x000fe200
0x1700220c 0x0000001e 0x03f06300 0x000fe200
0xff112224 0x000000ff 0x078e0002 0x000fe200
0x150b2207 0x0000001c 0x00800000 0x000fe400
0x170d2207 0x0000001e 0x00800000 0x000fc400
0x09072208 0x0000001a 0x04000000 0x000fe400
0x05032208 0x00000018 0x04000000 0x000fc600
0x00017941 0x00000000 0x03800000 0x006fea00
0x0f057810 0x00000004 0x07ffe0ff 0x001fe200
0x01ff7355 0x00000000 0x00100000 0x000fe200
0x10157989 0x08800000 0x000e0004 0x01006200
0x00017945 0x000004b0 0x03800000 0x000fe200
0x0500720c 0x00000004 0x03f04270 0x000fe200
0xff097224 0x000000ff 0x078e0007 0x000fe200
0x110c7989 0x08800000 0x000e0004 0x0000a200
0x00057202 0x00000003 0x00000f00 0x000fe200
0xff197224 0x000000ff 0x078e000b 0x000fc400
0x12177989 0x08800000 0x000e0004 0x00012200
0xff1b7224 0x000000ff 0x078e000d 0x008fc600
0x13167989 0x08800000 0x000e0004 0x0000e800
0x03187989 0x08800000 0x000e0004 0x00002800
0x071a7989 0x08800000 0x000e0004 0x00002800
0x0b1c7989 0x08800000 0x000e0004 0x00002800
0x0d1e7989 0x08800000 0x000e0004 0x00002200
0x00000947 0x000003d0 0x03800000 0x000fea00
0x11057220 0x00000011 0x00400000 0x006fe200
0x02ff7355 0x00000000 0x00100000 0x000fe200
0x0c027220 0x0000000c 0x00400000 0x000fe200
0x00027945 0x000001a0 0x03800000 0x000fe200
0x10227223 0x00000010 0x00000005 0x000fe200
0x00087202 0x00000012 0x00000f00 0x000fe200
0x15097223 0x00000015 0x00000002 0x000fc400
0x07027220 0x00000007 0x00400000 0x000fe400
0x1a057220 0x0000001a 0x00400000 0x001fe200
0x2200720b 0x00000009 0x03f0e000 0x000fe200
0x031d7223 0x00000003 0x00000002 0x000fe400
0xff0a7224 0x000000ff 0x078e0013 0x000fe400
0x18207223 0x00000018 0x00000005 0x000fe400
0xff027224 0x000000ff 0x078e0011 0x000fc400
0xff067224 0x000000ff 0x078e0010 0x000fc600
0x00008947 0x000000d0 0x03800000 0x000fea00
0x0900720b 0x00000022 0x03f4e000 0x000fe200
0xff0a7224 0x000000ff 0x078e0016 0x008fe200
0x00087202 0x00000017 0x00000f00 0x010fe200
0xff027224 0x000000ff 0x078e000c 0x000fe400
0xff067224 0x000000ff 0x078e0015 0x000fce00
0x1200220c 0x00000017 0x03f21070 0x0c0fe400
0x1200220c 0x00000017 0x03f06070 0x0c0fe400
0x1300220c 0x00000016 0x03f21310 0x0c0fe400
0x1300220c 0x00000016 0x03f06300 0x0c0fe400
0x12082207 0x00000017 0x00800000 0x000fe400
0x130a2207 0x00000016 0x00800000 0x000fc400
0x11022208 0x0000000c 0x04000000 0x000fe400
0x10062208 0x00000015 0x04000000 0x000fc600
0x00027941 0x00000000 0x03800000 0x000fea00
0x1d00720b 0x00000020 0x03f0e000 0x000fe200
0xff097224 0x000000ff 0x078e001a 0x000fe200
0x00057202 0x00000018 0x00000f00 0x000fe200
0xff197224 0x000000ff 0x078e001c 0x000fe200
0x00127202 0x00000008 0x00000f00 0x000fe200
0xff1b7224 0x000000ff 0x078e001e 0x000fe400
0xff137224 0x000000ff 0x078e000a 0x000fe400
0xff107224 0x000000ff 0x078e0006 0x000fc400
0xff117224 0x000000ff 0x078e0002 0x000fe200
0x00008947 0x00000150 0x03800000 0x000fea00
0x2000720b 0x0000001d 0x03f4e000 0x000fe200
0xff197224 0x000000ff 0x078e000b 0x000fe200
0x00127202 0x00000008 0x00000f00 0x000fe200
0xff097224 0x000000ff 0x078e0007 0x000fe200
0x00107202 0x00000006 0x00000f00 0x000fe200
0xff057224 0x000000ff 0x078e0003 0x000fe200
0x001b7202 0x0000000d 0x00000f00 0x000fe200
0xff137224 0x000000ff 0x078e000a 0x000fe400
0xff117224 0x000000ff 0x078e0002 0x000fc600
0x0b00220c 0x0000001c 0x03f21070 0x0c0fe200
0xff122224 0x000000ff 0x078e0008 0x000fe200
0x0b00220c 0x0000001c 0x03f06070 0x000fe200
0xff132224 0x000000ff 0x078e000a 0x000fe200
0x0d00220c 0x0000001e 0x03f21310 0x0c0fe200
0xff102224 0x000000ff 0x078e0006 0x000fe200
0x0d00220c 0x0000001e 0x03f06300 0x000fe200
0xff112224 0x000000ff 0x078e0002 0x000fe200
0x0b192207 0x0000001c 0x00800000 0x000fe400
0x0d1b2207 0x0000001e 0x00800000 0x000fc400
0x07092208 0x0000001a 0x04000000 0x000fe400
0x03052208 0x00000018 0x04000000 0x000fc600
0x00017941 0x00000000 0x03800000 0x006fea00
0x0f037810 0x00000008 0x07ffe0ff 0x001fe200
0x01ff7355 0x00000000 0x00100000 0x000fe200
0x101d7989 0x09000000 0x000e0004 0x00006200
0x00017945 0x000004b0 0x03800000 0x000fe200
0x0300720c 0x00000004 0x03f04270 0x000fe200
0xff0d7224 0x000000ff 0x078e0009 0x000fe200
0x11087989 0x09000000 0x000e0004 0x0000a200
0x000b7202 0x00000005 0x00000f00 0x000fe200
0xff157224 0x000000ff 0x078e0019 0x000fc400
0x121f7989 0x09000000 0x000e0004 0x00012400
0xff177224 0x000000ff 0x078e001b 0x010fe400
0x130a7989 0x09000000 0x000e0004 0x00012800
0x050c7989 0x09000000 0x000e0004 0x0000e800
0x09167989 0x09000000 0x000e0004 0x0080e800
0x19187989 0x09000000 0x000e0004 0x00002800
0x1b1a7989 0x09000000 0x000e0004 0x00002200
0x00000947 0x000003d0 0x03800000 0x000fea00
0x11037220 0x00000011 0x00400000 0x006fe200
0x02ff7355 0x00000000 0x00100000 0x000fe200
0x08027220 0x00000008 0x00400000 0x000fe200
0x00027945 0x000001a0 0x03800000 0x000fe200
0x101e7223 0x00000010 0x00000003 0x000fe200
0x00067202 0x00000012 0x00000f00 0x000fe200
0x1d0b7223 0x0000001d 0x00000002 0x000fc400
0x09027220 0x00000009 0x00400000 0x000fe400
0x16037220 0x00000016 0x00400000 0x008fe200
0x1e00720b 0x0000000b 0x03f0e000 0x000fe200
0x051c7223 0x00000005 0x00000002 0x000fe400
0x0c217223 0x0000000c 0x00000003 0x000fe400
0xff077224 0x000000ff 0x078e0013 0x000fe400
0xff027224 0x000000ff 0x078e0011 0x000fc400
0xff037224 0x000000ff 0x078e0010 0x000fc600
0x00008947 0x000000d0 0x03800000 0x000fea00
0x0b00720b 0x0000001e 0x03f4e000 0x000fe200
0xff077224 0x000000ff 0x078e000a 0x010fe200
0x00067202 0x0000001f 0x00000f00 0x000fe200
0xff027224 0x000000ff 0x078e0008 0x000fe400
0xff037224 0x000000ff 0x078e001d 0x000fce00
0x1200220c 0x0000001f 0x03f21070 0x0c0fe400
0x1200220c 0x0000001f 0x03f06070 0x0c0fe400
0x1300220c 0x0000000a 0x03f21310 0x0c0fe400
0x1300220c 0x0000000a 0x03f06300 0x0c0fe400
0x12062207 0x0000001f 0x00800000 0x000fe400
0x13072207 0x0000000a 0x00800000 0x000fc400
0x11022208 0x00000008 0x04000000 0x000fe400
0x10032208 0x0000001d 0x04000000 0x000fc600
0x00027941 0x00000000 0x03800000 0x000fea00
0x1c00720b 0x00000021 0x03f0e000 0x000fe200
0xff0d7224 0x000000ff 0x078e0016 0x000fe200
0x000b7202 0x0000000c 0x00000f00 0x000fe200
0xff157224 0x000000ff 0x078e0018 0x001fe200
0x00127202 0x00000006 0x00000f00 0x000fe200
0xff177224 0x000000ff 0x078e001a 0x000fe400
0xff137224 0x000000ff 0x078e0007 0x000fe400
0xff107224 0x000000ff 0x078e0003 0x000fc400
0xff117224 0x000000ff 0x078e0002 0x000fe200
0x00008947 0x00000150 0x03800000 0x000fea00
0x2100720b 0x0000001c 0x03f4e000 0x000fe200
0xff157224 0x000000ff 0x078e0019 0x000fe200
0x00127202 0x00000006 0x00000f00 0x000fe200
0xff0d7224 0x000000ff 0x078e0009 0x000fe200
0x00107202 0x00000003 0x00000f00 0x000fe200
0xff0b7224 0x000000ff 0x078e0005 0x000fe200
0x00177202 0x0000001b 0x00000f00 0x000fe200
0xff137224 0x000000ff 0x078e0007 0x000fe400
0xff117224 0x000000ff 0x078e0002 0x000fc600
0x1900220c 0x00000018 0x03f21070 0x0c0fe200
0xff122224 0x000000ff 0x078e0006 0x000fe200
0x1900220c 0x00000018 0x03f06070 0x000fe200
0xff132224 0x000000ff 0x078e0007 0x000fe200
0x1b00220c 0x0000001a 0x03f21310 0x0c0fe200
0xff102224 0x000000ff 0x078e0003 0x000fe200
0x1b00220c 0x0000001a 0x03f06300 0x000fe200
0xff112224 0x000000ff 0x078e0002 0x000fe200
0x19152207 0x00000018 0x00800000 0x000fe400
0x1b172207 0x0000001a 0x00800000 0x000fc400
0x090d2208 0x00000016 0x04000000 0x000fe400
0x050b2208 0x0000000c 0x04000000 0x000fc600
0x00017941 0x00000000 0x03800000 0x006fea00
0x0f037810 0x00000010 0x07ffe0ff 0x000fe200
0x01ff7355 0x00000000 0x00100000 0x000fe200
0x10197989 0x0a000000 0x000e0004 0x00106200
0x00017945 0x000004b0 0x03800000 0x000fe200
0x0300720c 0x00000004 0x03f04270 0x000fe200
0xff077224 0x000000ff 0x078e0017 0x000fe200
0x110a7989 0x0a000000 0x000e0004 0x0100a200
0x00067202 0x00000015 0x00000f00 0x000fe200
0xff027224 0x000000ff 0x078e000b 0x000fc400
0x121b7989 0x0a000000 0x000e0004 0x00012200
0xff037224 0x000000ff 0x078e000d 0x000fc600
0x130c7989 0x0a000000 0x000e0004 0x0000e800
0x0b167989 0x0a000000 0x000e0004 0x0080e800
0x0d187989 0x0a000000 0x000e0004 0x00002800
0x151a7989 0x0a000000 0x000e0004 0x00002800
0x171c7989 0x0a000000 0x000e0004 0x00002200
0x00000947 0x000003d0 0x03800000 0x000fea00
0x11037220 0x00000011 0x00400000 0x006fe200
0x02ff7355 0x00000000 0x00100000 0x000fe200
0x0a027220 0x0000000a 0x00400000 0x000fe200
0x00027945 0x000001a0 0x03800000 0x000fe200
0x10077223 0x00000010 0x00000003 0x000fe200
0x00087202 0x00000012 0x00000f00 0x000fe200
0x19067223 0x00000019 0x00000002 0x000fc400
0x0d027220 0x0000000d 0x00400000 0x000fe400
0x18037220 0x00000018 0x00400000 0x001fe200
0x0700720b 0x00000006 0x03f0e000 0x000fe200
0xff097224 0x000000ff 0x078e0013 0x000fe400
0x0b1d7223 0x0000000b 0x00000002 0x000fe400
0x161e7223 0x00000016 0x00000003 0x008fe400
0xff047224 0x000000ff 0x078e0011 0x000fc400
0xff057224 0x000000ff 0x078e0010 0x000fc600
0x00008947 0x000000d0 0x03800000 0x000fea00
0x0600720b 0x00000007 0x03f4e000 0x000fe200
0xff097224 0x000000ff 0x078e000c 0x000fe200
0x00087202 0x0000001b 0x00000f00 0x010fe200
0xff047224 0x000000ff 0x078e000a 0x000fe400
0xff057224 0x000000ff 0x078e0019 0x000fce00
0x1200220c 0x0000001b 0x03f21070 0x0c0fe400
0x1200220c 0x0000001b 0x03f06070 0x0c0fe400
0x1300220c 0x0000000c 0x03f21310 0x0c0fe400
0x1300220c 0x0000000c 0x03f06300 0x0c0fe400
0x12082207 0x0000001b 0x00800000 0x000fe400
0x13092207 0x0000000c 0x00800000 0x000fc400
0x11042208 0x0000000a 0x04000000 0x000fe400
0x10052208 0x00000019 0x04000000 0x000fc600
0x00027941 0x00000000 0x03800000 0x000fea00
0x1d00720b 0x0000001e 0x03f0e000 0x000fe200
0xff077224 0x000000ff 0x078e001c 0x000fe200
0x00067202 0x0000001a 0x00000f00 0x000fe200
0xff027224 0x000000ff 0x078e0016 0x000fe200
0x00127202 0x00000008 0x00000f00 0x000fe200
0xff037224 0x000000ff 0x078e0018 0x000fe400
0xff137224 0x000000ff 0x078e0009 0x000fe400
0xff107224 0x000000ff 0x078e0005 0x000fc400
0xff117224 0x000000ff 0x078e0004 0x000fe200
0x00008947 0x00000150 0x03800000 0x000fea00
0x1e00720b 0x0000001d 0x03f4e000 0x000fe200
0xff067224 0x000000ff 0x078e0015 0x000fe200
0x00127202 0x00000008 0x00000f00 0x000fe200
0xff027224 0x000000ff 0x078e000b 0x000fe200
0x00077202 0x00000017 0x00000f00 0x000fe200
0xff137224 0x000000ff 0x078e0009 0x000fe200
0x00037202 0x0000000d 0x00000f00 0x000fe200
0xff107224 0x000000ff 0x078e0005 0x000fe400
0xff117224 0x000000ff 0x078e0004 0x000fc600
0x1500220c 0x0000001a 0x03f21070 0x0c0fe200
0xff122224 0x000000ff 0x078e0008 0x000fe200
0x1500220c 0x0000001a 0x03f06070 0x000fe200
0xff132224 0x000000ff 0x078e0009 0x000fe200
0x1700220c 0x0000001c 0x03f21310 0x0c0fe200
0xff102224 0x000000ff 0x078e0005 0x000fe200
0x1700220c 0x0000001c 0x03f06300 0x000fe200
0xff112224 0x000000ff 0x078e0004 0x000fe200
0x15062207 0x0000001a 0x00800000 0x000fe400
0x17072207 0x0000001c 0x00800000 0x000fc400
0x0d032208 0x00000018 0x04000000 0x000fe400
0x0b022208 0x00000016 0x04000000 0x000fc600
0x00017941 0x00000000 0x03800000 0x006fea00
0x0f00720c 0x000000ff 0x03f05270 0x000fe200
0xff097224 0x000000ff 0x078e0013 0x000fe200
0x0000720c 0x000000ff 0x03f45270 0x000fe200
0xff047224 0x000000ff 0x078e0010 0x001fe200
0x00087202 0x00000012 0x00000f00 0x000fe200
0xff057224 0x000000ff 0x078e0011 0x000fce00
0x0e008388 0x00000810 0x00000a00 0x000fe800
0x0e008388 0x00001802 0x00000a00 0x000fe800
0x0e008388 0x00001012 0x00000a00 0x000fe800
0x0e008388 0x00002006 0x00000a00 0x000fe800
0x00007b1d 0x00000000 0x00000000 0x000fea00
0x00002947 0x00004fb0 0x03800000 0x000fea00
0x1400780c 0x00000021 0x03f06270 0x000fe200
0xff097224 0x000000ff 0x078e0013 0x000fe200
0x00087202 0x00000012 0x00000f00 0x000fe200
0xff007224 0x000000ff 0x078e0002 0x000fe200
0x00167202 0x00000006 0x00000f00 0x008fe200
0xff0a7224 0x000000ff 0x078e0003 0x000fc400
0xff177224 0x000000ff 0x078e0007 0x000fe400
0xff047224 0x000000ff 0x078e0010 0x000fe400
0xff057224 0x000000ff 0x078e0011 0x000fe200
0x00008947 0x00000360 0x03800000 0x000fea00
0xff0a7984 0x00002800 0x00001a00 0x000e2200
0x11057220 0x00000011 0x00400000 0x000fe200
0x01ff7355 0x00000000 0x00100000 0x000fe200
0x03177220 0x00000003 0x00400000 0x000fe200
0xff0c7984 0x00003800 0x00001a00 0x000e6200
0x10157223 0x00000010 0x00000005 0x000fe200
0x00017945 0x000001a0 0x03800000 0x000fe200
0x020e7223 0x00000002 0x00000017 0x000fe200
0xff187984 0x00004000 0x00001a00 0x000ea200
0x00087202 0x00000012 0x00000f00 0x000fe200
0xff057224 0x000000ff 0x078e0011 0x000fc400
0xff047224 0x000000ff 0x078e0010 0x000fe400
0x0b097220 0x0000000b 0x00400000 0x001fc800
0x0a007223 0x0000000a 0x00000009 0x000fe400
0x0d0f7220 0x0000000d 0x00400000 0x002fe400
0xff097224 0x000000ff 0x078e0013 0x000fe200
0x1500720b 0x00000000 0x03f0e000 0x000fe200
0x0c0f7223 0x0000000c 0x0000000f 0x000fca00
0x0e00720b 0x0000000f 0x03f6e000 0x000fcc00
0x00008947 0x000000c0 0x03800000 0x000fea00
0xff087984 0x00003000 0x00001a00 0x004e2200
0x0000720b 0x00000015 0x03f8e000 0x000fe200
0xff047224 0x000000ff 0x078e000a 0x000fe200
0x00057202 0x0000000b 0x00000f00 0x000fd400
0x1200420c 0x00000008 0x03f01070 0x0c1fe400
0x1200420c 0x00000008 0x03f26070 0x0c0fe400
0x1300420c 0x00000009 0x03f01300 0x0c0fe400
0x1300420c 0x00000009 0x03f26310 0x0c0fe400
0x12084207 0x00000008 0x00000000 0x000fe400
0x13094207 0x00000009 0x00000000 0x000fc400
0x11054208 0x0000000b 0x04800000 0x000fe400
0x10044208 0x0000000a 0x04800000 0x000fc600
0x00017941 0x00000000 0x03800000 0x004fea00
0x01ff7355 0x00000000 0x00100000 0x000fe200
0x00017945 0x00000130 0x03800000 0x000fe200
0xff007224 0x000000ff 0x078e000c 0x000fe200
0x00167202 0x00000018 0x00000f00 0x000fe200
0xff0a7224 0x000000ff 0x078e000d 0x000fe400
0xff177224 0x000000ff 0x078e0019 0x000fe200
0x0000b947 0x000000d0 0x03800000 0x000fea00
0x0f00720b 0x0000000e 0x03f6e000 0x000fe200
0xff167224 0x000000ff 0x078e0006 0x000fe200
0x000a7202 0x00000003 0x00000f00 0x000fe200
0xff177224 0x000000ff 0x078e0007 0x000fc400
0xff007224 0x000000ff 0x078e0002 0x000fce00
0x0600320c 0x00000018 0x03f21070 0x0c0fe400
0x0600320c 0x00000018 0x03f06070 0x0c0fe400
0x0700320c 0x00000019 0x03f21310 0x0c0fe400
0x0700320c 0x00000019 0x03f06300 0x0c0fe400
0x06163207 0x00000018 0x00800000 0x000fe400
0x07173207 0x00000019 0x00800000 0x000fc400
0x030a3208 0x0000000d 0x04000000 0x000fe400
0x02003208 0x0000000c 0x04000000 0x000fc600
0x00017941 0x00000000 0x03800000 0x000fea00
0x1400780c 0x00000041 0x03f06270 0x000fe200
0xff027224 0x000000ff 0x078e0000 0x000fe200
0x00137202 0x00000016 0x00000f00 0x000fe200
0xff037224 0x000000ff 0x078e000a 0x000fe400
0xff157224 0x000000ff 0x078e0017 0x000fce00
0x00008947 0x00000440 0x03800000 0x000fea00
0xff027984 0x00004800 0x00001a00 0x000e2200
0x050d7220 0x00000005 0x00400000 0x080fe200
0x01ff7355 0x00000000 0x00100000 0x000fe200
0x00017945 0x000001c0 0x03800000 0x000fe200
0xff067984 0x00005800 0x00001a00 0x000e6200
0x04127223 0x00000004 0x0000000d 0x000fe200
0x000c7202 0x00000005 0x00000f00 0x000fe200
0xff0e7224 0x000000ff 0x078e0008 0x000fe200
0xff1a7984 0x00006000 0x00001a00 0x010ea200
0xff107224 0x000000ff 0x078e0009 0x000fe400
0x0a0f7220 0x0000000a 0x00400000 0x000fc400
0xff0d7224 0x000000ff 0x078e0004 0x000fe400
0x030b7220 0x00000003 0x00400000 0x001fc800
0x020b7223 0x00000002 0x0000000b 0x000fe400
0x07117220 0x00000007 0x00400000 0x002fc600
0x1200720b 0x0000000b 0x03f0e000 0x000fd800
0x00008947 0x000000e0 0x03800000 0x000fea00
0xff187984 0x00005000 0x00001a00 0x004e2200
0x0b00720b 0x00000012 0x03f6e000 0x000fe200
0xff0c7224 0x000000ff 0x078e0003 0x000fe400
0xff0d7224 0x000000ff 0x078e0002 0x000fd200
0x0800320c 0x00000018 0x03f06070 0x0c1fe200
0xff0e7224 0x000000ff 0x078e0018 0x000fe200
0x0800320c 0x00000018 0x03f21070 0x000fe400
0x0900320c 0x00000019 0x03f06300 0x0c0fe400
0x0900320c 0x00000019 0x03f21310 0x080fe400
0x00107202 0x00000019 0x00000f00 0x000fe400
0x050c3208 0x00000003 0x04000000 0x000fc400
0x080e3207 0x00000018 0x00800000 0x000fe400
0x09103207 0x00000019 0x00800000 0x000fe400
0x040d3208 0x00000002 0x04000000 0x000fc600
0x00017941 0x00000000 0x03800000 0x004fea00
0x00127223 0x00000000 0x0000000f 0x000fe200
0x01ff7355 0x00000000 0x00100000 0x000fe200
0x06117223 0x00000006 0x00000011 0x000fe200
0x00017945 0x00000200 0x03800000 0x000fe200
0xff027224 0x000000ff 0x078e0006 0x000fe200
0x00137202 0x0000001a 0x00000f00 0x000fe200
0xff037224 0x000000ff 0x078e0007 0x000fe200
0x1200720b 0x00000011 0x03f0e000 0x000fe200
0xff157224 0x000000ff 0x078e001b 0x000fe200
0x00047202 0x0000000d 0x00000f00 0x000fe200
0xff087224 0x000000ff 0x078e000e 0x000fc400
0xff097224 0x000000ff 0x078e0010 0x000fe400
0xff057224 0x000000ff 0x078e000c 0x000fca00
0x00008947 0x00000150 0x03800000 0x000fea00
0x1100720b 0x00000012 0x03f6e000 0x000fe200
0xff087224 0x000000ff 0x078e000e 0x000fe200
0x00037202 0x0000000a 0x00000f00 0x000fe200
0xff137224 0x000000ff 0x078e0016 0x000fe400
0xff157224 0x000000ff 0x078e0017 0x000fe400
0xff027224 0x000000ff 0x078e0000 0x000fe400
0xff047224 0x000000ff 0x078e000d 0x000fe400
0xff097224 0x000000ff 0x078e0010 0x000fe200
0x1600320c 0x0000001a 0x03f21070 0x0c0fe200
0xff057224 0x000000ff 0x078e000c 0x000fe200
0x1600320c 0x0000001a 0x03f06070 0x000fe200
0xff093224 0x000000ff 0x078e0010 0x000fe200
0x1700320c 0x0000001b 0x03f21310 0x0c0fe200
0xff053224 0x000000ff 0x078e000c 0x000fe200
0x1700320c 0x0000001b 0x03f06300 0x000fc400
0x00083202 0x0000000e 0x00000f00 0x000fe400
0x16133207 0x0000001a 0x00800000 0x000fe400
0x17153207 0x0000001b 0x00800000 0x000fe400
0x0a033208 0x00000007 0x04000000 0x000fe400
0x00023208 0x00000006 0x04000000 0x000fe400
0x00043202 0x0000000d 0x00000f00 0x000fc600
0x00017941 0x00000000 0x03800000 0x000fea00
0x1400780c 0x00000061 0x03f06270 0x000fe200
0xff007224 0x000000ff 0x078e0002 0x000fe200
0x00167202 0x00000013 0x00000f00 0x000fe200
0xff067224 0x000000ff 0x078e0003 0x000fc400
0xff177224 0x000000ff 0x078e0015 0x000fce00
0x00008947 0x00000440 0x03800000 0x000fea00
0xff067984 0x00006800 0x00001a00 0x000e2200
0x050f7220 0x00000005 0x00400000 0x080fe200
0x01ff7355 0x00000000 0x00100000 0x000fe200
0x00017945 0x000001c0 0x03800000 0x000fe200
0xff0a7984 0x00007800 0x00001a00 0x000e6200
0x04007223 0x00000004 0x0000000f 0x000fe200
0x000c7202 0x00000005 0x00000f00 0x000fe200
0xff107224 0x000000ff 0x078e0008 0x000fe200
0xff1a7984 0x00008000 0x00001a00 0x010ea200
0xff127224 0x000000ff 0x078e0009 0x000fe400
0x030f7220 0x00000003 0x00400000 0x000fc400
0xff0e7224 0x000000ff 0x078e0004 0x000fe400
0x070d7220 0x00000007 0x00400000 0x001fc800
0x060d7223 0x00000006 0x0000000d 0x000fe400
0x0b117220 0x0000000b 0x00400000 0x002fc600
0x0000720b 0x0000000d 0x03f0e000 0x000fd800
0x00008947 0x000000e0 0x03800000 0x000fea00
0xff167984 0x00007000 0x00001a00 0x004e2200
0x0d00720b 0x00000000 0x03f6e000 0x000fe200
0xff0c7224 0x000000ff 0x078e0007 0x000fe400
0xff0e7224 0x000000ff 0x078e0006 0x000fd200
0x0800320c 0x00000016 0x03f06070 0x0c1fe200
0xff107224 0x000000ff 0x078e0016 0x000fe200
0x0800320c 0x00000016 0x03f21070 0x000fe400
0x0900320c 0x00000017 0x03f06300 0x0c0fe400
0x0900320c 0x00000017 0x03f21310 0x080fe400
0x00127202 0x00000017 0x00000f00 0x000fe400
0x050c3208 0x00000007 0x04000000 0x000fc400
0x08103207 0x00000016 0x00800000 0x000fe400
0x09123207 0x00000017 0x00800000 0x000fe400
0x040e3208 0x00000006 0x04000000 0x000fc600
0x00017941 0x00000000 0x03800000 0x004fea00
0x02187223 0x00000002 0x0000000f 0x000fe200
0x01ff7355 0x00000000 0x00100000 0x000fe200
0x0a117223 0x0000000a 0x00000011 0x000fe200
0x00017945 0x00000200 0x03800000 0x000fe200
0xff007224 0x000000ff 0x078e000a 0x000fe200
0x00167202 0x0000001a 0x00000f00 0x000fe200
0xff067224 0x000000ff 0x078e000b 0x000fe200
0x1800720b 0x00000011 0x03f0e000 0x000fe200
0xff177224 0x000000ff 0x078e001b 0x000fe200
0x00047202 0x0000000e 0x00000f00 0x000fe200
0xff087224 0x000000ff 0x078e0010 0x000fc400
0xff097224 0x000000ff 0x078e0012 0x000fe400
0xff057224 0x000000ff 0x078e000c 0x000fca00
0x00008947 0x00000150 0x03800000 0x000fea00
0x1100720b 0x00000018 0x03f6e000 0x000fe200
0xff087224 0x000000ff 0x078e0010 0x000fe200
0x00067202 0x00000003 0x00000f00 0x000fe200
0xff167224 0x000000ff 0x078e0013 0x000fe400
0xff177224 0x000000ff 0x078e0015 0x000fe400
0xff007224 0x000000ff 0x078e0002 0x000fe400
0xff047224 0x000000ff 0x078e000e 0x000fe400
0xff097224 0x000000ff 0x078e0012 0x000fe200
0x1300320c 0x0000001a 0x03f21070 0x0c0fe200
0xff057224 0x000000ff 0x078e000c 0x000fe200
0x1300320c 0x0000001a 0x03f06070 0x000fe200
0xff093224 0x000000ff 0x078e0012 0x000fe200
0x1500320c 0x0000001b 0x03f21310 0x0c0fe200
0xff053224 0x000000ff 0x078e000c 0x000fe200
0x1500320c 0x0000001b 0x03f06300 0x000fc400
0x00083202 0x00000010 0x00000f00 0x000fe400
0x13163207 0x0000001a 0x00800000 0x000fe400
0x15173207 0x0000001b 0x00800000 0x000fe400
0x03063208 0x0000000b 0x04000000 0x000fe400
0x02003208 0x0000000a 0x04000000 0x000fe400
0x00043202 0x0000000e 0x00000f00 0x000fc600
0x00017941 0x00000000 0x03800000 0x000fea00
0x1400780c 0x00000081 0x03f06270 0x000fe200
0xff027224 0x000000ff 0x078e0000 0x000fe200
0x00137202 0x00000016 0x00000f00 0x000fe200
0xff037224 0x000000ff 0x078e0006 0x000fc400
0xff157224 0x000000ff 0x078e0017 0x000fce00
0x00008947 0x00000440 0x03800000 0x000fea00
0xff027984 0x00008800 0x00001a00 0x000e2200
0x050d7220 0x00000005 0x00400000 0x080fe200
0x01ff7355 0x00000000 0x00100000 0x000fe200
0x00017945 0x000001c0 0x03800000 0x000fe200
0xff0a7984 0x00009800 0x00001a00 0x000e6200
0x04127223 0x00000004 0x0000000d 0x000fe200
0x000c7202 0x00000005 0x00000f00 0x000fe200
0xff0e7224 0x000000ff 0x078e0008 0x000fe200
0xff1a7984 0x0000a000 0x00001a00 0x010ea200
0xff107224 0x000000ff 0x078e0009 0x000fe400
0x060f7220 0x00000006 0x00400000 0x000fc400
0xff0d7224 0x000000ff 0x078e0004 0x000fe400
0x03077220 0x00000003 0x00400000 0x001fc800
0x02077223 0x00000002 0x00000007 0x000fe400
0x0b117220 0x0000000b 0x00400000 0x002fc600
0x1200720b 0x00000007 0x03f0e000 0x000fd800
0x00008947 0x000000e0 0x03800000 0x000fea00
0xff187984 0x00009000 0x00001a00 0x004e2200
0x0700720b 0x00000012 0x03f6e000 0x000fe200
0xff0c7224 0x000000ff 0x078e0003 0x000fe400
0xff0d7224 0x000000ff 0x078e0002 0x000fd200
0x0800320c 0x00000018 0x03f06070 0x0c1fe200
0xff0e7224 0x000000ff 0x078e0018 0x000fe200
0x0800320c 0x00000018 0x03f21070 0x000fe400
0x0900320c 0x00000019 0x03f06300 0x0c0fe400
0x0900320c 0x00000019 0x03f21310 0x080fe400
0x00107202 0x00000019 0x00000f00 0x000fe400
0x050c3208 0x00000003 0x04000000 0x000fc400
0x080e3207 0x00000018 0x00800000 0x000fe400
0x09103207 0x00000019 0x00800000 0x000fe400
0x040d3208 0x00000002 0x04000000 0x000fc600
0x00017941 0x00000000 0x03800000 0x004fea00
0x00127223 0x00000000 0x0000000f 0x000fe200
0x01ff7355 0x00000000 0x00100000 0x000fe200
0x0a117223 0x0000000a 0x00000011 0x000fe200
0x00017945 0x00000200 0x03800000 0x000fe200
0xff027224 0x000000ff 0x078e000a 0x000fe200
0x00137202 0x0000001a 0x00000f00 0x000fe200
0xff037224 0x000000ff 0x078e000b 0x000fe200
0x1200720b 0x00000011 0x03f0e000 0x000fe200
0xff157224 0x000000ff 0x078e001b 0x000fe200
0x00047202 0x0000000d 0x00000f00 0x000fe200
0xff087224 0x000000ff 0x078e000e 0x000fc400
0xff097224 0x000000ff 0x078e0010 0x000fe400
0xff057224 0x000000ff 0x078e000c 0x000fca00
0x00008947 0x00000150 0x03800000 0x000fea00
0x1100720b 0x00000012 0x03f6e000 0x000fe200
0xff087224 0x000000ff 0x078e000e 0x000fe200
0x00037202 0x00000006 0x00000f00 0x000fe200
0xff137224 0x000000ff 0x078e0016 0x000fe400
0xff157224 0x000000ff 0x078e0017 0x000fe400
0xff027224 0x000000ff 0x078e0000 0x000fe400
0xff047224 0x000000ff 0x078e000d 0x000fe400
0xff097224 0x000000ff 0x078e0010 0x000fe200
0x1600320c 0x0000001a 0x03f21070 0x0c0fe200
0xff057224 0x000000ff 0x078e000c 0x000fe200
0x1600320c 0x0000001a 0x03f06070 0x000fe200
0xff093224 0x000000ff 0x078e0010 0x000fe200
0x1700320c 0x0000001b 0x03f21310 0x0c0fe200
0xff053224 0x000000ff 0x078e000c 0x000fe200
0x1700320c 0x0000001b 0x03f06300 0x000fc400
0x00083202 0x0000000e 0x00000f00 0x000fe400
0x16133207 0x0000001a 0x00800000 0x000fe400
0x17153207 0x0000001b 0x00800000 0x000fe400
0x06033208 0x0000000b 0x04000000 0x000fe400
0x00023208 0x0000000a 0x04000000 0x000fe400
0x00043202 0x0000000d 0x00000f00 0x000fc600
0x00017941 0x00000000 0x03800000 0x000fea00
0x1400780c 0x000000a1 0x03f06270 0x000fe200
0xff007224 0x000000ff 0x078e0002 0x000fe200
0x00167202 0x00000013 0x00000f00 0x000fe200
0xff067224 0x000000ff 0x078e0003 0x000fc400
0xff177224 0x000000ff 0x078e0015 0x000fce00
0x00008947 0x00000440 0x03800000 0x000fea00
0xff067984 0x0000a800 0x00001a00 0x000e2200
0x050f7220 0x00000005 0x00400000 0x080fe200
0x01ff7355 0x00000000 0x00100000 0x000fe200
0x00017945 0x000001c0 0x03800000 0x000fe200
0xff0a7984 0x0000b800 0x00001a00 0x000e6200
0x04007223 0x00000004 0x0000000f 0x000fe200
0x000c7202 0x00000005 0x00000f00 0x000fe200
0xff107224 0x000000ff 0x078e0008 0x000fe200
0xff1a7984 0x0000c000 0x00001a00 0x010ea200
0xff127224 0x000000ff 0x078e0009 0x000fe400
0x030f7220 0x00000003 0x00400000 0x000fc400
0xff0e7224 0x000000ff 0x078e0004 0x000fe400
0x070d7220 0x00000007 0x00400000 0x001fc800
0x060d7223 0x00000006 0x0000000d 0x000fe400
0x0b117220 0x0000000b 0x00400000 0x002fc600
0x0000720b 0x0000000d 0x03f0e000 0x000fd800
0x00008947 0x000000e0 0x03800000 0x000fea00
0xff167984 0x0000b000 0x00001a00 0x004e2200
0x0d00720b 0x00000000 0x03f6e000 0x000fe200
0xff0c7224 0x000000ff 0x078e0007 0x000fe400
0xff0e7224 0x000000ff 0x078e0006 0x000fd200
0x0800320c 0x00000016 0x03f06070 0x0c1fe200
0xff107224 0x000000ff 0x078e0016 0x000fe200
0x0800320c 0x00000016 0x03f21070 0x000fe400
0x0900320c 0x00000017 0x03f06300 0x0c0fe400
0x0900320c 0x00000017 0x03f21310 0x080fe400
0x00127202 0x00000017 0x00000f00 0x000fe400
0x050c3208 0x00000007 0x04000000 0x000fc400
0x08103207 0x00000016 0x00800000 0x000fe400
0x09123207 0x00000017 0x00800000 0x000fe400
0x040e3208 0x00000006 0x04000000 0x000fc600
0x00017941 0x00000000 0x03800000 0x004fea00
0x02187223 0x00000002 0x0000000f 0x000fe200
0x01ff7355 0x00000000 0x00100000 0x000fe200
0x0a117223 0x0000000a 0x00000011 0x000fe200
0x00017945 0x00000200 0x03800000 0x000fe200
0xff007224 0x000000ff 0x078e000a 0x000fe200
0x00167202 0x0000001a 0x00000f00 0x000fe200
0xff067224 0x000000ff 0x078e000b 0x000fe200
0x1800720b 0x00000011 0x03f0e000 0x000fe200
0xff177224 0x000000ff 0x078e001b 0x000fe200
0x00047202 0x0000000e 0x00000f00 0x000fe200
0xff087224 0x000000ff 0x078e0010 0x000fc400
0xff097224 0x000000ff 0x078e0012 0x000fe400
0xff057224 0x000000ff 0x078e000c 0x000fca00
0x00008947 0x00000150 0x03800000 0x000fea00
0x1100720b 0x00000018 0x03f6e000 0x000fe200
0xff087224 0x000000ff 0x078e0010 0x000fe200
0x00067202 0x00000003 0x00000f00 0x000fe200
0xff167224 0x000000ff 0x078e0013 0x000fe400
0xff177224 0x000000ff 0x078e0015 0x000fe400
0xff007224 0x000000ff 0x078e0002 0x000fe400
0xff047224 0x000000ff 0x078e000e 0x000fe400
0xff097224 0x000000ff 0x078e0012 0x000fe200
0x1300320c 0x0000001a 0x03f21070 0x0c0fe200
0xff057224 0x000000ff 0x078e000c 0x000fe200
0x1300320c 0x0000001a 0x03f06070 0x000fe200
0xff093224 0x000000ff 0x078e0012 0x000fe200
0x1500320c 0x0000001b 0x03f21310 0x0c0fe200
0xff053224 0x000000ff 0x078e000c 0x000fe200
0x1500320c 0x0000001b 0x03f06300 0x000fc400
0x00083202 0x00000010 0x00000f00 0x000fe400
0x13163207 0x0000001a 0x00800000 0x000fe400
0x15173207 0x0000001b 0x00800000 0x000fe400
0x03063208 0x0000000b 0x04000000 0x000fe400
0x02003208 0x0000000a 0x04000000 0x000fe400
0x00043202 0x0000000e 0x00000f00 0x000fc600
0x00017941 0x00000000 0x03800000 0x000fea00
0x1400780c 0x000000c1 0x03f06270 0x000fe200
0xff0a7224 0x000000ff 0x078e0000 0x000fe200
0x00137202 0x00000016 0x00000f00 0x000fe200
0xff0b7224 0x000000ff 0x078e0006 0x000fc400
0xff157224 0x000000ff 0x078e0017 0x000fce00
0x00008947 0x00000440 0x03800000 0x000fea00
0xff027984 0x0000c800 0x00001a00 0x000e2200
0x050b7220 0x00000005 0x00400000 0x080fe200
0x01ff7355 0x00000000 0x00100000 0x000fe200
0x00017945 0x000001c0 0x03800000 0x000fe200
0xff0c7984 0x0000d800 0x00001a00 0x000e6200
0x040a7223 0x00000004 0x0000000b 0x000fe200
0x000e7202 0x00000005 0x00000f00 0x000fe200
0xff107224 0x000000ff 0x078e0008 0x000fe200
0xff1a7984 0x0000e000 0x00001a00 0x010ea200
0xff127224 0x000000ff 0x078e0009 0x000fe400
0x060b7220 0x00000006 0x00400000 0x000fc400
0xff0f7224 0x000000ff 0x078e0004 0x000fe400
0x03077220 0x00000003 0x00400000 0x001fc800
0x02077223 0x00000002 0x00000007 0x000fe400
0x0d117220 0x0000000d 0x00400000 0x002fc600
0x0a00720b 0x00000007 0x03f0e000 0x000fd800
0x00008947 0x000000e0 0x03800000 0x000fea00
0xff187984 0x0000d000 0x00001a00 0x004e2200
0x0700720b 0x0000000a 0x03f6e000 0x000fe200
0xff0e7224 0x000000ff 0x078e0003 0x000fe400
0xff0f7224 0x000000ff 0x078e0002 0x000fd200
0x0800320c 0x00000018 0x03f06070 0x0c1fe200
0xff107224 0x000000ff 0x078e0018 0x000fe200
0x0800320c 0x00000018 0x03f21070 0x000fe400
0x0900320c 0x00000019 0x03f06300 0x0c0fe400
0x0900320c 0x00000019 0x03f21310 0x080fe400
0x00127202 0x00000019 0x00000f00 0x000fe400
0x050e3208 0x00000003 0x04000000 0x000fc400
0x08103207 0x00000018 0x00800000 0x000fe400
0x09123207 0x00000019 0x00800000 0x000fe400
0x040f3208 0x00000002 0x04000000 0x000fc600
0x00017941 0x00000000 0x03800000 0x004fea00
0x00027223 0x00000000 0x0000000b 0x000fe200
0x01ff7355 0x00000000 0x00100000 0x000fe200
0x0c117223 0x0000000c 0x00000011 0x000fe200
0x00017945 0x00000200 0x03800000 0x000fe200
0xff0a7224 0x000000ff 0x078e000c 0x000fe200
0x00137202 0x0000001a 0x00000f00 0x000fe200
0xff0b7224 0x000000ff 0x078e000d 0x000fe200
0x0200720b 0x00000011 0x03f0e000 0x000fe200
0xff157224 0x000000ff 0x078e001b 0x000fe200
0x00047202 0x0000000f 0x00000f00 0x000fe200
0xff087224 0x000000ff 0x078e0010 0x000fc400
0xff097224 0x000000ff 0x078e0012 0x000fe400
0xff057224 0x000000ff 0x078e000e 0x000fca00
0x00008947 0x00000150 0x03800000 0x000fea00
0x1100720b 0x00000002 0x03f6e000 0x000fe200
0xff087224 0x000000ff 0x078e0010 0x000fe200
0x000b7202 0x00000006 0x00000f00 0x000fe200
0xff137224 0x000000ff 0x078e0016 0x000fe400
0xff157224 0x000000ff 0x078e0017 0x000fe400
0xff0a7224 0x000000ff 0x078e0000 0x000fe400
0xff047224 0x000000ff 0x078e000f 0x000fe400
0xff097224 0x000000ff 0x078e0012 0x000fe200
0x1600320c 0x0000001a 0x03f21070 0x0c0fe200
0xff057224 0x000000ff 0x078e000e 0x000fe200
0x1600320c 0x0000001a 0x03f06070 0x000fe200
0xff093224 0x000000ff 0x078e0012 0x000fe200
0x1700320c 0x0000001b 0x03f21310 0x0c0fe200
0xff053224 0x000000ff 0x078e000e 0x000fe200
0x1700320c 0x0000001b 0x03f06300 0x000fc400
0x00083202 0x00000010 0x00000f00 0x000fe400
0x16133207 0x0000001a 0x00800000 0x000fe400
0x17153207 0x0000001b 0x00800000 0x000fe400
0x060b3208 0x0000000d 0x04000000 0x000fe400
0x000a3208 0x0000000c 0x04000000 0x000fe400
0x00043202 0x0000000f 0x00000f00 0x000fc600
0x00017941 0x00000000 0x03800000 0x000fea00
0x1400780c 0x000000e1 0x03f06270 0x000fe200
0xff067224 0x000000ff 0x078e0013 0x000fe200
0x00027202 0x0000000a 0x00000f00 0x000fe200
0xff077224 0x000000ff 0x078e0015 0x000fc400
0xff037224 0x000000ff 0x078e000b 0x000fce00
0x00008947 0x00003430 0x03800000 0x000fea00
0xff027984 0x0000e800 0x00001a00 0x000e2200
0x050f7220 0x00000005 0x00400000 0x080fe200
0x01ff7355 0x00000000 0x00100000 0x000fe200
0x00017945 0x000001c0 0x03800000 0x000fe200
0xff0c7984 0x0000f800 0x00001a00 0x000e6200
0x04067223 0x00000004 0x0000000f 0x000fe200
0x00007202 0x00000005 0x00000f00 0x000fe200
0xff107224 0x000000ff 0x078e0008 0x000fe200
0xff187984 0x00010000 0x00001a00 0x000ea200
0xff127224 0x000000ff 0x078e0009 0x000fe400
0x0b0f7220 0x0000000b 0x00400000 0x000fc400
0xff0e7224 0x000000ff 0x078e0004 0x000fe400
0x03077220 0x00000003 0x00400000 0x001fc800
0x02077223 0x00000002 0x00000007 0x000fe400
0x0d117220 0x0000000d 0x00400000 0x002fc600
0x0600720b 0x00000007 0x03f0e000 0x000fd800
0x00008947 0x000000e0 0x03800000 0x000fea00
0xff167984 0x0000f000 0x00001a00 0x004e2200
0x0700720b 0x00000006 0x03f6e000 0x000fe200
0xff007224 0x000000ff 0x078e0003 0x000fe400
0xff0e7224 0x000000ff 0x078e0002 0x000fd200
0x0800320c 0x00000016 0x03f06070 0x0c1fe200
0xff107224 0x000000ff 0x078e0016 0x000fe200
0x0800320c 0x00000016 0x03f21070 0x000fe400
0x0900320c 0x00000017 0x03f06300 0x0c0fe400
0x0900320c 0x00000017 0x03f21310 0x080fe400
0x00127202 0x00000017 0x00000f00 0x000fe400
0x05003208 0x00000003 0x04000000 0x000fc400
0x08103207 0x00000016 0x00800000 0x000fe400
0x09123207 0x00000017 0x00800000 0x000fe400
0x040e3208 0x00000002 0x04000000 0x000fc600
0x00017941 0x00000000 0x03800000 0x004fea00
0x0a147223 0x0000000a 0x0000000f 0x000fe200
0x00027202 0x0000000c 0x00000f00 0x080fe200
0x0c117223 0x0000000c 0x00000011 0x000fe200
0x00047202 0x0000000e 0x00000f00 0x000fe200
0xff067224 0x000000ff 0x078e0018 0x000fe400
0xff077224 0x000000ff 0x078e0019 0x000fe200
0x1400720b 0x00000011 0x03f0e000 0x000fe200
0xff037224 0x000000ff 0x078e000d 0x000fc400
0xff087224 0x000000ff 0x078e0010 0x000fe400
0xff097224 0x000000ff 0x078e0012 0x000fe400
0xff057224 0x000000ff 0x078e0000 0x000fca00
0x00008947 0x00003170 0x03800000 0x000fea00
0x1100720b 0x00000014 0x03f0e000 0x000fe200
0xff087224 0x000000ff 0x078e0010 0x000fe200
0x00067202 0x00000013 0x00000f00 0x000fe200
0xff097224 0x000000ff 0x078e0012 0x000fe200
0x00027202 0x0000000a 0x00000f00 0x000fe200
0xff077224 0x000000ff 0x078e0015 0x000fe400
0xff047224 0x000000ff 0x078e000e 0x000fe400
0xff057224 0x000000ff 0x078e0000 0x000fe400
0xff037224 0x000000ff 0x078e000b 0x000fe200
0x00008947 0x000030d0 0x03800000 0x000fea00
0x1300720c 0x00000018 0x03f21070 0x0c0fe200
0xff087224 0x000000ff 0x078e0010 0x000fe200
0x1300720c 0x00000018 0x03f06070 0x000fe200
0xff097224 0x000000ff 0x078e0012 0x000fe200
0x1500720c 0x00000019 0x03f21310 0x0c0fe200
0xff057224 0x000000ff 0x078e0000 0x000fe200
0x1500720c 0x00000019 0x03f06300 0x000fc400
0x13067207 0x00000018 0x00800000 0x000fe400
0x15077207 0x00000019 0x00800000 0x000fe400
0x0b037208 0x0000000d 0x04000000 0x000fe400
0x0a027208 0x0000000c 0x04000000 0x000fe400
0x00047202 0x0000000e 0x00000f00 0x000fe200
0x00007947 0x00003000 0x03800000 0x000fea00
0x0f00780c 0x0000001e 0x03f04270 0x001fe200
0x01ff7355 0x00000000 0x00100000 0x000fe200
0x0c137f89 0x08201f00 0x000e0000 0x02006200
0x00017945 0x00000420 0x03800000 0x000fe200
0xff087224 0x000000ff 0x078e000a 0x000fe200
0x00107202 0x00000006 0x00000f00 0x000fe200
0x0d127f89 0x08201f00 0x000e0000 0x0000a200
0xff097224 0x000000ff 0x078e000b 0x000fe200
0x00047202 0x0000000c 0x00000f00 0x000fe200
0xff117224 0x000000ff 0x078e0007 0x000fe200
0x0a177f89 0x08201f00 0x000e0000 0x0000e200
0xff147224 0x000000ff 0x078e0002 0x000fc400
0xff157224 0x000000ff 0x078e0003 0x000fe200
0x0b167f89 0x08201f00 0x000e0000 0x00012200
0xff057224 0x000000ff 0x078e000d 0x000fc600
0x06187f89 0x08201f00 0x000e0000 0x00002800
0x071a7f89 0x08201f00 0x000e0000 0x00002800
0x02197f89 0x08201f00 0x000e0000 0x00002800
0x031c7f89 0x08201f00 0x000e0000 0x00002200
0x00000947 0x00000310 0x03800000 0x000fea00
0x0c087220 0x0000000c 0x00400000 0x006fe200
0x02ff7355 0x00000000 0x00100000 0x000fe200
0x12047220 0x00000012 0x00400000 0x000fe200
0x00027945 0x000001c0 0x03800000 0x000fe200
0x0d147223 0x0000000d 0x00000008 0x000fc400
0x13117223 0x00000013 0x00000004 0x000fe400
0x06107220 0x00000006 0x00400000 0x000fe400
0x1a057220 0x0000001a 0x00400000 0x001fe200
0x1400720b 0x00000011 0x03f0e000 0x000fe200
0x071e7223 0x00000007 0x00000010 0x000fe200
0x00107202 0x00000018 0x00000f00 0x080fe200
0x181b7223 0x00000018 0x00000005 0x000fe400
0xff087224 0x000000ff 0x078e000a 0x000fc400
0xff097224 0x000000ff 0x078e000b 0x000fe200
0x1e00720b 0x0000001b 0x03f4e000 0x000fe200
0xff057224 0x000000ff 0x078e000d 0x000fe400
0xff047224 0x000000ff 0x078e000c 0x000fe200
0x00008947 0x000000d0 0x03800000 0x000fea00
0x1100720b 0x00000014 0x03f6e000 0x000fe200
0xff087224 0x000000ff 0x078e0017 0x008fe200
0x00097202 0x00000016 0x00000f00 0x010fe200
0xff057224 0x000000ff 0x078e0012 0x000fe400
0xff047224 0x000000ff 0x078e0013 0x000fce00
0x0a00320c 0x00000017 0x03f21070 0x0c0fe400
0x0a00320c 0x00000017 0x03f06070 0x0c0fe400
0x0b00320c 0x00000016 0x03f21310 0x0c0fe400
0x0b00320c 0x00000016 0x03f06300 0x0c0fe400
0x0a083207 0x00000017 0x00800000 0x000fe400
0x0b093207 0x00000016 0x00800000 0x000fc400
0x0d053208 0x00000012 0x04000000 0x000fe400
0x0c043208 0x00000013 0x04000000 0x000fc600
0x00027941 0x00000000 0x03800000 0x000fea00
0xff117224 0x000000ff 0x078e001a 0x000fe200
0x00147202 0x00000019 0x00000f00 0x000fe200
0xff157224 0x000000ff 0x078e001c 0x000fe200
0x0000a947 0x000000d0 0x03800000 0x000fea00
0x1b00720b 0x0000001e 0x03f4e000 0x000fe200
0xff147224 0x000000ff 0x078e0002 0x000fe200
0x00117202 0x00000007 0x00000f00 0x000fe200
0xff157224 0x000000ff 0x078e0003 0x000fe400
0xff107224 0x000000ff 0x078e0006 0x000fce00
0x0200220c 0x00000019 0x03f21070 0x0c0fe400
0x0200220c 0x00000019 0x03f06070 0x0c0fe400
0x0300220c 0x0000001c 0x03f21310 0x0c0fe400
0x0300220c 0x0000001c 0x03f06300 0x0c0fe400
0x02142207 0x00000019 0x00800000 0x000fe400
0x03152207 0x0000001c 0x00800000 0x000fc400
0x07112208 0x0000001a 0x04000000 0x000fe400
0x06102208 0x00000018 0x04000000 0x000fc600
0x00017941 0x00000000 0x03800000 0x006fea00
0x0f00780c 0x0000001d 0x03f04270 0x000fe200
0x01ff7355 0x00000000 0x00100000 0x000fe200
0x040d7f89 0x08401f00 0x000e0000 0x00106200
0x00017945 0x000004a0 0x03800000 0x000fe200
0xff027224 0x000000ff 0x078e0010 0x000fe200
0x00127202 0x00000014 0x00000f00 0x000fe200
0x050c7f89 0x08401f00 0x000e0000 0x0000a200
0xff037224 0x000000ff 0x078e0011 0x000fe400
0xff137224 0x000000ff 0x078e0015 0x000fe200
0x08177f89 0x08401f00 0x000e0000 0x0080e800
0x09167f89 0x08401f00 0x000e0000 0x01012800
0x10197f89 0x08401f00 0x000e0000 0x00002800
0x11187f89 0x08401f00 0x000e0000 0x00002800
0x141b7f89 0x08401f00 0x000e0000 0x00002800
0x151a7f89 0x08401f00 0x000e0000 0x00002200
0x00000947 0x000003d0 0x03800000 0x000fea00
0x05037220 0x00000005 0x00400000 0x086fe200
0x02ff7355 0x00000000 0x00100000 0x000fe200
0x0c027220 0x0000000c 0x00400000 0x000fe200
0x00027945 0x000001a0 0x03800000 0x000fe200
0x04137223 0x00000004 0x00000003 0x000fe200
0x00067202 0x00000005 0x00000f00 0x000fe200
0x0d127223 0x0000000d 0x00000002 0x000fc400
0x11037220 0x00000011 0x00400000 0x000fe400
0x18027220 0x00000018 0x00400000 0x001fe200
0x1300720b 0x00000012 0x03f0e000 0x000fe200
0xff0a7224 0x000000ff 0x078e0008 0x000fe400
0xff0b7224 0x000000ff 0x078e0009 0x000fe400
0x101c7223 0x00000010 0x00000003 0x000fe400
0x191d7223 0x00000019 0x00000002 0x000fc400
0xff077224 0x000000ff 0x078e0004 0x000fc600
0x00008947 0x000000d0 0x03800000 0x000fea00
0x1200720b 0x00000013 0x03f4e000 0x000fe200
0xff0a7224 0x000000ff 0x078e0017 0x008fe200
0x00067202 0x0000000c 0x00000f00 0x000fe200
0xff0b7224 0x000000ff 0x078e0016 0x010fe400
0xff077224 0x000000ff 0x078e000d 0x000fce00
0x0800220c 0x00000017 0x03f21070 0x0c0fe400
0x0800220c 0x00000017 0x03f06070 0x0c0fe400
0x0900220c 0x00000016 0x03f21310 0x0c0fe400
0x0900220c 0x00000016 0x03f06300 0x0c0fe400
0x080a2207 0x00000017 0x00800000 0x000fe400
0x090b2207 0x00000016 0x00800000 0x000fc400
0x05062208 0x0000000c 0x04000000 0x000fe400
0x04072208 0x0000000d 0x04000000 0x000fc600
0x00027941 0x00000000 0x03800000 0x000fea00
0x1c00720b 0x0000001d 0x03f0e000 0x000fe200
0xff027224 0x000000ff 0x078e0019 0x000fe200
0x00127202 0x0000001b 0x00000f00 0x000fe200
0xff037224 0x000000ff 0x078e0018 0x000fe200
0x00047202 0x00000007 0x00000f00 0x000fe200
0xff137224 0x000000ff 0x078e001a 0x000fe400
0xff087224 0x000000ff 0x078e000a 0x000fe400
0xff097224 0x000000ff 0x078e000b 0x000fc400
0xff057224 0x000000ff 0x078e0006 0x000fe200
0x00008947 0x00000150 0x03800000 0x000fea00
0x1d00720b 0x0000001c 0x03f4e000 0x000fe200
0xff087224 0x000000ff 0x078e000a 0x000fe200
0x00037202 0x00000011 0x00000f00 0x000fe200
0xff127224 0x000000ff 0x078e0014 0x000fe400
0xff137224 0x000000ff 0x078e0015 0x000fe400
0xff027224 0x000000ff 0x078e0010 0x000fe400
0xff047224 0x000000ff 0x078e0007 0x000fc400
0xff097224 0x000000ff 0x078e000b 0x100fe200
0x1400220c 0x0000001b 0x03f21070 0x0c0fe200
0xff057224 0x000000ff 0x078e0006 0x100fe200
0x1400220c 0x0000001b 0x03f06070 0x0c0fe200
0xff092224 0x000000ff 0x078e000b 0x000fe200
0x1500220c 0x0000001a 0x03f21310 0x0c0fe200
0xff052224 0x000000ff 0x078e0006 0x000fe200
0x1500220c 0x0000001a 0x03f06300 0x000fe400
0x00082202 0x0000000a 0x00000f00 0x000fe400
0x14122207 0x0000001b 0x00800000 0x000fc400
0x15132207 0x0000001a 0x00800000 0x000fe400
0x11032208 0x00000018 0x04000000 0x000fe400
0x10022208 0x00000019 0x04000000 0x000fe400
0x00042202 0x00000007 0x00000f00 0x000fc600
0x00017941 0x00000000 0x03800000 0x006fea00
0x0f00780c 0x0000001b 0x03f04270 0x000fe200
0x01ff7355 0x00000000 0x00100000 0x000fe200
0x04157f89 0x08801f00 0x000e0000 0x00106200
0x00017945 0x000004a0 0x03800000 0x000fe200
0xff067224 0x000000ff 0x078e0002 0x000fe200
0x00107202 0x00000012 0x00000f00 0x000fe200
0x05147f89 0x08801f00 0x000e0000 0x0000a200
0xff077224 0x000000ff 0x078e0003 0x000fc400
0xff117224 0x000000ff 0x078e0013 0x000fe200
0x08177f89 0x08801f00 0x000e0000 0x0080e800
0x09167f89 0x08801f00 0x000e0000 0x01012800
0x02197f89 0x08801f00 0x000e0000 0x00002800
0x03187f89 0x08801f00 0x000e0000 0x00002800
0x121b7f89 0x08801f00 0x000e0000 0x00002800
0x131a7f89 0x08801f00 0x000e0000 0x00002200
0x00000947 0x000003d0 0x03800000 0x000fea00
0x05077220 0x00000005 0x00400000 0x086fe200
0x02ff7355 0x00000000 0x00100000 0x000fe200
0x14067220 0x00000014 0x00400000 0x000fe200
0x00027945 0x000001a0 0x03800000 0x000fe200
0x04117223 0x00000004 0x00000007 0x000fe200
0x000a7202 0x00000005 0x00000f00 0x000fe200
0x15107223 0x00000015 0x00000006 0x000fc400
0x03077220 0x00000003 0x00400000 0x000fe400
0x18067220 0x00000018 0x00400000 0x001fe200
0x1100720b 0x00000010 0x03f0e000 0x000fe200
0xff0c7224 0x000000ff 0x078e0008 0x000fe400
0xff0d7224 0x000000ff 0x078e0009 0x000fe400
0x021c7223 0x00000002 0x00000007 0x000fe400
0x191d7223 0x00000019 0x00000006 0x000fc400
0xff0b7224 0x000000ff 0x078e0004 0x000fc600
0x00008947 0x000000d0 0x03800000 0x000fea00
0x1000720b 0x00000011 0x03f4e000 0x000fe200
0xff0c7224 0x000000ff 0x078e0017 0x008fe200
0x000a7202 0x00000014 0x00000f00 0x000fe200
0xff0d7224 0x000000ff 0x078e0016 0x010fe400
0xff0b7224 0x000000ff 0x078e0015 0x000fce00
0x0800220c 0x00000017 0x03f21070 0x0c0fe400
0x0800220c 0x00000017 0x03f06070 0x0c0fe400
0x0900220c 0x00000016 0x03f21310 0x0c0fe400
0x0900220c 0x00000016 0x03f06300 0x0c0fe400
0x080c2207 0x00000017 0x00800000 0x000fe400
0x090d2207 0x00000016 0x00800000 0x000fc400
0x050a2208 0x00000014 0x04000000 0x000fe400
0x040b2208 0x00000015 0x04000000 0x000fc600
0x00027941 0x00000000 0x03800000 0x000fea00
0x1c00720b 0x0000001d 0x03f0e000 0x000fe200
0xff067224 0x000000ff 0x078e0019 0x000fe200
0x00107202 0x0000001b 0x00000f00 0x000fe200
0xff077224 0x000000ff 0x078e0018 0x000fe200
0x00047202 0x0000000b 0x00000f00 0x000fe200
0xff117224 0x000000ff 0x078e001a 0x000fe400
0xff087224 0x000000ff 0x078e000c 0x000fe400
0xff097224 0x000000ff 0x078e000d 0x000fc400
0xff057224 0x000000ff 0x078e000a 0x000fe200
0x00008947 0x00000150 0x03800000 0x000fea00
0x1d00720b 0x0000001c 0x03f4e000 0x000fe200
0xff087224 0x000000ff 0x078e000c 0x000fe200
0x00077202 0x00000003 0x00000f00 0x000fe200
0xff107224 0x000000ff 0x078e0012 0x000fe400
0xff117224 0x000000ff 0x078e0013 0x000fe400
0xff067224 0x000000ff 0x078e0002 0x000fe400
0xff047224 0x000000ff 0x078e000b 0x000fc400
0xff097224 0x000000ff 0x078e000d 0x100fe200
0x1200220c 0x0000001b 0x03f21070 0x0c0fe200
0xff057224 0x000000ff 0x078e000a 0x100fe200
0x1200220c 0x0000001b 0x03f06070 0x0c0fe200
0xff092224 0x000000ff 0x078e000d 0x000fe200
0x1300220c 0x0000001a 0x03f21310 0x0c0fe200
0xff052224 0x000000ff 0x078e000a 0x000fe200
0x1300220c 0x0000001a 0x03f06300 0x000fe400
0x00082202 0x0000000c 0x00000f00 0x000fe400
0x12102207 0x0000001b 0x00800000 0x000fc400
0x13112207 0x0000001a 0x00800000 0x000fe400
0x03072208 0x00000018 0x04000000 0x000fe400
0x02062208 0x00000019 0x04000000 0x000fe400
0x00042202 0x0000000b 0x00000f00 0x000fc600
0x00017941 0x00000000 0x03800000 0x006fea00
0x0f00780c 0x00000017 0x03f04270 0x000fe200
0x01ff7355 0x00000000 0x00100000 0x000fe200
0x04157f89 0x09001f00 0x000e0000 0x0002a200
0x00017945 0x000004a0 0x03800000 0x000fe200
0xff0a7224 0x000000ff 0x078e0006 0x000fe200
0x00127202 0x00000010 0x00000f00 0x001fe200
0x05147f89 0x09001f00 0x000e0000 0x00022200
0xff0b7224 0x000000ff 0x078e0007 0x000fc400
0xff137224 0x000000ff 0x078e0011 0x000fe200
0x08177f89 0x09001f00 0x000e0000 0x0082e800
0x09167f89 0x09001f00 0x000e0000 0x01032800
0x06197f89 0x09001f00 0x000e0000 0x00022800
0x07187f89 0x09001f00 0x000e0000 0x00022800
0x101b7f89 0x09001f00 0x000e0000 0x00022800
0x111a7f89 0x09001f00 0x000e0000 0x00022200
0x00000947 0x000003d0 0x03800000 0x000fea00
0x05037220 0x00000005 0x00400000 0x004fe200
0x02ff7355 0x00000000 0x00100000 0x000fe200
0x14027220 0x00000014 0x00400000 0x001fe200
0x00027945 0x000001a0 0x03800000 0x000fe200
0x040b7223 0x00000004 0x00000003 0x000fc400
0x150a7223 0x00000015 0x00000002 0x000fe400
0x07037220 0x00000007 0x00400000 0x000fe400
0x18027220 0x00000018 0x00400000 0x000fe200
0x0b00720b 0x0000000a 0x03f0e000 0x000fe200
0x061c7223 0x00000006 0x00000003 0x000fe400
0x191d7223 0x00000019 0x00000002 0x000fe200
0x00027202 0x00000005 0x00000f00 0x000fe200
0xff0c7224 0x000000ff 0x078e0008 0x000fc400
0xff0d7224 0x000000ff 0x078e0009 0x000fe400
0xff037224 0x000000ff 0x078e0004 0x000fc600
0x00008947 0x000000d0 0x03800000 0x000fea00
0x0a00720b 0x0000000b 0x03f4e000 0x000fe200
0xff0c7224 0x000000ff 0x078e0017 0x008fe200
0x00027202 0x00000014 0x00000f00 0x000fe200
0xff0d7224 0x000000ff 0x078e0016 0x010fe400
0xff037224 0x000000ff 0x078e0015 0x000fce00
0x0800220c 0x00000017 0x03f21070 0x0c0fe400
0x0800220c 0x00000017 0x03f06070 0x0c0fe400
0x0900220c 0x00000016 0x03f21310 0x0c0fe400
0x0900220c 0x00000016 0x03f06300 0x0c0fe400
0x080c2207 0x00000017 0x00800000 0x000fe400
0x090d2207 0x00000016 0x00800000 0x000fc400
0x05022208 0x00000014 0x04000000 0x000fe400
0x04032208 0x00000015 0x04000000 0x000fc600
0x00027941 0x00000000 0x03800000 0x000fea00
0x1c00720b 0x0000001d 0x03f0e000 0x000fe200
0xff0a7224 0x000000ff 0x078e0019 0x000fe200
0x00127202 0x0000001b 0x00000f00 0x000fe200
0xff0b7224 0x000000ff 0x078e0018 0x000fe200
0x00047202 0x00000003 0x00000f00 0x002fe200
0xff137224 0x000000ff 0x078e001a 0x000fe400
0xff087224 0x000000ff 0x078e000c 0x000fe400
0xff097224 0x000000ff 0x078e000d 0x000fc400
0xff057224 0x000000ff 0x078e0002 0x000fe200
0x00008947 0x00000150 0x03800000 0x000fea00
0x1d00720b 0x0000001c 0x03f4e000 0x000fe200
0xff087224 0x000000ff 0x078e000c 0x000fe200
0x000b7202 0x00000007 0x00000f00 0x000fe200
0xff127224 0x000000ff 0x078e0010 0x000fe400
0xff137224 0x000000ff 0x078e0011 0x000fe400
0xff0a7224 0x000000ff 0x078e0006 0x000fe400
0xff047224 0x000000ff 0x078e0003 0x000fc400
0xff097224 0x000000ff 0x078e000d 0x100fe200
0x1000220c 0x0000001b 0x03f21070 0x0c0fe200
0xff057224 0x000000ff 0x078e0002 0x100fe200
0x1000220c 0x0000001b 0x03f06070 0x0c0fe200
0xff092224 0x000000ff 0x078e000d 0x000fe200
0x1100220c 0x0000001a 0x03f21310 0x0c0fe200
0xff052224 0x000000ff 0x078e0002 0x000fe200
0x1100220c 0x0000001a 0x03f06300 0x000fe400
0x00082202 0x0000000c 0x00000f00 0x000fe400
0x10122207 0x0000001b 0x00800000 0x000fc400
0x11132207 0x0000001a 0x00800000 0x000fe400
0x070b2208 0x00000018 0x04000000 0x000fe400
0x060a2208 0x00000019 0x04000000 0x000fe400
0x00042202 0x00000003 0x00000f00 0x000fc600
0x00017941 0x00000000 0x03800000 0x004fea00
0x0f00780c 0x0000000f 0x03f04270 0x000fe200
0x01ff7355 0x00000000 0x00100000 0x000fe200
0x04157f89 0x0a001f00 0x000e0000 0x00046200
0x00017945 0x000004a0 0x03800000 0x000fe200
0xff067224 0x000000ff 0x078e0012 0x002fe200
0x00027202 0x0000000a 0x00000f00 0x000fe200
0x05147f89 0x0a001f00 0x000e0000 0x00142200
0xff077224 0x000000ff 0x078e0013 0x000fc400
0xff037224 0x000000ff 0x078e000b 0x000fe200
0x08177f89 0x0a001f00 0x000e0000 0x00846800
0x09167f89 0x0a001f00 0x000e0000 0x0104e800
0x0a197f89 0x0a001f00 0x000e0000 0x00052800
0x0b187f89 0x0a001f00 0x000e0000 0x00042800
0x121b7f89 0x0a001f00 0x000e0000 0x00042800
0x131a7f89 0x0a001f00 0x000e0000 0x00042200
0x00000947 0x000003d0 0x03800000 0x000fea00
0x05037220 0x00000005 0x00400000 0x080fe200
0x02ff7355 0x00000000 0x00100000 0x000fe200
0x14027220 0x00000014 0x00400000 0x001fe200
0x00027945 0x000001a0 0x03800000 0x000fe200
0x04077223 0x00000004 0x00000003 0x000fe200
0x000c7202 0x00000005 0x00000f00 0x000fe200
0x15067223 0x00000015 0x00000002 0x000fc400
0x0b037220 0x0000000b 0x00400000 0x000fe400
0x18027220 0x00000018 0x00400000 0x000fe200
0x0700720b 0x00000006 0x03f0e000 0x000fe200
0xff107224 0x000000ff 0x078e0008 0x000fe400
0xff117224 0x000000ff 0x078e0009 0x000fe400
0x0a1c7223 0x0000000a 0x00000003 0x000fe400
0x191d7223 0x00000019 0x00000002 0x010fc400
0xff0d7224 0x000000ff 0x078e0004 0x000fc600
0x00008947 0x000000d0 0x03800000 0x000fea00
0x0600720b 0x00000007 0x03f4e000 0x000fe200
0xff107224 0x000000ff 0x078e0017 0x002fe200
0x000c7202 0x00000014 0x00000f00 0x000fe200
0xff117224 0x000000ff 0x078e0016 0x008fe400
0xff0d7224 0x000000ff 0x078e0015 0x000fce00
0x0800220c 0x00000017 0x03f21070 0x0c0fe400
0x0800220c 0x00000017 0x03f06070 0x0c0fe400
0x0900220c 0x00000016 0x03f21310 0x0c0fe400
0x0900220c 0x00000016 0x03f06300 0x0c0fe400
0x08102207 0x00000017 0x00800000 0x000fe400
0x09112207 0x00000016 0x00800000 0x000fc400
0x050c2208 0x00000014 0x04000000 0x000fe400
0x040d2208 0x00000015 0x04000000 0x000fc600
0x00027941 0x00000000 0x03800000 0x000fea00
0x1c00720b 0x0000001d 0x03f0e000 0x000fe200
0xff067224 0x000000ff 0x078e001b 0x000fe200
0x00027202 0x00000019 0x00000f00 0x000fe200
0xff077224 0x000000ff 0x078e001a 0x000fe200
0x00047202 0x0000000d 0x00000f00 0x004fe200
0xff037224 0x000000ff 0x078e0018 0x000fe400
0xff087224 0x000000ff 0x078e0010 0x000fe400
0xff097224 0x000000ff 0x078e0011 0x000fc400
0xff057224 0x000000ff 0x078e000c 0x000fe200
0x00008947 0x00000150 0x03800000 0x000fea00
0x1d00720b 0x0000001c 0x03f4e000 0x000fe200
0xff087224 0x000000ff 0x078e0010 0x000fe200
0x00047202 0x0000000d 0x00000f00 0x000fe200
0xff067224 0x000000ff 0x078e0012 0x000fe400
0xff077224 0x000000ff 0x078e0013 0x000fe400
0xff037224 0x000000ff 0x078e000b 0x000fe400
0xff027224 0x000000ff 0x078e000a 0x000fc400
0xff097224 0x000000ff 0x078e0011 0x100fe200
0x1200220c 0x0000001b 0x03f21070 0x0c0fe200
0xff057224 0x000000ff 0x078e000c 0x100fe200
0x1200220c 0x0000001b 0x03f06070 0x0c0fe200
0xff092224 0x000000ff 0x078e0011 0x000fe200
0x1300220c 0x0000001a 0x03f21310 0x0c0fe200
0xff052224 0x000000ff 0x078e000c 0x000fe200
0x1300220c 0x0000001a 0x03f06300 0x000fe400
0x00082202 0x00000010 0x00000f00 0x000fe400
0x12062207 0x0000001b 0x00800000 0x000fc400
0x13072207 0x0000001a 0x00800000 0x000fe400
0x00042202 0x0000000d 0x00000f00 0x000fe400
0x0b032208 0x00000018 0x04000000 0x000fe400
0x0a022208 0x00000019 0x04000000 0x000fc600
0x00017941 0x00000000 0x03800000 0x000fea00
0x0f00720c 0x000000ff 0x03f05270 0x000fe400
0x0000720c 0x000000ff 0x03f45270 0x000fd400
0x0e008388 0x00000804 0x00000a00 0x000fe800
0x0e008388 0x00001802 0x00000a00 0x000fe800
0x0e008388 0x00001008 0x00000a00 0x000fe800
0x0e008388 0x00002006 0x00000a00 0x000fe800
0x00007b1d 0x00000000 0x00000000 0x000fea00
0x00002947 0x000017a0 0x03800000 0x000fea00
0xff327984 0x00002800 0x00001a00 0x000f6200
0x05377220 0x00000005 0x00400000 0x080fe200
0x01ff7355 0x00000000 0x00100000 0x000fe200
0x00017945 0x000002a0 0x03800000 0x000fe200
0xff307984 0x00003800 0x00001a00 0x000ea200
0x04397223 0x00000004 0x00000037 0x000fe200
0x00007202 0x00000005 0x00000f00 0x000fe200
0xff347224 0x000000ff 0x078e0008 0x000fe200
0xff2e7984 0x00004000 0x00001a00 0x000f2200
0xff377224 0x000000ff 0x078e0004 0x000fc600
0xff2c7984 0x00004800 0x00001a00 0x000ee800
0xff2a7984 0x00005800 0x00001a00 0x000e6800
0xff287984 0x00006000 0x00001a00 0x000e2800
0xff267984 0x00006800 0x00001a00 0x000e2800
0xff247984 0x00007800 0x00001a00 0x000e2800
0xff227984 0x00008000 0x00001a00 0x000e2800
0xff207984 0x00008800 0x00001a00 0x000e2800
0xff1e7984 0x00009800 0x00001a00 0x000e2200
0x33357220 0x00000033 0x00400000 0x020fc600
0xff1c7984 0x0000a000 0x00001a00 0x000e2200
0x32367223 0x00000032 0x00000035 0x000fe400
0xff357224 0x000000ff 0x078e0009 0x000fe200
0xff1a7984 0x0000a800 0x00001a00 0x001e2400
0x3900720b 0x00000036 0x03f0e000 0x000fe400
0xff187984 0x0000b800 0x00001a00 0x010f2800
0xff167984 0x0000c000 0x00001a00 0x00ae6800
0xff147984 0x0000c800 0x00001a00 0x000ee800
0xff127984 0x0000d800 0x00001a00 0x004ea800
0xff107984 0x0000e000 0x00001a00 0x000e2800
0xff0e7984 0x0000e800 0x00001a00 0x000e2800
0xff0c7984 0x0000f800 0x00001a00 0x000e2800
0xff0a7984 0x00010000 0x00001a00 0x000e2200
0x00008947 0x000000c0 0x03800000 0x000fea00
0xff347984 0x00003000 0x00001a00 0x000f6200
0x3600720b 0x00000039 0x03f6e000 0x000fe200
0xff007224 0x000000ff 0x078e0033 0x000fc400
0xff377224 0x000000ff 0x078e0032 0x000fd200
0x0800320c 0x00000034 0x03f06070 0x0e0fe400
0x0800320c 0x00000034 0x03f21070 0x0c0fe400
0x0900320c 0x00000035 0x03f06300 0x0c0fe400
0x0900320c 0x00000035 0x03f21310 0x000fe400
0x05003208 0x00000033 0x04000000 0x000fe400
0x08343207 0x00000034 0x00800000 0x000fc400
0x09353207 0x00000035 0x00800000 0x000fe400
0x04373208 0x00000032 0x04000000 0x000fc600
0x00017941 0x00000000 0x03800000 0x000fea00
0x03097220 0x00000003 0x00400000 0x000fe200
0x01ff7355 0x00000000 0x00100000 0x000fe200
0x31057220 0x00000031 0x00400000 0x080fe200
0x00017945 0x00000160 0x03800000 0x000fe200
0x02337223 0x00000002 0x00000009 0x000fe200
0x00087202 0x00000031 0x00000f00 0x000fe200
0x30327223 0x00000030 0x00000005 0x000fe400
0xff097224 0x000000ff 0x078e0030 0x000fc400
0xff057224 0x000000ff 0x078e002e 0x000fe200
0x3300720b 0x00000032 0x03f0e000 0x000fe200
0xff047224 0x000000ff 0x078e002f 0x000fd600
0x00008947 0x000000d0 0x03800000 0x000fea00
0x3200720b 0x00000033 0x03f6e000 0x000fe200
0xff047224 0x000000ff 0x078e0007 0x000fe200
0x00057202 0x00000006 0x00000f00 0x000fe200
0xff087224 0x000000ff 0x078e0003 0x000fe400
0xff097224 0x000000ff 0x078e0002 0x000fce00
0x0600320c 0x0000002e 0x03f21070 0x0c0fe400
0x0600320c 0x0000002e 0x03f06070 0x0c0fe400
0x0700320c 0x0000002f 0x03f21310 0x0c0fe400
0x0700320c 0x0000002f 0x03f06300 0x0c0fe400
0x06053207 0x0000002e 0x00800000 0x000fe400
0x07043207 0x0000002f 0x00800000 0x000fc400
0x03083208 0x00000031 0x04000000 0x000fe400
0x02093208 0x00000030 0x04000000 0x000fc600
0x00017941 0x00000000 0x03800000 0x000fea00
0x2d077220 0x0000002d 0x00400000 0x000fe200
0x01ff7355 0x00000000 0x00100000 0x000fe200
0x37037220 0x00000037 0x00400000 0x000fe200
0x00017945 0x00000150 0x03800000 0x000fe200
0x2c2e7223 0x0000002c 0x00000007 0x000fe200
0x00027202 0x00000034 0x00000f00 0x000fe200
0x002f7223 0x00000000 0x00000003 0x000fe400
0xff037224 0x000000ff 0x078e0035 0x000fc400
0xff067224 0x000000ff 0x078e0000 0x000fe200
0x2f00720b 0x0000002e 0x03f0e000 0x000fe200
0xff077224 0x000000ff 0x078e0037 0x000fd600
0x00008947 0x000000c0 0x03800000 0x000fea00
0xff027984 0x00005000 0x00001a00 0x000f6200
0x2e00720b 0x0000002f 0x03f6e000 0x000fe200
0xff077224 0x000000ff 0x078e002c 0x000fe200
0x00067202 0x0000002d 0x00000f00 0x000fd400
0x3400320c 0x00000002 0x03f06070 0x0e0fe400
0x3400320c 0x00000002 0x03f21070 0x080fe400
0x3500320c 0x00000003 0x03f06300 0x0c0fe400
0x3500320c 0x00000003 0x03f21310 0x000fe400
0x00063208 0x0000002d 0x04000000 0x000fe400
0x34023207 0x00000002 0x00800000 0x000fc400
0x35033207 0x00000003 0x00800000 0x000fe400
0x37073208 0x0000002c 0x04000000 0x000fc600
0x00017941 0x00000000 0x03800000 0x000fea00
0x2b2f7220 0x0000002b 0x00400000 0x000fe200
0x01ff7355 0x00000000 0x00100000 0x000fe200
0x092d7220 0x00000009 0x00400000 0x000fe200
0x00017945 0x00000160 0x03800000 0x000fe200
0x2a2e7223 0x0000002a 0x0000002f 0x000fe200
0x002f7202 0x00000028 0x00000f00 0x000fe200
0x08317223 0x00000008 0x0000002d 0x000fe400
0xff007224 0x000000ff 0x078e002b 0x000fc400
0xff2d7224 0x000000ff 0x078e002a 0x000fe200
0x3100720b 0x0000002e 0x03f0e000 0x000fe200
0xff2c7224 0x000000ff 0x078e0029 0x000fd600
0x00008947 0x000000d0 0x03800000 0x000fea00
0x2e00720b 0x00000031 0x03f6e000 0x000fe200
0xff2f7224 0x000000ff 0x078e0005 0x000fe200
0x00007202 0x00000008 0x00000f00 0x000fe200
0xff2c7224 0x000000ff 0x078e0004 0x000fe400
0xff2d7224 0x000000ff 0x078e0009 0x000fce00
0x0500320c 0x00000028 0x03f21070 0x0c0fe400
0x0500320c 0x00000028 0x03f06070 0x0c0fe400
0x0400320c 0x00000029 0x03f21310 0x0c0fe400
0x0400320c 0x00000029 0x03f06300 0x0c0fe400
0x052f3207 0x00000028 0x00800000 0x000fe400
0x042c3207 0x00000029 0x00800000 0x000fc400
0x08003208 0x0000002b 0x04000000 0x000fe400
0x092d3208 0x0000002a 0x04000000 0x000fc600
0x00017941 0x00000000 0x03800000 0x000fea00
0x27097220 0x00000027 0x00400000 0x000fe200
0x01ff7355 0x00000000 0x00100000 0x000fe200
0x07057220 0x00000007 0x00400000 0x000fe200
0x00017945 0x00000150 0x03800000 0x000fe200
0x26287223 0x00000026 0x00000009 0x000fe200
0x00047202 0x00000006 0x00000f00 0x080fe200
0x06297223 0x00000006 0x00000005 0x000fe400
0xff087224 0x000000ff 0x078e0002 0x000fc400
0xff097224 0x000000ff 0x078e0003 0x000fe200
0x2900720b 0x00000028 0x03f0e000 0x000fe200
0xff057224 0x000000ff 0x078e0007 0x000fd600
0x00008947 0x000000c0 0x03800000 0x000fea00
0xff087984 0x00007000 0x00001a00 0x000f6200
0x2800720b 0x00000029 0x03f6e000 0x000fe200
0xff047224 0x000000ff 0x078e0027 0x000fe400
0xff057224 0x000000ff 0x078e0026 0x000fd200
0x0200320c 0x00000008 0x03f06070 0x0e0fe400
0x0200320c 0x00000008 0x03f21070 0x080fe400
0x0300320c 0x00000009 0x03f06300 0x0c0fe400
0x0300320c 0x00000009 0x03f21310 0x000fe400
0x06043208 0x00000027 0x04000000 0x000fe400
0x02083207 0x00000008 0x00800000 0x000fc400
0x03093207 0x00000009 0x00800000 0x000fe400
0x07053208 0x00000026 0x04000000 0x000fc600
0x00017941 0x00000000 0x03800000 0x000fea00
0x25077220 0x00000025 0x00400000 0x000fe200
0x01ff7355 0x00000000 0x00100000 0x000fe200
0x2d037220 0x0000002d 0x00400000 0x000fe200
0x00017945 0x00000160 0x03800000 0x000fe200
0x24077223 0x00000024 0x00000007 0x000fe200
0x00027202 0x00000025 0x00000f00 0x000fe200
0x00067223 0x00000000 0x00000003 0x000fe400
0xff037224 0x000000ff 0x078e0024 0x000fc400
0xff277224 0x000000ff 0x078e0022 0x000fe200
0x0600720b 0x00000007 0x03f0e000 0x000fe200
0xff267224 0x000000ff 0x078e0023 0x000fd600
0x00008947 0x000000d0 0x03800000 0x000fea00
0x0700720b 0x00000006 0x03f6e000 0x000fe200
0xff267224 0x000000ff 0x078e002c 0x000fe200
0x00277202 0x0000002f 0x00000f00 0x000fe200
0xff027224 0x000000ff 0x078e0000 0x000fe400
0xff037224 0x000000ff 0x078e002d 0x000fce00
0x2f00320c 0x00000022 0x03f21070 0x0c0fe400
0x2f00320c 0x00000022 0x03f06070 0x0c0fe400
0x2c00320c 0x00000023 0x03f21310 0x0c0fe400
0x2c00320c 0x00000023 0x03f06300 0x0c0fe400
0x2f273207 0x00000022 0x00800000 0x000fe400
0x2c263207 0x00000023 0x00800000 0x000fc400
0x00023208 0x00000025 0x04000000 0x000fe400
0x2d033208 0x00000024 0x04000000 0x000fc600
0x00017941 0x00000000 0x03800000 0x000fea00
0x21237220 0x00000021 0x00400000 0x000fe200
0x01ff7355 0x00000000 0x00100000 0x000fe200
0x05077220 0x00000005 0x00400000 0x000fe200
0x00017945 0x00000170 0x03800000 0x000fe200
0x20237223 0x00000020 0x00000023 0x000fe200
0x00227202 0x00000008 0x00000f00 0x000fe200
0x04067223 0x00000004 0x00000007 0x000fe400
0xff247224 0x000000ff 0x078e0009 0x000fc400
0xff007224 0x000000ff 0x078e0004 0x000fe200
0x0600720b 0x00000023 0x03f0e000 0x000fe200
0xff077224 0x000000ff 0x078e0005 0x000fd600
0x00008947 0x000000e0 0x03800000 0x000fea00
0xff287984 0x00009000 0x00001a00 0x000f6200
0x2300720b 0x00000006 0x03f6e000 0x000fe200
0xff077224 0x000000ff 0x078e0020 0x000fe200
0x00007202 0x00000021 0x00000f00 0x000fd400
0x0800320c 0x00000028 0x03f06070 0x0e0fe200
0xff227224 0x000000ff 0x078e0028 0x000fe200
0x0800320c 0x00000028 0x03f21070 0x080fe200
0xff247224 0x000000ff 0x078e0029 0x000fe200
0x0900320c 0x00000029 0x03f06300 0x0c0fe400
0x0900320c 0x00000029 0x03f21310 0x000fe400
0x04003208 0x00000021 0x04000000 0x000fe400
0x08223207 0x00000028 0x00800000 0x000fc400
0x09243207 0x00000029 0x00800000 0x000fe400
0x05073208 0x00000020 0x04000000 0x000fc600
0x00017941 0x00000000 0x03800000 0x000fea00
0x1f097220 0x0000001f 0x00400000 0x000fe200
0x01ff7355 0x00000000 0x00100000 0x000fe200
0x03057220 0x00000003 0x00400000 0x000fe200
0x00017945 0x00000160 0x03800000 0x000fe200
0x1e097223 0x0000001e 0x00000009 0x000fe200
0x00047202 0x0000001f 0x00000f00 0x000fe200
0x02087223 0x00000002 0x00000005 0x000fe400
0xff057224 0x000000ff 0x078e001e 0x000fc400
0xff217224 0x000000ff 0x078e001c 0x000fe200
0x0800720b 0x00000009 0x03f0e000 0x000fe200
0xff067224 0x000000ff 0x078e001d 0x000fd600
0x00008947 0x000000d0 0x03800000 0x000fea00
0x0900720b 0x00000008 0x03f6e000 0x000fe200
0xff067224 0x000000ff 0x078e0026 0x000fe200
0x00217202 0x00000027 0x00000f00 0x000fe200
0xff047224 0x000000ff 0x078e0002 0x000fe400
0xff057224 0x000000ff 0x078e0003 0x000fce00
0x2700320c 0x0000001c 0x03f21070 0x0c0fe400
0x2700320c 0x0000001c 0x03f06070 0x0c0fe400
0x2600320c 0x0000001d 0x03f21310 0x0c0fe400
0x2600320c 0x0000001d 0x03f06300 0x0c0fe400
0x27213207 0x0000001c 0x00800000 0x000fe400
0x26063207 0x0000001d 0x00800000 0x000fc400
0x02043208 0x0000001f 0x04000000 0x000fe400
0x03053208 0x0000001e 0x04000000 0x000fc600
0x00017941 0x00000000 0x03800000 0x000fea00
0x1b097220 0x0000001b 0x00400000 0x001fe200
0x01ff7355 0x00000000 0x00100000 0x000fe200
0x07037220 0x00000007 0x00400000 0x000fe200
0x00017945 0x00000150 0x03800000 0x000fe200
0x1a097223 0x0000001a 0x00000009 0x000fe200
0x001c7202 0x00000022 0x00000f00 0x000fe200
0x00087223 0x00000000 0x00000003 0x000fe400
0xff1d7224 0x000000ff 0x078e0024 0x000fc400
0xff027224 0x000000ff 0x078e0000 0x000fe200
0x0800720b 0x00000009 0x03f0e000 0x000fe200
0xff037224 0x000000ff 0x078e0007 0x000fd600
0x00008947 0x000000c0 0x03800000 0x000fea00
0xff1c7984 0x0000b000 0x00001a00 0x000e2200
0x0900720b 0x00000008 0x03f6e000 0x000fe200
0xff037224 0x000000ff 0x078e001a 0x000fe200
0x00027202 0x0000001b 0x00000f00 0x000fd400
0x2200320c 0x0000001c 0x03f06070 0x0c1fe400
0x2200320c 0x0000001c 0x03f21070 0x080fe400
0x2400320c 0x0000001d 0x03f06300 0x0c0fe400
0x2400320c 0x0000001d 0x03f21310 0x000fe400
0x00023208 0x0000001b 0x04000000 0x000fe400
0x221c3207 0x0000001c 0x00800000 0x000fc400
0x241d3207 0x0000001d 0x00800000 0x000fe400
0x07033208 0x0000001a 0x04000000 0x000fc600
0x00017941 0x00000000 0x03800000 0x000fea00
0x19097220 0x00000019 0x00400000 0x010fe200
0x01ff7355 0x00000000 0x00100000 0x000fe200
0x05077220 0x00000005 0x00400000 0x000fe200
0x00017945 0x00000160 0x03800000 0x000fe200
0x18097223 0x00000018 0x00000009 0x000fe200
0x001b7202 0x00000016 0x00000f00 0x002fe200
0x041a7223 0x00000004 0x00000007 0x000fe400
0xff007224 0x000000ff 0x078e0019 0x000fc400
0xff077224 0x000000ff 0x078e0018 0x000fe200
0x1a00720b 0x00000009 0x03f0e000 0x000fe200
0xff087224 0x000000ff 0x078e0017 0x000fd600
0x00008947 0x000000d0 0x03800000 0x000fea00
0x0900720b 0x0000001a 0x03f6e000 0x000fe200
0xff1b7224 0x000000ff 0x078e0021 0x000fe200
0x00007202 0x00000004 0x00000f00 0x000fe200
0xff087224 0x000000ff 0x078e0006 0x000fe400
0xff077224 0x000000ff 0x078e0005 0x000fce00
0x2100320c 0x00000016 0x03f21070 0x0c0fe400
0x2100320c 0x00000016 0x03f06070 0x0c0fe400
0x0600320c 0x00000017 0x03f21310 0x0c0fe400
0x0600320c 0x00000017 0x03f06300 0x0c0fe400
0x211b3207 0x00000016 0x00800000 0x000fe400
0x06083207 0x00000017 0x00800000 0x000fc400
0x04003208 0x00000019 0x04000000 0x000fe400
0x05073208 0x00000018 0x04000000 0x000fc600
0x00017941 0x00000000 0x03800000 0x000fea00
0x15097220 0x00000015 0x00400000 0x008fe200
0x01ff7355 0x00000000 0x00100000 0x000fe200
0x03057220 0x00000003 0x00400000 0x000fe200
0x00017945 0x00000160 0x03800000 0x000fe200
0x14097223 0x00000014 0x00000009 0x000fe200
0x00067202 0x00000002 0x00000f00 0x080fe200
0x02047223 0x00000002 0x00000005 0x000fe400
0xff187224 0x000000ff 0x078e001c 0x000fc400
0xff1a7224 0x000000ff 0x078e001d 0x000fe200
0x0400720b 0x00000009 0x03f0e000 0x000fe200
0xff177224 0x000000ff 0x078e0003 0x000fd600
0x00008947 0x000000d0 0x03800000 0x000fea00
0xff187984 0x0000d000 0x00001a00 0x000e2200
0x0900720b 0x00000004 0x03f6e000 0x000fe200
0xff067224 0x000000ff 0x078e0015 0x000fe200
0x00177202 0x00000014 0x00000f00 0x000fd400
0x1c00320c 0x00000018 0x03f06070 0x0c1fe200
0xff1a7224 0x000000ff 0x078e0019 0x000fe200
0x1c00320c 0x00000018 0x03f21070 0x080fe400
0x1d00320c 0x00000019 0x03f06300 0x0c0fe400
0x1d00320c 0x00000019 0x03f21310 0x000fe400
0x02063208 0x00000015 0x04000000 0x000fe400
0x1c183207 0x00000018 0x00800000 0x000fc400
0x1d1a3207 0x00000019 0x00800000 0x000fe400
0x03173208 0x00000014 0x04000000 0x000fc600
0x00017941 0x00000000 0x03800000 0x000fea00
0x13057220 0x00000013 0x00400000 0x004fe200
0x01ff7355 0x00000000 0x00100000 0x000fe200
0x07037220 0x00000007 0x00400000 0x000fe200
0x00017945 0x00000160 0x03800000 0x000fe200
0x12057223 0x00000012 0x00000005 0x000fe200
0x00167202 0x00000011 0x00000f00 0x000fe200
0x00027223 0x00000000 0x00000003 0x000fe400
0xff147224 0x000000ff 0x078e0013 0x000fc400
0xff157224 0x000000ff 0x078e0012 0x000fe200
0x0200720b 0x00000005 0x03f0e000 0x000fe200
0xff197224 0x000000ff 0x078e0010 0x000fd600
0x00008947 0x000000d0 0x03800000 0x000fea00
0x0500720b 0x00000002 0x03f6e000 0x000fe200
0xff197224 0x000000ff 0x078e001b 0x000fe200
0x00157202 0x00000007 0x00000f00 0x000fe200
0xff167224 0x000000ff 0x078e0008 0x000fe400
0xff147224 0x000000ff 0x078e0000 0x000fce00
0x1b00320c 0x00000010 0x03f21070 0x0c0fe400
0x1b00320c 0x00000010 0x03f06070 0x0c0fe400
0x0800320c 0x00000011 0x03f21310 0x0c0fe400
0x0800320c 0x00000011 0x03f06300 0x0c0fe400
0x1b193207 0x00000010 0x00800000 0x000fe400
0x08163207 0x00000011 0x00800000 0x000fc400
0x00143208 0x00000013 0x04000000 0x000fe400
0x07153208 0x00000012 0x04000000 0x000fc600
0x00017941 0x00000000 0x03800000 0x000fea00
0x0f057220 0x0000000f 0x00400000 0x000fe200
0x01ff7355 0x00000000 0x00100000 0x000fe200
0x17037220 0x00000017 0x00400000 0x080fe200
0x00017945 0x00000160 0x03800000 0x000fe200
0x0e007223 0x0000000e 0x00000005 0x000fe200
0x00047202 0x00000017 0x00000f00 0x000fe200
0x06037223 0x00000006 0x00000003 0x000fe400
0x0d077220 0x0000000d 0x00400000 0x000fc400
0xff087224 0x000000ff 0x078e0018 0x000fe200
0x0300720b 0x00000000 0x03f0e000 0x000fe200
0xff097224 0x000000ff 0x078e001a 0x000fe400
0xff057224 0x000000ff 0x078e0006 0x000fd200
0x00008947 0x000000c0 0x03800000 0x000fea00
0xff087984 0x0000f000 0x00001a00 0x000e2200
0x0000720b 0x00000003 0x03f6e000 0x000fe200
0xff057224 0x000000ff 0x078e000f 0x000fe400
0xff047224 0x000000ff 0x078e000e 0x000fd200
0x1800320c 0x00000008 0x03f21070 0x0c1fe400
0x1800320c 0x00000008 0x03f06070 0x080fe400
0x1a00320c 0x00000009 0x03f21310 0x0c0fe400
0x1a00320c 0x00000009 0x03f06300 0x080fe400
0x18083207 0x00000008 0x00800000 0x000fe400
0x1a093207 0x00000009 0x00800000 0x000fc400
0x06053208 0x0000000f 0x04000000 0x000fe400
0x17043208 0x0000000e 0x04000000 0x000fc600
0x00017941 0x00000000 0x03800000 0x000fea00
0x15037220 0x00000015 0x00400000 0x000fe400
0x0c007223 0x0000000c 0x00000007 0x000fe200
0x00077202 0x0000000b 0x00000f00 0x000fe200
0x140f7223 0x00000014 0x00000003 0x000fe400
0xff067224 0x000000ff 0x078e000a 0x000fe400
0xff027224 0x000000ff 0x078e000c 0x000fe200
0x0f00720b 0x00000000 0x03f0e000 0x000fe200
0xff037224 0x000000ff 0x078e000d 0x000fd600
0x00008947 0x000000d0 0x03800000 0x000fea00
0x0000720b 0x0000000f 0x03f6e000 0x000fe200
0xff067224 0x000000ff 0x078e0019 0x000fe200
0x00077202 0x00000016 0x00000f00 0x000fe200
0xff037224 0x000000ff 0x078e0014 0x000fe400
0xff027224 0x000000ff 0x078e0015 0x000fce00
0x1900320c 0x0000000a 0x03f21070 0x0c0fe400
0x1900320c 0x0000000a 0x03f06070 0x0c0fe400
0x1600320c 0x0000000b 0x03f21310 0x0c0fe400
0x1600320c 0x0000000b 0x03f06300 0x0c0fe400
0x19063207 0x0000000a 0x00800000 0x000fe400
0x16073207 0x0000000b 0x00800000 0x000fc400
0x14033208 0x0000000d 0x04000000 0x000fe400
0x15023208 0x0000000c 0x04000000 0x000fc600
0x00007941 0x00000000 0x03800000 0x000fea00
0x0000294d 0x00000000 0x03800000 0x000fea00
0x00047ab9 0x00005a00 0x00000a00 0x000fe400
0xff007986 0x00000004 0x0c10eb04 0x000fe800
0xff007986 0x00000808 0x0c10eb04 0x000fe800
0xff007986 0x00001002 0x0c10eb04 0x000fe800
0xff007986 0x00001806 0x0c10eb04 0x000fe200
0x0000794d 0x00000000 0x03800000 0x000fea00
0x00007947 0xfffffff0 0x0383ffff 0x000fc000
0x00007918 0x00000000 0x00000000 0x000fc000
0x00007918 0x00000000 0x00000000 0x000fc000



.text._ZN6thrust20THRUST_200400_750_NS8cuda_cub4core13_kernel_agentINS1_8__reduce11ReduceAgentINS1_26transform_input_iterator_tIN4cuda3std3__45tupleIJNSA_IJ6vec_2dIfElEEESD_EEENS0_12zip_iteratorINSA_IJNS0_6detail15normal_iteratorINS0_10device_ptrISC_EEEENS1_19counting_iterator_tIlEEEEEEENS1_9__extrema12arg_minmax_fISC_l7compareIfEE15duplicate_tupleEEEPSE_SE_lST_EESV_SW_lN3cub17CUB_200400_750_NS13GridEvenShareIlEENSZ_9GridQueueIyEEST_EEvT0_T1_T2_T3_T4_T5_
bar = 1	reg = 60	lmem=0	smem=0
0xff017624 0x00000a00 0x078e00ff 0x000fe400
0x000d7919 0x00000000 0x00002500 0x000e2200
0x00ff7355 0x00000000 0x00100000 0x000fe200
0x00007945 0x0000d0b0 0x03800000 0x000fe200
0x0d0d7824 0x00000200 0x078e00ff 0x001fca00
0x0d007810 0x00000200 0x07f3e0ff 0x000fc800
0x00007a0c 0x00006000 0x03f04070 0x000fe200
0xff007224 0x000000ff 0x008e06ff 0x000fca00
0x00007a0c 0x00006100 0x03f04300 0x000fd800
0x00000947 0x00005210 0x03800000 0x000fea00
0x00007919 0x00000000 0x00002100 0x000e2400
0x0d037210 0x00000000 0x07f1e0ff 0x001fe400
0xff0c7819 0x0000001f 0x00011400 0x000fca00
0xff047224 0x000000ff 0x000e060c 0x000fe200
0x03027a11 0x00005800 0x078018ff 0x000fc800
0x03037a11 0x00005900 0x000f1c04 0x000fd000
0x02067381 0x00000000 0x001eeb00 0x0000a800
0x020a7381 0x00080000 0x001eeb00 0x0000e200
0x000f7a10 0x00005a00 0x07a3e00d 0x000fe200
0xff107624 0x00000300 0x078e00ff 0x000fe200
0x01ff7355 0x00000000 0x00100000 0x000fe200
0x00017945 0x000001c0 0x03800000 0x000fe200
0x0c117a10 0x00005b00 0x00fe44ff 0x000fe200
0xff087224 0x000000ff 0x078e000f 0x000fe200
0x10107819 0x00000009 0x000006ff 0x000fc400
0x0f027810 0x00000100 0x07f5e0ff 0x001fe400
0x10007a0c 0x00006000 0x03f06070 0x000fc600
0xff127224 0x000000ff 0x010e0611 0x000fe200
0xff007a0c 0x00006100 0x03f06300 0x000fe200
0x07057220 0x00000007 0x00400000 0x004fe400
0xff047224 0x000000ff 0x078e0006 0x000fe400
0x0b097220 0x0000000b 0x00400000 0x008fe400
0x060d7223 0x00000006 0x00000005 0x000fe400
0x0a0e7223 0x0000000a 0x00000009 0x000fc400
0xff097224 0x000000ff 0x078e0011 0x000fe400
0xff057224 0x000000ff 0x078e0007 0x000fe200
0x0d00720b 0x0000000e 0x03f2e000 0x000fc800
0x0f037207 0x00000002 0x00800000 0x000fe400
0x06027208 0x0000000a 0x00800000 0x000fcc00
0x00009947 0x00000090 0x03800000 0x000fea00
0x0e00720b 0x0000000d 0x03f4e000 0x000fd800
0x0f08a810 0x00000100 0x07f7e0ff 0x000fe200
0xff05a224 0x000000ff 0x078e000b 0x000fe200
0x0004a202 0x0000000a 0x00000f00 0x000fc600
0xff09a224 0x000000ff 0x018e0611 0x000fe400
0xff082224 0x000000ff 0x078e000f 0x000fe400
0xff042224 0x000000ff 0x078e0006 0x000fe200
0x00092202 0x00000011 0x00000f00 0x000fe200
0xff052224 0x000000ff 0x078e0007 0x000fc600
0x00017941 0x00000000 0x03800000 0x000fea00
0x07067208 0x0000000b 0x00800000 0x000fe400
0x11077207 0x00000012 0x00800000 0x000fe200
0x00000947 0x00001e20 0x03800000 0x000fea00
0x0000720c 0x000000ff 0x03f25270 0x000fe200
0x00067882 0x00000001 0x00000000 0x000fe200
0x01ff7355 0x00000000 0x00100000 0x000fe200
0x00047ab9 0x00800000 0x00000a00 0x000fe200
0x00017945 0x000000c0 0x03800000 0x000fe200
0x00087ab9 0x00007400 0x00000a00 0x000fc400
0x060472a5 0x00000008 0x0f8e0004 0x000fe400
0x060672a4 0x00000009 0x0f8e023f 0x000fc800
0x05057290 0x00000006 0x0fffe03f 0x000fe200
0x00001947 0x00000060 0x03800000 0x000fec00
0xff0e7424 0x00000200 0x078e00ff 0x000fe400
0xff0f7424 0x00000000 0x078e00ff 0x000fd000
0xff0a79a8 0x0000000e 0x081f4544 0x000ea400
0x0a0a7210 0x00000010 0x07f1e0ff 0x004fca00
0xff0b7224 0x000000ff 0x000e060b 0x000fd000
0xff007388 0x0001280a 0x00000a00 0x0001e400
0x00017941 0x00000000 0x03800000 0x000fea00
0x00007b1d 0x00000000 0x00000000 0x000fea00
0xff0a7984 0x00012800 0x00001a00 0x001e2400
0x0a0d7810 0x00000200 0x07f5e0ff 0x001fc800
0x0d007a0c 0x00006000 0x03f04070 0x000fe200
0xff0d7224 0x000000ff 0x010e060b 0x000fca00
0x0d007a0c 0x00006100 0x03f04300 0x000fd800
0x00000947 0x00000880 0x03800000 0x000fea00
0xff0d7224 0x000000ff 0x078e0004 0x000fe200
0x00117202 0x00000005 0x00000f00 0x000fe200
0xff187224 0x000000ff 0x078e0008 0x000fe400
0xff1a7224 0x000000ff 0x078e0009 0x000fe400
0x000e7210 0x0000000a 0x07f1e0ff 0x000fca00
0x0c0f7824 0x00000001 0x000e060b 0x000fe200
0x0e147a11 0x00005800 0x078018ff 0x000fc800
0x0e157a11 0x00005900 0x000f1c0f 0x000fd000
0x14127381 0x00000000 0x001eeb00 0x000ea800
0x140e7381 0x00080000 0x001eeb00 0x00016200
0x11167220 0x00000011 0x00400000 0x000fe200
0x01ff7355 0x00000000 0x00100000 0x000fe200
0x06197220 0x00000006 0x00400000 0x000fe200
0x00017945 0x000001a0 0x03800000 0x000fe200
0x0d167223 0x0000000d 0x00000016 0x000fe400
0x021c7223 0x00000002 0x00000019 0x000fc400
0x13177220 0x00000013 0x00400000 0x004fc800
0x121b7223 0x00000012 0x00000017 0x000fe200
0x00177a10 0x00005a00 0x07c7e00a 0x000fc800
0x1600720b 0x0000001b 0x03f0e000 0x080fe400
0x1c00720b 0x0000001b 0x03f4e000 0x000fe400
0x0c197a10 0x00005b00 0x01fe840b 0x000fd000
0x00008947 0x00000100 0x03800000 0x000fea00
0x1b00720b 0x00000016 0x03f0e000 0x001fe200
0xff087224 0x000000ff 0x078e0017 0x000fe200
0x00047202 0x00000012 0x00000f00 0x000fe200
0xff097224 0x000000ff 0x078e0019 0x000fe400
0xff057224 0x000000ff 0x078e0013 0x000fce00
0x00008947 0x000000a0 0x03800000 0x000fea00
0x1800720c 0x00000017 0x03f06070 0x000fe200
0xff087224 0x000000ff 0x078e0017 0x000fe400
0xff097224 0x000000ff 0x078e0019 0x000fe200
0x1a00720c 0x00000019 0x03f06300 0x000fe200
0xff047224 0x000000ff 0x078e0012 0x000fe400
0xff057224 0x000000ff 0x078e0013 0x000fd200
0x00088202 0x00000018 0x00000f00 0x000fe200
0xff098224 0x000000ff 0x078e001a 0x000fe400
0xff048224 0x000000ff 0x078e000d 0x000fe400
0xff058224 0x000000ff 0x078e0011 0x000fc600
0x00017941 0x00000000 0x03800000 0x001fea00
0x01ff7355 0x00000000 0x00100000 0x000fe200
0x00017945 0x00000170 0x03800000 0x000fe200
0xff147224 0x000000ff 0x078e0017 0x000fe200
0x000a7202 0x00000012 0x00000f00 0x000fe200
0xff167224 0x000000ff 0x078e0019 0x000fe400
0x0f0d7220 0x0000000f 0x00400000 0x020fc400
0xff0b7224 0x000000ff 0x078e0013 0x000fe200
0x0000a947 0x00000100 0x03800000 0x000fea00
0x1b00720b 0x0000001c 0x03f0e000 0x000fe200
0xff147224 0x000000ff 0x078e0003 0x000fe400
0xff167224 0x000000ff 0x078e0007 0x000fe400
0xff0a7224 0x000000ff 0x078e0002 0x000fe400
0xff0b7224 0x000000ff 0x078e0006 0x000fca00
0x00008947 0x000000a0 0x03800000 0x000fea00
0x0300720c 0x00000017 0x03f06070 0x000fe200
0xff167224 0x000000ff 0x078e0019 0x000fe200
0x000a7202 0x00000012 0x00000f00 0x000fe200
0xff147224 0x000000ff 0x078e0017 0x000fe200
0x0700720c 0x00000019 0x03f06300 0x000fe200
0xff0b7224 0x000000ff 0x078e0013 0x000fd600
0xff0a8224 0x000000ff 0x078e0002 0x000fe200
0x00168202 0x00000007 0x00000f00 0x000fe200
0xff148224 0x000000ff 0x078e0003 0x000fe400
0xff0b8224 0x000000ff 0x078e0006 0x000fc600
0x00017941 0x00000000 0x03800000 0x000fea00
0x05037220 0x00000005 0x00400000 0x000fe200
0x01ff7355 0x00000000 0x00100000 0x000fe200
0x0e127223 0x0000000e 0x0000000d 0x000fe200
0x00017945 0x00000120 0x03800000 0x000fe200
0x04037223 0x00000004 0x00000003 0x000fca00
0x0300720b 0x00000012 0x03f0e000 0x000fd800
0x00008947 0x000000e0 0x03800000 0x000fea00
0x1200720b 0x00000003 0x03f0e000 0x000fd800
0x17088810 0x00000100 0x07f5e0ff 0x000fe200
0xff048224 0x000000ff 0x078e000e 0x000fe400
0xff058224 0x000000ff 0x078e000f 0x000fe400
0xff098224 0x000000ff 0x010e0619 0x000fe200
0x00008947 0x00000080 0x03800000 0x000fec00
0x17037810 0x00000100 0x07f5e0ff 0x000fc800
0x0800720c 0x00000003 0x03f06070 0x000fe200
0xff027224 0x000000ff 0x010e0619 0x000fca00
0x0900720c 0x00000002 0x03f06300 0x000fd800
0x00080202 0x00000003 0x00000f00 0x000fe200
0xff090224 0x000000ff 0x078e0002 0x000fe400
0xff040224 0x000000ff 0x078e000e 0x000fe400
0xff050224 0x000000ff 0x078e000f 0x000fc600
0x00017941 0x00000000 0x03800000 0x000fea00
0x0b037220 0x0000000b 0x00400000 0x000fe200
0x01ff7355 0x00000000 0x00100000 0x000fe200
0x00017945 0x00000180 0x03800000 0x000fe400
0x0a0d7223 0x0000000a 0x00000003 0x000fca00
0x0d00720b 0x00000012 0x03f0e000 0x000fd800
0x17038810 0x00000100 0x07f5e0ff 0x000fe200
0xff028224 0x000000ff 0x078e000e 0x000fe400
0xff068224 0x000000ff 0x078e000f 0x000fe200
0xff078210 0x00000019 0x017fe4ff 0x000fe200
0x00008947 0x00000100 0x03800000 0x000fea00
0x1200720b 0x0000000d 0x03f0e000 0x000fe200
0xff037224 0x000000ff 0x078e0014 0x000fe400
0xff077224 0x000000ff 0x078e0016 0x000fe400
0xff027224 0x000000ff 0x078e000a 0x000fc400
0xff067224 0x000000ff 0x078e000b 0x000fca00
0x00008947 0x000000a0 0x03800000 0x000fea00
0x17037810 0x00000100 0x07f1e0ff 0x000fca00
0xff077224 0x000000ff 0x000e0619 0x000fe200
0x1400720c 0x00000003 0x03f06070 0x000fc800
0x1600720c 0x00000007 0x03f06300 0x000fd800
0x00020202 0x0000000e 0x00000f00 0x000fe200
0xff060224 0x000000ff 0x078e000f 0x000fe400
0xff038224 0x000000ff 0x078e0014 0x000fe400
0xff078224 0x000000ff 0x078e0016 0x000fe400
0xff028224 0x000000ff 0x078e000a 0x000fe400
0xff068224 0x000000ff 0x078e000b 0x000fc600
0x00017941 0x00000000 0x03800000 0x000fea00
0x01ff7355 0x00000000 0x00100000 0x000fe200
0x00007b1d 0x00000000 0x00000000 0x000fea00
0x00017945 0x00000080 0x03800000 0x000fe200
0x00001947 0x00000060 0x03800000 0x000fea00
0x000e7802 0x00000200 0x00000f00 0x000fe200
0xff0f7424 0x00000000 0x078e00ff 0x000fd000
0xff0a79a8 0x0000000e 0x081f4544 0x000ea400
0x0a0a7210 0x00000010 0x07f1e0ff 0x004fca00
0xff0b7224 0x000000ff 0x000e060b 0x000fd000
0xff007388 0x0001280a 0x00000a00 0x0001e400
0x00017941 0x00000000 0x03800000 0x000fea00
0x00007b1d 0x00000000 0x00000000 0x000fea00
0xff0a7984 0x00012800 0x00001a00 0x001e2200
0xff117224 0x000000ff 0x078e0005 0x000fe200
0x00187202 0x00000008 0x00000f00 0x000fe200
0xff1a7224 0x000000ff 0x078e0009 0x000fe200
0x0a0d7810 0x00000200 0x07f5e0ff 0x001fc800
0x0d007a0c 0x00006000 0x03f04070 0x000fe200
0xff0d7224 0x000000ff 0x010e060b 0x000fca00
0x0d007a0c 0x00006100 0x03f04300 0x000fe200
0xff0d7224 0x000000ff 0x078e0004 0x000fd600
0x00008947 0xfffff7c0 0x0383ffff 0x000fea00
0x0a007a0c 0x00006000 0x03f06070 0x000fc800
0x0b007a0c 0x00006100 0x03f06300 0x000fd800
0x00000947 0x000013f0 0x03800000 0x000fea00
0x0a137a10 0x00006000 0x07ffe1ff 0x000fe200
0x02ff7355 0x00000000 0x00100000 0x000fe200
0x00027945 0x000013c0 0x03800000 0x000fe400
0x0000720c 0x00000013 0x03f06270 0x000fd800
0x00000947 0x00001390 0x03800000 0x000fea00
0xff0d7212 0x00000000 0x078e33ff 0x000fe200
0x01ff7355 0x00000000 0x00100000 0x000fe200
0x00017945 0x000004f0 0x03800000 0x000fe200
0xff127224 0x000000ff 0x078e0000 0x000fe200
0x0a197a10 0x00006000 0x07ffe10d 0x000fc800
0x190d7811 0x00000001 0x078fc0ff 0x000fc800
0x0d0d7812 0x00000003 0x0780c0ff 0x000fd800
0x00008947 0x00000490 0x03800000 0x000fea00
0x00187210 0x0000000a 0x07f1e0ff 0x040fe200
0xff0e7224 0x000000ff 0x078e000d 0x000fe200
0x00167a10 0x00005a00 0x07a3e00a 0x000fe200
0xff127224 0x000000ff 0x078e0000 0x000fe400
0x0c0f7824 0x00000001 0x000e060b 0x100fe200
0x18177a11 0x00005800 0x078018ff 0x000fe400
0x0c157a10 0x00005b00 0x00fe440b 0x000fe400
0x18187a11 0x00005900 0x000f1c0f 0x000fc800
0x000c7202 0x00000017 0x00000f00 0x000fe200
0xff0d7224 0x000000ff 0x078e0018 0x000fd000
0x0c0c7381 0x00000000 0x001eeb00 0x000ea200
0x04107220 0x00000004 0x00400000 0x000fe200
0x03ff7355 0x00000000 0x00100000 0x000fe200
0x00037945 0x00000190 0x03800000 0x000fe200
0xff1d7224 0x000000ff 0x078e0003 0x000fe400
0x05107223 0x00000005 0x00000010 0x000fe400
0x0d0f7220 0x0000000d 0x00400000 0x004fc800
0x0c1b7223 0x0000000c 0x0000000f 0x000fe400
0x020f7220 0x00000002 0x00400000 0x000fc600
0x1000720b 0x0000001b 0x03f0e000 0x000fd800
0x00008947 0x00000110 0x03800000 0x000fea00
0x1b00720b 0x00000010 0x03f4e000 0x000fe200
0xff117224 0x000000ff 0x078e0008 0x000fe200
0x00147202 0x00000009 0x00000f00 0x000fe200
0xff107224 0x000000ff 0x078e0005 0x000fe400
0xff037224 0x000000ff 0x078e0004 0x000fe400
0xff087224 0x000000ff 0x078e0016 0x000fe400
0xff097224 0x000000ff 0x078e0015 0x000fe400
0xff057224 0x000000ff 0x078e000d 0x000fe200
0x1100220c 0x00000016 0x03f21070 0x0c0fe200
0xff047224 0x000000ff 0x078e000c 0x000fe200
0x1100220c 0x00000016 0x03f06070 0x000fc400
0x1400220c 0x00000015 0x03f21310 0x0c0fe400
0x1400220c 0x00000015 0x03f06300 0x0c0fe400
0x11082207 0x00000016 0x00800000 0x000fe400
0x14092207 0x00000015 0x00800000 0x000fe400
0x10052208 0x0000000d 0x04000000 0x000fe400
0x03042208 0x0000000c 0x04000000 0x000fc600
0x00037941 0x00000000 0x03800000 0x000fea00
0x06107223 0x00000006 0x0000000f 0x000fe200
0x0e0e7810 0xffffffff 0x07ffe0ff 0x000fe200
0x03ff7355 0x00000000 0x00100000 0x000fe200
0x00037945 0x00000180 0x03800000 0x000fe200
0xff147224 0x000000ff 0x078e0007 0x000fe200
0x1000720b 0x0000001b 0x03f0e000 0x000fe200
0xff1a7224 0x000000ff 0x078e0006 0x000fe200
0x000f7202 0x00000002 0x00000f00 0x000fe200
0xff037224 0x000000ff 0x078e0016 0x000fe200
0x0e00720c 0x000000ff 0x03f45270 0x000fe200
0xff077224 0x000000ff 0x078e0015 0x000fc400
0xff067224 0x000000ff 0x078e000d 0x000fe400
0xff027224 0x000000ff 0x078e000c 0x000fc600
0x00008947 0x000000d0 0x03800000 0x000fea00
0x1b00720b 0x00000010 0x03f6e000 0x000fe200
0xff037224 0x000000ff 0x078e001d 0x000fe200
0x00067202 0x0000001a 0x00000f00 0x000fe200
0xff027224 0x000000ff 0x078e000f 0x000fe400
0xff077224 0x000000ff 0x078e0014 0x000fce00
0x1d00320c 0x00000016 0x03f06070 0x0c0fe400
0x1d00320c 0x00000016 0x03f21070 0x000fe400
0x1400320c 0x00000015 0x03f06300 0x0c0fe400
0x1400320c 0x00000015 0x03f21310 0x000fe400
0x1a063208 0x0000000d 0x04000000 0x000fe400
0x0f023208 0x0000000c 0x04000000 0x000fc400
0x1d033207 0x00000016 0x00800000 0x000fe400
0x14073207 0x00000015 0x00800000 0x000fc600
0x00037941 0x00000000 0x03800000 0x000fea00
0x17177810 0x00000800 0x07f1e0ff 0x000fe400
0x16167810 0x00000100 0x07f3e0ff 0x000fe400
0x12127810 0x00000100 0x07ffe0ff 0x000fe200
0xff187224 0x000000ff 0x000e0618 0x000fe400
0xff157224 0x000000ff 0x008e0615 0x000fe200
0x00002947 0xfffffbf0 0x0383ffff 0x000fea00
0x00017941 0x00000000 0x03800000 0x000fea00
0x1900780c 0x00000300 0x03f06070 0x000fd800
0x00008947 0x00000e50 0x03800000 0x000fea00
0x120d7810 0x00000100 0x07ffe0ff 0x040fe400
0x12117210 0x0000000a 0x07f5e0ff 0x040fe400
0x0d147a10 0x00005a00 0x0791e00a 0x000fe400
0x120c7211 0x0000000b 0x010f0eff 0x000fe400
0xff0a7819 0x0000001f 0x0001140d 0x000fe400
0x11107a11 0x00005800 0x078418ff 0x000fc400
0x0a157a10 0x00005b00 0x007e240b 0x000fe400
0x11117a11 0x00005900 0x010f1c0c 0x000fd000
0x10167381 0x00000000 0x001eeb00 0x000ea800
0x100e7381 0x00080000 0x001eeb00 0x00016800
0x100c7381 0x00100000 0x001eeb00 0x00016800
0x100a7381 0x00180000 0x001eeb00 0x00016200
0x04187220 0x00000004 0x00400000 0x000fe200
0x14207810 0xffffff00 0x07f3e0ff 0x000fe200
0x021b7220 0x00000002 0x00400000 0x000fe200
0x01ff7355 0x00000000 0x00100000 0x000fe200
0x051a7223 0x00000005 0x00000018 0x000fe200
0x00017945 0x000001b0 0x03800000 0x000fe200
0x061e7223 0x00000006 0x0000001b 0x000fe200
0x001d7202 0x00000008 0x00000f00 0x000fe200
0xff1c7224 0x000000ff 0x078e0009 0x000fe200
0x15227810 0xffffffff 0x00ffe4ff 0x000fe200
0xff187224 0x000000ff 0x078e0005 0x000fc400
0x17197220 0x00000017 0x00400000 0x004fc800
0x161f7223 0x00000016 0x00000019 0x000fe400
0xff197224 0x000000ff 0x078e0004 0x000fc600
0x1a00720b 0x0000001f 0x03f0e000 0x080fe400
0x1e00720b 0x0000001f 0x03f4e000 0x000fd400
0x00008947 0x000000f0 0x03800000 0x000fea00
0x1f00720b 0x0000001a 0x03f6e000 0x001fe200
0xff187224 0x000000ff 0x078e0017 0x000fe200
0x141b7810 0xffffff00 0x07f1e0ff 0x000fe200
0xff197224 0x000000ff 0x078e0016 0x000fc600
0x151a7810 0xffffffff 0x007fe4ff 0x000fe200
0xff1d7224 0x000000ff 0x078e001b 0x000fc600
0x001c7202 0x0000001a 0x00000f00 0x080fe400
0x0800320c 0x0000001b 0x03f21070 0x0c0fe400
0x0800320c 0x0000001b 0x03f06070 0x0c0fe400
0x0900320c 0x0000001a 0x03f21310 0x0c0fe400
0x0900320c 0x0000001a 0x03f06300 0x000fe400
0x081d3207 0x0000001b 0x00800000 0x000fc400
0x091c3207 0x0000001a 0x00800000 0x000fe400
0x05183208 0x00000017 0x04000000 0x000fe400
0x04193208 0x00000016 0x04000000 0x000fc600
0x00017941 0x00000000 0x03800000 0x001fea00
0x01ff7355 0x00000000 0x00100000 0x000fe200
0x00017945 0x00000130 0x03800000 0x000fe200
0xff1b7224 0x000000ff 0x078e0020 0x000fe400
0xff1a7224 0x000000ff 0x078e0022 0x000fe400
0xff047224 0x000000ff 0x078e0017 0x000fc400
0xff057224 0x000000ff 0x078e0016 0x000fe200
0x0000a947 0x000000d0 0x03800000 0x000fea00
0x1f00720b 0x0000001e 0x03f4e000 0x000fe200
0xff1a7224 0x000000ff 0x078e0007 0x000fe200
0x001b7202 0x00000003 0x00000f00 0x000fe200
0xff047224 0x000000ff 0x078e0006 0x000fe400
0xff057224 0x000000ff 0x078e0002 0x000fce00
0x0300220c 0x00000020 0x03f21070 0x0c0fe400
0x0300220c 0x00000020 0x03f06070 0x000fe400
0x0700220c 0x00000022 0x03f21310 0x0c0fe400
0x0700220c 0x00000022 0x03f06300 0x000fe400
0x031b2207 0x00000020 0x00800000 0x000fe400
0x071a2207 0x00000022 0x00800000 0x000fc400
0x06042208 0x00000017 0x04000000 0x000fe400
0x02052208 0x00000016 0x04000000 0x000fc600
0x00017941 0x00000000 0x03800000 0x000fea00
0x0f077220 0x0000000f 0x00400000 0x020fe200
0x01ff7355 0x00000000 0x00100000 0x000fe200
0x19037220 0x00000019 0x00400000 0x000fe200
0x00017945 0x00000160 0x03800000 0x000fe200
0x0e1f7223 0x0000000e 0x00000007 0x000fe200
0x00027202 0x00000018 0x00000f00 0x080fe200
0x18067223 0x00000018 0x00000003 0x000fe400
0xff177224 0x000000ff 0x078e001d 0x000fc400
0xff167224 0x000000ff 0x078e001c 0x000fe200
0x0600720b 0x0000001f 0x03f0e000 0x000fe200
0xff037224 0x000000ff 0x078e0019 0x000fd600
0x00008947 0x000000d0 0x03800000 0x000fea00
0x1f00720b 0x00000006 0x03f4e000 0x000fe200
0xff177224 0x000000ff 0x078e0014 0x000fe400
0xff167224 0x000000ff 0x078e0015 0x000fe400
0xff027224 0x000000ff 0x078e000f 0x000fe400
0xff037224 0x000000ff 0x078e000e 0x000fca00
0x1d00220c 0x00000014 0x03f21070 0x0c0fe400
0x1d00220c 0x00000014 0x03f06070 0x0c0fe400
0x1c00220c 0x00000015 0x03f21310 0x0c0fe400
0x1c00220c 0x00000015 0x03f06300 0x0c0fe400
0x1d172207 0x00000014 0x00800000 0x000fe400
0x1c162207 0x00000015 0x00800000 0x000fc400
0x18022208 0x0000000f 0x04000000 0x000fe400
0x19032208 0x0000000e 0x04000000 0x000fc600
0x00017941 0x00000000 0x03800000 0x000fea00
0x05077220 0x00000005 0x00400000 0x000fe200
0x01ff7355 0x00000000 0x00100000 0x000fe200
0x00017945 0x00000160 0x03800000 0x000fe200
0x00087202 0x00000014 0x00000f00 0x000fe200
0x04187223 0x00000004 0x00000007 0x000fe400
0xff1c7224 0x000000ff 0x078e0015 0x000fe400
0x0d097220 0x0000000d 0x00400000 0x000fe200
0x1800720b 0x0000001f 0x03f0e000 0x000fe200
0xff067224 0x000000ff 0x078e000f 0x000fc400
0xff077224 0x000000ff 0x078e000e 0x000fd200
0x00008947 0x000000d0 0x03800000 0x000fea00
0x1f00720b 0x00000018 0x03f4e000 0x000fe200
0xff067224 0x000000ff 0x078e0004 0x000fe200
0x00077202 0x00000005 0x00000f00 0x000fe200
0xff087224 0x000000ff 0x078e001b 0x000fe400
0xff1c7224 0x000000ff 0x078e001a 0x000fce00
0x1b00220c 0x00000014 0x03f06070 0x0c0fe400
0x1b00220c 0x00000014 0x03f21070 0x000fe400
0x1a00220c 0x00000015 0x03f06300 0x0c0fe400
0x1a00220c 0x00000015 0x03f21310 0x000fe400
0x04062208 0x0000000f 0x04000000 0x000fe400
0x05072208 0x0000000e 0x04000000 0x000fc400
0x1b082207 0x00000014 0x00800000 0x000fe400
0x1a1c2207 0x00000015 0x00800000 0x000fc600
0x00017941 0x00000000 0x03800000 0x000fea00
0x03057220 0x00000003 0x00400000 0x000fe200
0x01ff7355 0x00000000 0x00100000 0x000fe200
0x0c1e7223 0x0000000c 0x00000009 0x000fe200
0x00017945 0x00000170 0x03800000 0x000fe200
0x02057223 0x00000002 0x00000005 0x000fe400
0xff1b7224 0x000000ff 0x078e0017 0x000fe400
0xff1a7224 0x000000ff 0x078e0016 0x000fe200
0x0500720b 0x0000001e 0x03f0e000 0x000fe200
0xff0e7224 0x000000ff 0x078e0002 0x000fc400
0xff0f7224 0x000000ff 0x078e0003 0x000fd200
0x00008947 0x000000f0 0x03800000 0x000fea00
0x1e00720b 0x00000005 0x03f4e000 0x000fe200
0xff0e7224 0x000000ff 0x078e000d 0x000fe200
0x14047810 0x00000100 0x07f1e0ff 0x000fe200
0xff0f7224 0x000000ff 0x078e000c 0x000fc600
0xff057210 0x00000015 0x007fe4ff 0x000fe200
0xff1b7224 0x000000ff 0x078e0004 0x000fc800
0xff1a7224 0x000000ff 0x078e0005 0x000fe200
0x1700220c 0x00000004 0x03f21070 0x0c0fe400
0x1700220c 0x00000004 0x03f06070 0x0c0fe400
0x1600220c 0x00000005 0x03f21310 0x0c0fe400
0x1600220c 0x00000005 0x03f06300 0x0c0fe400
0x171b2207 0x00000004 0x00800000 0x000fe400
0x161a2207 0x00000005 0x00800000 0x000fc400
0x020e2208 0x0000000d 0x04000000 0x000fe400
0x030f2208 0x0000000c 0x04000000 0x000fc600
0x00017941 0x00000000 0x03800000 0x000fea00
0x07037220 0x00000007 0x00400000 0x000fe200
0x14097810 0x00000100 0x07f1e0ff 0x000fe200
0x01ff7355 0x00000000 0x00100000 0x000fe200
0x00017945 0x00000170 0x03800000 0x000fe200
0x06037223 0x00000006 0x00000003 0x000fe200
0x00187202 0x00000009 0x00000f00 0x000fe200
0xff1d7224 0x000000ff 0x000e0615 0x000fe400
0x0b057220 0x0000000b 0x00400000 0x000fe200
0x0300720b 0x0000001e 0x03f0e000 0x000fe200
0xff197224 0x000000ff 0x078e001d 0x000fc400
0xff167224 0x000000ff 0x078e000d 0x000fe400
0xff177224 0x000000ff 0x078e000c 0x000fce00
0x00008947 0x000000d0 0x03800000 0x000fea00
0x1e00720b 0x00000003 0x03f4e000 0x000fe200
0xff187224 0x000000ff 0x078e0008 0x000fe200
0x00167202 0x00000006 0x00000f00 0x000fe200
0xff197224 0x000000ff 0x078e001c 0x000fe400
0xff177224 0x000000ff 0x078e0007 0x000fce00
0x0800220c 0x00000009 0x03f21070 0x0c0fe400
0x0800220c 0x00000009 0x03f06070 0x000fe400
0x1c00220c 0x0000001d 0x03f21310 0x0c0fe400
0x1c00220c 0x0000001d 0x03f06300 0x000fe400
0x08182207 0x00000009 0x00800000 0x000fe400
0x1c192207 0x0000001d 0x00800000 0x000fc400
0x06162208 0x0000000d 0x04000000 0x000fe400
0x07172208 0x0000000c 0x04000000 0x000fc600
0x00017941 0x00000000 0x03800000 0x000fea00
0x0f037220 0x0000000f 0x00400000 0x000fe200
0x01ff7355 0x00000000 0x00100000 0x000fe200
0x0a0c7223 0x0000000a 0x00000005 0x000fe200
0x00017945 0x00000150 0x03800000 0x000fe200
0x0e037223 0x0000000e 0x00000003 0x000fe400
0xff087224 0x000000ff 0x078e001b 0x000fe400
0xff097224 0x000000ff 0x078e001a 0x000fe200
0x0300720b 0x0000000c 0x03f0e000 0x000fe200
0xff057224 0x000000ff 0x078e000e 0x000fc400
0xff047224 0x000000ff 0x078e000f 0x000fd200
0x00008947 0x000000d0 0x03800000 0x000fea00
0x0c00720b 0x00000003 0x03f4e000 0x000fe200
0xff057224 0x000000ff 0x078e000b 0x000fe200
0x14087810 0x00000200 0x07f1e0ff 0x000fe200
0xff047224 0x000000ff 0x078e000a 0x000fc600
0xff097210 0x00000015 0x007fe4ff 0x000fcc00
0x1b00220c 0x00000008 0x03f21070 0x0c0fe400
0x1b00220c 0x00000008 0x03f06070 0x0c0fe400
0x1a00220c 0x00000009 0x03f21310 0x0c0fe400
0x1a00220c 0x00000009 0x03f06300 0x0c0fe400
0x1b082207 0x00000008 0x00800000 0x000fe400
0x1a092207 0x00000009 0x00800000 0x000fc400
0x0e052208 0x0000000b 0x04000000 0x000fe400
0x0f042208 0x0000000a 0x04000000 0x000fc600
0x00017941 0x00000000 0x03800000 0x000fea00
0x17037220 0x00000017 0x00400000 0x000fe200
0x140f7810 0x00000200 0x07f1e0ff 0x000fe200
0x01ff7355 0x00000000 0x00100000 0x000fe200
0x00017945 0x00000160 0x03800000 0x000fe200
0x160d7223 0x00000016 0x00000003 0x000fe200
0x00067202 0x0000000b 0x00000f00 0x000fe200
0xff0e7224 0x000000ff 0x000e0615 0x000fe400
0xff037224 0x000000ff 0x078e000f 0x000fe200
0x0d00720b 0x0000000c 0x03f0e000 0x000fe200
0xff077224 0x000000ff 0x078e000e 0x000fc400
0xff027224 0x000000ff 0x078e000a 0x000fd200
0x00008947 0x000000d0 0x03800000 0x000fea00
0x0c00720b 0x0000000d 0x03f4e000 0x000fe200
0xff037224 0x000000ff 0x078e0018 0x000fe400
0xff077224 0x000000ff 0x078e0019 0x000fe400
0xff067224 0x000000ff 0x078e0016 0x000fe400
0xff027224 0x000000ff 0x078e0017 0x000fca00
0x1800220c 0x0000000f 0x03f21070 0x0c0fe400
0x1800220c 0x0000000f 0x03f06070 0x0c0fe400
0x1900220c 0x0000000e 0x03f21310 0x0c0fe400
0x1900220c 0x0000000e 0x03f06300 0x0c0fe400
0x18032207 0x0000000f 0x00800000 0x000fe400
0x19072207 0x0000000e 0x00800000 0x000fc400
0x16062208 0x0000000b 0x04000000 0x000fe400
0x17022208 0x0000000a 0x04000000 0x000fc600
0x00017941 0x00000000 0x03800000 0x000fea00
0x12127810 0x00000400 0x07ffe0ff 0x000fe400
0x14147810 0x00000400 0x07f5e0ff 0x000fe400
0x1200720c 0x00000013 0x03f06270 0x000fe400
0x10107810 0x00002000 0x07f3e0ff 0x000fe200
0xff157224 0x000000ff 0x010e0615 0x000fc600
0xff117210 0x00000011 0x00ffe4ff 0x000fcc00
0x00008947 0xfffff230 0x0383ffff 0x000fea00
0x00027941 0x00000000 0x03800000 0x000fea00
0x00147919 0x00000000 0x00000000 0x000e2200
0x01ff7355 0x00000000 0x00100000 0x000fe200
0x00017945 0x000004c0 0x03800000 0x000fe200
0xff0a7224 0x000000ff 0x078e0002 0x000fe200
0x04117f89 0x08201f00 0x000e0000 0x0002a200
0xff0b7224 0x000000ff 0x078e0006 0x000fe400
0xff177224 0x000000ff 0x078e0003 0x000fe200
0x05107f89 0x08201f00 0x000e0000 0x0002e200
0xff1a7224 0x000000ff 0x078e0007 0x000fc600
0x08137f89 0x08201f00 0x000e0000 0x00032800
0x09127f89 0x08201f00 0x000e0000 0x00026800
0x02157f89 0x08201f00 0x000e0000 0x00026200
0x1400780c 0x0000001e 0x03f04270 0x001fc600
0x06197f89 0x08201f00 0x000e0000 0x00002800
0x03167f89 0x08201f00 0x000e0000 0x00002800
0x07187f89 0x08201f00 0x000e0000 0x00002200
0x00000947 0x000003d0 0x03800000 0x000fea00
0x040c7220 0x00000004 0x00400000 0x01cfe200
0x02ff7355 0x00000000 0x00100000 0x000fe200
0x100a7220 0x00000010 0x00400000 0x000fe200
0x00027945 0x000001a0 0x03800000 0x000fe200
0x051a7223 0x00000005 0x0000000c 0x000fe200
0x000e7202 0x00000008 0x00000f00 0x000fe200
0x11177223 0x00000011 0x0000000a 0x000fc400
0x020b7220 0x00000002 0x00400000 0x000fe400
0x190a7220 0x00000019 0x00400000 0x001fe200
0x1a00720b 0x00000017 0x03f0e000 0x000fe200
0xff0f7224 0x000000ff 0x078e0009 0x000fe400
0x061b7223 0x00000006 0x0000000b 0x000fe400
0x151c7223 0x00000015 0x0000000a 0x002fe400
0xff0c7224 0x000000ff 0x078e0005 0x000fc400
0xff0d7224 0x000000ff 0x078e0004 0x000fc600
0x00008947 0x000000d0 0x03800000 0x000fea00
0x1700720b 0x0000001a 0x03f4e000 0x000fe200
0xff0e7224 0x000000ff 0x078e0013 0x000fe200
0x000c7202 0x00000010 0x00000f00 0x000fe200
0xff0f7224 0x000000ff 0x078e0012 0x000fe400
0xff0d7224 0x000000ff 0x078e0011 0x000fce00
0x0800220c 0x00000013 0x03f21070 0x0c0fe400
0x0800220c 0x00000013 0x03f06070 0x0c0fe400
0x0900220c 0x00000012 0x03f21310 0x0c0fe400
0x0900220c 0x00000012 0x03f06300 0x0c0fe400
0x080e2207 0x00000013 0x00800000 0x000fe400
0x090f2207 0x00000012 0x00800000 0x000fc400
0x050c2208 0x00000010 0x04000000 0x000fe400
0x040d2208 0x00000011 0x04000000 0x000fc600
0x00027941 0x00000000 0x03800000 0x000fea00
0x1b00720b 0x0000001c 0x03f0e000 0x000fe200
0xff0a7224 0x000000ff 0x078e0015 0x000fe200
0x00087202 0x0000000e 0x00000f00 0x000fe200
0xff0b7224 0x000000ff 0x078e0019 0x000fe400
0xff177224 0x000000ff 0x078e0016 0x000fe400
0xff1a7224 0x000000ff 0x078e0018 0x000fe400
0xff097224 0x000000ff 0x078e000f 0x000fc400
0xff047224 0x000000ff 0x078e000d 0x000fe400
0xff057224 0x000000ff 0x078e000c 0x000fe200
0x00008947 0x00000150 0x03800000 0x000fea00
0x1c00720b 0x0000001b 0x03f4e000 0x000fe200
0xff087224 0x000000ff 0x078e000e 0x000fe200
0x00047202 0x0000000d 0x00000f00 0x000fe200
0xff177224 0x000000ff 0x078e0003 0x000fe400
0xff1a7224 0x000000ff 0x078e0007 0x000fe400
0xff0b7224 0x000000ff 0x078e0006 0x000fc400
0xff0a7224 0x000000ff 0x078e0002 0x000fe400
0xff097224 0x000000ff 0x078e000f 0x100fe200
0x0300220c 0x00000016 0x03f21070 0x0c0fe200
0xff057224 0x000000ff 0x078e000c 0x100fe200
0x0300220c 0x00000016 0x03f06070 0x000fe200
0xff092224 0x000000ff 0x078e000f 0x000fe200
0x0700220c 0x00000018 0x03f21310 0x0c0fe200
0xff042224 0x000000ff 0x078e000d 0x000fe200
0x0700220c 0x00000018 0x03f06300 0x000fe200
0xff052224 0x000000ff 0x078e000c 0x000fe200
0x00082202 0x0000000e 0x00000f00 0x000fc400
0x03172207 0x00000016 0x00800000 0x000fe400
0x071a2207 0x00000018 0x00800000 0x000fe400
0x060b2208 0x00000019 0x04000000 0x000fe400
0x020a2208 0x00000015 0x04000000 0x000fc600
0x00017941 0x00000000 0x03800000 0x01cfea00
0x1400780c 0x0000001d 0x03f04270 0x000fe200
0x01ff7355 0x00000000 0x00100000 0x000fe200
0x08027f89 0x08401f00 0x000e0000 0x0022a200
0x00017945 0x000004a0 0x03800000 0x000fe200
0xff107224 0x000000ff 0x078e000a 0x000fe200
0x00197202 0x00000017 0x00000f00 0x001fe200
0x09037f89 0x08401f00 0x000e0000 0x00022200
0xff117224 0x000000ff 0x078e000b 0x000fc400
0xff187224 0x000000ff 0x078e001a 0x000fe200
0x04077f89 0x08401f00 0x000e0000 0x0002e800
0x05067f89 0x08401f00 0x000e0000 0x00032800
0x0a0d7f89 0x08401f00 0x000e0000 0x00022800
0x0b0c7f89 0x08401f00 0x000e0000 0x00022800
0x170e7f89 0x08401f00 0x000e0000 0x00022800
0x1a0f7f89 0x08401f00 0x000e0000 0x00022200
0x00000947 0x000003d0 0x03800000 0x000fea00
0x05117220 0x00000005 0x00400000 0x004fe200
0x02ff7355 0x00000000 0x00100000 0x000fe200
0x06107220 0x00000006 0x00400000 0x010fe200
0x00027945 0x000001a0 0x03800000 0x000fe200
0x04197223 0x00000004 0x00000011 0x000fc400
0x07187223 0x00000007 0x00000010 0x008fe400
0x0b117220 0x0000000b 0x00400000 0x000fe400
0x0c107220 0x0000000c 0x00400000 0x001fe200
0x1900720b 0x00000018 0x03f0e000 0x000fe200
0xff157224 0x000000ff 0x078e0008 0x000fe400
0xff167224 0x000000ff 0x078e0009 0x000fe400
0x0a1b7223 0x0000000a 0x00000011 0x000fc400
0x0d1c7223 0x0000000d 0x00000010 0x000fe400
0xff127224 0x000000ff 0x078e0005 0x000fe400
0xff137224 0x000000ff 0x078e0004 0x000fe200
0x00008947 0x000000d0 0x03800000 0x000fea00
0x1800720b 0x00000019 0x03f4e000 0x000fe200
0xff167224 0x000000ff 0x078e0003 0x000fe200
0x00157202 0x00000002 0x00000f00 0x000fe200
0xff127224 0x000000ff 0x078e0006 0x000fe400
0xff137224 0x000000ff 0x078e0007 0x000fce00
0x0800220c 0x00000002 0x03f21070 0x0c0fe400
0x0800220c 0x00000002 0x03f06070 0x0c0fe400
0x0900220c 0x00000003 0x03f21310 0x0c0fe400
0x0900220c 0x00000003 0x03f06300 0x0c0fe400
0x08152207 0x00000002 0x00800000 0x000fe400
0x09162207 0x00000003 0x00800000 0x000fc400
0x05122208 0x00000006 0x04000000 0x000fe400
0x04132208 0x00000007 0x04000000 0x000fc600
0x00027941 0x00000000 0x03800000 0x000fea00
0x1b00720b 0x0000001c 0x03f0e000 0x000fe200
0xff107224 0x000000ff 0x078e000d 0x000fe200
0x00197202 0x0000000e 0x00000f00 0x000fe200
0xff117224 0x000000ff 0x078e000c 0x000fe400
0xff187224 0x000000ff 0x078e000f 0x000fe400
0xff087224 0x000000ff 0x078e0015 0x002fe400
0xff097224 0x000000ff 0x078e0016 0x000fc400
0xff047224 0x000000ff 0x078e0013 0x000fe400
0xff057224 0x000000ff 0x078e0012 0x000fe200
0x00008947 0x00000150 0x03800000 0x000fea00
0x1c00720b 0x0000001b 0x03f4e000 0x000fe200
0xff197224 0x000000ff 0x078e0017 0x000fe200
0x00087202 0x00000015 0x00000f00 0x000fe200
0xff187224 0x000000ff 0x078e001a 0x000fe200
0x00117202 0x0000000b 0x00000f00 0x000fe200
0xff107224 0x000000ff 0x078e000a 0x000fe400
0xff097224 0x000000ff 0x078e0016 0x000fc400
0xff047224 0x000000ff 0x078e0013 0x000fe400
0xff057224 0x000000ff 0x078e0012 0x000fe200
0x1700220c 0x0000000e 0x03f21070 0x0c0fe200
0xff082224 0x000000ff 0x078e0015 0x000fe200
0x1700220c 0x0000000e 0x03f06070 0x0c0fe200
0xff092224 0x000000ff 0x078e0016 0x000fe200
0x1a00220c 0x0000000f 0x03f21310 0x0c0fe200
0xff042224 0x000000ff 0x078e0013 0x000fe200
0x1a00220c 0x0000000f 0x03f06300 0x000fe200
0xff052224 0x000000ff 0x078e0012 0x000fe200
0x17192207 0x0000000e 0x00800000 0x000fc400
0x1a182207 0x0000000f 0x00800000 0x000fe400
0x0b112208 0x0000000c 0x04000000 0x000fe400
0x0a102208 0x0000000d 0x04000000 0x000fc600
0x00017941 0x00000000 0x03800000 0x004fea00
0x1400780c 0x0000001b 0x03f04270 0x000fe200
0x01ff7355 0x00000000 0x00100000 0x000fe200
0x08027f89 0x08801f00 0x000e0000 0x00046200
0x00017945 0x000004a0 0x03800000 0x000fe200
0x000e7202 0x00000010 0x00000f00 0x001fe200
0xff0f7224 0x000000ff 0x078e0011 0x000fe200
0x09037f89 0x08801f00 0x000e0000 0x00042200
0xff177224 0x000000ff 0x078e0019 0x002fc400
0xff1a7224 0x000000ff 0x078e0018 0x000fe200
0x04077f89 0x08801f00 0x000e0000 0x00846800
0x05067f89 0x08801f00 0x000e0000 0x0104e800
0x100b7f89 0x08801f00 0x000e0000 0x00052800
0x110a7f89 0x08801f00 0x000e0000 0x00042800
0x190c7f89 0x08801f00 0x000e0000 0x00042800
0x180d7f89 0x08801f00 0x000e0000 0x00042200
0x00000947 0x000003d0 0x03800000 0x000fea00
0x050f7220 0x00000005 0x00400000 0x080fe200
0x02ff7355 0x00000000 0x00100000 0x000fe200
0x060e7220 0x00000006 0x00400000 0x008fe200
0x00027945 0x000001a0 0x03800000 0x000fe200
0x041a7223 0x00000004 0x0000000f 0x000fe200
0x00127202 0x00000005 0x00000f00 0x000fe200
0x07177223 0x00000007 0x0000000e 0x002fc400
0x110f7220 0x00000011 0x00400000 0x000fe400
0x0a0e7220 0x0000000a 0x00400000 0x001fe200
0x1a00720b 0x00000017 0x03f0e000 0x000fe200
0xff157224 0x000000ff 0x078e0008 0x000fe400
0xff167224 0x000000ff 0x078e0009 0x000fe400
0x101b7223 0x00000010 0x0000000f 0x000fe400
0x0b1c7223 0x0000000b 0x0000000e 0x010fc400
0xff137224 0x000000ff 0x078e0004 0x000fc600
0x00008947 0x000000d0 0x03800000 0x000fea00
0x1700720b 0x0000001a 0x03f4e000 0x000fe200
0xff157224 0x000000ff 0x078e0002 0x000fe400
0xff167224 0x000000ff 0x078e0003 0x000fe400
0xff127224 0x000000ff 0x078e0006 0x000fe400
0xff137224 0x000000ff 0x078e0007 0x000fca00
0x0800220c 0x00000002 0x03f21070 0x0c0fe400
0x0800220c 0x00000002 0x03f06070 0x0c0fe400
0x0900220c 0x00000003 0x03f21310 0x0c0fe400
0x0900220c 0x00000003 0x03f06300 0x0c0fe400
0x08152207 0x00000002 0x00800000 0x000fe400
0x09162207 0x00000003 0x00800000 0x000fc400
0x05122208 0x00000006 0x04000000 0x000fe400
0x04132208 0x00000007 0x04000000 0x000fc600
0x00027941 0x00000000 0x03800000 0x000fea00
0x1b00720b 0x0000001c 0x03f0e000 0x000fe200
0xff0f7224 0x000000ff 0x078e000a 0x000fe200
0x000e7202 0x0000000b 0x00000f00 0x000fe200
0xff177224 0x000000ff 0x078e000c 0x000fe200
0x00047202 0x00000013 0x00000f00 0x004fe200
0xff1a7224 0x000000ff 0x078e000d 0x000fe400
0xff087224 0x000000ff 0x078e0015 0x000fe400
0xff097224 0x000000ff 0x078e0016 0x000fc400
0xff057224 0x000000ff 0x078e0012 0x000fe200
0x00008947 0x00000150 0x03800000 0x000fea00
0x1c00720b 0x0000001b 0x03f4e000 0x000fe200
0xff177224 0x000000ff 0x078e0019 0x000fe200
0x001a7202 0x00000018 0x00000f00 0x000fe200
0xff0f7224 0x000000ff 0x078e0011 0x000fe400
0xff0e7224 0x000000ff 0x078e0010 0x000fe400
0xff047224 0x000000ff 0x078e0013 0x000fe400
0xff087224 0x000000ff 0x078e0015 0x000fc400
0xff097224 0x000000ff 0x078e0016 0x000fe200
0x1900220c 0x0000000c 0x03f21070 0x0c0fe200
0xff057224 0x000000ff 0x078e0012 0x000fe200
0x1900220c 0x0000000c 0x03f06070 0x0c0fe200
0xff082224 0x000000ff 0x078e0015 0x000fe200
0x1800220c 0x0000000d 0x03f21310 0x0c0fe200
0xff092224 0x000000ff 0x078e0016 0x000fe200
0x1800220c 0x0000000d 0x03f06300 0x0c0fe200
0xff052224 0x000000ff 0x078e0012 0x000fe200
0x19172207 0x0000000c 0x00800000 0x000fe400
0x181a2207 0x0000000d 0x00800000 0x000fc400
0x110f2208 0x0000000a 0x04000000 0x000fe400
0x100e2208 0x0000000b 0x04000000 0x000fe400
0x00042202 0x00000013 0x00000f00 0x000fc600
0x00017941 0x00000000 0x03800000 0x000fea00
0x1400780c 0x00000017 0x03f04270 0x000fe200
0x01ff7355 0x00000000 0x00100000 0x000fe200
0x08027f89 0x09001f00 0x000e0000 0x00052200
0x00017945 0x000004a0 0x03800000 0x000fe200
0xff107224 0x000000ff 0x078e000e 0x004fe400
0x09037f89 0x09001f00 0x000e0000 0x0010a200
0xff117224 0x000000ff 0x078e000f 0x000fc400
0xff197224 0x000000ff 0x078e0017 0x000fe200
0x04077f89 0x09001f00 0x000e0000 0x00206200
0xff187224 0x000000ff 0x078e001a 0x000fc600
0x05067f89 0x09001f00 0x000e0000 0x0080e800
0x0e0b7f89 0x09001f00 0x000e0000 0x01012800
0x0f0a7f89 0x09001f00 0x000e0000 0x00002800
0x170c7f89 0x09001f00 0x000e0000 0x00002800
0x1a0d7f89 0x09001f00 0x000e0000 0x00002200
0x00000947 0x000003d0 0x03800000 0x000fea00
0x05117220 0x00000005 0x00400000 0x004fe200
0x02ff7355 0x00000000 0x00100000 0x000fe200
0x06107220 0x00000006 0x00400000 0x008fe200
0x00027945 0x000001a0 0x03800000 0x000fe200
0x04197223 0x00000004 0x00000011 0x000fe200
0x00157202 0x00000008 0x00000f00 0x000fe200
0x07187223 0x00000007 0x00000010 0x002fc400
0x0f117220 0x0000000f 0x00400000 0x000fe400
0x0a107220 0x0000000a 0x00400000 0x001fe200
0x1900720b 0x00000018 0x03f0e000 0x000fe200
0xff167224 0x000000ff 0x078e0009 0x000fe400
0x0e1b7223 0x0000000e 0x00000011 0x000fe400
0x0b1c7223 0x0000000b 0x00000010 0x010fe400
0xff127224 0x000000ff 0x078e0005 0x000fc400
0xff137224 0x000000ff 0x078e0004 0x000fc600
0x00008947 0x000000d0 0x03800000 0x000fea00
0x1800720b 0x00000019 0x03f4e000 0x000fe200
0xff157224 0x000000ff 0x078e0002 0x000fe200
0x00127202 0x00000006 0x00000f00 0x000fe200
0xff167224 0x000000ff 0x078e0003 0x000fe400
0xff137224 0x000000ff 0x078e0007 0x000fce00
0x0800220c 0x00000002 0x03f21070 0x0c0fe400
0x0800220c 0x00000002 0x03f06070 0x0c0fe400
0x0900220c 0x00000003 0x03f21310 0x0c0fe400
0x0900220c 0x00000003 0x03f06300 0x0c0fe400
0x08152207 0x00000002 0x00800000 0x000fe400
0x09162207 0x00000003 0x00800000 0x000fc400
0x05122208 0x00000006 0x04000000 0x000fe400
0x04132208 0x00000007 0x04000000 0x000fc600
0x00027941 0x00000000 0x03800000 0x000fea00
0x1b00720b 0x0000001c 0x03f0e000 0x000fe200
0xff107224 0x000000ff 0x078e000b 0x000fe200
0x00087202 0x00000015 0x00000f00 0x000fe200
0xff117224 0x000000ff 0x078e000a 0x000fe400
0xff197224 0x000000ff 0x078e000c 0x000fe400
0xff187224 0x000000ff 0x078e000d 0x000fe400
0xff097224 0x000000ff 0x078e0016 0x000fc400
0xff047224 0x000000ff 0x078e0013 0x000fe400
0xff057224 0x000000ff 0x078e0012 0x000fe200
0x00008947 0x00000150 0x03800000 0x000fea00
0x1c00720b 0x0000001b 0x03f4e000 0x000fe200
0xff087224 0x000000ff 0x078e0015 0x000fe200
0x00047202 0x00000013 0x00000f00 0x000fe200
0xff197224 0x000000ff 0x078e0017 0x000fe400
0xff187224 0x000000ff 0x078e001a 0x000fe400
0xff117224 0x000000ff 0x078e000f 0x000fc400
0xff107224 0x000000ff 0x078e000e 0x000fe400
0xff097224 0x000000ff 0x078e0016 0x000fe200
0x1700220c 0x0000000c 0x03f21070 0x0c0fe200
0xff057224 0x000000ff 0x078e0012 0x000fe200
0x1700220c 0x0000000c 0x03f06070 0x000fe200
0xff092224 0x000000ff 0x078e0016 0x000fe200
0x1a00220c 0x0000000d 0x03f21310 0x0c0fe200
0xff042224 0x000000ff 0x078e0013 0x000fe200
0x1a00220c 0x0000000d 0x03f06300 0x000fe200
0xff052224 0x000000ff 0x078e0012 0x000fe200
0x00082202 0x00000015 0x00000f00 0x000fc400
0x17192207 0x0000000c 0x00800000 0x000fe400
0x1a182207 0x0000000d 0x00800000 0x000fe400
0x0f112208 0x0000000a 0x04000000 0x000fe400
0x0e102208 0x0000000b 0x04000000 0x000fc600
0x00017941 0x00000000 0x03800000 0x004fea00
0x001c7919 0x00000000 0x00000000 0x000ea200
0x1400780c 0x0000000f 0x03f04270 0x000fe200
0x01ff7355 0x00000000 0x00100000 0x000fe200
0x00017945 0x000004b0 0x03800000 0x000fe200
0x080a7f89 0x0a001f00 0x000e0000 0x00112200
0xff067224 0x000000ff 0x078e0019 0x008fe200
0x00027202 0x00000010 0x00000f00 0x000fe200
0xff077224 0x000000ff 0x078e0018 0x002fe200
0x090b7f89 0x0a001f00 0x000e0000 0x01006200
0xff037224 0x000000ff 0x078e0011 0x000fc600
0x040d7f89 0x0a001f00 0x000e0000 0x0000e800
0x050c7f89 0x0a001f00 0x000e0000 0x00012800
0x100f7f89 0x0a001f00 0x000e0000 0x00002800
0x110e7f89 0x0a001f00 0x000e0000 0x00002800
0x19127f89 0x0a001f00 0x000e0000 0x00002800
0x18137f89 0x0a001f00 0x000e0000 0x00002200
0x00000947 0x000003d0 0x03800000 0x000fea00
0x05037220 0x00000005 0x00400000 0x006fe200
0x02ff7355 0x00000000 0x00100000 0x000fe200
0x0c027220 0x0000000c 0x00400000 0x010fe200
0x00027945 0x000001a0 0x03800000 0x000fe200
0x04077223 0x00000004 0x00000003 0x000fc400
0x0d067223 0x0000000d 0x00000002 0x008fe400
0x11037220 0x00000011 0x00400000 0x000fe400
0x0e027220 0x0000000e 0x00400000 0x001fe200
0x0700720b 0x00000006 0x03f0e000 0x000fe200
0xff167224 0x000000ff 0x078e0008 0x000fe400
0xff177224 0x000000ff 0x078e0009 0x000fe400
0x101a7223 0x00000010 0x00000003 0x000fc400
0x0f1b7223 0x0000000f 0x00000002 0x000fe400
0xff147224 0x000000ff 0x078e0005 0x000fe400
0xff157224 0x000000ff 0x078e0004 0x000fe200
0x00008947 0x000000d0 0x03800000 0x000fea00
0x0600720b 0x00000007 0x03f4e000 0x000fe200
0xff177224 0x000000ff 0x078e000b 0x000fe200
0x00167202 0x0000000a 0x00000f00 0x000fe200
0xff147224 0x000000ff 0x078e000c 0x000fe400
0xff157224 0x000000ff 0x078e000d 0x000fce00
0x0800220c 0x0000000a 0x03f21070 0x0c0fe400
0x0800220c 0x0000000a 0x03f06070 0x0c0fe400
0x0900220c 0x0000000b 0x03f21310 0x0c0fe400
0x0900220c 0x0000000b 0x03f06300 0x0c0fe400
0x08162207 0x0000000a 0x00800000 0x000fe400
0x09172207 0x0000000b 0x00800000 0x000fc400
0x05142208 0x0000000c 0x04000000 0x000fe400
0x04152208 0x0000000d 0x04000000 0x000fc600
0x00027941 0x00000000 0x03800000 0x000fea00
0x1a00720b 0x0000001b 0x03f0e000 0x000fe200
0xff067224 0x000000ff 0x078e0012 0x000fe200
0x00027202 0x0000000f 0x00000f00 0x000fe200
0xff077224 0x000000ff 0x078e0013 0x000fe400
0xff037224 0x000000ff 0x078e000e 0x000fe400
0xff087224 0x000000ff 0x078e0016 0x000fe400
0xff097224 0x000000ff 0x078e0017 0x000fc400
0xff047224 0x000000ff 0x078e0015 0x000fe400
0xff057224 0x000000ff 0x078e0014 0x000fe200
0x00008947 0x00000150 0x03800000 0x000fea00
0x1b00720b 0x0000001a 0x03f4e000 0x000fe200
0xff067224 0x000000ff 0x078e0019 0x000fe200
0x00087202 0x00000016 0x00000f00 0x000fe200
0xff077224 0x000000ff 0x078e0018 0x000fe200
0x00047202 0x00000015 0x00000f00 0x000fe200
0xff037224 0x000000ff 0x078e0011 0x000fe400
0xff027224 0x000000ff 0x078e0010 0x000fc400
0xff097224 0x000000ff 0x078e0017 0x100fe400
0xff057224 0x000000ff 0x078e0014 0x000fe200
0x1900220c 0x00000012 0x03f21070 0x0c0fe200
0xff082224 0x000000ff 0x078e0016 0x000fe200
0x1900220c 0x00000012 0x03f06070 0x0c0fe200
0xff092224 0x000000ff 0x078e0017 0x000fe200
0x1800220c 0x00000013 0x03f21310 0x0c0fe200
0xff042224 0x000000ff 0x078e0015 0x000fe200
0x1800220c 0x00000013 0x03f06300 0x000fe200
0xff052224 0x000000ff 0x078e0014 0x000fe200
0x19062207 0x00000012 0x00800000 0x000fc400
0x18072207 0x00000013 0x00800000 0x000fe400
0x11032208 0x0000000e 0x04000000 0x000fe400
0x10022208 0x0000000f 0x04000000 0x000fc600
0x00017941 0x00000000 0x03800000 0x006fea00
0x1c00720c 0x000000ff 0x03f05270 0x000fe200
0x01ff7355 0x00000000 0x00100000 0x000fe200
0x00017945 0x00000090 0x03800000 0x000ff400
0x00000947 0x00000070 0x03800000 0x000fea00
0xff0b7819 0x0000001f 0x00011400 0x000fc800
0x0b0b7211 0x00000000 0x078f28ff 0x000fc800
0x0b0b7812 0xffffffe0 0x078ec0ff 0x000fd000
0x0b007388 0x00001008 0x00000a00 0x0003e800
0x0b007388 0x00002006 0x00000a00 0x0003e800
0x0b007388 0x00000804 0x00000a00 0x0003e800
0x0b007388 0x00001802 0x00000a00 0x0003e400
0x00017941 0x00000000 0x03800000 0x000fea00
0x00007b1d 0x00000000 0x00000000 0x000fea00
0x0000720c 0x000000ff 0x03f45270 0x000fd800
0x00002947 0x00009600 0x03800000 0x000fea00
0xff327984 0x00002800 0x00001a00 0x000ea200
0x05377220 0x00000005 0x00400000 0x000fe200
0x01ff7355 0x00000000 0x00100000 0x000fe200
0x00017945 0x000002a0 0x03800000 0x000fe200
0xff307984 0x00004000 0x00001a00 0x000e6200
0x04397223 0x00000004 0x00000037 0x000fe200
0x00347202 0x00000008 0x00000f00 0x000fe200
0xff007224 0x000000ff 0x078e0005 0x000fe200
0xff2e7984 0x00003800 0x00001a00 0x000f2200
0xff377224 0x000000ff 0x078e0004 0x000fc600
0xff2c7984 0x00004800 0x00001a00 0x000ee800
0xff2a7984 0x00005800 0x00001a00 0x000e2800
0xff287984 0x00006000 0x00001a00 0x000e2800
0xff267984 0x00006800 0x00001a00 0x000e2800
0xff247984 0x00007800 0x00001a00 0x000e2800
0xff227984 0x00008000 0x00001a00 0x000e2800
0xff207984 0x00008800 0x00001a00 0x000e2800
0xff1e7984 0x00009800 0x00001a00 0x000e2200
0x33357220 0x00000033 0x00400000 0x004fc600
0xff1c7984 0x0000a000 0x00001a00 0x000ea200
0x32367223 0x00000032 0x00000035 0x000fe400
0xff357224 0x000000ff 0x078e0009 0x000fe200
0xff1a7984 0x0000a800 0x00001a00 0x000e2400
0x3900720b 0x00000036 0x03f0e000 0x000fe400
0xff187984 0x0000b800 0x00001a00 0x001e2800
0xff167984 0x0000c000 0x00001a00 0x000e2800
0xff147984 0x0000c800 0x00001a00 0x000e2800
0xff127984 0x0000d800 0x00001a00 0x000e2800
0xff107984 0x0000e000 0x00001a00 0x000e2800
0xff0e7984 0x0000e800 0x00001a00 0x000e2800
0xff0c7984 0x0000f800 0x00001a00 0x018ee800
0xff0a7984 0x00010000 0x00001a00 0x002e6200
0x00008947 0x000000c0 0x03800000 0x000fea00
0xff347984 0x00003000 0x00001a00 0x000f2200
0x3600720b 0x00000039 0x03f6e000 0x000fe200
0xff007224 0x000000ff 0x078e0033 0x000fc400
0xff377224 0x000000ff 0x078e0032 0x000fd200
0x0800320c 0x00000034 0x03f06070 0x0d0fe400
0x0800320c 0x00000034 0x03f21070 0x0c0fe400
0x0900320c 0x00000035 0x03f06300 0x0c0fe400
0x0900320c 0x00000035 0x03f21310 0x000fe400
0x05003208 0x00000033 0x04000000 0x000fe400
0x08343207 0x00000034 0x00800000 0x000fc400
0x09353207 0x00000035 0x00800000 0x000fe400
0x04373208 0x00000032 0x04000000 0x000fc600
0x00017941 0x00000000 0x03800000 0x000fea00
0x03057220 0x00000003 0x00400000 0x000fe200
0x01ff7355 0x00000000 0x00100000 0x000fe200
0x2f097220 0x0000002f 0x00400000 0x080fe200
0x00017945 0x00000170 0x03800000 0x000fe200
0x02337223 0x00000002 0x00000005 0x000fe200
0x00087202 0x0000002f 0x00000f00 0x000fe200
0x2e327223 0x0000002e 0x00000009 0x000fe400
0xff097224 0x000000ff 0x078e002e 0x000fc400
0xff047224 0x000000ff 0x078e0030 0x000fe200
0x3300720b 0x00000032 0x03f0e000 0x000fe200
0xff057224 0x000000ff 0x078e0031 0x000fd600
0x00008947 0x000000e0 0x03800000 0x000fea00
0x3200720b 0x00000033 0x03f0e000 0x000fe200
0xff087224 0x000000ff 0x078e0003 0x000fe200
0x00047202 0x00000006 0x00000f00 0x000fe200
0xff097224 0x000000ff 0x078e0002 0x000fe400
0xff057224 0x000000ff 0x078e0007 0x000fce00
0x00008947 0x00000080 0x03800000 0x000fea00
0x0600720c 0x00000030 0x03f21070 0x0c0fe400
0x0600720c 0x00000030 0x03f06070 0x0c0fe400
0x0700720c 0x00000031 0x03f21310 0x0c0fe400
0x0700720c 0x00000031 0x03f06300 0x0c0fe400
0x06047207 0x00000030 0x00800000 0x000fe400
0x07057207 0x00000031 0x00800000 0x000fc400
0x03087208 0x0000002f 0x04000000 0x000fe400
0x02097208 0x0000002e 0x04000000 0x000fc600
0x00017941 0x00000000 0x03800000 0x000fea00
0x2d077220 0x0000002d 0x00400000 0x000fe200
0x01ff7355 0x00000000 0x00100000 0x000fe200
0x37037220 0x00000037 0x00400000 0x000fe200
0x00017945 0x00000150 0x03800000 0x000fe200
0x2c2e7223 0x0000002c 0x00000007 0x000fe400
0x002f7223 0x00000000 0x00000003 0x000fe400
0xff027224 0x000000ff 0x078e0034 0x000fc400
0xff037224 0x000000ff 0x078e0035 0x000fe200
0x2f00720b 0x0000002e 0x03f0e000 0x000fe200
0xff067224 0x000000ff 0x078e0000 0x000fe400
0xff077224 0x000000ff 0x078e0037 0x000fd200
0x00008947 0x000000c0 0x03800000 0x000fea00
0xff027984 0x00005000 0x00001a00 0x000f2200
0x2e00720b 0x0000002f 0x03f6e000 0x000fe200
0xff077224 0x000000ff 0x078e002c 0x000fe200
0x00067202 0x0000002d 0x00000f00 0x000fd400
0x3400320c 0x00000002 0x03f06070 0x0d0fe400
0x3400320c 0x00000002 0x03f21070 0x080fe400
0x3500320c 0x00000003 0x03f06300 0x0c0fe400
0x3500320c 0x00000003 0x03f21310 0x000fe400
0x00063208 0x0000002d 0x04000000 0x000fe400
0x34023207 0x00000002 0x00800000 0x000fc400
0x35033207 0x00000003 0x00800000 0x000fe400
0x37073208 0x0000002c 0x04000000 0x000fc600
0x00017941 0x00000000 0x03800000 0x000fea00
0x2b2f7220 0x0000002b 0x00400000 0x000fe200
0x01ff7355 0x00000000 0x00100000 0x000fe200
0x092d7220 0x00000009 0x00400000 0x000fe200
0x00017945 0x00000160 0x03800000 0x000fe200
0x2a2e7223 0x0000002a 0x0000002f 0x000fe400
0x08317223 0x00000008 0x0000002d 0x000fe400
0xff007224 0x000000ff 0x078e002b 0x000fc400
0xff2d7224 0x000000ff 0x078e002a 0x000fe200
0x3100720b 0x0000002e 0x03f0e000 0x000fe200
0xff2f7224 0x000000ff 0x078e0028 0x000fe400
0xff2c7224 0x000000ff 0x078e0029 0x000fd200
0x00008947 0x000000d0 0x03800000 0x000fea00
0x2e00720b 0x00000031 0x03f6e000 0x000fe200
0xff2c7224 0x000000ff 0x078e0005 0x000fe200
0x002f7202 0x00000004 0x00000f00 0x000fe200
0xff007224 0x000000ff 0x078e0008 0x000fe400
0xff2d7224 0x000000ff 0x078e0009 0x000fce00
0x0400320c 0x00000028 0x03f21070 0x0c0fe400
0x0400320c 0x00000028 0x03f06070 0x0c0fe400
0x0500320c 0x00000029 0x03f21310 0x0c0fe400
0x0500320c 0x00000029 0x03f06300 0x0c0fe400
0x042f3207 0x00000028 0x00800000 0x000fe400
0x052c3207 0x00000029 0x00800000 0x000fc400
0x08003208 0x0000002b 0x04000000 0x000fe400
0x092d3208 0x0000002a 0x04000000 0x000fc600
0x00017941 0x00000000 0x03800000 0x000fea00
0x27097220 0x00000027 0x00400000 0x000fe200
0x01ff7355 0x00000000 0x00100000 0x000fe200
0x07057220 0x00000007 0x00400000 0x000fe200
0x00017945 0x00000150 0x03800000 0x000fe200
0x26287223 0x00000026 0x00000009 0x000fe200
0x00047202 0x00000006 0x00000f00 0x080fe200
0x06297223 0x00000006 0x00000005 0x000fe400
0xff087224 0x000000ff 0x078e0002 0x000fc400
0xff097224 0x000000ff 0x078e0003 0x000fe200
0x2900720b 0x00000028 0x03f0e000 0x000fe200
0xff057224 0x000000ff 0x078e0007 0x000fd600
0x00008947 0x000000c0 0x03800000 0x000fea00
0xff087984 0x00007000 0x00001a00 0x000f2200
0x2800720b 0x00000029 0x03f6e000 0x000fe200
0xff047224 0x000000ff 0x078e0027 0x000fe400
0xff057224 0x000000ff 0x078e0026 0x000fd200
0x0200320c 0x00000008 0x03f06070 0x0d0fe400
0x0200320c 0x00000008 0x03f21070 0x080fe400
0x0300320c 0x00000009 0x03f06300 0x0c0fe400
0x0300320c 0x00000009 0x03f21310 0x000fe400
0x06043208 0x00000027 0x04000000 0x000fe400
0x02083207 0x00000008 0x00800000 0x000fc400
0x03093207 0x00000009 0x00800000 0x000fe400
0x07053208 0x00000026 0x04000000 0x000fc600
0x00017941 0x00000000 0x03800000 0x000fea00
0x25077220 0x00000025 0x00400000 0x000fe200
0x01ff7355 0x00000000 0x00100000 0x000fe200
0x2d037220 0x0000002d 0x00400000 0x000fe200
0x00017945 0x00000160 0x03800000 0x000fe200
0x24077223 0x00000024 0x00000007 0x000fe200
0x00277202 0x00000022 0x00000f00 0x000fe200
0x00067223 0x00000000 0x00000003 0x000fe400
0xff027224 0x000000ff 0x078e0025 0x000fc400
0xff037224 0x000000ff 0x078e0024 0x000fe200
0x0600720b 0x00000007 0x03f0e000 0x000fe200
0xff267224 0x000000ff 0x078e0023 0x000fd600
0x00008947 0x000000d0 0x03800000 0x000fea00
0x0700720b 0x00000006 0x03f6e000 0x000fe200
0xff277224 0x000000ff 0x078e002f 0x000fe400
0xff267224 0x000000ff 0x078e002c 0x000fe400
0xff027224 0x000000ff 0x078e0000 0x000fe400
0xff037224 0x000000ff 0x078e002d 0x000fca00
0x2f00320c 0x00000022 0x03f21070 0x0c0fe400
0x2f00320c 0x00000022 0x03f06070 0x0c0fe400
0x2c00320c 0x00000023 0x03f21310 0x0c0fe400
0x2c00320c 0x00000023 0x03f06300 0x0c0fe400
0x2f273207 0x00000022 0x00800000 0x000fe400
0x2c263207 0x00000023 0x00800000 0x000fc400
0x00023208 0x00000025 0x04000000 0x000fe400
0x2d033208 0x00000024 0x04000000 0x000fc600
0x00017941 0x00000000 0x03800000 0x000fea00
0x21237220 0x00000021 0x00400000 0x000fe200
0x01ff7355 0x00000000 0x00100000 0x000fe200
0x05077220 0x00000005 0x00400000 0x000fe200
0x00017945 0x00000170 0x03800000 0x000fe200
0x20237223 0x00000020 0x00000023 0x000fe200
0x00227202 0x00000008 0x00000f00 0x000fe200
0x04067223 0x00000004 0x00000007 0x000fe400
0xff247224 0x000000ff 0x078e0009 0x000fc400
0xff007224 0x000000ff 0x078e0004 0x000fe200
0x0600720b 0x00000023 0x03f0e000 0x000fe200
0xff077224 0x000000ff 0x078e0005 0x000fd600
0x00008947 0x000000e0 0x03800000 0x000fea00
0xff287984 0x00009000 0x00001a00 0x000f2200
0x2300720b 0x00000006 0x03f6e000 0x000fe200
0xff007224 0x000000ff 0x078e0021 0x000fe400
0xff077224 0x000000ff 0x078e0020 0x000fd200
0x0800320c 0x00000028 0x03f06070 0x0d0fe200
0xff227224 0x000000ff 0x078e0028 0x000fe200
0x0800320c 0x00000028 0x03f21070 0x000fe400
0x0900320c 0x00000029 0x03f06300 0x0c0fe400
0x0900320c 0x00000029 0x03f21310 0x080fe400
0x00247202 0x00000029 0x00000f00 0x000fe400
0x04003208 0x00000021 0x04000000 0x000fc400
0x08223207 0x00000028 0x00800000 0x000fe400
0x09243207 0x00000029 0x00800000 0x000fe400
0x05073208 0x00000020 0x04000000 0x000fc600
0x00017941 0x00000000 0x03800000 0x000fea00
0x1f097220 0x0000001f 0x00400000 0x000fe200
0x01ff7355 0x00000000 0x00100000 0x000fe200
0x03057220 0x00000003 0x00400000 0x000fe200
0x00017945 0x00000160 0x03800000 0x000fe200
0x1e097223 0x0000001e 0x00000009 0x000fe400
0x02087223 0x00000002 0x00000005 0x000fc400
0xff047224 0x000000ff 0x078e001f 0x000fe400
0xff057224 0x000000ff 0x078e001e 0x000fe200
0x0800720b 0x00000009 0x03f0e000 0x000fe200
0xff217224 0x000000ff 0x078e001c 0x004fe400
0xff067224 0x000000ff 0x078e001d 0x000fd200
0x00008947 0x000000d0 0x03800000 0x000fea00
0x0900720b 0x00000008 0x03f6e000 0x000fe200
0xff067224 0x000000ff 0x078e0026 0x000fe200
0x00217202 0x00000027 0x00000f00 0x000fe200
0xff047224 0x000000ff 0x078e0002 0x000fe400
0xff057224 0x000000ff 0x078e0003 0x000fce00
0x2700320c 0x0000001c 0x03f21070 0x0c0fe400
0x2700320c 0x0000001c 0x03f06070 0x0c0fe400
0x2600320c 0x0000001d 0x03f21310 0x0c0fe400
0x2600320c 0x0000001d 0x03f06300 0x0c0fe400
0x27213207 0x0000001c 0x00800000 0x000fe400
0x26063207 0x0000001d 0x00800000 0x000fc400
0x02043208 0x0000001f 0x04000000 0x000fe400
0x03053208 0x0000001e 0x04000000 0x000fc600
0x00017941 0x00000000 0x03800000 0x000fea00
0x1b097220 0x0000001b 0x00400000 0x000fe200
0x01ff7355 0x00000000 0x00100000 0x000fe200
0x07037220 0x00000007 0x00400000 0x000fe200
0x00017945 0x00000150 0x03800000 0x000fe200
0x1a097223 0x0000001a 0x00000009 0x000fe200
0x00027202 0x00000000 0x00000f00 0x080fe200
0x00087223 0x00000000 0x00000003 0x000fe400
0xff1c7224 0x000000ff 0x078e0022 0x000fc400
0xff1d7224 0x000000ff 0x078e0024 0x000fe200
0x0800720b 0x00000009 0x03f0e000 0x000fe200
0xff037224 0x000000ff 0x078e0007 0x000fd600
0x00008947 0x000000c0 0x03800000 0x000fea00
0xff1c7984 0x0000b000 0x00001a00 0x000ea200
0x0900720b 0x00000008 0x03f6e000 0x000fe200
0xff027224 0x000000ff 0x078e001b 0x000fe400
0xff037224 0x000000ff 0x078e001a 0x000fd200
0x2200320c 0x0000001c 0x03f06070 0x0c4fe400
0x2200320c 0x0000001c 0x03f21070 0x080fe400
0x2400320c 0x0000001d 0x03f06300 0x0c0fe400
0x2400320c 0x0000001d 0x03f21310 0x000fe400
0x00023208 0x0000001b 0x04000000 0x000fe400
0x221c3207 0x0000001c 0x00800000 0x000fc400
0x241d3207 0x0000001d 0x00800000 0x000fe400
0x07033208 0x0000001a 0x04000000 0x000fc600
0x00017941 0x00000000 0x03800000 0x000fea00
0x19097220 0x00000019 0x00400000 0x001fe200
0x01ff7355 0x00000000 0x00100000 0x000fe200
0x05077220 0x00000005 0x00400000 0x000fe200
0x00017945 0x00000160 0x03800000 0x000fe200
0x18097223 0x00000018 0x00000009 0x000fe200
0x001b7202 0x00000016 0x00000f00 0x000fe200
0x041a7223 0x00000004 0x00000007 0x000fe400
0xff007224 0x000000ff 0x078e0019 0x000fc400
0xff077224 0x000000ff 0x078e0018 0x000fe200
0x1a00720b 0x00000009 0x03f0e000 0x000fe200
0xff087224 0x000000ff 0x078e0017 0x000fd600
0x00008947 0x000000d0 0x03800000 0x000fea00
0x0900720b 0x0000001a 0x03f6e000 0x000fe200
0xff1b7224 0x000000ff 0x078e0021 0x000fe400
0xff087224 0x000000ff 0x078e0006 0x000fe400
0xff007224 0x000000ff 0x078e0004 0x000fe400
0xff077224 0x000000ff 0x078e0005 0x000fca00
0x2100320c 0x00000016 0x03f21070 0x0c0fe400
0x2100320c 0x00000016 0x03f06070 0x0c0fe400
0x0600320c 0x00000017 0x03f21310 0x0c0fe400
0x0600320c 0x00000017 0x03f06300 0x0c0fe400
0x211b3207 0x00000016 0x00800000 0x000fe400
0x06083207 0x00000017 0x00800000 0x000fc400
0x04003208 0x00000019 0x04000000 0x000fe400
0x05073208 0x00000018 0x04000000 0x000fc600
0x00017941 0x00000000 0x03800000 0x000fea00
0x15097220 0x00000015 0x00400000 0x000fe200
0x01ff7355 0x00000000 0x00100000 0x000fe200
0x03057220 0x00000003 0x00400000 0x000fe200
0x00017945 0x00000160 0x03800000 0x000fe200
0x14097223 0x00000014 0x00000009 0x000fe200
0x00187202 0x0000001c 0x00000f00 0x000fe200
0x02047223 0x00000002 0x00000005 0x000fe400
0xff1a7224 0x000000ff 0x078e001d 0x000fc400
0xff067224 0x000000ff 0x078e0002 0x000fe200
0x0400720b 0x00000009 0x03f0e000 0x000fe200
0xff177224 0x000000ff 0x078e0003 0x000fd600
0x00008947 0x000000d0 0x03800000 0x000fea00
0xff187984 0x0000d000 0x00001a00 0x000e2200
0x0900720b 0x00000004 0x03f6e000 0x000fe200
0xff067224 0x000000ff 0x078e0015 0x000fe200
0x00177202 0x00000014 0x00000f00 0x000fd400
0x1c00320c 0x00000018 0x03f06070 0x0c1fe200
0xff1a7224 0x000000ff 0x078e0019 0x000fe200
0x1c00320c 0x00000018 0x03f21070 0x080fe400
0x1d00320c 0x00000019 0x03f06300 0x0c0fe400
0x1d00320c 0x00000019 0x03f21310 0x000fe400
0x02063208 0x00000015 0x04000000 0x000fe400
0x1c183207 0x00000018 0x00800000 0x000fc400
0x1d1a3207 0x00000019 0x00800000 0x000fe400
0x03173208 0x00000014 0x04000000 0x000fc600
0x00017941 0x00000000 0x03800000 0x000fea00
0x13057220 0x00000013 0x00400000 0x000fe200
0x01ff7355 0x00000000 0x00100000 0x000fe200
0x07037220 0x00000007 0x00400000 0x000fe200
0x00017945 0x00000160 0x03800000 0x000fe200
0x12057223 0x00000012 0x00000005 0x000fe400
0x00027223 0x00000000 0x00000003 0x000fe400
0xff147224 0x000000ff 0x078e0013 0x000fc400
0xff157224 0x000000ff 0x078e0012 0x000fe200
0x0200720b 0x00000005 0x03f0e000 0x000fe200
0xff197224 0x000000ff 0x078e0010 0x000fe400
0xff167224 0x000000ff 0x078e0011 0x000fd200
0x00008947 0x000000d0 0x03800000 0x000fea00
0x0500720b 0x00000002 0x03f6e000 0x000fe200
0xff197224 0x000000ff 0x078e001b 0x000fe200
0x00167202 0x00000008 0x00000f00 0x000fe200
0xff147224 0x000000ff 0x078e0000 0x000fe400
0xff157224 0x000000ff 0x078e0007 0x000fce00
0x1b00320c 0x00000010 0x03f21070 0x0c0fe400
0x1b00320c 0x00000010 0x03f06070 0x0c0fe400
0x0800320c 0x00000011 0x03f21310 0x0c0fe400
0x0800320c 0x00000011 0x03f06300 0x0c0fe400
0x1b193207 0x00000010 0x00800000 0x000fe400
0x08163207 0x00000011 0x00800000 0x000fc400
0x00143208 0x00000013 0x04000000 0x000fe400
0x07153208 0x00000012 0x04000000 0x000fc600
0x00017941 0x00000000 0x03800000 0x000fea00
0x0f057220 0x0000000f 0x00400000 0x000fe200
0x01ff7355 0x00000000 0x00100000 0x000fe200
0x17037220 0x00000017 0x00400000 0x080fe200
0x00017945 0x00000160 0x03800000 0x000fe200
0x0e007223 0x0000000e 0x00000005 0x000fe200
0x00047202 0x00000017 0x00000f00 0x000fe200
0x06037223 0x00000006 0x00000003 0x000fe400
0x0d077220 0x0000000d 0x00400000 0x008fc400
0xff087224 0x000000ff 0x078e0018 0x000fe200
0x0300720b 0x00000000 0x03f0e000 0x000fe200
0xff097224 0x000000ff 0x078e001a 0x000fe400
0xff057224 0x000000ff 0x078e0006 0x000fd200
0x00008947 0x000000c0 0x03800000 0x000fea00
0xff087984 0x0000f000 0x00001a00 0x000e2200
0x0000720b 0x00000003 0x03f6e000 0x000fe200
0xff057224 0x000000ff 0x078e000f 0x000fe400
0xff047224 0x000000ff 0x078e000e 0x000fd200
0x1800320c 0x00000008 0x03f21070 0x0c1fe400
0x1800320c 0x00000008 0x03f06070 0x080fe400
0x1a00320c 0x00000009 0x03f21310 0x0c0fe400
0x1a00320c 0x00000009 0x03f06300 0x080fe400
0x18083207 0x00000008 0x00800000 0x000fe400
0x1a093207 0x00000009 0x00800000 0x000fc400
0x06053208 0x0000000f 0x04000000 0x000fe400
0x17043208 0x0000000e 0x04000000 0x000fc600
0x00017941 0x00000000 0x03800000 0x000fea00
0x15037220 0x00000015 0x00400000 0x000fe400
0x0c007223 0x0000000c 0x00000007 0x000fe400
0x140f7223 0x00000014 0x00000003 0x000fe200
0x00037202 0x0000000d 0x00000f00 0x000fe200
0xff067224 0x000000ff 0x078e000a 0x002fe400
0xff077224 0x000000ff 0x078e000b 0x000fe200
0x0f00720b 0x00000000 0x03f0e000 0x000fe200
0xff027224 0x000000ff 0x078e000c 0x000fd600
0x00008947 0x00007f20 0x03800000 0x000fea00
0x0000720b 0x0000000f 0x03f0e000 0x000fe200
0xff067224 0x000000ff 0x078e0019 0x000fe400
0xff077224 0x000000ff 0x078e0016 0x000fe400
0xff027224 0x000000ff 0x078e0015 0x000fe400
0xff037224 0x000000ff 0x078e0014 0x000fca00
0x00008947 0x00007ec0 0x03800000 0x000fea00
0x1900720c 0x0000000a 0x03f21070 0x0c0fe400
0x1900720c 0x0000000a 0x03f06070 0x0c0fe400
0x1600720c 0x0000000b 0x03f21310 0x0c0fe400
0x1600720c 0x0000000b 0x03f06300 0x0c0fe400
0x19067207 0x0000000a 0x00800000 0x000fe400
0x16077207 0x0000000b 0x00800000 0x000fc400
0x14037208 0x0000000d 0x04000000 0x000fe400
0x15027208 0x0000000c 0x04000000 0x000fe200
0x00007947 0x00007e30 0x03800000 0x000fea00
0x00007919 0x00000000 0x00002100 0x000e2200
0x0d0b7a10 0x00006000 0x07ffe1ff 0x000fe200
0x00027805 0x00000000 0x0001ff00 0x000fc600
0x0000720c 0x0000000b 0x03f06270 0x001fd800
0x0d068210 0x00000000 0x07f3e0ff 0x000fc800
0x00078211 0x000000ff 0x008f0eff 0x000fe400
0x06048a11 0x00005800 0x078218ff 0x000fc800
0x06058a11 0x00005900 0x008f1c07 0x000fd000
0x04028381 0x00000000 0x001eeb00 0x000ea200
0x000e7805 0x00000000 0x0001ff00 0x000fe200
0xff0a7224 0x000000ff 0x078e0000 0x000fe200
0x02ff7355 0x00000000 0x00100000 0x000fe200
0x00027945 0x000013f0 0x03800000 0x000fe600
0x060e8a10 0x00005a00 0x07f3e0ff 0x000fe400
0x000a8810 0x00000100 0x07ffe0ff 0x000fe400
0x070f8a10 0x00005b00 0x00ffe4ff 0x000fc400
0x0a00720c 0x0000000b 0x03f06270 0x000fe400
0x00107202 0x0000000e 0x00000f00 0x000fe200
0xff117224 0x000000ff 0x078e000f 0x000fe400
0xff127224 0x000000ff 0x078e0003 0x004fe400
0xff137224 0x000000ff 0x078e0002 0x000fca00
0x00000947 0x00001350 0x03800000 0x000fea00
0xff047212 0x0000000a 0x078e33ff 0x000fe200
0x01ff7355 0x00000000 0x00100000 0x000fe200
0x00017945 0x000004f0 0x03800000 0x000fe200
0xff137224 0x000000ff 0x078e0002 0x000fe200
0x0d147a10 0x00006000 0x07ffe104 0x000fe200
0xff127224 0x000000ff 0x078e0003 0x000fe200
0x00107202 0x0000000e 0x00000f00 0x000fe200
0xff117224 0x000000ff 0x078e000f 0x000fe200
0x14047811 0x00000001 0x078fc0ff 0x000fc800
0x04047812 0x00000003 0x0780c0ff 0x000fd800
0x00008947 0x00000460 0x03800000 0x000fea00
0xff067224 0x000000ff 0x078e0004 0x000fe200
0x00117202 0x0000000f 0x00000f00 0x000fe200
0xff137224 0x000000ff 0x078e0002 0x000fe400
0xff127224 0x000000ff 0x078e0003 0x000fe400
0xff107224 0x000000ff 0x078e000e 0x000fe400
0x0d0c7210 0x0000000a 0x07f1e0ff 0x000fc800
0x0a157211 0x000000ff 0x000f0eff 0x000fe400
0x0c047a11 0x00005800 0x078018ff 0x000fc800
0x0c057a11 0x00005900 0x000f1c15 0x000fd000
0x04047381 0x00000000 0x001eeb00 0x000ea200
0x13077220 0x00000013 0x00400000 0x000fe200
0x0c167a10 0x00005a00 0x07f3e0ff 0x000fe200
0x02087220 0x00000002 0x00400000 0x000fe200
0x03ff7355 0x00000000 0x00100000 0x000fe200
0x12077223 0x00000012 0x00000007 0x000fe200
0x00037945 0x00000190 0x03800000 0x000fe200
0x06067810 0xffffffff 0x07ffe0ff 0x000fe200
0x03197223 0x00000003 0x00000008 0x000fe200
0x15177a10 0x00005b00 0x00ffe4ff 0x000fe200
0x05097220 0x00000005 0x00400000 0x004fc800
0x04187223 0x00000004 0x00000009 0x000fca00
0x0700720b 0x00000018 0x03f0e000 0x000fd800
0x00008947 0x00000110 0x03800000 0x000fea00
0x1800720b 0x00000007 0x03f4e000 0x000fe200
0xff097224 0x000000ff 0x078e0010 0x000fe400
0xff0c7224 0x000000ff 0x078e0011 0x000fe200
0x00117202 0x00000017 0x00000f00 0x000fe200
0xff087224 0x000000ff 0x078e0012 0x000fe400
0xff077224 0x000000ff 0x078e0013 0x000fe400
0xff107224 0x000000ff 0x078e0016 0x000fe400
0xff127224 0x000000ff 0x078e0005 0x000fe200
0x0900220c 0x00000016 0x03f21070 0x0c0fe200
0xff137224 0x000000ff 0x078e0004 0x000fe200
0x0900220c 0x00000016 0x03f06070 0x000fc400
0x0c00220c 0x00000017 0x03f21310 0x0c0fe400
0x0c00220c 0x00000017 0x03f06300 0x0c0fe400
0x09102207 0x00000016 0x00800000 0x000fe400
0x0c112207 0x00000017 0x00800000 0x000fe400
0x08122208 0x00000005 0x04000000 0x000fe400
0x07132208 0x00000004 0x04000000 0x000fc600
0x00037941 0x00000000 0x03800000 0x000fea00
0x1900720b 0x00000018 0x03f0e000 0x000fe200
0x03ff7355 0x00000000 0x00100000 0x000fe200
0x00037945 0x00000180 0x03800000 0x000fe200
0xff087224 0x000000ff 0x078e0003 0x000fe200
0x00097202 0x0000000f 0x00000f00 0x000fe200
0xff157224 0x000000ff 0x078e0002 0x000fe200
0x0600720c 0x000000ff 0x03f45270 0x000fe200
0xff077224 0x000000ff 0x078e000e 0x000fc400
0xff0e7224 0x000000ff 0x078e0016 0x000fe400
0xff0f7224 0x000000ff 0x078e0017 0x000fe400
0xff037224 0x000000ff 0x078e0005 0x000fe400
0xff027224 0x000000ff 0x078e0004 0x000fe200
0x00008947 0x000000d0 0x03800000 0x000fea00
0x1800720b 0x00000019 0x03f6e000 0x000fe200
0xff0e7224 0x000000ff 0x078e0007 0x000fe200
0x000f7202 0x00000009 0x00000f00 0x000fe200
0xff037224 0x000000ff 0x078e0008 0x000fc400
0xff027224 0x000000ff 0x078e0015 0x000fce00
0x0700320c 0x00000016 0x03f21070 0x0c0fe400
0x0700320c 0x00000016 0x03f06070 0x080fe400
0x0900320c 0x00000017 0x03f21310 0x0c0fe400
0x0900320c 0x00000017 0x03f06300 0x080fe400
0x070e3207 0x00000016 0x00800000 0x000fe400
0x090f3207 0x00000017 0x00800000 0x000fc400
0x08033208 0x00000005 0x04000000 0x000fe400
0x15023208 0x00000004 0x04000000 0x000fc600
0x00037941 0x00000000 0x03800000 0x000fea00
0x0a0a7810 0x00000100 0x07ffe0ff 0x000fe200
0x00002947 0xfffffbf0 0x0383ffff 0x000fea00
0x00017941 0x00000000 0x03800000 0x000fea00
0x1400780c 0x00000300 0x03f06070 0x000fd800
0x00008947 0x00000e10 0x03800000 0x000fea00
0x0d187210 0x0000000a 0x07f1e0ff 0x000fc800
0x0a1d7211 0x000000ff 0x000f0eff 0x000fe400
0x18167a11 0x00005800 0x078018ff 0x000fc800
0x18177a11 0x00005900 0x000f1c1d 0x000fd000
0x16147381 0x00000000 0x001eeb00 0x0000a200
0x13197220 0x00000013 0x00400000 0x000fe400
0x020c7220 0x00000002 0x00400000 0x000fe200
0x01ff7355 0x00000000 0x00100000 0x000fe200
0x121e7223 0x00000012 0x00000019 0x000fe200
0x16067381 0x00080000 0x001eeb00 0x00016200
0x03207223 0x00000003 0x0000000c 0x000fe200
0x00017945 0x000001b0 0x03800000 0x000fe200
0xff197224 0x000000ff 0x078e0010 0x000fe200
0x16047381 0x00100000 0x001eeb00 0x00016200
0xff1a7224 0x000000ff 0x078e0011 0x000fc400
0xff0c7224 0x000000ff 0x078e0012 0x000fe200
0x16087381 0x00180000 0x001eeb00 0x00016400
0x00177202 0x00000013 0x00000f00 0x001fe200
0x151b7220 0x00000015 0x00400000 0x004fc800
0x141f7223 0x00000014 0x0000001b 0x000fe200
0x181b7a10 0x00005a00 0x07f3e0ff 0x000fc800
0x1e00720b 0x0000001f 0x03f0e000 0x080fe400
0x2000720b 0x0000001f 0x03f4e000 0x000fe400
0x1d1c7a10 0x00005b00 0x00ffe4ff 0x000fd000
0x00008947 0x000000d0 0x03800000 0x000fea00
0x1f00720b 0x0000001e 0x03f6e000 0x000fe200
0xff197224 0x000000ff 0x078e001b 0x000fe400
0xff1a7224 0x000000ff 0x078e001c 0x000fe400
0xff0c7224 0x000000ff 0x078e0015 0x000fe400
0xff177224 0x000000ff 0x078e0014 0x000fca00
0x1000320c 0x0000001b 0x03f21070 0x0c0fe400
0x1000320c 0x0000001b 0x03f06070 0x0c0fe400
0x1100320c 0x0000001c 0x03f21310 0x0c0fe400
0x1100320c 0x0000001c 0x03f06300 0x0c0fe400
0x10193207 0x0000001b 0x00800000 0x000fe400
0x111a3207 0x0000001c 0x00800000 0x000fc400
0x120c3208 0x00000015 0x04000000 0x000fe400
0x13173208 0x00000014 0x04000000 0x000fc600
0x00017941 0x00000000 0x03800000 0x000fea00
0x01ff7355 0x00000000 0x00100000 0x000fe200
0x00017945 0x00000130 0x03800000 0x000fe200
0xff167224 0x000000ff 0x078e001b 0x000fe200
0x00187202 0x0000001c 0x00000f00 0x000fe200
0xff107224 0x000000ff 0x078e0015 0x000fe400
0xff117224 0x000000ff 0x078e0014 0x000fe200
0x0000a947 0x000000d0 0x03800000 0x000fea00
0x1f00720b 0x00000020 0x03f4e000 0x000fe200
0xff167224 0x000000ff 0x078e000e 0x000fe200
0x00117202 0x00000002 0x00000f00 0x000fe200
0xff187224 0x000000ff 0x078e000f 0x000fc400
0xff107224 0x000000ff 0x078e0003 0x000fce00
0x0e00220c 0x0000001b 0x03f21070 0x0c0fe400
0x0e00220c 0x0000001b 0x03f06070 0x0c0fe400
0x0f00220c 0x0000001c 0x03f21310 0x0c0fe400
0x0f00220c 0x0000001c 0x03f06300 0x0c0fe400
0x0e162207 0x0000001b 0x00800000 0x000fe400
0x0f182207 0x0000001c 0x00800000 0x000fc400
0x03102208 0x00000015 0x04000000 0x000fe400
0x02112208 0x00000014 0x04000000 0x000fc600
0x00017941 0x00000000 0x03800000 0x000fea00
0x070f7220 0x00000007 0x00400000 0x020fe200
0x0a027810 0x00000100 0x07ffe0ff 0x000fe200
0x17037220 0x00000017 0x00400000 0x000fe200
0x01ff7355 0x00000000 0x00100000 0x000fe200
0x061c7223 0x00000006 0x0000000f 0x000fe200
0x020e7a10 0x00005a00 0x07a3e00d 0x000fe200
0x0c0f7223 0x0000000c 0x00000003 0x000fe200
0xff037819 0x0000001f 0x00011402 0x000fe200
0x00017945 0x00000150 0x03800000 0x000fe200
0xff147224 0x000000ff 0x078e0019 0x000fc400
0x0f00720b 0x0000001c 0x03f0e000 0x000fe200
0xff157224 0x000000ff 0x078e001a 0x000fe200
0x031b7a10 0x00005b00 0x00fe44ff 0x000fe200
0xff027224 0x000000ff 0x078e000c 0x000fe400
0xff037224 0x000000ff 0x078e0017 0x000fce00
0x00008947 0x000000d0 0x03800000 0x000fea00
0x1c00720b 0x0000000f 0x03f4e000 0x000fe200
0xff147224 0x000000ff 0x078e000e 0x000fe200
0x00157202 0x0000001b 0x00000f00 0x000fe200
0xff027224 0x000000ff 0x078e0007 0x000fe400
0xff037224 0x000000ff 0x078e0006 0x000fce00
0x1900220c 0x0000000e 0x03f21070 0x0c0fe400
0x1900220c 0x0000000e 0x03f06070 0x0c0fe400
0x1a00220c 0x0000001b 0x03f21310 0x0c0fe400
0x1a00220c 0x0000001b 0x03f06300 0x0c0fe400
0x19142207 0x0000000e 0x00800000 0x000fe400
0x1a152207 0x0000001b 0x00800000 0x000fc400
0x0c022208 0x00000007 0x04000000 0x000fe400
0x17032208 0x00000006 0x04000000 0x000fc600
0x00017941 0x00000000 0x03800000 0x000fea00
0x110f7220 0x00000011 0x00400000 0x000fe200
0x01ff7355 0x00000000 0x00100000 0x000fe200
0x00017945 0x00000160 0x03800000 0x000fe200
0xff127224 0x000000ff 0x078e000e 0x000fe200
0x000c7202 0x00000007 0x00000f00 0x000fe200
0x10177223 0x00000010 0x0000000f 0x000fe400
0xff197224 0x000000ff 0x078e001b 0x000fe400
0x05137220 0x00000005 0x00400000 0x000fe200
0x1700720b 0x0000001c 0x03f0e000 0x000fe200
0xff0f7224 0x000000ff 0x078e0006 0x000fd600
0x00008947 0x000000d0 0x03800000 0x000fea00
0x1c00720b 0x00000017 0x03f4e000 0x000fe200
0xff127224 0x000000ff 0x078e0016 0x000fe200
0x000f7202 0x00000011 0x00000f00 0x000fe200
0xff197224 0x000000ff 0x078e0018 0x000fe400
0xff0c7224 0x000000ff 0x078e0010 0x000fce00
0x1600220c 0x0000000e 0x03f21070 0x0c0fe400
0x1600220c 0x0000000e 0x03f06070 0x080fe400
0x1800220c 0x0000001b 0x03f21310 0x0c0fe400
0x1800220c 0x0000001b 0x03f06300 0x080fe400
0x16122207 0x0000000e 0x00800000 0x000fe400
0x18192207 0x0000001b 0x00800000 0x000fc400
0x100c2208 0x00000007 0x04000000 0x000fe400
0x110f2208 0x00000006 0x04000000 0x000fc600
0x00017941 0x00000000 0x03800000 0x000fea00
0x03077220 0x00000003 0x00400000 0x000fe200
0x0a067810 0x00000200 0x07ffe0ff 0x000fe200
0x041a7223 0x00000004 0x00000013 0x000fe200
0x01ff7355 0x00000000 0x00100000 0x000fe200
0x02117223 0x00000002 0x00000007 0x000fe200
0xff077819 0x0000001f 0x00011406 0x000fe200
0x00017945 0x00000160 0x03800000 0x000fe200
0x06137a10 0x00005a00 0x07a3e00d 0x000fe200
0xff0e7224 0x000000ff 0x078e0014 0x000fe200
0x1100720b 0x0000001a 0x03f0e000 0x000fe200
0xff187224 0x000000ff 0x078e0015 0x000fe200
0x07107a10 0x00005b00 0x00fe44ff 0x000fe200
0xff067224 0x000000ff 0x078e0002 0x000fc400
0xff077224 0x000000ff 0x078e0003 0x000fce00
0x00008947 0x000000d0 0x03800000 0x000fea00
0x1a00720b 0x00000011 0x03f4e000 0x000fe200
0xff187224 0x000000ff 0x078e0010 0x000fe200
0x000e7202 0x00000013 0x00000f00 0x000fe200
0xff067224 0x000000ff 0x078e0005 0x000fe400
0xff077224 0x000000ff 0x078e0004 0x000fce00
0x1400220c 0x00000013 0x03f21070 0x0c0fe400
0x1400220c 0x00000013 0x03f06070 0x0c0fe400
0x1500220c 0x00000010 0x03f21310 0x0c0fe400
0x1500220c 0x00000010 0x03f06300 0x0c0fe400
0x140e2207 0x00000013 0x00800000 0x000fe400
0x15182207 0x00000010 0x00800000 0x000fc400
0x02062208 0x00000005 0x04000000 0x000fe400
0x03072208 0x00000004 0x04000000 0x000fc600
0x00017941 0x00000000 0x03800000 0x000fea00
0x0f037220 0x0000000f 0x00400000 0x000fe200
0x01ff7355 0x00000000 0x00100000 0x000fe200
0x00017945 0x00000160 0x03800000 0x000fe200
0xff167224 0x000000ff 0x078e0013 0x000fe200
0x00177202 0x00000010 0x00000f00 0x000fe200
0x0c037223 0x0000000c 0x00000003 0x000fe400
0x09117220 0x00000009 0x00400000 0x000fe400
0xff147224 0x000000ff 0x078e0005 0x000fe200
0x0300720b 0x0000001a 0x03f0e000 0x000fe200
0xff157224 0x000000ff 0x078e0004 0x000fd600
0x00008947 0x000000d0 0x03800000 0x000fea00
0x1a00720b 0x00000003 0x03f4e000 0x000fe200
0xff167224 0x000000ff 0x078e0012 0x000fe200
0x00147202 0x0000000c 0x00000f00 0x000fe200
0xff177224 0x000000ff 0x078e0019 0x000fe400
0xff157224 0x000000ff 0x078e000f 0x000fce00
0x1200220c 0x00000013 0x03f21070 0x0c0fe400
0x1200220c 0x00000013 0x03f06070 0x0c0fe400
0x1900220c 0x00000010 0x03f21310 0x0c0fe400
0x1900220c 0x00000010 0x03f06300 0x0c0fe400
0x12162207 0x00000013 0x00800000 0x000fe400
0x19172207 0x00000010 0x00800000 0x000fc400
0x0c142208 0x00000005 0x04000000 0x000fe400
0x0f152208 0x00000004 0x04000000 0x000fc600
0x00017941 0x00000000 0x03800000 0x000fea00
0x07037220 0x00000007 0x00400000 0x000fe200
0x0a027810 0x00000300 0x07ffe0ff 0x000fe200
0x08197223 0x00000008 0x00000011 0x000fe200
0x01ff7355 0x00000000 0x00100000 0x000fe200
0x060c7223 0x00000006 0x00000003 0x000fe200
0xff037819 0x0000001f 0x00011402 0x000fe200
0x00017945 0x00000160 0x03800000 0x000fe200
0x02057a10 0x00005a00 0x07a3e00d 0x000fe200
0xff107224 0x000000ff 0x078e000e 0x000fe200
0x0c00720b 0x00000019 0x03f0e000 0x000fe200
0xff117224 0x000000ff 0x078e0018 0x000fe200
0x03047a10 0x00005b00 0x00fe44ff 0x000fe200
0xff127224 0x000000ff 0x078e0006 0x000fe200
0x00137202 0x00000007 0x00000f00 0x000fd000
0x00008947 0x000000d0 0x03800000 0x000fea00
0x1900720b 0x0000000c 0x03f4e000 0x000fe200
0xff107224 0x000000ff 0x078e0005 0x000fe400
0xff117224 0x000000ff 0x078e0004 0x000fe400
0xff127224 0x000000ff 0x078e0009 0x000fe400
0xff137224 0x000000ff 0x078e0008 0x000fca00
0x0e00220c 0x00000005 0x03f21070 0x0c0fe400
0x0e00220c 0x00000005 0x03f06070 0x080fe400
0x1800220c 0x00000004 0x03f21310 0x0c0fe400
0x1800220c 0x00000004 0x03f06300 0x080fe400
0x0e102207 0x00000005 0x00800000 0x000fe400
0x18112207 0x00000004 0x00800000 0x000fc400
0x06122208 0x00000009 0x04000000 0x000fe400
0x07132208 0x00000008 0x04000000 0x000fc600
0x00017941 0x00000000 0x03800000 0x000fea00
0x15037220 0x00000015 0x00400000 0x000fe200
0x01ff7355 0x00000000 0x00100000 0x000fe200
0x00017945 0x00000150 0x03800000 0x000fe200
0x000e7202 0x00000005 0x00000f00 0x000fe200
0x14067223 0x00000014 0x00000003 0x000fe400
0xff0f7224 0x000000ff 0x078e0004 0x000fe400
0xff037224 0x000000ff 0x078e0009 0x000fe200
0x0600720b 0x00000019 0x03f0e000 0x000fe200
0xff027224 0x000000ff 0x078e0008 0x000fd600
0x00008947 0x000000d0 0x03800000 0x000fea00
0x1900720b 0x00000006 0x03f4e000 0x000fe200
0xff0e7224 0x000000ff 0x078e0016 0x000fe200
0x000f7202 0x00000017 0x00000f00 0x000fe200
0xff037224 0x000000ff 0x078e0014 0x000fe400
0xff027224 0x000000ff 0x078e0015 0x000fce00
0x1600220c 0x00000005 0x03f21070 0x0c0fe400
0x1600220c 0x00000005 0x03f06070 0x0c0fe400
0x1700220c 0x00000004 0x03f21310 0x0c0fe400
0x1700220c 0x00000004 0x03f06300 0x0c0fe400
0x160e2207 0x00000005 0x00800000 0x000fe400
0x170f2207 0x00000004 0x00800000 0x000fc400
0x14032208 0x00000009 0x04000000 0x000fe400
0x15022208 0x00000008 0x04000000 0x000fc600
0x00017941 0x00000000 0x03800000 0x000fea00
0x0a0a7810 0x00000400 0x07ffe0ff 0x000fc800
0x0a00720c 0x0000000b 0x03f06270 0x000fd800
0x00008947 0xfffff1f0 0x0383ffff 0x000fea00
0x00027941 0x00000000 0x03800000 0x000fea00
0x000c7919 0x00000000 0x00000000 0x000e2200
0x0b00780c 0x000000ff 0x03f04270 0x000fe400
0xff057819 0x0000001f 0x00011400 0x000fc800
0x05057211 0x00000000 0x078f28ff 0x000fc800
0x050a7812 0xffffffe0 0x078ec0ff 0x000fe400
0x00000947 0x00003910 0x03800000 0x000fea00
0xff047819 0x00000005 0x00011405 0x000fe200
0x01ff7355 0x00000000 0x00100000 0x000fe200
0x00017945 0x000004a0 0x03800000 0x000fe200
0x00167202 0x00000010 0x00000f00 0x000fe200
0xff0d7224 0x000000ff 0x078e0011 0x000fe200
0x00217202 0x0000000f 0x00000f00 0x000fe200
0x04047824 0x00000020 0x078e00ff 0x000fe400
0xff1f7224 0x000000ff 0x078e000e 0x000fc400
0xff147224 0x000000ff 0x078e0013 0x000fe200
0x04067810 0x00000020 0x07ffe0ff 0x000fe200
0xff157224 0x000000ff 0x078e0012 0x000fe200
0xff047212 0x00000004 0x078e33ff 0x000fe400
0x0600720c 0x0000000b 0x03f04270 0x000fe200
0xff067224 0x000000ff 0x078e0003 0x000fe400
0x0b047824 0x00000001 0x078e0204 0x000fca00
0x04057807 0x0000001f 0x00000000 0x000fe200
0xff047224 0x000000ff 0x078e0002 0x000fc600
0x0c00720c 0x00000005 0x03f06270 0x001fc800
0x13097989 0x08200000 0x000e0005 0x00006800
0x12177989 0x08200000 0x000e0005 0x0000a800
0x10197989 0x08200000 0x000e0005 0x0000e800
0x11187989 0x08200000 0x000e0005 0x00012800
0x021b7989 0x08200000 0x000e0005 0x00002800
0x031a7989 0x08200000 0x000e0005 0x00002800
0x0e1d7989 0x08200000 0x000e0005 0x00002800
0x0f1c7989 0x08200000 0x000e0005 0x00002200
0x00000947 0x00000310 0x03800000 0x000fea00
0x13077220 0x00000013 0x00400000 0x006fe200
0x02ff7355 0x00000000 0x00100000 0x000fe200
0x17047220 0x00000017 0x00400000 0x000fe200
