
Fatbin elf code:
================
arch = sm_75
code version = [1,7]
host = linux
compile_size = 64bit

64bit elf: type=2, abi=7, sm=75, toolkit=125, flags = 0x4b054b
Sections:
Index Offset   Size ES Align        Type        Flags Link     Info Name
    1     40     5d  0  1            STRTAB       0    0        0 .shstrtab
    2     9d     5d  0  1            STRTAB       0    0        0 .strtab
    3    100     48 18  8            SYMTAB       0    2        3 .symtab
    4    148     20  8  4    CUDA_CALLGRAPH       0    3        0 .nv.callgraph
    5    168     10  8  8    CUDA_RELOCINFO       0    0        0 .nv.rel.action

.section .strtab

.section .shstrtab

.section .symtab
 index           value           size      info    other  shndx    name  
   0               0               0        0        0      0     (null)
 0x1               0               0      0x3        0    0x4     .nv.callgraph
 0x2               0               0      0x3        0    0x5     .nv.rel.action


.nv.callgraph
 <0,-1>
 <0,-2>
 <0,-3>
 <0,-4>


.nv.rel.action
Header : Base Relocation : R_CUDA_CONST_FIELD22_37
Reloc type : Symbol Kind,Addend Shift,Source Position1,length1,Destination Position1,Source Position2,length2,Destination Position2
R_CUDA_CONST_FIELD22_37 : EIVALUE_SYM_KIND_ADDR,0,0,17,37,0,5,54

Fatbin elf code:
================
arch = sm_75
code version = [1,7]
host = linux
compile_size = 64bit

64bit elf: type=2, abi=7, sm=75, toolkit=125, flags = 0x4b054b
Sections:
Index Offset   Size ES Align        Type        Flags Link     Info Name
    1     40   5de4  0  1            STRTAB       0    0        0 .shstrtab
    2   5e24   7583  0  1            STRTAB       0    0        0 .strtab
    3   d3a8    ac8 18  8            SYMTAB       0    2       60 .symtab
    4   de70   1360  0  1          PROGBITS       0    0        0 .debug_frame
    5   f1d0    5a0  0  4         CUDA_INFO       0    3        0 .nv.info
    6   f770    3e0  0  4         CUDA_INFO      40    3       31 .nv.info._ZN3cub17CUB_200400_750_NS23DeviceSelectSweepKernelINS0_6detail24device_select_policy_hubIlbiLb0ELb0EE9Policy900ENS0_21CountingInputIteratorIllEENS0_22TransformInputIteratorIb7NonZeroIdEPdlEEPlSD_NS0_13ScanTileStateIiLb1EEENS0_8NullTypeESG_iLb0EEEvT0_T1_T2_T3_T4_T5_T6_T7_iNS2_7vsmem_tE
    7   fb50    1a0  0  4         CUDA_INFO      40    3       32 .nv.info._ZN3cub17CUB_200400_750_NS18DeviceReduceKernelINS0_18DeviceReducePolicyIlyN4cuda3std3__44plusIvEEE9Policy600ENS0_22TransformInputIteratorIb7NonZeroIdEPdlEEyS7_lNS5_10__identityEEEvT0_PT3_T1_NS0_13GridEvenShareISJ_EET2_T4_
    8   fcf0    1a8  0  4         CUDA_INFO      40    3       33 .nv.info._ZN3cub17CUB_200400_750_NS28DeviceReduceSingleTileKernelINS0_18DeviceReducePolicyIlyN4cuda3std3__44plusIvEEE9Policy600ENS0_22TransformInputIteratorIb7NonZeroIdEPdlEEPlyS7_llNS5_10__identityEEEvT0_T1_T2_T3_T4_T6_
    9   fe98    3e0  0  4         CUDA_INFO      40    3       34 .nv.info._ZN3cub17CUB_200400_750_NS23DeviceSelectSweepKernelINS0_6detail24device_select_policy_hubIlbiLb0ELb0EE9Policy900ENS0_21CountingInputIteratorIllEENS0_22TransformInputIteratorIb7NonZeroIfEPflEEPlSD_NS0_13ScanTileStateIiLb1EEENS0_8NullTypeESG_iLb0EEEvT0_T1_T2_T3_T4_T5_T6_T7_iNS2_7vsmem_tE
    a  10278    1a0  0  4         CUDA_INFO      40    3       35 .nv.info._ZN3cub17CUB_200400_750_NS18DeviceReduceKernelINS0_18DeviceReducePolicyIlyN4cuda3std3__44plusIvEEE9Policy600ENS0_22TransformInputIteratorIb7NonZeroIfEPflEEyS7_lNS5_10__identityEEEvT0_PT3_T1_NS0_13GridEvenShareISJ_EET2_T4_
    b  10418    1a8  0  4         CUDA_INFO      40    3       36 .nv.info._ZN3cub17CUB_200400_750_NS28DeviceReduceSingleTileKernelINS0_18DeviceReducePolicyIlyN4cuda3std3__44plusIvEEE9Policy600ENS0_22TransformInputIteratorIb7NonZeroIfEPflEEPlyS7_llNS5_10__identityEEEvT0_T1_T2_T3_T4_T6_
    c  105c0    3e0  0  4         CUDA_INFO      40    3       37 .nv.info._ZN3cub17CUB_200400_750_NS23DeviceSelectSweepKernelINS0_6detail24device_select_policy_hubIlbiLb0ELb0EE9Policy900ENS0_21CountingInputIteratorIllEENS0_22TransformInputIteratorIb7NonZeroIiEPilEEPlSD_NS0_13ScanTileStateIiLb1EEENS0_8NullTypeESG_iLb0EEEvT0_T1_T2_T3_T4_T5_T6_T7_iNS2_7vsmem_tE
    d  109a0    1a0  0  4         CUDA_INFO      40    3       38 .nv.info._ZN3cub17CUB_200400_750_NS18DeviceReduceKernelINS0_18DeviceReducePolicyIlyN4cuda3std3__44plusIvEEE9Policy600ENS0_22TransformInputIteratorIb7NonZeroIiEPilEEyS7_lNS5_10__identityEEEvT0_PT3_T1_NS0_13GridEvenShareISJ_EET2_T4_
    e  10b40    1a8  0  4         CUDA_INFO      40    3       39 .nv.info._ZN3cub17CUB_200400_750_NS28DeviceReduceSingleTileKernelINS0_18DeviceReducePolicyIlyN4cuda3std3__44plusIvEEE9Policy600ENS0_22TransformInputIteratorIb7NonZeroIiEPilEEPlyS7_llNS5_10__identityEEEvT0_T1_T2_T3_T4_T6_
    f  10ce8    3e0  0  4         CUDA_INFO      40    3       3a .nv.info._ZN3cub17CUB_200400_750_NS23DeviceSelectSweepKernelINS0_6detail24device_select_policy_hubIlbiLb0ELb0EE9Policy900ENS0_21CountingInputIteratorIllEENS0_22TransformInputIteratorIb7NonZeroIsEPslEEPlSD_NS0_13ScanTileStateIiLb1EEENS0_8NullTypeESG_iLb0EEEvT0_T1_T2_T3_T4_T5_T6_T7_iNS2_7vsmem_tE
   10  110c8    1a0  0  4         CUDA_INFO      40    3       3b .nv.info._ZN3cub17CUB_200400_750_NS18DeviceReduceKernelINS0_18DeviceReducePolicyIlyN4cuda3std3__44plusIvEEE9Policy600ENS0_22TransformInputIteratorIb7NonZeroIsEPslEEyS7_lNS5_10__identityEEEvT0_PT3_T1_NS0_13GridEvenShareISJ_EET2_T4_
   11  11268    1a8  0  4         CUDA_INFO      40    3       3c .nv.info._ZN3cub17CUB_200400_750_NS28DeviceReduceSingleTileKernelINS0_18DeviceReducePolicyIlyN4cuda3std3__44plusIvEEE9Policy600ENS0_22TransformInputIteratorIb7NonZeroIsEPslEEPlyS7_llNS5_10__identityEEEvT0_T1_T2_T3_T4_T6_
   12  11410    3e0  0  4         CUDA_INFO      40    3       3d .nv.info._ZN3cub17CUB_200400_750_NS23DeviceSelectSweepKernelINS0_6detail24device_select_policy_hubIlbiLb0ELb0EE9Policy900ENS0_21CountingInputIteratorIllEENS0_22TransformInputIteratorIb7NonZeroIaEPalEEPlSD_NS0_13ScanTileStateIiLb1EEENS0_8NullTypeESG_iLb0EEEvT0_T1_T2_T3_T4_T5_T6_T7_iNS2_7vsmem_tE
   13  117f0     60  0  4         CUDA_INFO      40    3       3e .nv.info._ZN3cub17CUB_200400_750_NS23DeviceCompactInitKernelINS0_13ScanTileStateIiLb1EEEPlEEvT_iT0_
   14  11850    298  0  4         CUDA_INFO      40    3       3f .nv.info._ZN3cub17CUB_200400_750_NS28DeviceReduceSingleTileKernelINS0_18DeviceReducePolicyIlyN4cuda3std3__44plusIvEEE9Policy600EPlSA_iS7_llNS5_10__identityEEEvT0_T1_T2_T3_T4_T6_
   15  11ae8    1a0  0  4         CUDA_INFO      40    3       40 .nv.info._ZN3cub17CUB_200400_750_NS18DeviceReduceKernelINS0_18DeviceReducePolicyIlyN4cuda3std3__44plusIvEEE9Policy600ENS0_22TransformInputIteratorIb7NonZeroIaEPalEEyS7_lNS5_10__identityEEEvT0_PT3_T1_NS0_13GridEvenShareISJ_EET2_T4_
   16  11c88    1a8  0  4         CUDA_INFO      40    3       41 .nv.info._ZN3cub17CUB_200400_750_NS28DeviceReduceSingleTileKernelINS0_18DeviceReducePolicyIlyN4cuda3std3__44plusIvEEE9Policy600ENS0_22TransformInputIteratorIb7NonZeroIaEPalEEPlyS7_llNS5_10__identityEEEvT0_T1_T2_T3_T4_T6_
   17  11e30     1c  0  4         CUDA_INFO      40    3       42 .nv.info._ZN3cub17CUB_200400_750_NS11EmptyKernelIvEEvv
   18  11e4c     7c  0  4         CUDA_INFO      40    3       43 .nv.info._Z13write_indicesIlEvPl10TensorDimsIT_EiS2_
   19  11ec8     20  8  4    CUDA_CALLGRAPH       0    3        0 .nv.callgraph
   1a  11ee8     10  8  8    CUDA_RELOCINFO       0    0        0 .nv.rel.action
   1b  11ef8     e0 10  8               REL      40    3       1d .rel.nv.constant4
   1c  11fd8    3f0 10  8               REL      40    3        4 .rel.debug_frame
   1d  123c8     70  0  8          PROGBITS       2    0        0 .nv.constant4
   1e  12438    1a8  0  4          PROGBITS      42    0       31 .nv.constant0._ZN3cub17CUB_200400_750_NS23DeviceSelectSweepKernelINS0_6detail24device_select_policy_hubIlbiLb0ELb0EE9Policy900ENS0_21CountingInputIteratorIllEENS0_22TransformInputIteratorIb7NonZeroIdEPdlEEPlSD_NS0_13ScanTileStateIiLb1EEENS0_8NullTypeESG_iLb0EEEvT0_T1_T2_T3_T4_T5_T6_T7_iNS2_7vsmem_tE
   1f  125e0    1ca  0  4          PROGBITS      42    0       32 .nv.constant0._ZN3cub17CUB_200400_750_NS18DeviceReduceKernelINS0_18DeviceReducePolicyIlyN4cuda3std3__44plusIvEEE9Policy600ENS0_22TransformInputIteratorIb7NonZeroIdEPdlEEyS7_lNS5_10__identityEEEvT0_PT3_T1_NS0_13GridEvenShareISJ_EET2_T4_
   20  127ac    191  0  4          PROGBITS      42    0       33 .nv.constant0._ZN3cub17CUB_200400_750_NS28DeviceReduceSingleTileKernelINS0_18DeviceReducePolicyIlyN4cuda3std3__44plusIvEEE9Policy600ENS0_22TransformInputIteratorIb7NonZeroIdEPdlEEPlyS7_llNS5_10__identityEEEvT0_T1_T2_T3_T4_T6_
   21  12940    1a8  0  4          PROGBITS      42    0       34 .nv.constant0._ZN3cub17CUB_200400_750_NS23DeviceSelectSweepKernelINS0_6detail24device_select_policy_hubIlbiLb0ELb0EE9Policy900ENS0_21CountingInputIteratorIllEENS0_22TransformInputIteratorIb7NonZeroIfEPflEEPlSD_NS0_13ScanTileStateIiLb1EEENS0_8NullTypeESG_iLb0EEEvT0_T1_T2_T3_T4_T5_T6_T7_iNS2_7vsmem_tE
   22  12ae8    1ca  0  4          PROGBITS      42    0       35 .nv.constant0._ZN3cub17CUB_200400_750_NS18DeviceReduceKernelINS0_18DeviceReducePolicyIlyN4cuda3std3__44plusIvEEE9Policy600ENS0_22TransformInputIteratorIb7NonZeroIfEPflEEyS7_lNS5_10__identityEEEvT0_PT3_T1_NS0_13GridEvenShareISJ_EET2_T4_
   23  12cb4    191  0  4          PROGBITS      42    0       36 .nv.constant0._ZN3cub17CUB_200400_750_NS28DeviceReduceSingleTileKernelINS0_18DeviceReducePolicyIlyN4cuda3std3__44plusIvEEE9Policy600ENS0_22TransformInputIteratorIb7NonZeroIfEPflEEPlyS7_llNS5_10__identityEEEvT0_T1_T2_T3_T4_T6_
   24  12e48    1a8  0  4          PROGBITS      42    0       37 .nv.constant0._ZN3cub17CUB_200400_750_NS23DeviceSelectSweepKernelINS0_6detail24device_select_policy_hubIlbiLb0ELb0EE9Policy900ENS0_21CountingInputIteratorIllEENS0_22TransformInputIteratorIb7NonZeroIiEPilEEPlSD_NS0_13ScanTileStateIiLb1EEENS0_8NullTypeESG_iLb0EEEvT0_T1_T2_T3_T4_T5_T6_T7_iNS2_7vsmem_tE
   25  12ff0    1ca  0  4          PROGBITS      42    0       38 .nv.constant0._ZN3cub17CUB_200400_750_NS18DeviceReduceKernelINS0_18DeviceReducePolicyIlyN4cuda3std3__44plusIvEEE9Policy600ENS0_22TransformInputIteratorIb7NonZeroIiEPilEEyS7_lNS5_10__identityEEEvT0_PT3_T1_NS0_13GridEvenShareISJ_EET2_T4_
   26  131bc    191  0  4          PROGBITS      42    0       39 .nv.constant0._ZN3cub17CUB_200400_750_NS28DeviceReduceSingleTileKernelINS0_18DeviceReducePolicyIlyN4cuda3std3__44plusIvEEE9Policy600ENS0_22TransformInputIteratorIb7NonZeroIiEPilEEPlyS7_llNS5_10__identityEEEvT0_T1_T2_T3_T4_T6_
   27  13350    1a8  0  4          PROGBITS      42    0       3a .nv.constant0._ZN3cub17CUB_200400_750_NS23DeviceSelectSweepKernelINS0_6detail24device_select_policy_hubIlbiLb0ELb0EE9Policy900ENS0_21CountingInputIteratorIllEENS0_22TransformInputIteratorIb7NonZeroIsEPslEEPlSD_NS0_13ScanTileStateIiLb1EEENS0_8NullTypeESG_iLb0EEEvT0_T1_T2_T3_T4_T5_T6_T7_iNS2_7vsmem_tE
   28  134f8    1ca  0  4          PROGBITS      42    0       3b .nv.constant0._ZN3cub17CUB_200400_750_NS18DeviceReduceKernelINS0_18DeviceReducePolicyIlyN4cuda3std3__44plusIvEEE9Policy600ENS0_22TransformInputIteratorIb7NonZeroIsEPslEEyS7_lNS5_10__identityEEEvT0_PT3_T1_NS0_13GridEvenShareISJ_EET2_T4_
   29  136c4    191  0  4          PROGBITS      42    0       3c .nv.constant0._ZN3cub17CUB_200400_750_NS28DeviceReduceSingleTileKernelINS0_18DeviceReducePolicyIlyN4cuda3std3__44plusIvEEE9Policy600ENS0_22TransformInputIteratorIb7NonZeroIsEPslEEPlyS7_llNS5_10__identityEEEvT0_T1_T2_T3_T4_T6_
   2a  13858    1a8  0  4          PROGBITS      42    0       3d .nv.constant0._ZN3cub17CUB_200400_750_NS23DeviceSelectSweepKernelINS0_6detail24device_select_policy_hubIlbiLb0ELb0EE9Policy900ENS0_21CountingInputIteratorIllEENS0_22TransformInputIteratorIb7NonZeroIaEPalEEPlSD_NS0_13ScanTileStateIiLb1EEENS0_8NullTypeESG_iLb0EEEvT0_T1_T2_T3_T4_T5_T6_T7_iNS2_7vsmem_tE
   2b  13a00    178  0  4          PROGBITS      42    0       3e .nv.constant0._ZN3cub17CUB_200400_750_NS23DeviceCompactInitKernelINS0_13ScanTileStateIiLb1EEEPlEEvT_iT0_
   2c  13b78    181  0  4          PROGBITS      42    0       3f .nv.constant0._ZN3cub17CUB_200400_750_NS28DeviceReduceSingleTileKernelINS0_18DeviceReducePolicyIlyN4cuda3std3__44plusIvEEE9Policy600EPlSA_iS7_llNS5_10__identityEEEvT0_T1_T2_T3_T4_T6_
   2d  13cfc    1ca  0  4          PROGBITS      42    0       40 .nv.constant0._ZN3cub17CUB_200400_750_NS18DeviceReduceKernelINS0_18DeviceReducePolicyIlyN4cuda3std3__44plusIvEEE9Policy600ENS0_22TransformInputIteratorIb7NonZeroIaEPalEEyS7_lNS5_10__identityEEEvT0_PT3_T1_NS0_13GridEvenShareISJ_EET2_T4_
   2e  13ec8    191  0  4          PROGBITS      42    0       41 .nv.constant0._ZN3cub17CUB_200400_750_NS28DeviceReduceSingleTileKernelINS0_18DeviceReducePolicyIlyN4cuda3std3__44plusIvEEE9Policy600ENS0_22TransformInputIteratorIb7NonZeroIaEPalEEPlyS7_llNS5_10__identityEEEvT0_T1_T2_T3_T4_T6_
   2f  1405c    160  0  4          PROGBITS      42    0       42 .nv.constant0._ZN3cub17CUB_200400_750_NS11EmptyKernelIvEEvv
   30  141bc    188  0  4          PROGBITS      42    0       43 .nv.constant0._Z13write_indicesIlEvPl10TensorDimsIT_EiS2_
   31  14380   6400  0 80          PROGBITS  100006    3 31000060 .text._ZN3cub17CUB_200400_750_NS23DeviceSelectSweepKernelINS0_6detail24device_select_policy_hubIlbiLb0ELb0EE9Policy900ENS0_21CountingInputIteratorIllEENS0_22TransformInputIteratorIb7NonZeroIdEPdlEEPlSD_NS0_13ScanTileStateIiLb1EEENS0_8NullTypeESG_iLb0EEEvT0_T1_T2_T3_T4_T5_T6_T7_iNS2_7vsmem_tE
   32  1a780   2c00  0 80          PROGBITS  100006    3 2e000061 .text._ZN3cub17CUB_200400_750_NS18DeviceReduceKernelINS0_18DeviceReducePolicyIlyN4cuda3std3__44plusIvEEE9Policy600ENS0_22TransformInputIteratorIb7NonZeroIdEPdlEEyS7_lNS5_10__identityEEEvT0_PT3_T1_NS0_13GridEvenShareISJ_EET2_T4_
   33  1d380   2b00  0 80          PROGBITS  100006    3 2c000062 .text._ZN3cub17CUB_200400_750_NS28DeviceReduceSingleTileKernelINS0_18DeviceReducePolicyIlyN4cuda3std3__44plusIvEEE9Policy600ENS0_22TransformInputIteratorIb7NonZeroIdEPdlEEPlyS7_llNS5_10__identityEEEvT0_T1_T2_T3_T4_T6_
   34  1fe80   6480  0 80          PROGBITS  100006    3 2c000063 .text._ZN3cub17CUB_200400_750_NS23DeviceSelectSweepKernelINS0_6detail24device_select_policy_hubIlbiLb0ELb0EE9Policy900ENS0_21CountingInputIteratorIllEENS0_22TransformInputIteratorIb7NonZeroIfEPflEEPlSD_NS0_13ScanTileStateIiLb1EEENS0_8NullTypeESG_iLb0EEEvT0_T1_T2_T3_T4_T5_T6_T7_iNS2_7vsmem_tE
   35  26300   2c00  0 80          PROGBITS  100006    3 1d000064 .text._ZN3cub17CUB_200400_750_NS18DeviceReduceKernelINS0_18DeviceReducePolicyIlyN4cuda3std3__44plusIvEEE9Policy600ENS0_22TransformInputIteratorIb7NonZeroIfEPflEEyS7_lNS5_10__identityEEEvT0_PT3_T1_NS0_13GridEvenShareISJ_EET2_T4_
   36  28f00   2b00  0 80          PROGBITS  100006    3 1b000065 .text._ZN3cub17CUB_200400_750_NS28DeviceReduceSingleTileKernelINS0_18DeviceReducePolicyIlyN4cuda3std3__44plusIvEEE9Policy600ENS0_22TransformInputIteratorIb7NonZeroIfEPflEEPlyS7_llNS5_10__identityEEEvT0_T1_T2_T3_T4_T6_
   37  2ba00   6580  0 80          PROGBITS  100006    3 2c000066 .text._ZN3cub17CUB_200400_750_NS23DeviceSelectSweepKernelINS0_6detail24device_select_policy_hubIlbiLb0ELb0EE9Policy900ENS0_21CountingInputIteratorIllEENS0_22TransformInputIteratorIb7NonZeroIiEPilEEPlSD_NS0_13ScanTileStateIiLb1EEENS0_8NullTypeESG_iLb0EEEvT0_T1_T2_T3_T4_T5_T6_T7_iNS2_7vsmem_tE
   38  31f80   2c00  0 80          PROGBITS  100006    3 1d000067 .text._ZN3cub17CUB_200400_750_NS18DeviceReduceKernelINS0_18DeviceReducePolicyIlyN4cuda3std3__44plusIvEEE9Policy600ENS0_22TransformInputIteratorIb7NonZeroIiEPilEEyS7_lNS5_10__identityEEEvT0_PT3_T1_NS0_13GridEvenShareISJ_EET2_T4_
   39  34b80   2b00  0 80          PROGBITS  100006    3 1b000068 .text._ZN3cub17CUB_200400_750_NS28DeviceReduceSingleTileKernelINS0_18DeviceReducePolicyIlyN4cuda3std3__44plusIvEEE9Policy600ENS0_22TransformInputIteratorIb7NonZeroIiEPilEEPlyS7_llNS5_10__identityEEEvT0_T1_T2_T3_T4_T6_
   3a  37680   6580  0 80          PROGBITS  100006    3 2c000069 .text._ZN3cub17CUB_200400_750_NS23DeviceSelectSweepKernelINS0_6detail24device_select_policy_hubIlbiLb0ELb0EE9Policy900ENS0_21CountingInputIteratorIllEENS0_22TransformInputIteratorIb7NonZeroIsEPslEEPlSD_NS0_13ScanTileStateIiLb1EEENS0_8NullTypeESG_iLb0EEEvT0_T1_T2_T3_T4_T5_T6_T7_iNS2_7vsmem_tE
   3b  3dc00   2c00  0 80          PROGBITS  100006    3 1d00006a .text._ZN3cub17CUB_200400_750_NS18DeviceReduceKernelINS0_18DeviceReducePolicyIlyN4cuda3std3__44plusIvEEE9Policy600ENS0_22TransformInputIteratorIb7NonZeroIsEPslEEyS7_lNS5_10__identityEEEvT0_PT3_T1_NS0_13GridEvenShareISJ_EET2_T4_
   3c  40800   2b00  0 80          PROGBITS  100006    3 1b00006b .text._ZN3cub17CUB_200400_750_NS28DeviceReduceSingleTileKernelINS0_18DeviceReducePolicyIlyN4cuda3std3__44plusIvEEE9Policy600ENS0_22TransformInputIteratorIb7NonZeroIsEPslEEPlyS7_llNS5_10__identityEEEvT0_T1_T2_T3_T4_T6_
   3d  43300   6500  0 80          PROGBITS  100006    3 2c00006c .text._ZN3cub17CUB_200400_750_NS23DeviceSelectSweepKernelINS0_6detail24device_select_policy_hubIlbiLb0ELb0EE9Policy900ENS0_21CountingInputIteratorIllEENS0_22TransformInputIteratorIb7NonZeroIaEPalEEPlSD_NS0_13ScanTileStateIiLb1EEENS0_8NullTypeESG_iLb0EEEvT0_T1_T2_T3_T4_T5_T6_T7_iNS2_7vsmem_tE
   3e  49800    180  0 80          PROGBITS       6    3  c00006d .text._ZN3cub17CUB_200400_750_NS23DeviceCompactInitKernelINS0_13ScanTileStateIiLb1EEEPlEEvT_iT0_
   3f  49980   4300  0 80          PROGBITS  100006    3 3400006e .text._ZN3cub17CUB_200400_750_NS28DeviceReduceSingleTileKernelINS0_18DeviceReducePolicyIlyN4cuda3std3__44plusIvEEE9Policy600EPlSA_iS7_llNS5_10__identityEEEvT0_T1_T2_T3_T4_T6_
   40  4dc80   2c00  0 80          PROGBITS  100006    3 2100006f .text._ZN3cub17CUB_200400_750_NS18DeviceReduceKernelINS0_18DeviceReducePolicyIlyN4cuda3std3__44plusIvEEE9Policy600ENS0_22TransformInputIteratorIb7NonZeroIaEPalEEyS7_lNS5_10__identityEEEvT0_PT3_T1_NS0_13GridEvenShareISJ_EET2_T4_
   41  50880   2c00  0 80          PROGBITS  100006    3 1b000070 .text._ZN3cub17CUB_200400_750_NS28DeviceReduceSingleTileKernelINS0_18DeviceReducePolicyIlyN4cuda3std3__44plusIvEEE9Policy600ENS0_22TransformInputIteratorIb7NonZeroIaEPalEEPlyS7_llNS5_10__identityEEEvT0_T1_T2_T3_T4_T6_
   42  53480     80  0 80          PROGBITS       6    3  4000071 .text._ZN3cub17CUB_200400_750_NS11EmptyKernelIvEEvv
   43  53500   1200  0 80          PROGBITS       6    3 18000072 .text._Z13write_indicesIlEvPl10TensorDimsIT_EiS2_
   44  54700   1400  0 10            NOBITS      43    0       31 .nv.shared._ZN3cub17CUB_200400_750_NS23DeviceSelectSweepKernelINS0_6detail24device_select_policy_hubIlbiLb0ELb0EE9Policy900ENS0_21CountingInputIteratorIllEENS0_22TransformInputIteratorIb7NonZeroIdEPdlEEPlSD_NS0_13ScanTileStateIiLb1EEENS0_8NullTypeESG_iLb0EEEvT0_T1_T2_T3_T4_T5_T6_T7_iNS2_7vsmem_tE
   45  54700      e  0  1            NOBITS       3    0        0 .nv.global
   46  54700     50  0  8            NOBITS      43    0       32 .nv.shared._ZN3cub17CUB_200400_750_NS18DeviceReduceKernelINS0_18DeviceReducePolicyIlyN4cuda3std3__44plusIvEEE9Policy600ENS0_22TransformInputIteratorIb7NonZeroIdEPdlEEyS7_lNS5_10__identityEEEvT0_PT3_T1_NS0_13GridEvenShareISJ_EET2_T4_
   47  54700     50  0  8            NOBITS      43    0       33 .nv.shared._ZN3cub17CUB_200400_750_NS28DeviceReduceSingleTileKernelINS0_18DeviceReducePolicyIlyN4cuda3std3__44plusIvEEE9Policy600ENS0_22TransformInputIteratorIb7NonZeroIdEPdlEEPlyS7_llNS5_10__identityEEEvT0_T1_T2_T3_T4_T6_
   48  54700   1400  0 10            NOBITS      43    0       34 .nv.shared._ZN3cub17CUB_200400_750_NS23DeviceSelectSweepKernelINS0_6detail24device_select_policy_hubIlbiLb0ELb0EE9Policy900ENS0_21CountingInputIteratorIllEENS0_22TransformInputIteratorIb7NonZeroIfEPflEEPlSD_NS0_13ScanTileStateIiLb1EEENS0_8NullTypeESG_iLb0EEEvT0_T1_T2_T3_T4_T5_T6_T7_iNS2_7vsmem_tE
   49  54700     50  0  8            NOBITS      43    0       35 .nv.shared._ZN3cub17CUB_200400_750_NS18DeviceReduceKernelINS0_18DeviceReducePolicyIlyN4cuda3std3__44plusIvEEE9Policy600ENS0_22TransformInputIteratorIb7NonZeroIfEPflEEyS7_lNS5_10__identityEEEvT0_PT3_T1_NS0_13GridEvenShareISJ_EET2_T4_
   4a  54700     50  0  8            NOBITS      43    0       36 .nv.shared._ZN3cub17CUB_200400_750_NS28DeviceReduceSingleTileKernelINS0_18DeviceReducePolicyIlyN4cuda3std3__44plusIvEEE9Policy600ENS0_22TransformInputIteratorIb7NonZeroIfEPflEEPlyS7_llNS5_10__identityEEEvT0_T1_T2_T3_T4_T6_
   4b  54700   1400  0 10            NOBITS      43    0       37 .nv.shared._ZN3cub17CUB_200400_750_NS23DeviceSelectSweepKernelINS0_6detail24device_select_policy_hubIlbiLb0ELb0EE9Policy900ENS0_21CountingInputIteratorIllEENS0_22TransformInputIteratorIb7NonZeroIiEPilEEPlSD_NS0_13ScanTileStateIiLb1EEENS0_8NullTypeESG_iLb0EEEvT0_T1_T2_T3_T4_T5_T6_T7_iNS2_7vsmem_tE
   4c  54700     50  0  8            NOBITS      43    0       38 .nv.shared._ZN3cub17CUB_200400_750_NS18DeviceReduceKernelINS0_18DeviceReducePolicyIlyN4cuda3std3__44plusIvEEE9Policy600ENS0_22TransformInputIteratorIb7NonZeroIiEPilEEyS7_lNS5_10__identityEEEvT0_PT3_T1_NS0_13GridEvenShareISJ_EET2_T4_
   4d  54700     50  0  8            NOBITS      43    0       39 .nv.shared._ZN3cub17CUB_200400_750_NS28DeviceReduceSingleTileKernelINS0_18DeviceReducePolicyIlyN4cuda3std3__44plusIvEEE9Policy600ENS0_22TransformInputIteratorIb7NonZeroIiEPilEEPlyS7_llNS5_10__identityEEEvT0_T1_T2_T3_T4_T6_
   4e  54700   1400  0 10            NOBITS      43    0       3a .nv.shared._ZN3cub17CUB_200400_750_NS23DeviceSelectSweepKernelINS0_6detail24device_select_policy_hubIlbiLb0ELb0EE9Policy900ENS0_21CountingInputIteratorIllEENS0_22TransformInputIteratorIb7NonZeroIsEPslEEPlSD_NS0_13ScanTileStateIiLb1EEENS0_8NullTypeESG_iLb0EEEvT0_T1_T2_T3_T4_T5_T6_T7_iNS2_7vsmem_tE
   4f  54700     50  0  8            NOBITS      43    0       3b .nv.shared._ZN3cub17CUB_200400_750_NS18DeviceReduceKernelINS0_18DeviceReducePolicyIlyN4cuda3std3__44plusIvEEE9Policy600ENS0_22TransformInputIteratorIb7NonZeroIsEPslEEyS7_lNS5_10__identityEEEvT0_PT3_T1_NS0_13GridEvenShareISJ_EET2_T4_
   50  54700     50  0  8            NOBITS      43    0       3c .nv.shared._ZN3cub17CUB_200400_750_NS28DeviceReduceSingleTileKernelINS0_18DeviceReducePolicyIlyN4cuda3std3__44plusIvEEE9Policy600ENS0_22TransformInputIteratorIb7NonZeroIsEPslEEPlyS7_llNS5_10__identityEEEvT0_T1_T2_T3_T4_T6_
   51  54700   1400  0 10            NOBITS      43    0       3d .nv.shared._ZN3cub17CUB_200400_750_NS23DeviceSelectSweepKernelINS0_6detail24device_select_policy_hubIlbiLb0ELb0EE9Policy900ENS0_21CountingInputIteratorIllEENS0_22TransformInputIteratorIb7NonZeroIaEPalEEPlSD_NS0_13ScanTileStateIiLb1EEENS0_8NullTypeESG_iLb0EEEvT0_T1_T2_T3_T4_T5_T6_T7_iNS2_7vsmem_tE
   52  54700     50  0  8            NOBITS      43    0       3f .nv.shared._ZN3cub17CUB_200400_750_NS28DeviceReduceSingleTileKernelINS0_18DeviceReducePolicyIlyN4cuda3std3__44plusIvEEE9Policy600EPlSA_iS7_llNS5_10__identityEEEvT0_T1_T2_T3_T4_T6_
   53  54700     50  0  8            NOBITS      43    0       40 .nv.shared._ZN3cub17CUB_200400_750_NS18DeviceReduceKernelINS0_18DeviceReducePolicyIlyN4cuda3std3__44plusIvEEE9Policy600ENS0_22TransformInputIteratorIb7NonZeroIaEPalEEyS7_lNS5_10__identityEEEvT0_PT3_T1_NS0_13GridEvenShareISJ_EET2_T4_
   54  54700     50  0  8            NOBITS      43    0       41 .nv.shared._ZN3cub17CUB_200400_750_NS28DeviceReduceSingleTileKernelINS0_18DeviceReducePolicyIlyN4cuda3std3__44plusIvEEE9Policy600ENS0_22TransformInputIteratorIb7NonZeroIaEPalEEPlyS7_llNS5_10__identityEEEvT0_T1_T2_T3_T4_T6_

.section .strtab

.section .shstrtab

.section .symtab
 index           value           size      info    other  shndx    name  
   0               0               0        0        0      0     (null)
 0x1               0               0      0x3        0   0x31     .text._ZN3cub17CUB_200400_750_NS23DeviceSelectSweepKernelINS0_6detail24device_select_policy_hubIlbiLb0ELb0EE9Policy900ENS0_21CountingInputIteratorIllEENS0_22TransformInputIteratorIb7NonZeroIdEPdlEEPlSD_NS0_13ScanTileStateIiLb1EEENS0_8NullTypeESG_iLb0EEEvT0_T1_T2_T3_T4_T5_T6_T7_iNS2_7vsmem_tE
 0x2               0               0      0x3        0   0x44     .nv.shared._ZN3cub17CUB_200400_750_NS23DeviceSelectSweepKernelINS0_6detail24device_select_policy_hubIlbiLb0ELb0EE9Policy900ENS0_21CountingInputIteratorIllEENS0_22TransformInputIteratorIb7NonZeroIdEPdlEEPlSD_NS0_13ScanTileStateIiLb1EEENS0_8NullTypeESG_iLb0EEEvT0_T1_T2_T3_T4_T5_T6_T7_iNS2_7vsmem_tE
 0x3               0               0      0x3        0   0x45     .nv.global
 0x4             0x1             0x1      0x1        0   0x45     _ZN33_INTERNAL_6bd9f696_7_main_cu_main4cuda3std3__435_GLOBAL__N__6bd9f696_7_main_cu_main6ignoreE
 0x5               0               0      0x3        0   0x1d     .nv.constant4
 0x6             0x8             0x1      0x1        0   0x45     _ZN33_INTERNAL_6bd9f696_7_main_cu_main4cuda3std3__48in_placeE
 0x7             0x5             0x1      0x1        0   0x45     _ZN33_INTERNAL_6bd9f696_7_main_cu_main4cuda3std6ranges3__45__cpo4swapE
 0x8             0xc             0x1      0x1        0   0x45     _ZN33_INTERNAL_6bd9f696_7_main_cu_main6thrust20THRUST_200400_750_NS6system6detail10sequential3seqE
 0x9             0x3             0x1      0x1        0   0x45     _ZN33_INTERNAL_6bd9f696_7_main_cu_main6thrust20THRUST_200400_750_NS12placeholders2_1E
 0xa             0xa             0x1      0x1        0   0x45     _ZN33_INTERNAL_6bd9f696_7_main_cu_main6thrust20THRUST_200400_750_NS12placeholders2_2E
 0xb             0x6             0x1      0x1        0   0x45     _ZN33_INTERNAL_6bd9f696_7_main_cu_main6thrust20THRUST_200400_750_NS12placeholders2_3E
 0xc             0xd             0x1      0x1        0   0x45     _ZN33_INTERNAL_6bd9f696_7_main_cu_main6thrust20THRUST_200400_750_NS12placeholders2_4E
 0xd               0             0x1      0x1        0   0x45     _ZN33_INTERNAL_6bd9f696_7_main_cu_main6thrust20THRUST_200400_750_NS12placeholders2_5E
 0xe             0x7             0x1      0x1        0   0x45     _ZN33_INTERNAL_6bd9f696_7_main_cu_main6thrust20THRUST_200400_750_NS12placeholders2_6E
 0xf             0x4             0x1      0x1        0   0x45     _ZN33_INTERNAL_6bd9f696_7_main_cu_main6thrust20THRUST_200400_750_NS12placeholders2_7E
 0x10             0xb             0x1      0x1        0   0x45     _ZN33_INTERNAL_6bd9f696_7_main_cu_main6thrust20THRUST_200400_750_NS12placeholders2_8E
 0x11             0x2             0x1      0x1        0   0x45     _ZN33_INTERNAL_6bd9f696_7_main_cu_main6thrust20THRUST_200400_750_NS12placeholders2_9E
 0x12             0x9             0x1      0x1        0   0x45     _ZN33_INTERNAL_6bd9f696_7_main_cu_main6thrust20THRUST_200400_750_NS12placeholders3_10E
 0x13          0x61a0            0x50     0x22        0   0x31     $__internal_0_$__cuda_sm70_shflsync_down
 0x14          0x61f0            0xa0     0x22        0   0x31     $__internal_1_$__cuda_sm70_votesync_all
 0x15          0x6290            0x80     0x22        0   0x31     $__internal_2_$__cuda_sm70_votesync_any
 0x16          0x6310            0xf0     0x22        0   0x31     $__internal_3_$__cuda_sm70_votesync_ballot
 0x17               0               0      0x3        0   0x1e     .nv.constant0._ZN3cub17CUB_200400_750_NS23DeviceSelectSweepKernelINS0_6detail24device_select_policy_hubIlbiLb0ELb0EE9Policy900ENS0_21CountingInputIteratorIllEENS0_22TransformInputIteratorIb7NonZeroIdEPdlEEPlSD_NS0_13ScanTileStateIiLb1EEENS0_8NullTypeESG_iLb0EEEvT0_T1_T2_T3_T4_T5_T6_T7_iNS2_7vsmem_tE
 0x18               0               0      0x3        0   0x32     .text._ZN3cub17CUB_200400_750_NS18DeviceReduceKernelINS0_18DeviceReducePolicyIlyN4cuda3std3__44plusIvEEE9Policy600ENS0_22TransformInputIteratorIb7NonZeroIdEPdlEEyS7_lNS5_10__identityEEEvT0_PT3_T1_NS0_13GridEvenShareISJ_EET2_T4_
 0x19               0               0      0x3        0   0x46     .nv.shared._ZN3cub17CUB_200400_750_NS18DeviceReduceKernelINS0_18DeviceReducePolicyIlyN4cuda3std3__44plusIvEEE9Policy600ENS0_22TransformInputIteratorIb7NonZeroIdEPdlEEyS7_lNS5_10__identityEEEvT0_PT3_T1_NS0_13GridEvenShareISJ_EET2_T4_
 0x1a               0               0      0x3        0   0x1f     .nv.constant0._ZN3cub17CUB_200400_750_NS18DeviceReduceKernelINS0_18DeviceReducePolicyIlyN4cuda3std3__44plusIvEEE9Policy600ENS0_22TransformInputIteratorIb7NonZeroIdEPdlEEyS7_lNS5_10__identityEEEvT0_PT3_T1_NS0_13GridEvenShareISJ_EET2_T4_
 0x1b               0               0      0x3        0   0x33     .text._ZN3cub17CUB_200400_750_NS28DeviceReduceSingleTileKernelINS0_18DeviceReducePolicyIlyN4cuda3std3__44plusIvEEE9Policy600ENS0_22TransformInputIteratorIb7NonZeroIdEPdlEEPlyS7_llNS5_10__identityEEEvT0_T1_T2_T3_T4_T6_
 0x1c               0               0      0x3        0   0x47     .nv.shared._ZN3cub17CUB_200400_750_NS28DeviceReduceSingleTileKernelINS0_18DeviceReducePolicyIlyN4cuda3std3__44plusIvEEE9Policy600ENS0_22TransformInputIteratorIb7NonZeroIdEPdlEEPlyS7_llNS5_10__identityEEEvT0_T1_T2_T3_T4_T6_
 0x1d               0               0      0x3        0   0x20     .nv.constant0._ZN3cub17CUB_200400_750_NS28DeviceReduceSingleTileKernelINS0_18DeviceReducePolicyIlyN4cuda3std3__44plusIvEEE9Policy600ENS0_22TransformInputIteratorIb7NonZeroIdEPdlEEPlyS7_llNS5_10__identityEEEvT0_T1_T2_T3_T4_T6_
 0x1e               0               0      0x3        0   0x34     .text._ZN3cub17CUB_200400_750_NS23DeviceSelectSweepKernelINS0_6detail24device_select_policy_hubIlbiLb0ELb0EE9Policy900ENS0_21CountingInputIteratorIllEENS0_22TransformInputIteratorIb7NonZeroIfEPflEEPlSD_NS0_13ScanTileStateIiLb1EEENS0_8NullTypeESG_iLb0EEEvT0_T1_T2_T3_T4_T5_T6_T7_iNS2_7vsmem_tE
 0x1f               0               0      0x3        0   0x48     .nv.shared._ZN3cub17CUB_200400_750_NS23DeviceSelectSweepKernelINS0_6detail24device_select_policy_hubIlbiLb0ELb0EE9Policy900ENS0_21CountingInputIteratorIllEENS0_22TransformInputIteratorIb7NonZeroIfEPflEEPlSD_NS0_13ScanTileStateIiLb1EEENS0_8NullTypeESG_iLb0EEEvT0_T1_T2_T3_T4_T5_T6_T7_iNS2_7vsmem_tE
 0x20          0x62a0            0x40     0x22        0   0x34     $__internal_4_$__cuda_sm70_shflsync_down
 0x21          0x62e0            0xb0     0x22        0   0x34     $__internal_5_$__cuda_sm70_votesync_all
 0x22          0x6390            0x70     0x22        0   0x34     $__internal_6_$__cuda_sm70_votesync_any
 0x23          0x6400            0x80     0x22        0   0x34     $__internal_7_$__cuda_sm70_votesync_ballot
 0x24               0               0      0x3        0   0x21     .nv.constant0._ZN3cub17CUB_200400_750_NS23DeviceSelectSweepKernelINS0_6detail24device_select_policy_hubIlbiLb0ELb0EE9Policy900ENS0_21CountingInputIteratorIllEENS0_22TransformInputIteratorIb7NonZeroIfEPflEEPlSD_NS0_13ScanTileStateIiLb1EEENS0_8NullTypeESG_iLb0EEEvT0_T1_T2_T3_T4_T5_T6_T7_iNS2_7vsmem_tE
 0x25               0               0      0x3        0   0x35     .text._ZN3cub17CUB_200400_750_NS18DeviceReduceKernelINS0_18DeviceReducePolicyIlyN4cuda3std3__44plusIvEEE9Policy600ENS0_22TransformInputIteratorIb7NonZeroIfEPflEEyS7_lNS5_10__identityEEEvT0_PT3_T1_NS0_13GridEvenShareISJ_EET2_T4_
 0x26               0               0      0x3        0   0x49     .nv.shared._ZN3cub17CUB_200400_750_NS18DeviceReduceKernelINS0_18DeviceReducePolicyIlyN4cuda3std3__44plusIvEEE9Policy600ENS0_22TransformInputIteratorIb7NonZeroIfEPflEEyS7_lNS5_10__identityEEEvT0_PT3_T1_NS0_13GridEvenShareISJ_EET2_T4_
 0x27               0               0      0x3        0   0x22     .nv.constant0._ZN3cub17CUB_200400_750_NS18DeviceReduceKernelINS0_18DeviceReducePolicyIlyN4cuda3std3__44plusIvEEE9Policy600ENS0_22TransformInputIteratorIb7NonZeroIfEPflEEyS7_lNS5_10__identityEEEvT0_PT3_T1_NS0_13GridEvenShareISJ_EET2_T4_
 0x28               0               0      0x3        0   0x36     .text._ZN3cub17CUB_200400_750_NS28DeviceReduceSingleTileKernelINS0_18DeviceReducePolicyIlyN4cuda3std3__44plusIvEEE9Policy600ENS0_22TransformInputIteratorIb7NonZeroIfEPflEEPlyS7_llNS5_10__identityEEEvT0_T1_T2_T3_T4_T6_
 0x29               0               0      0x3        0   0x4a     .nv.shared._ZN3cub17CUB_200400_750_NS28DeviceReduceSingleTileKernelINS0_18DeviceReducePolicyIlyN4cuda3std3__44plusIvEEE9Policy600ENS0_22TransformInputIteratorIb7NonZeroIfEPflEEPlyS7_llNS5_10__identityEEEvT0_T1_T2_T3_T4_T6_
 0x2a               0               0      0x3        0   0x23     .nv.constant0._ZN3cub17CUB_200400_750_NS28DeviceReduceSingleTileKernelINS0_18DeviceReducePolicyIlyN4cuda3std3__44plusIvEEE9Policy600ENS0_22TransformInputIteratorIb7NonZeroIfEPflEEPlyS7_llNS5_10__identityEEEvT0_T1_T2_T3_T4_T6_
 0x2b               0               0      0x3        0   0x37     .text._ZN3cub17CUB_200400_750_NS23DeviceSelectSweepKernelINS0_6detail24device_select_policy_hubIlbiLb0ELb0EE9Policy900ENS0_21CountingInputIteratorIllEENS0_22TransformInputIteratorIb7NonZeroIiEPilEEPlSD_NS0_13ScanTileStateIiLb1EEENS0_8NullTypeESG_iLb0EEEvT0_T1_T2_T3_T4_T5_T6_T7_iNS2_7vsmem_tE
 0x2c               0               0      0x3        0   0x4b     .nv.shared._ZN3cub17CUB_200400_750_NS23DeviceSelectSweepKernelINS0_6detail24device_select_policy_hubIlbiLb0ELb0EE9Policy900ENS0_21CountingInputIteratorIllEENS0_22TransformInputIteratorIb7NonZeroIiEPilEEPlSD_NS0_13ScanTileStateIiLb1EEENS0_8NullTypeESG_iLb0EEEvT0_T1_T2_T3_T4_T5_T6_T7_iNS2_7vsmem_tE
 0x2d          0x6340            0x40     0x22        0   0x37     $__internal_8_$__cuda_sm70_shflsync_down
 0x2e          0x6380            0xb0     0x22        0   0x37     $__internal_9_$__cuda_sm70_votesync_all
 0x2f          0x6430            0x70     0x22        0   0x37     $__internal_10_$__cuda_sm70_votesync_any
 0x30          0x64a0            0xe0     0x22        0   0x37     $__internal_11_$__cuda_sm70_votesync_ballot
 0x31               0               0      0x3        0   0x24     .nv.constant0._ZN3cub17CUB_200400_750_NS23DeviceSelectSweepKernelINS0_6detail24device_select_policy_hubIlbiLb0ELb0EE9Policy900ENS0_21CountingInputIteratorIllEENS0_22TransformInputIteratorIb7NonZeroIiEPilEEPlSD_NS0_13ScanTileStateIiLb1EEENS0_8NullTypeESG_iLb0EEEvT0_T1_T2_T3_T4_T5_T6_T7_iNS2_7vsmem_tE
 0x32               0               0      0x3        0   0x38     .text._ZN3cub17CUB_200400_750_NS18DeviceReduceKernelINS0_18DeviceReducePolicyIlyN4cuda3std3__44plusIvEEE9Policy600ENS0_22TransformInputIteratorIb7NonZeroIiEPilEEyS7_lNS5_10__identityEEEvT0_PT3_T1_NS0_13GridEvenShareISJ_EET2_T4_
 0x33               0               0      0x3        0   0x4c     .nv.shared._ZN3cub17CUB_200400_750_NS18DeviceReduceKernelINS0_18DeviceReducePolicyIlyN4cuda3std3__44plusIvEEE9Policy600ENS0_22TransformInputIteratorIb7NonZeroIiEPilEEyS7_lNS5_10__identityEEEvT0_PT3_T1_NS0_13GridEvenShareISJ_EET2_T4_
 0x34               0               0      0x3        0   0x25     .nv.constant0._ZN3cub17CUB_200400_750_NS18DeviceReduceKernelINS0_18DeviceReducePolicyIlyN4cuda3std3__44plusIvEEE9Policy600ENS0_22TransformInputIteratorIb7NonZeroIiEPilEEyS7_lNS5_10__identityEEEvT0_PT3_T1_NS0_13GridEvenShareISJ_EET2_T4_
 0x35               0               0      0x3        0   0x39     .text._ZN3cub17CUB_200400_750_NS28DeviceReduceSingleTileKernelINS0_18DeviceReducePolicyIlyN4cuda3std3__44plusIvEEE9Policy600ENS0_22TransformInputIteratorIb7NonZeroIiEPilEEPlyS7_llNS5_10__identityEEEvT0_T1_T2_T3_T4_T6_
 0x36               0               0      0x3        0   0x4d     .nv.shared._ZN3cub17CUB_200400_750_NS28DeviceReduceSingleTileKernelINS0_18DeviceReducePolicyIlyN4cuda3std3__44plusIvEEE9Policy600ENS0_22TransformInputIteratorIb7NonZeroIiEPilEEPlyS7_llNS5_10__identityEEEvT0_T1_T2_T3_T4_T6_
 0x37               0               0      0x3        0   0x26     .nv.constant0._ZN3cub17CUB_200400_750_NS28DeviceReduceSingleTileKernelINS0_18DeviceReducePolicyIlyN4cuda3std3__44plusIvEEE9Policy600ENS0_22TransformInputIteratorIb7NonZeroIiEPilEEPlyS7_llNS5_10__identityEEEvT0_T1_T2_T3_T4_T6_
 0x38               0               0      0x3        0   0x3a     .text._ZN3cub17CUB_200400_750_NS23DeviceSelectSweepKernelINS0_6detail24device_select_policy_hubIlbiLb0ELb0EE9Policy900ENS0_21CountingInputIteratorIllEENS0_22TransformInputIteratorIb7NonZeroIsEPslEEPlSD_NS0_13ScanTileStateIiLb1EEENS0_8NullTypeESG_iLb0EEEvT0_T1_T2_T3_T4_T5_T6_T7_iNS2_7vsmem_tE
 0x39               0               0      0x3        0   0x4e     .nv.shared._ZN3cub17CUB_200400_750_NS23DeviceSelectSweepKernelINS0_6detail24device_select_policy_hubIlbiLb0ELb0EE9Policy900ENS0_21CountingInputIteratorIllEENS0_22TransformInputIteratorIb7NonZeroIsEPslEEPlSD_NS0_13ScanTileStateIiLb1EEENS0_8NullTypeESG_iLb0EEEvT0_T1_T2_T3_T4_T5_T6_T7_iNS2_7vsmem_tE
 0x3a          0x6340            0x40     0x22        0   0x3a     $__internal_12_$__cuda_sm70_shflsync_down
 0x3b          0x6380            0xb0     0x22        0   0x3a     $__internal_13_$__cuda_sm70_votesync_all
 0x3c          0x6430            0x70     0x22        0   0x3a     $__internal_14_$__cuda_sm70_votesync_any
 0x3d          0x64a0            0xe0     0x22        0   0x3a     $__internal_15_$__cuda_sm70_votesync_ballot
 0x3e               0               0      0x3        0   0x27     .nv.constant0._ZN3cub17CUB_200400_750_NS23DeviceSelectSweepKernelINS0_6detail24device_select_policy_hubIlbiLb0ELb0EE9Policy900ENS0_21CountingInputIteratorIllEENS0_22TransformInputIteratorIb7NonZeroIsEPslEEPlSD_NS0_13ScanTileStateIiLb1EEENS0_8NullTypeESG_iLb0EEEvT0_T1_T2_T3_T4_T5_T6_T7_iNS2_7vsmem_tE
 0x3f               0               0      0x3        0   0x3b     .text._ZN3cub17CUB_200400_750_NS18DeviceReduceKernelINS0_18DeviceReducePolicyIlyN4cuda3std3__44plusIvEEE9Policy600ENS0_22TransformInputIteratorIb7NonZeroIsEPslEEyS7_lNS5_10__identityEEEvT0_PT3_T1_NS0_13GridEvenShareISJ_EET2_T4_
 0x40               0               0      0x3        0   0x4f     .nv.shared._ZN3cub17CUB_200400_750_NS18DeviceReduceKernelINS0_18DeviceReducePolicyIlyN4cuda3std3__44plusIvEEE9Policy600ENS0_22TransformInputIteratorIb7NonZeroIsEPslEEyS7_lNS5_10__identityEEEvT0_PT3_T1_NS0_13GridEvenShareISJ_EET2_T4_
 0x41               0               0      0x3        0   0x28     .nv.constant0._ZN3cub17CUB_200400_750_NS18DeviceReduceKernelINS0_18DeviceReducePolicyIlyN4cuda3std3__44plusIvEEE9Policy600ENS0_22TransformInputIteratorIb7NonZeroIsEPslEEyS7_lNS5_10__identityEEEvT0_PT3_T1_NS0_13GridEvenShareISJ_EET2_T4_
 0x42               0               0      0x3        0   0x3c     .text._ZN3cub17CUB_200400_750_NS28DeviceReduceSingleTileKernelINS0_18DeviceReducePolicyIlyN4cuda3std3__44plusIvEEE9Policy600ENS0_22TransformInputIteratorIb7NonZeroIsEPslEEPlyS7_llNS5_10__identityEEEvT0_T1_T2_T3_T4_T6_
 0x43               0               0      0x3        0   0x50     .nv.shared._ZN3cub17CUB_200400_750_NS28DeviceReduceSingleTileKernelINS0_18DeviceReducePolicyIlyN4cuda3std3__44plusIvEEE9Policy600ENS0_22TransformInputIteratorIb7NonZeroIsEPslEEPlyS7_llNS5_10__identityEEEvT0_T1_T2_T3_T4_T6_
 0x44               0               0      0x3        0   0x29     .nv.constant0._ZN3cub17CUB_200400_750_NS28DeviceReduceSingleTileKernelINS0_18DeviceReducePolicyIlyN4cuda3std3__44plusIvEEE9Policy600ENS0_22TransformInputIteratorIb7NonZeroIsEPslEEPlyS7_llNS5_10__identityEEEvT0_T1_T2_T3_T4_T6_
 0x45               0               0      0x3        0   0x3d     .text._ZN3cub17CUB_200400_750_NS23DeviceSelectSweepKernelINS0_6detail24device_select_policy_hubIlbiLb0ELb0EE9Policy900ENS0_21CountingInputIteratorIllEENS0_22TransformInputIteratorIb7NonZeroIaEPalEEPlSD_NS0_13ScanTileStateIiLb1EEENS0_8NullTypeESG_iLb0EEEvT0_T1_T2_T3_T4_T5_T6_T7_iNS2_7vsmem_tE
 0x46               0               0      0x3        0   0x51     .nv.shared._ZN3cub17CUB_200400_750_NS23DeviceSelectSweepKernelINS0_6detail24device_select_policy_hubIlbiLb0ELb0EE9Policy900ENS0_21CountingInputIteratorIllEENS0_22TransformInputIteratorIb7NonZeroIaEPalEEPlSD_NS0_13ScanTileStateIiLb1EEENS0_8NullTypeESG_iLb0EEEvT0_T1_T2_T3_T4_T5_T6_T7_iNS2_7vsmem_tE
 0x47          0x62c0            0x40     0x22        0   0x3d     $__internal_16_$__cuda_sm70_shflsync_down
 0x48          0x6300            0xb0     0x22        0   0x3d     $__internal_17_$__cuda_sm70_votesync_all
 0x49          0x63b0            0x70     0x22        0   0x3d     $__internal_18_$__cuda_sm70_votesync_any
 0x4a          0x6420            0xe0     0x22        0   0x3d     $__internal_19_$__cuda_sm70_votesync_ballot
 0x4b               0               0      0x3        0   0x2a     .nv.constant0._ZN3cub17CUB_200400_750_NS23DeviceSelectSweepKernelINS0_6detail24device_select_policy_hubIlbiLb0ELb0EE9Policy900ENS0_21CountingInputIteratorIllEENS0_22TransformInputIteratorIb7NonZeroIaEPalEEPlSD_NS0_13ScanTileStateIiLb1EEENS0_8NullTypeESG_iLb0EEEvT0_T1_T2_T3_T4_T5_T6_T7_iNS2_7vsmem_tE
 0x4c               0               0      0x3        0   0x3e     .text._ZN3cub17CUB_200400_750_NS23DeviceCompactInitKernelINS0_13ScanTileStateIiLb1EEEPlEEvT_iT0_
 0x4d               0               0      0x3        0   0x2b     .nv.constant0._ZN3cub17CUB_200400_750_NS23DeviceCompactInitKernelINS0_13ScanTileStateIiLb1EEEPlEEvT_iT0_
 0x4e               0               0      0x3        0   0x3f     .text._ZN3cub17CUB_200400_750_NS28DeviceReduceSingleTileKernelINS0_18DeviceReducePolicyIlyN4cuda3std3__44plusIvEEE9Policy600EPlSA_iS7_llNS5_10__identityEEEvT0_T1_T2_T3_T4_T6_
 0x4f               0               0      0x3        0   0x52     .nv.shared._ZN3cub17CUB_200400_750_NS28DeviceReduceSingleTileKernelINS0_18DeviceReducePolicyIlyN4cuda3std3__44plusIvEEE9Policy600EPlSA_iS7_llNS5_10__identityEEEvT0_T1_T2_T3_T4_T6_
 0x50               0               0      0x3        0   0x2c     .nv.constant0._ZN3cub17CUB_200400_750_NS28DeviceReduceSingleTileKernelINS0_18DeviceReducePolicyIlyN4cuda3std3__44plusIvEEE9Policy600EPlSA_iS7_llNS5_10__identityEEEvT0_T1_T2_T3_T4_T6_
 0x51               0               0      0x3        0   0x40     .text._ZN3cub17CUB_200400_750_NS18DeviceReduceKernelINS0_18DeviceReducePolicyIlyN4cuda3std3__44plusIvEEE9Policy600ENS0_22TransformInputIteratorIb7NonZeroIaEPalEEyS7_lNS5_10__identityEEEvT0_PT3_T1_NS0_13GridEvenShareISJ_EET2_T4_
 0x52               0               0      0x3        0   0x53     .nv.shared._ZN3cub17CUB_200400_750_NS18DeviceReduceKernelINS0_18DeviceReducePolicyIlyN4cuda3std3__44plusIvEEE9Policy600ENS0_22TransformInputIteratorIb7NonZeroIaEPalEEyS7_lNS5_10__identityEEEvT0_PT3_T1_NS0_13GridEvenShareISJ_EET2_T4_
 0x53               0               0      0x3        0   0x2d     .nv.constant0._ZN3cub17CUB_200400_750_NS18DeviceReduceKernelINS0_18DeviceReducePolicyIlyN4cuda3std3__44plusIvEEE9Policy600ENS0_22TransformInputIteratorIb7NonZeroIaEPalEEyS7_lNS5_10__identityEEEvT0_PT3_T1_NS0_13GridEvenShareISJ_EET2_T4_
 0x54               0               0      0x3        0   0x41     .text._ZN3cub17CUB_200400_750_NS28DeviceReduceSingleTileKernelINS0_18DeviceReducePolicyIlyN4cuda3std3__44plusIvEEE9Policy600ENS0_22TransformInputIteratorIb7NonZeroIaEPalEEPlyS7_llNS5_10__identityEEEvT0_T1_T2_T3_T4_T6_
 0x55               0               0      0x3        0   0x54     .nv.shared._ZN3cub17CUB_200400_750_NS28DeviceReduceSingleTileKernelINS0_18DeviceReducePolicyIlyN4cuda3std3__44plusIvEEE9Policy600ENS0_22TransformInputIteratorIb7NonZeroIaEPalEEPlyS7_llNS5_10__identityEEEvT0_T1_T2_T3_T4_T6_
 0x56               0               0      0x3        0   0x2e     .nv.constant0._ZN3cub17CUB_200400_750_NS28DeviceReduceSingleTileKernelINS0_18DeviceReducePolicyIlyN4cuda3std3__44plusIvEEE9Policy600ENS0_22TransformInputIteratorIb7NonZeroIaEPalEEPlyS7_llNS5_10__identityEEEvT0_T1_T2_T3_T4_T6_
 0x57               0               0      0x3        0   0x42     .text._ZN3cub17CUB_200400_750_NS11EmptyKernelIvEEvv
 0x58               0               0      0x3        0   0x2f     .nv.constant0._ZN3cub17CUB_200400_750_NS11EmptyKernelIvEEvv
 0x59               0               0      0x3        0   0x43     .text._Z13write_indicesIlEvPl10TensorDimsIT_EiS2_
 0x5a           0x7a0           0x540     0x22        0   0x43     $__internal_20_$__cuda_sm20_div_s64
 0x5b           0xce0           0x520     0x22        0   0x43     $__internal_21_$__cuda_sm20_rem_s64
 0x5c               0               0      0x3        0   0x30     .nv.constant0._Z13write_indicesIlEvPl10TensorDimsIT_EiS2_
 0x5d               0               0      0x3        0    0x4     .debug_frame
 0x5e               0               0      0x3        0   0x19     .nv.callgraph
 0x5f               0               0      0x3        0   0x1a     .nv.rel.action
 0x60               0          0x6400     0x12     0x10   0x31     _ZN3cub17CUB_200400_750_NS23DeviceSelectSweepKernelINS0_6detail24device_select_policy_hubIlbiLb0ELb0EE9Policy900ENS0_21CountingInputIteratorIllEENS0_22TransformInputIteratorIb7NonZeroIdEPdlEEPlSD_NS0_13ScanTileStateIiLb1EEENS0_8NullTypeESG_iLb0EEEvT0_T1_T2_T3_T4_T5_T6_T7_iNS2_7vsmem_tE
 0x61               0          0x2c00     0x12     0x10   0x32     _ZN3cub17CUB_200400_750_NS18DeviceReduceKernelINS0_18DeviceReducePolicyIlyN4cuda3std3__44plusIvEEE9Policy600ENS0_22TransformInputIteratorIb7NonZeroIdEPdlEEyS7_lNS5_10__identityEEEvT0_PT3_T1_NS0_13GridEvenShareISJ_EET2_T4_
 0x62               0          0x2b00     0x12     0x10   0x33     _ZN3cub17CUB_200400_750_NS28DeviceReduceSingleTileKernelINS0_18DeviceReducePolicyIlyN4cuda3std3__44plusIvEEE9Policy600ENS0_22TransformInputIteratorIb7NonZeroIdEPdlEEPlyS7_llNS5_10__identityEEEvT0_T1_T2_T3_T4_T6_
 0x63               0          0x6480     0x12     0x10   0x34     _ZN3cub17CUB_200400_750_NS23DeviceSelectSweepKernelINS0_6detail24device_select_policy_hubIlbiLb0ELb0EE9Policy900ENS0_21CountingInputIteratorIllEENS0_22TransformInputIteratorIb7NonZeroIfEPflEEPlSD_NS0_13ScanTileStateIiLb1EEENS0_8NullTypeESG_iLb0EEEvT0_T1_T2_T3_T4_T5_T6_T7_iNS2_7vsmem_tE
 0x64               0          0x2c00     0x12     0x10   0x35     _ZN3cub17CUB_200400_750_NS18DeviceReduceKernelINS0_18DeviceReducePolicyIlyN4cuda3std3__44plusIvEEE9Policy600ENS0_22TransformInputIteratorIb7NonZeroIfEPflEEyS7_lNS5_10__identityEEEvT0_PT3_T1_NS0_13GridEvenShareISJ_EET2_T4_
 0x65               0          0x2b00     0x12     0x10   0x36     _ZN3cub17CUB_200400_750_NS28DeviceReduceSingleTileKernelINS0_18DeviceReducePolicyIlyN4cuda3std3__44plusIvEEE9Policy600ENS0_22TransformInputIteratorIb7NonZeroIfEPflEEPlyS7_llNS5_10__identityEEEvT0_T1_T2_T3_T4_T6_
 0x66               0          0x6580     0x12     0x10   0x37     _ZN3cub17CUB_200400_750_NS23DeviceSelectSweepKernelINS0_6detail24device_select_policy_hubIlbiLb0ELb0EE9Policy900ENS0_21CountingInputIteratorIllEENS0_22TransformInputIteratorIb7NonZeroIiEPilEEPlSD_NS0_13ScanTileStateIiLb1EEENS0_8NullTypeESG_iLb0EEEvT0_T1_T2_T3_T4_T5_T6_T7_iNS2_7vsmem_tE
 0x67               0          0x2c00     0x12     0x10   0x38     _ZN3cub17CUB_200400_750_NS18DeviceReduceKernelINS0_18DeviceReducePolicyIlyN4cuda3std3__44plusIvEEE9Policy600ENS0_22TransformInputIteratorIb7NonZeroIiEPilEEyS7_lNS5_10__identityEEEvT0_PT3_T1_NS0_13GridEvenShareISJ_EET2_T4_
 0x68               0          0x2b00     0x12     0x10   0x39     _ZN3cub17CUB_200400_750_NS28DeviceReduceSingleTileKernelINS0_18DeviceReducePolicyIlyN4cuda3std3__44plusIvEEE9Policy600ENS0_22TransformInputIteratorIb7NonZeroIiEPilEEPlyS7_llNS5_10__identityEEEvT0_T1_T2_T3_T4_T6_
 0x69               0          0x6580     0x12     0x10   0x3a     _ZN3cub17CUB_200400_750_NS23DeviceSelectSweepKernelINS0_6detail24device_select_policy_hubIlbiLb0ELb0EE9Policy900ENS0_21CountingInputIteratorIllEENS0_22TransformInputIteratorIb7NonZeroIsEPslEEPlSD_NS0_13ScanTileStateIiLb1EEENS0_8NullTypeESG_iLb0EEEvT0_T1_T2_T3_T4_T5_T6_T7_iNS2_7vsmem_tE
 0x6a               0          0x2c00     0x12     0x10   0x3b     _ZN3cub17CUB_200400_750_NS18DeviceReduceKernelINS0_18DeviceReducePolicyIlyN4cuda3std3__44plusIvEEE9Policy600ENS0_22TransformInputIteratorIb7NonZeroIsEPslEEyS7_lNS5_10__identityEEEvT0_PT3_T1_NS0_13GridEvenShareISJ_EET2_T4_
 0x6b               0          0x2b00     0x12     0x10   0x3c     _ZN3cub17CUB_200400_750_NS28DeviceReduceSingleTileKernelINS0_18DeviceReducePolicyIlyN4cuda3std3__44plusIvEEE9Policy600ENS0_22TransformInputIteratorIb7NonZeroIsEPslEEPlyS7_llNS5_10__identityEEEvT0_T1_T2_T3_T4_T6_
 0x6c               0          0x6500     0x12     0x10   0x3d     _ZN3cub17CUB_200400_750_NS23DeviceSelectSweepKernelINS0_6detail24device_select_policy_hubIlbiLb0ELb0EE9Policy900ENS0_21CountingInputIteratorIllEENS0_22TransformInputIteratorIb7NonZeroIaEPalEEPlSD_NS0_13ScanTileStateIiLb1EEENS0_8NullTypeESG_iLb0EEEvT0_T1_T2_T3_T4_T5_T6_T7_iNS2_7vsmem_tE
 0x6d               0           0x180     0x12     0x10   0x3e     _ZN3cub17CUB_200400_750_NS23DeviceCompactInitKernelINS0_13ScanTileStateIiLb1EEEPlEEvT_iT0_
 0x6e               0          0x4300     0x12     0x10   0x3f     _ZN3cub17CUB_200400_750_NS28DeviceReduceSingleTileKernelINS0_18DeviceReducePolicyIlyN4cuda3std3__44plusIvEEE9Policy600EPlSA_iS7_llNS5_10__identityEEEvT0_T1_T2_T3_T4_T6_
 0x6f               0          0x2c00     0x12     0x10   0x40     _ZN3cub17CUB_200400_750_NS18DeviceReduceKernelINS0_18DeviceReducePolicyIlyN4cuda3std3__44plusIvEEE9Policy600ENS0_22TransformInputIteratorIb7NonZeroIaEPalEEyS7_lNS5_10__identityEEEvT0_PT3_T1_NS0_13GridEvenShareISJ_EET2_T4_
 0x70               0          0x2c00     0x12     0x10   0x41     _ZN3cub17CUB_200400_750_NS28DeviceReduceSingleTileKernelINS0_18DeviceReducePolicyIlyN4cuda3std3__44plusIvEEE9Policy600ENS0_22TransformInputIteratorIb7NonZeroIaEPalEEPlyS7_llNS5_10__identityEEEvT0_T1_T2_T3_T4_T6_
 0x71               0            0x80     0x12     0x10   0x42     _ZN3cub17CUB_200400_750_NS11EmptyKernelIvEEvv
 0x72               0          0x1200     0x12     0x10   0x43     _Z13write_indicesIlEvPl10TensorDimsIT_EiS2_


.nv.constant4
0x00000000 0x00000000 0x00000000 0x00000000
0x00000000 0x00000000 0x00000000 0x00000000
0x00000000 0x00000000 0x00000000 0x00000000
0x00000000 0x00000000 0x00000000 0x00000000
0x00000000 0x00000000 0x00000000 0x00000000
0x00000000 0x00000000 0x00000000 0x00000000
0x00000000 0x00000000 0x00000000 0x00000000


.section .rel.nv.constant4	REL
0x68    _ZN33_INTERNAL_6bd9f696_7_main_cu_main6thrust20THRUST_200400_750_NS12placeholders3_10E    R_CUDA_64
0x60    _ZN33_INTERNAL_6bd9f696_7_main_cu_main6thrust20THRUST_200400_750_NS12placeholders2_9E    R_CUDA_64
0x58    _ZN33_INTERNAL_6bd9f696_7_main_cu_main6thrust20THRUST_200400_750_NS12placeholders2_8E    R_CUDA_64
0x50    _ZN33_INTERNAL_6bd9f696_7_main_cu_main6thrust20THRUST_200400_750_NS12placeholders2_7E    R_CUDA_64
0x48    _ZN33_INTERNAL_6bd9f696_7_main_cu_main6thrust20THRUST_200400_750_NS12placeholders2_6E    R_CUDA_64
0x40    _ZN33_INTERNAL_6bd9f696_7_main_cu_main6thrust20THRUST_200400_750_NS12placeholders2_5E    R_CUDA_64
0x38    _ZN33_INTERNAL_6bd9f696_7_main_cu_main6thrust20THRUST_200400_750_NS12placeholders2_4E    R_CUDA_64
0x30    _ZN33_INTERNAL_6bd9f696_7_main_cu_main6thrust20THRUST_200400_750_NS12placeholders2_3E    R_CUDA_64
0x28    _ZN33_INTERNAL_6bd9f696_7_main_cu_main6thrust20THRUST_200400_750_NS12placeholders2_2E    R_CUDA_64
0x20    _ZN33_INTERNAL_6bd9f696_7_main_cu_main6thrust20THRUST_200400_750_NS12placeholders2_1E    R_CUDA_64
0x18    _ZN33_INTERNAL_6bd9f696_7_main_cu_main6thrust20THRUST_200400_750_NS6system6detail10sequential3seqE    R_CUDA_64
0x10    _ZN33_INTERNAL_6bd9f696_7_main_cu_main4cuda3std6ranges3__45__cpo4swapE    R_CUDA_64
0x8    _ZN33_INTERNAL_6bd9f696_7_main_cu_main4cuda3std3__48in_placeE    R_CUDA_64
0x0    _ZN33_INTERNAL_6bd9f696_7_main_cu_main4cuda3std3__435_GLOBAL__N__6bd9f696_7_main_cu_main6ignoreE    R_CUDA_64


.nv.constant0._ZN3cub17CUB_200400_750_NS23DeviceSelectSweepKernelINS0_6detail24device_select_policy_hubIlbiLb0ELb0EE9Policy900ENS0_21CountingInputIteratorIllEENS0_22TransformInputIteratorIb7NonZeroIdEPdlEEPlSD_NS0_13ScanTileStateIiLb1EEENS0_8NullTypeESG_iLb0EEEvT0_T1_T2_T3_T4_T5_T6_T7_iNS2_7vsmem_tE
0x00000000 0x00000000 0x00000000 0x00000000
0x00000000 0x00000000 0x00000000 0x00000000
0x00000000 0x00000000 0x00000000 0x00000000
0x00000000 0x00000000 0x00000000 0x00000000
0x00000000 0x00000000 0x00000000 0x00000000
0x00000000 0x00000000 0x00000000 0x00000000
0x00000000 0x00000000 0x00000000 0x00000000
0x00000000 0x00000000 0x00000000 0x00000000
0x00000000 0x00000000 0x00000000 0x00000000
0x00000000 0x00000000 0x00000000 0x00000000
0x00000000 0x00000000 0x00000000 0x00000000
0x00000000 0x00000000 0x00000000 0x00000000
0x00000000 0x00000000 0x00000000 0x00000000
0x00000000 0x00000000 0x00000000 0x00000000
0x00000000 0x00000000 0x00000000 0x00000000
0x00000000 0x00000000 0x00000000 0x00000000
0x00000000 0x00000000 0x00000000 0x00000000
0x00000000 0x00000000 0x00000000 0x00000000
0x00000000 0x00000000 0x00000000 0x00000000
0x00000000 0x00000000 0x00000000 0x00000000
0x00000000 0x00000000 0x00000000 0x00000000
0x00000000 0x00000000 0x00000000 0x00000000
0x00000000 0x00000000 0x00000000 0x00000000
0x00000000 0x00000000 0x00000000 0x00000000
0x00000000 0x00000000 0x00000000 0x00000000
0x00000000 0x00000000 0x00000000 0x00000000
0x00000000 0x00000000 


.nv.constant0._ZN3cub17CUB_200400_750_NS18DeviceReduceKernelINS0_18DeviceReducePolicyIlyN4cuda3std3__44plusIvEEE9Policy600ENS0_22TransformInputIteratorIb7NonZeroIdEPdlEEyS7_lNS5_10__identityEEEvT0_PT3_T1_NS0_13GridEvenShareISJ_EET2_T4_
0x00000000 0x00000000 0x00000000 0x00000000
0x00000000 0x00000000 0x00000000 0x00000000
0x00000000 0x00000000 0x00000000 0x00000000
0x00000000 0x00000000 0x00000000 0x00000000
0x00000000 0x00000000 0x00000000 0x00000000
0x00000000 0x00000000 0x00000000 0x00000000
0x00000000 0x00000000 0x00000000 0x00000000
0x00000000 0x00000000 0x00000000 0x00000000
0x00000000 0x00000000 0x00000000 0x00000000
0x00000000 0x00000000 0x00000000 0x00000000
0x00000000 0x00000000 0x00000000 0x00000000
0x00000000 0x00000000 0x00000000 0x00000000
0x00000000 0x00000000 0x00000000 0x00000000
0x00000000 0x00000000 0x00000000 0x00000000
0x00000000 0x00000000 0x00000000 0x00000000
0x00000000 0x00000000 0x00000000 0x00000000
0x00000000 0x00000000 0x00000000 0x00000000
0x00000000 0x00000000 0x00000000 0x00000000
0x00000000 0x00000000 0x00000000 0x00000000
0x00000000 0x00000000 0x00000000 0x00000000
0x00000000 0x00000000 0x00000000 0x00000000
0x00000000 0x00000000 0x00000000 0x00000000
0x00000000 0x00000000 0x00000000 0x00000000
0x00000000 0x00000000 0x00000000 0x00000000
0x00000000 0x00000000 0x00000000 0x00000000
0x00000000 0x00000000 0x00000000 0x00000000
0x00000000 0x00000000 0x00000000 0x00000000
0x00000000 0x00000000 0x00000000 0x00000000
0x00000000 0x00000000 0x00 0x00 


.nv.constant0._ZN3cub17CUB_200400_750_NS28DeviceReduceSingleTileKernelINS0_18DeviceReducePolicyIlyN4cuda3std3__44plusIvEEE9Policy600ENS0_22TransformInputIteratorIb7NonZeroIdEPdlEEPlyS7_llNS5_10__identityEEEvT0_T1_T2_T3_T4_T6_
0x00000000 0x00000000 0x00000000 0x00000000
0x00000000 0x00000000 0x00000000 0x00000000
0x00000000 0x00000000 0x00000000 0x00000000
0x00000000 0x00000000 0x00000000 0x00000000
0x00000000 0x00000000 0x00000000 0x00000000
0x00000000 0x00000000 0x00000000 0x00000000
0x00000000 0x00000000 0x00000000 0x00000000
0x00000000 0x00000000 0x00000000 0x00000000
0x00000000 0x00000000 0x00000000 0x00000000
0x00000000 0x00000000 0x00000000 0x00000000
0x00000000 0x00000000 0x00000000 0x00000000
0x00000000 0x00000000 0x00000000 0x00000000
0x00000000 0x00000000 0x00000000 0x00000000
0x00000000 0x00000000 0x00000000 0x00000000
0x00000000 0x00000000 0x00000000 0x00000000
0x00000000 0x00000000 0x00000000 0x00000000
0x00000000 0x00000000 0x00000000 0x00000000
0x00000000 0x00000000 0x00000000 0x00000000
0x00000000 0x00000000 0x00000000 0x00000000
0x00000000 0x00000000 0x00000000 0x00000000
0x00000000 0x00000000 0x00000000 0x00000000
0x00000000 0x00000000 0x00000000 0x00000000
0x00000000 0x00000000 0x00000000 0x00000000
0x00000000 0x00000000 0x00000000 0x00000000
0x00000000 0x00000000 0x00000000 0x00000000
0x00 


.nv.constant0._ZN3cub17CUB_200400_750_NS23DeviceSelectSweepKernelINS0_6detail24device_select_policy_hubIlbiLb0ELb0EE9Policy900ENS0_21CountingInputIteratorIllEENS0_22TransformInputIteratorIb7NonZeroIfEPflEEPlSD_NS0_13ScanTileStateIiLb1EEENS0_8NullTypeESG_iLb0EEEvT0_T1_T2_T3_T4_T5_T6_T7_iNS2_7vsmem_tE
0x00000000 0x00000000 0x00000000 0x00000000
0x00000000 0x00000000 0x00000000 0x00000000
0x00000000 0x00000000 0x00000000 0x00000000
0x00000000 0x00000000 0x00000000 0x00000000
0x00000000 0x00000000 0x00000000 0x00000000
0x00000000 0x00000000 0x00000000 0x00000000
0x00000000 0x00000000 0x00000000 0x00000000
0x00000000 0x00000000 0x00000000 0x00000000
0x00000000 0x00000000 0x00000000 0x00000000
0x00000000 0x00000000 0x00000000 0x00000000
0x00000000 0x00000000 0x00000000 0x00000000
0x00000000 0x00000000 0x00000000 0x00000000
0x00000000 0x00000000 0x00000000 0x00000000
0x00000000 0x00000000 0x00000000 0x00000000
0x00000000 0x00000000 0x00000000 0x00000000
0x00000000 0x00000000 0x00000000 0x00000000
0x00000000 0x00000000 0x00000000 0x00000000
0x00000000 0x00000000 0x00000000 0x00000000
0x00000000 0x00000000 0x00000000 0x00000000
0x00000000 0x00000000 0x00000000 0x00000000
0x00000000 0x00000000 0x00000000 0x00000000
0x00000000 0x00000000 0x00000000 0x00000000
0x00000000 0x00000000 0x00000000 0x00000000
0x00000000 0x00000000 0x00000000 0x00000000
0x00000000 0x00000000 0x00000000 0x00000000
0x00000000 0x00000000 0x00000000 0x00000000
0x00000000 0x00000000 


.nv.constant0._ZN3cub17CUB_200400_750_NS18DeviceReduceKernelINS0_18DeviceReducePolicyIlyN4cuda3std3__44plusIvEEE9Policy600ENS0_22TransformInputIteratorIb7NonZeroIfEPflEEyS7_lNS5_10__identityEEEvT0_PT3_T1_NS0_13GridEvenShareISJ_EET2_T4_
0x00000000 0x00000000 0x00000000 0x00000000
0x00000000 0x00000000 0x00000000 0x00000000
0x00000000 0x00000000 0x00000000 0x00000000
0x00000000 0x00000000 0x00000000 0x00000000
0x00000000 0x00000000 0x00000000 0x00000000
0x00000000 0x00000000 0x00000000 0x00000000
0x00000000 0x00000000 0x00000000 0x00000000
0x00000000 0x00000000 0x00000000 0x00000000
0x00000000 0x00000000 0x00000000 0x00000000
0x00000000 0x00000000 0x00000000 0x00000000
0x00000000 0x00000000 0x00000000 0x00000000
0x00000000 0x00000000 0x00000000 0x00000000
0x00000000 0x00000000 0x00000000 0x00000000
0x00000000 0x00000000 0x00000000 0x00000000
0x00000000 0x00000000 0x00000000 0x00000000
0x00000000 0x00000000 0x00000000 0x00000000
0x00000000 0x00000000 0x00000000 0x00000000
0x00000000 0x00000000 0x00000000 0x00000000
0x00000000 0x00000000 0x00000000 0x00000000
0x00000000 0x00000000 0x00000000 0x00000000
0x00000000 0x00000000 0x00000000 0x00000000
0x00000000 0x00000000 0x00000000 0x00000000
0x00000000 0x00000000 0x00000000 0x00000000
0x00000000 0x00000000 0x00000000 0x00000000
0x00000000 0x00000000 0x00000000 0x00000000
0x00000000 0x00000000 0x00000000 0x00000000
0x00000000 0x00000000 0x00000000 0x00000000
0x00000000 0x00000000 0x00000000 0x00000000
0x00000000 0x00000000 0x00 0x00 


.nv.constant0._ZN3cub17CUB_200400_750_NS28DeviceReduceSingleTileKernelINS0_18DeviceReducePolicyIlyN4cuda3std3__44plusIvEEE9Policy600ENS0_22TransformInputIteratorIb7NonZeroIfEPflEEPlyS7_llNS5_10__identityEEEvT0_T1_T2_T3_T4_T6_
0x00000000 0x00000000 0x00000000 0x00000000
0x00000000 0x00000000 0x00000000 0x00000000
0x00000000 0x00000000 0x00000000 0x00000000
0x00000000 0x00000000 0x00000000 0x00000000
0x00000000 0x00000000 0x00000000 0x00000000
0x00000000 0x00000000 0x00000000 0x00000000
0x00000000 0x00000000 0x00000000 0x00000000
0x00000000 0x00000000 0x00000000 0x00000000
0x00000000 0x00000000 0x00000000 0x00000000
0x00000000 0x00000000 0x00000000 0x00000000
0x00000000 0x00000000 0x00000000 0x00000000
0x00000000 0x00000000 0x00000000 0x00000000
0x00000000 0x00000000 0x00000000 0x00000000
0x00000000 0x00000000 0x00000000 0x00000000
0x00000000 0x00000000 0x00000000 0x00000000
0x00000000 0x00000000 0x00000000 0x00000000
0x00000000 0x00000000 0x00000000 0x00000000
0x00000000 0x00000000 0x00000000 0x00000000
0x00000000 0x00000000 0x00000000 0x00000000
0x00000000 0x00000000 0x00000000 0x00000000
0x00000000 0x00000000 0x00000000 0x00000000
0x00000000 0x00000000 0x00000000 0x00000000
0x00000000 0x00000000 0x00000000 0x00000000
0x00000000 0x00000000 0x00000000 0x00000000
0x00000000 0x00000000 0x00000000 0x00000000
0x00 


.nv.constant0._ZN3cub17CUB_200400_750_NS23DeviceSelectSweepKernelINS0_6detail24device_select_policy_hubIlbiLb0ELb0EE9Policy900ENS0_21CountingInputIteratorIllEENS0_22TransformInputIteratorIb7NonZeroIiEPilEEPlSD_NS0_13ScanTileStateIiLb1EEENS0_8NullTypeESG_iLb0EEEvT0_T1_T2_T3_T4_T5_T6_T7_iNS2_7vsmem_tE
0x00000000 0x00000000 0x00000000 0x00000000
0x00000000 0x00000000 0x00000000 0x00000000
0x00000000 0x00000000 0x00000000 0x00000000
0x00000000 0x00000000 0x00000000 0x00000000
0x00000000 0x00000000 0x00000000 0x00000000
0x00000000 0x00000000 0x00000000 0x00000000
0x00000000 0x00000000 0x00000000 0x00000000
0x00000000 0x00000000 0x00000000 0x00000000
0x00000000 0x00000000 0x00000000 0x00000000
0x00000000 0x00000000 0x00000000 0x00000000
0x00000000 0x00000000 0x00000000 0x00000000
0x00000000 0x00000000 0x00000000 0x00000000
0x00000000 0x00000000 0x00000000 0x00000000
0x00000000 0x00000000 0x00000000 0x00000000
0x00000000 0x00000000 0x00000000 0x00000000
0x00000000 0x00000000 0x00000000 0x00000000
0x00000000 0x00000000 0x00000000 0x00000000
0x00000000 0x00000000 0x00000000 0x00000000
0x00000000 0x00000000 0x00000000 0x00000000
0x00000000 0x00000000 0x00000000 0x00000000
0x00000000 0x00000000 0x00000000 0x00000000
0x00000000 0x00000000 0x00000000 0x00000000
0x00000000 0x00000000 0x00000000 0x00000000
0x00000000 0x00000000 0x00000000 0x00000000
0x00000000 0x00000000 0x00000000 0x00000000
0x00000000 0x00000000 0x00000000 0x00000000
0x00000000 0x00000000 


.nv.constant0._ZN3cub17CUB_200400_750_NS18DeviceReduceKernelINS0_18DeviceReducePolicyIlyN4cuda3std3__44plusIvEEE9Policy600ENS0_22TransformInputIteratorIb7NonZeroIiEPilEEyS7_lNS5_10__identityEEEvT0_PT3_T1_NS0_13GridEvenShareISJ_EET2_T4_
0x00000000 0x00000000 0x00000000 0x00000000
0x00000000 0x00000000 0x00000000 0x00000000
0x00000000 0x00000000 0x00000000 0x00000000
0x00000000 0x00000000 0x00000000 0x00000000
0x00000000 0x00000000 0x00000000 0x00000000
0x00000000 0x00000000 0x00000000 0x00000000
0x00000000 0x00000000 0x00000000 0x00000000
0x00000000 0x00000000 0x00000000 0x00000000
0x00000000 0x00000000 0x00000000 0x00000000
0x00000000 0x00000000 0x00000000 0x00000000
0x00000000 0x00000000 0x00000000 0x00000000
0x00000000 0x00000000 0x00000000 0x00000000
0x00000000 0x00000000 0x00000000 0x00000000
0x00000000 0x00000000 0x00000000 0x00000000
0x00000000 0x00000000 0x00000000 0x00000000
0x00000000 0x00000000 0x00000000 0x00000000
0x00000000 0x00000000 0x00000000 0x00000000
0x00000000 0x00000000 0x00000000 0x00000000
0x00000000 0x00000000 0x00000000 0x00000000
0x00000000 0x00000000 0x00000000 0x00000000
0x00000000 0x00000000 0x00000000 0x00000000
0x00000000 0x00000000 0x00000000 0x00000000
0x00000000 0x00000000 0x00000000 0x00000000
0x00000000 0x00000000 0x00000000 0x00000000
0x00000000 0x00000000 0x00000000 0x00000000
0x00000000 0x00000000 0x00000000 0x00000000
0x00000000 0x00000000 0x00000000 0x00000000
0x00000000 0x00000000 0x00000000 0x00000000
0x00000000 0x00000000 0x00 0x00 


.nv.constant0._ZN3cub17CUB_200400_750_NS28DeviceReduceSingleTileKernelINS0_18DeviceReducePolicyIlyN4cuda3std3__44plusIvEEE9Policy600ENS0_22TransformInputIteratorIb7NonZeroIiEPilEEPlyS7_llNS5_10__identityEEEvT0_T1_T2_T3_T4_T6_
0x00000000 0x00000000 0x00000000 0x00000000
0x00000000 0x00000000 0x00000000 0x00000000
0x00000000 0x00000000 0x00000000 0x00000000
0x00000000 0x00000000 0x00000000 0x00000000
0x00000000 0x00000000 0x00000000 0x00000000
0x00000000 0x00000000 0x00000000 0x00000000
0x00000000 0x00000000 0x00000000 0x00000000
0x00000000 0x00000000 0x00000000 0x00000000
0x00000000 0x00000000 0x00000000 0x00000000
0x00000000 0x00000000 0x00000000 0x00000000
0x00000000 0x00000000 0x00000000 0x00000000
0x00000000 0x00000000 0x00000000 0x00000000
0x00000000 0x00000000 0x00000000 0x00000000
0x00000000 0x00000000 0x00000000 0x00000000
0x00000000 0x00000000 0x00000000 0x00000000
0x00000000 0x00000000 0x00000000 0x00000000
0x00000000 0x00000000 0x00000000 0x00000000
0x00000000 0x00000000 0x00000000 0x00000000
0x00000000 0x00000000 0x00000000 0x00000000
0x00000000 0x00000000 0x00000000 0x00000000
0x00000000 0x00000000 0x00000000 0x00000000
0x00000000 0x00000000 0x00000000 0x00000000
0x00000000 0x00000000 0x00000000 0x00000000
0x00000000 0x00000000 0x00000000 0x00000000
0x00000000 0x00000000 0x00000000 0x00000000
0x00 


.nv.constant0._ZN3cub17CUB_200400_750_NS23DeviceSelectSweepKernelINS0_6detail24device_select_policy_hubIlbiLb0ELb0EE9Policy900ENS0_21CountingInputIteratorIllEENS0_22TransformInputIteratorIb7NonZeroIsEPslEEPlSD_NS0_13ScanTileStateIiLb1EEENS0_8NullTypeESG_iLb0EEEvT0_T1_T2_T3_T4_T5_T6_T7_iNS2_7vsmem_tE
0x00000000 0x00000000 0x00000000 0x00000000
0x00000000 0x00000000 0x00000000 0x00000000
0x00000000 0x00000000 0x00000000 0x00000000
0x00000000 0x00000000 0x00000000 0x00000000
0x00000000 0x00000000 0x00000000 0x00000000
0x00000000 0x00000000 0x00000000 0x00000000
0x00000000 0x00000000 0x00000000 0x00000000
0x00000000 0x00000000 0x00000000 0x00000000
0x00000000 0x00000000 0x00000000 0x00000000
0x00000000 0x00000000 0x00000000 0x00000000
0x00000000 0x00000000 0x00000000 0x00000000
0x00000000 0x00000000 0x00000000 0x00000000
0x00000000 0x00000000 0x00000000 0x00000000
0x00000000 0x00000000 0x00000000 0x00000000
0x00000000 0x00000000 0x00000000 0x00000000
0x00000000 0x00000000 0x00000000 0x00000000
0x00000000 0x00000000 0x00000000 0x00000000
0x00000000 0x00000000 0x00000000 0x00000000
0x00000000 0x00000000 0x00000000 0x00000000
0x00000000 0x00000000 0x00000000 0x00000000
0x00000000 0x00000000 0x00000000 0x00000000
0x00000000 0x00000000 0x00000000 0x00000000
0x00000000 0x00000000 0x00000000 0x00000000
0x00000000 0x00000000 0x00000000 0x00000000
0x00000000 0x00000000 0x00000000 0x00000000
0x00000000 0x00000000 0x00000000 0x00000000
0x00000000 0x00000000 


.nv.constant0._ZN3cub17CUB_200400_750_NS18DeviceReduceKernelINS0_18DeviceReducePolicyIlyN4cuda3std3__44plusIvEEE9Policy600ENS0_22TransformInputIteratorIb7NonZeroIsEPslEEyS7_lNS5_10__identityEEEvT0_PT3_T1_NS0_13GridEvenShareISJ_EET2_T4_
0x00000000 0x00000000 0x00000000 0x00000000
0x00000000 0x00000000 0x00000000 0x00000000
0x00000000 0x00000000 0x00000000 0x00000000
0x00000000 0x00000000 0x00000000 0x00000000
0x00000000 0x00000000 0x00000000 0x00000000
0x00000000 0x00000000 0x00000000 0x00000000
0x00000000 0x00000000 0x00000000 0x00000000
0x00000000 0x00000000 0x00000000 0x00000000
0x00000000 0x00000000 0x00000000 0x00000000
0x00000000 0x00000000 0x00000000 0x00000000
0x00000000 0x00000000 0x00000000 0x00000000
0x00000000 0x00000000 0x00000000 0x00000000
0x00000000 0x00000000 0x00000000 0x00000000
0x00000000 0x00000000 0x00000000 0x00000000
0x00000000 0x00000000 0x00000000 0x00000000
0x00000000 0x00000000 0x00000000 0x00000000
0x00000000 0x00000000 0x00000000 0x00000000
0x00000000 0x00000000 0x00000000 0x00000000
0x00000000 0x00000000 0x00000000 0x00000000
0x00000000 0x00000000 0x00000000 0x00000000
0x00000000 0x00000000 0x00000000 0x00000000
0x00000000 0x00000000 0x00000000 0x00000000
0x00000000 0x00000000 0x00000000 0x00000000
0x00000000 0x00000000 0x00000000 0x00000000
0x00000000 0x00000000 0x00000000 0x00000000
0x00000000 0x00000000 0x00000000 0x00000000
0x00000000 0x00000000 0x00000000 0x00000000
0x00000000 0x00000000 0x00000000 0x00000000
0x00000000 0x00000000 0x00 0x00 


.nv.constant0._ZN3cub17CUB_200400_750_NS28DeviceReduceSingleTileKernelINS0_18DeviceReducePolicyIlyN4cuda3std3__44plusIvEEE9Policy600ENS0_22TransformInputIteratorIb7NonZeroIsEPslEEPlyS7_llNS5_10__identityEEEvT0_T1_T2_T3_T4_T6_
0x00000000 0x00000000 0x00000000 0x00000000
0x00000000 0x00000000 0x00000000 0x00000000
0x00000000 0x00000000 0x00000000 0x00000000
0x00000000 0x00000000 0x00000000 0x00000000
0x00000000 0x00000000 0x00000000 0x00000000
0x00000000 0x00000000 0x00000000 0x00000000
0x00000000 0x00000000 0x00000000 0x00000000
0x00000000 0x00000000 0x00000000 0x00000000
0x00000000 0x00000000 0x00000000 0x00000000
0x00000000 0x00000000 0x00000000 0x00000000
0x00000000 0x00000000 0x00000000 0x00000000
0x00000000 0x00000000 0x00000000 0x00000000
0x00000000 0x00000000 0x00000000 0x00000000
0x00000000 0x00000000 0x00000000 0x00000000
0x00000000 0x00000000 0x00000000 0x00000000
0x00000000 0x00000000 0x00000000 0x00000000
0x00000000 0x00000000 0x00000000 0x00000000
0x00000000 0x00000000 0x00000000 0x00000000
0x00000000 0x00000000 0x00000000 0x00000000
0x00000000 0x00000000 0x00000000 0x00000000
0x00000000 0x00000000 0x00000000 0x00000000
0x00000000 0x00000000 0x00000000 0x00000000
0x00000000 0x00000000 0x00000000 0x00000000
0x00000000 0x00000000 0x00000000 0x00000000
0x00000000 0x00000000 0x00000000 0x00000000
0x00 


.nv.constant0._ZN3cub17CUB_200400_750_NS23DeviceSelectSweepKernelINS0_6detail24device_select_policy_hubIlbiLb0ELb0EE9Policy900ENS0_21CountingInputIteratorIllEENS0_22TransformInputIteratorIb7NonZeroIaEPalEEPlSD_NS0_13ScanTileStateIiLb1EEENS0_8NullTypeESG_iLb0EEEvT0_T1_T2_T3_T4_T5_T6_T7_iNS2_7vsmem_tE
0x00000000 0x00000000 0x00000000 0x00000000
0x00000000 0x00000000 0x00000000 0x00000000
0x00000000 0x00000000 0x00000000 0x00000000
0x00000000 0x00000000 0x00000000 0x00000000
0x00000000 0x00000000 0x00000000 0x00000000
0x00000000 0x00000000 0x00000000 0x00000000
0x00000000 0x00000000 0x00000000 0x00000000
0x00000000 0x00000000 0x00000000 0x00000000
0x00000000 0x00000000 0x00000000 0x00000000
0x00000000 0x00000000 0x00000000 0x00000000
0x00000000 0x00000000 0x00000000 0x00000000
0x00000000 0x00000000 0x00000000 0x00000000
0x00000000 0x00000000 0x00000000 0x00000000
0x00000000 0x00000000 0x00000000 0x00000000
0x00000000 0x00000000 0x00000000 0x00000000
0x00000000 0x00000000 0x00000000 0x00000000
0x00000000 0x00000000 0x00000000 0x00000000
0x00000000 0x00000000 0x00000000 0x00000000
0x00000000 0x00000000 0x00000000 0x00000000
0x00000000 0x00000000 0x00000000 0x00000000
0x00000000 0x00000000 0x00000000 0x00000000
0x00000000 0x00000000 0x00000000 0x00000000
0x00000000 0x00000000 0x00000000 0x00000000
0x00000000 0x00000000 0x00000000 0x00000000
0x00000000 0x00000000 0x00000000 0x00000000
0x00000000 0x00000000 0x00000000 0x00000000
0x00000000 0x00000000 


.nv.constant0._ZN3cub17CUB_200400_750_NS23DeviceCompactInitKernelINS0_13ScanTileStateIiLb1EEEPlEEvT_iT0_
0x00000000 0x00000000 0x00000000 0x00000000
0x00000000 0x00000000 0x00000000 0x00000000
0x00000000 0x00000000 0x00000000 0x00000000
0x00000000 0x00000000 0x00000000 0x00000000
0x00000000 0x00000000 0x00000000 0x00000000
0x00000000 0x00000000 0x00000000 0x00000000
0x00000000 0x00000000 0x00000000 0x00000000
0x00000000 0x00000000 0x00000000 0x00000000
0x00000000 0x00000000 0x00000000 0x00000000
0x00000000 0x00000000 0x00000000 0x00000000
0x00000000 0x00000000 0x00000000 0x00000000
0x00000000 0x00000000 0x00000000 0x00000000
0x00000000 0x00000000 0x00000000 0x00000000
0x00000000 0x00000000 0x00000000 0x00000000
0x00000000 0x00000000 0x00000000 0x00000000
0x00000000 0x00000000 0x00000000 0x00000000
0x00000000 0x00000000 0x00000000 0x00000000
0x00000000 0x00000000 0x00000000 0x00000000
0x00000000 0x00000000 0x00000000 0x00000000
0x00000000 0x00000000 0x00000000 0x00000000
0x00000000 0x00000000 0x00000000 0x00000000
0x00000000 0x00000000 0x00000000 0x00000000
0x00000000 0x00000000 0x00000000 0x00000000
0x00000000 0x00000000 


.nv.constant0._ZN3cub17CUB_200400_750_NS28DeviceReduceSingleTileKernelINS0_18DeviceReducePolicyIlyN4cuda3std3__44plusIvEEE9Policy600EPlSA_iS7_llNS5_10__identityEEEvT0_T1_T2_T3_T4_T6_
0x00000000 0x00000000 0x00000000 0x00000000
0x00000000 0x00000000 0x00000000 0x00000000
0x00000000 0x00000000 0x00000000 0x00000000
0x00000000 0x00000000 0x00000000 0x00000000
0x00000000 0x00000000 0x00000000 0x00000000
0x00000000 0x00000000 0x00000000 0x00000000
0x00000000 0x00000000 0x00000000 0x00000000
0x00000000 0x00000000 0x00000000 0x00000000
0x00000000 0x00000000 0x00000000 0x00000000
0x00000000 0x00000000 0x00000000 0x00000000
0x00000000 0x00000000 0x00000000 0x00000000
0x00000000 0x00000000 0x00000000 0x00000000
0x00000000 0x00000000 0x00000000 0x00000000
0x00000000 0x00000000 0x00000000 0x00000000
0x00000000 0x00000000 0x00000000 0x00000000
0x00000000 0x00000000 0x00000000 0x00000000
0x00000000 0x00000000 0x00000000 0x00000000
0x00000000 0x00000000 0x00000000 0x00000000
0x00000000 0x00000000 0x00000000 0x00000000
0x00000000 0x00000000 0x00000000 0x00000000
0x00000000 0x00000000 0x00000000 0x00000000
0x00000000 0x00000000 0x00000000 0x00000000
0x00000000 0x00000000 0x00000000 0x00000000
0x00000000 0x00000000 0x00000000 0x00000000
0x00 


.nv.constant0._ZN3cub17CUB_200400_750_NS18DeviceReduceKernelINS0_18DeviceReducePolicyIlyN4cuda3std3__44plusIvEEE9Policy600ENS0_22TransformInputIteratorIb7NonZeroIaEPalEEyS7_lNS5_10__identityEEEvT0_PT3_T1_NS0_13GridEvenShareISJ_EET2_T4_
0x00000000 0x00000000 0x00000000 0x00000000
0x00000000 0x00000000 0x00000000 0x00000000
0x00000000 0x00000000 0x00000000 0x00000000
0x00000000 0x00000000 0x00000000 0x00000000
0x00000000 0x00000000 0x00000000 0x00000000
0x00000000 0x00000000 0x00000000 0x00000000
0x00000000 0x00000000 0x00000000 0x00000000
0x00000000 0x00000000 0x00000000 0x00000000
0x00000000 0x00000000 0x00000000 0x00000000
0x00000000 0x00000000 0x00000000 0x00000000
0x00000000 0x00000000 0x00000000 0x00000000
0x00000000 0x00000000 0x00000000 0x00000000
0x00000000 0x00000000 0x00000000 0x00000000
0x00000000 0x00000000 0x00000000 0x00000000
0x00000000 0x00000000 0x00000000 0x00000000
0x00000000 0x00000000 0x00000000 0x00000000
0x00000000 0x00000000 0x00000000 0x00000000
0x00000000 0x00000000 0x00000000 0x00000000
0x00000000 0x00000000 0x00000000 0x00000000
0x00000000 0x00000000 0x00000000 0x00000000
0x00000000 0x00000000 0x00000000 0x00000000
0x00000000 0x00000000 0x00000000 0x00000000
0x00000000 0x00000000 0x00000000 0x00000000
0x00000000 0x00000000 0x00000000 0x00000000
0x00000000 0x00000000 0x00000000 0x00000000
0x00000000 0x00000000 0x00000000 0x00000000
0x00000000 0x00000000 0x00000000 0x00000000
0x00000000 0x00000000 0x00000000 0x00000000
0x00000000 0x00000000 0x00 0x00 


.nv.constant0._ZN3cub17CUB_200400_750_NS28DeviceReduceSingleTileKernelINS0_18DeviceReducePolicyIlyN4cuda3std3__44plusIvEEE9Policy600ENS0_22TransformInputIteratorIb7NonZeroIaEPalEEPlyS7_llNS5_10__identityEEEvT0_T1_T2_T3_T4_T6_
0x00000000 0x00000000 0x00000000 0x00000000
0x00000000 0x00000000 0x00000000 0x00000000
0x00000000 0x00000000 0x00000000 0x00000000
0x00000000 0x00000000 0x00000000 0x00000000
0x00000000 0x00000000 0x00000000 0x00000000
0x00000000 0x00000000 0x00000000 0x00000000
0x00000000 0x00000000 0x00000000 0x00000000
0x00000000 0x00000000 0x00000000 0x00000000
0x00000000 0x00000000 0x00000000 0x00000000
0x00000000 0x00000000 0x00000000 0x00000000
0x00000000 0x00000000 0x00000000 0x00000000
0x00000000 0x00000000 0x00000000 0x00000000
0x00000000 0x00000000 0x00000000 0x00000000
0x00000000 0x00000000 0x00000000 0x00000000
0x00000000 0x00000000 0x00000000 0x00000000
0x00000000 0x00000000 0x00000000 0x00000000
0x00000000 0x00000000 0x00000000 0x00000000
0x00000000 0x00000000 0x00000000 0x00000000
0x00000000 0x00000000 0x00000000 0x00000000
0x00000000 0x00000000 0x00000000 0x00000000
0x00000000 0x00000000 0x00000000 0x00000000
0x00000000 0x00000000 0x00000000 0x00000000
0x00000000 0x00000000 0x00000000 0x00000000
0x00000000 0x00000000 0x00000000 0x00000000
0x00000000 0x00000000 0x00000000 0x00000000
0x00 


.nv.constant0._ZN3cub17CUB_200400_750_NS11EmptyKernelIvEEvv
0x00000000 0x00000000 0x00000000 0x00000000
0x00000000 0x00000000 0x00000000 0x00000000
0x00000000 0x00000000 0x00000000 0x00000000
0x00000000 0x00000000 0x00000000 0x00000000
0x00000000 0x00000000 0x00000000 0x00000000
0x00000000 0x00000000 0x00000000 0x00000000
0x00000000 0x00000000 0x00000000 0x00000000
0x00000000 0x00000000 0x00000000 0x00000000
0x00000000 0x00000000 0x00000000 0x00000000
0x00000000 0x00000000 0x00000000 0x00000000
0x00000000 0x00000000 0x00000000 0x00000000
0x00000000 0x00000000 0x00000000 0x00000000
0x00000000 0x00000000 0x00000000 0x00000000
0x00000000 0x00000000 0x00000000 0x00000000
0x00000000 0x00000000 0x00000000 0x00000000
0x00000000 0x00000000 0x00000000 0x00000000
0x00000000 0x00000000 0x00000000 0x00000000
0x00000000 0x00000000 0x00000000 0x00000000
0x00000000 0x00000000 0x00000000 0x00000000
0x00000000 0x00000000 0x00000000 0x00000000
0x00000000 0x00000000 0x00000000 0x00000000
0x00000000 0x00000000 0x00000000 0x00000000



.nv.constant0._Z13write_indicesIlEvPl10TensorDimsIT_EiS2_
0x00000000 0x00000000 0x00000000 0x00000000
0x00000000 0x00000000 0x00000000 0x00000000
0x00000000 0x00000000 0x00000000 0x00000000
0x00000000 0x00000000 0x00000000 0x00000000
0x00000000 0x00000000 0x00000000 0x00000000
0x00000000 0x00000000 0x00000000 0x00000000
0x00000000 0x00000000 0x00000000 0x00000000
0x00000000 0x00000000 0x00000000 0x00000000
0x00000000 0x00000000 0x00000000 0x00000000
0x00000000 0x00000000 0x00000000 0x00000000
0x00000000 0x00000000 0x00000000 0x00000000
0x00000000 0x00000000 0x00000000 0x00000000
0x00000000 0x00000000 0x00000000 0x00000000
0x00000000 0x00000000 0x00000000 0x00000000
0x00000000 0x00000000 0x00000000 0x00000000
0x00000000 0x00000000 0x00000000 0x00000000
0x00000000 0x00000000 0x00000000 0x00000000
0x00000000 0x00000000 0x00000000 0x00000000
0x00000000 0x00000000 0x00000000 0x00000000
0x00000000 0x00000000 0x00000000 0x00000000
0x00000000 0x00000000 0x00000000 0x00000000
0x00000000 0x00000000 0x00000000 0x00000000
0x00000000 0x00000000 0x00000000 0x00000000
0x00000000 0x00000000 0x00000000 0x00000000
0x00000000 0x00000000 


.nv.shared._ZN3cub17CUB_200400_750_NS23DeviceSelectSweepKernelINS0_6detail24device_select_policy_hubIlbiLb0ELb0EE9Policy900ENS0_21CountingInputIteratorIllEENS0_22TransformInputIteratorIb7NonZeroIdEPdlEEPlSD_NS0_13ScanTileStateIiLb1EEENS0_8NullTypeESG_iLb0EEEvT0_T1_T2_T3_T4_T5_T6_T7_iNS2_7vsmem_tE
   No data to be dumped. 


.nv.shared._ZN3cub17CUB_200400_750_NS18DeviceReduceKernelINS0_18DeviceReducePolicyIlyN4cuda3std3__44plusIvEEE9Policy600ENS0_22TransformInputIteratorIb7NonZeroIdEPdlEEyS7_lNS5_10__identityEEEvT0_PT3_T1_NS0_13GridEvenShareISJ_EET2_T4_
   No data to be dumped. 


.nv.shared._ZN3cub17CUB_200400_750_NS28DeviceReduceSingleTileKernelINS0_18DeviceReducePolicyIlyN4cuda3std3__44plusIvEEE9Policy600ENS0_22TransformInputIteratorIb7NonZeroIdEPdlEEPlyS7_llNS5_10__identityEEEvT0_T1_T2_T3_T4_T6_
   No data to be dumped. 


.nv.shared._ZN3cub17CUB_200400_750_NS23DeviceSelectSweepKernelINS0_6detail24device_select_policy_hubIlbiLb0ELb0EE9Policy900ENS0_21CountingInputIteratorIllEENS0_22TransformInputIteratorIb7NonZeroIfEPflEEPlSD_NS0_13ScanTileStateIiLb1EEENS0_8NullTypeESG_iLb0EEEvT0_T1_T2_T3_T4_T5_T6_T7_iNS2_7vsmem_tE
   No data to be dumped. 


.nv.shared._ZN3cub17CUB_200400_750_NS18DeviceReduceKernelINS0_18DeviceReducePolicyIlyN4cuda3std3__44plusIvEEE9Policy600ENS0_22TransformInputIteratorIb7NonZeroIfEPflEEyS7_lNS5_10__identityEEEvT0_PT3_T1_NS0_13GridEvenShareISJ_EET2_T4_
   No data to be dumped. 


.nv.shared._ZN3cub17CUB_200400_750_NS28DeviceReduceSingleTileKernelINS0_18DeviceReducePolicyIlyN4cuda3std3__44plusIvEEE9Policy600ENS0_22TransformInputIteratorIb7NonZeroIfEPflEEPlyS7_llNS5_10__identityEEEvT0_T1_T2_T3_T4_T6_
   No data to be dumped. 


.nv.shared._ZN3cub17CUB_200400_750_NS23DeviceSelectSweepKernelINS0_6detail24device_select_policy_hubIlbiLb0ELb0EE9Policy900ENS0_21CountingInputIteratorIllEENS0_22TransformInputIteratorIb7NonZeroIiEPilEEPlSD_NS0_13ScanTileStateIiLb1EEENS0_8NullTypeESG_iLb0EEEvT0_T1_T2_T3_T4_T5_T6_T7_iNS2_7vsmem_tE
   No data to be dumped. 


.nv.shared._ZN3cub17CUB_200400_750_NS18DeviceReduceKernelINS0_18DeviceReducePolicyIlyN4cuda3std3__44plusIvEEE9Policy600ENS0_22TransformInputIteratorIb7NonZeroIiEPilEEyS7_lNS5_10__identityEEEvT0_PT3_T1_NS0_13GridEvenShareISJ_EET2_T4_
   No data to be dumped. 


.nv.shared._ZN3cub17CUB_200400_750_NS28DeviceReduceSingleTileKernelINS0_18DeviceReducePolicyIlyN4cuda3std3__44plusIvEEE9Policy600ENS0_22TransformInputIteratorIb7NonZeroIiEPilEEPlyS7_llNS5_10__identityEEEvT0_T1_T2_T3_T4_T6_
   No data to be dumped. 


.nv.shared._ZN3cub17CUB_200400_750_NS23DeviceSelectSweepKernelINS0_6detail24device_select_policy_hubIlbiLb0ELb0EE9Policy900ENS0_21CountingInputIteratorIllEENS0_22TransformInputIteratorIb7NonZeroIsEPslEEPlSD_NS0_13ScanTileStateIiLb1EEENS0_8NullTypeESG_iLb0EEEvT0_T1_T2_T3_T4_T5_T6_T7_iNS2_7vsmem_tE
   No data to be dumped. 


.nv.shared._ZN3cub17CUB_200400_750_NS18DeviceReduceKernelINS0_18DeviceReducePolicyIlyN4cuda3std3__44plusIvEEE9Policy600ENS0_22TransformInputIteratorIb7NonZeroIsEPslEEyS7_lNS5_10__identityEEEvT0_PT3_T1_NS0_13GridEvenShareISJ_EET2_T4_
   No data to be dumped. 


.nv.shared._ZN3cub17CUB_200400_750_NS28DeviceReduceSingleTileKernelINS0_18DeviceReducePolicyIlyN4cuda3std3__44plusIvEEE9Policy600ENS0_22TransformInputIteratorIb7NonZeroIsEPslEEPlyS7_llNS5_10__identityEEEvT0_T1_T2_T3_T4_T6_
   No data to be dumped. 


.nv.shared._ZN3cub17CUB_200400_750_NS23DeviceSelectSweepKernelINS0_6detail24device_select_policy_hubIlbiLb0ELb0EE9Policy900ENS0_21CountingInputIteratorIllEENS0_22TransformInputIteratorIb7NonZeroIaEPalEEPlSD_NS0_13ScanTileStateIiLb1EEENS0_8NullTypeESG_iLb0EEEvT0_T1_T2_T3_T4_T5_T6_T7_iNS2_7vsmem_tE
   No data to be dumped. 


.nv.shared._ZN3cub17CUB_200400_750_NS28DeviceReduceSingleTileKernelINS0_18DeviceReducePolicyIlyN4cuda3std3__44plusIvEEE9Policy600EPlSA_iS7_llNS5_10__identityEEEvT0_T1_T2_T3_T4_T6_
   No data to be dumped. 


.nv.shared._ZN3cub17CUB_200400_750_NS18DeviceReduceKernelINS0_18DeviceReducePolicyIlyN4cuda3std3__44plusIvEEE9Policy600ENS0_22TransformInputIteratorIb7NonZeroIaEPalEEyS7_lNS5_10__identityEEEvT0_PT3_T1_NS0_13GridEvenShareISJ_EET2_T4_
   No data to be dumped. 


.nv.shared._ZN3cub17CUB_200400_750_NS28DeviceReduceSingleTileKernelINS0_18DeviceReducePolicyIlyN4cuda3std3__44plusIvEEE9Policy600ENS0_22TransformInputIteratorIb7NonZeroIaEPalEEPlyS7_llNS5_10__identityEEEvT0_T1_T2_T3_T4_T6_
   No data to be dumped. 


.nv.info
	<0x1>
	Attribute:	EIATTR_REGCOUNT
	Format:	EIFMT_SVAL
	Value:	function: _Z13write_indicesIlEvPl10TensorDimsIT_EiS2_(0x72)	register count: 24
	<0x2>
	Attribute:	EIATTR_MIN_STACK_SIZE
	Format:	EIFMT_SVAL
	Value:	function: $__internal_21_$__cuda_sm20_rem_s64(0x5b)	min stack size: 0x0
	<0x3>
	Attribute:	EIATTR_FRAME_SIZE
	Format:	EIFMT_SVAL
	Value:	function: $__internal_21_$__cuda_sm20_rem_s64(0x5b)	frame size: 0x0
	<0x4>
	Attribute:	EIATTR_MIN_STACK_SIZE
	Format:	EIFMT_SVAL
	Value:	function: $__internal_20_$__cuda_sm20_div_s64(0x5a)	min stack size: 0x0
	<0x5>
	Attribute:	EIATTR_FRAME_SIZE
	Format:	EIFMT_SVAL
	Value:	function: $__internal_20_$__cuda_sm20_div_s64(0x5a)	frame size: 0x0
	<0x6>
	Attribute:	EIATTR_MIN_STACK_SIZE
	Format:	EIFMT_SVAL
	Value:	function: _Z13write_indicesIlEvPl10TensorDimsIT_EiS2_(0x72)	min stack size: 0x0
	<0x7>
	Attribute:	EIATTR_FRAME_SIZE
	Format:	EIFMT_SVAL
	Value:	function: _Z13write_indicesIlEvPl10TensorDimsIT_EiS2_(0x72)	frame size: 0x0
	<0x8>
	Attribute:	EIATTR_REGCOUNT
	Format:	EIFMT_SVAL
	Value:	function: _ZN3cub17CUB_200400_750_NS11EmptyKernelIvEEvv(0x71)	register count: 4
	<0x9>
	Attribute:	EIATTR_MIN_STACK_SIZE
	Format:	EIFMT_SVAL
	Value:	function: _ZN3cub17CUB_200400_750_NS11EmptyKernelIvEEvv(0x71)	min stack size: 0x0
	<0x10>
	Attribute:	EIATTR_FRAME_SIZE
	Format:	EIFMT_SVAL
	Value:	function: _ZN3cub17CUB_200400_750_NS11EmptyKernelIvEEvv(0x71)	frame size: 0x0
	<0x11>
	Attribute:	EIATTR_REGCOUNT
	Format:	EIFMT_SVAL
	Value:	function: _ZN3cub17CUB_200400_750_NS28DeviceReduceSingleTileKernelINS0_18DeviceReducePolicyIlyN4cuda3std3__44plusIvEEE9Policy600ENS0_22TransformInputIteratorIb7NonZeroIaEPalEEPlyS7_llNS5_10__identityEEEvT0_T1_T2_T3_T4_T6_(0x70)	register count: 27
	<0x12>
	Attribute:	EIATTR_MIN_STACK_SIZE
	Format:	EIFMT_SVAL
	Value:	function: _ZN3cub17CUB_200400_750_NS28DeviceReduceSingleTileKernelINS0_18DeviceReducePolicyIlyN4cuda3std3__44plusIvEEE9Policy600ENS0_22TransformInputIteratorIb7NonZeroIaEPalEEPlyS7_llNS5_10__identityEEEvT0_T1_T2_T3_T4_T6_(0x70)	min stack size: 0x0
	<0x13>
	Attribute:	EIATTR_FRAME_SIZE
	Format:	EIFMT_SVAL
	Value:	function: _ZN3cub17CUB_200400_750_NS28DeviceReduceSingleTileKernelINS0_18DeviceReducePolicyIlyN4cuda3std3__44plusIvEEE9Policy600ENS0_22TransformInputIteratorIb7NonZeroIaEPalEEPlyS7_llNS5_10__identityEEEvT0_T1_T2_T3_T4_T6_(0x70)	frame size: 0x0
	<0x14>
	Attribute:	EIATTR_REGCOUNT
	Format:	EIFMT_SVAL
	Value:	function: _ZN3cub17CUB_200400_750_NS18DeviceReduceKernelINS0_18DeviceReducePolicyIlyN4cuda3std3__44plusIvEEE9Policy600ENS0_22TransformInputIteratorIb7NonZeroIaEPalEEyS7_lNS5_10__identityEEEvT0_PT3_T1_NS0_13GridEvenShareISJ_EET2_T4_(0x6f)	register count: 33
	<0x15>
	Attribute:	EIATTR_MIN_STACK_SIZE
	Format:	EIFMT_SVAL
	Value:	function: _ZN3cub17CUB_200400_750_NS18DeviceReduceKernelINS0_18DeviceReducePolicyIlyN4cuda3std3__44plusIvEEE9Policy600ENS0_22TransformInputIteratorIb7NonZeroIaEPalEEyS7_lNS5_10__identityEEEvT0_PT3_T1_NS0_13GridEvenShareISJ_EET2_T4_(0x6f)	min stack size: 0x0
	<0x16>
	Attribute:	EIATTR_FRAME_SIZE
	Format:	EIFMT_SVAL
	Value:	function: _ZN3cub17CUB_200400_750_NS18DeviceReduceKernelINS0_18DeviceReducePolicyIlyN4cuda3std3__44plusIvEEE9Policy600ENS0_22TransformInputIteratorIb7NonZeroIaEPalEEyS7_lNS5_10__identityEEEvT0_PT3_T1_NS0_13GridEvenShareISJ_EET2_T4_(0x6f)	frame size: 0x0
	<0x17>
	Attribute:	EIATTR_REGCOUNT
	Format:	EIFMT_SVAL
	Value:	function: _ZN3cub17CUB_200400_750_NS28DeviceReduceSingleTileKernelINS0_18DeviceReducePolicyIlyN4cuda3std3__44plusIvEEE9Policy600EPlSA_iS7_llNS5_10__identityEEEvT0_T1_T2_T3_T4_T6_(0x6e)	register count: 52
	<0x18>
	Attribute:	EIATTR_MIN_STACK_SIZE
	Format:	EIFMT_SVAL
	Value:	function: _ZN3cub17CUB_200400_750_NS28DeviceReduceSingleTileKernelINS0_18DeviceReducePolicyIlyN4cuda3std3__44plusIvEEE9Policy600EPlSA_iS7_llNS5_10__identityEEEvT0_T1_T2_T3_T4_T6_(0x6e)	min stack size: 0x0
	<0x19>
	Attribute:	EIATTR_FRAME_SIZE
	Format:	EIFMT_SVAL
	Value:	function: _ZN3cub17CUB_200400_750_NS28DeviceReduceSingleTileKernelINS0_18DeviceReducePolicyIlyN4cuda3std3__44plusIvEEE9Policy600EPlSA_iS7_llNS5_10__identityEEEvT0_T1_T2_T3_T4_T6_(0x6e)	frame size: 0x0
	<0x20>
	Attribute:	EIATTR_REGCOUNT
	Format:	EIFMT_SVAL
	Value:	function: _ZN3cub17CUB_200400_750_NS23DeviceCompactInitKernelINS0_13ScanTileStateIiLb1EEEPlEEvT_iT0_(0x6d)	register count: 12
	<0x21>
	Attribute:	EIATTR_MIN_STACK_SIZE
	Format:	EIFMT_SVAL
	Value:	function: _ZN3cub17CUB_200400_750_NS23DeviceCompactInitKernelINS0_13ScanTileStateIiLb1EEEPlEEvT_iT0_(0x6d)	min stack size: 0x0
	<0x22>
	Attribute:	EIATTR_FRAME_SIZE
	Format:	EIFMT_SVAL
	Value:	function: _ZN3cub17CUB_200400_750_NS23DeviceCompactInitKernelINS0_13ScanTileStateIiLb1EEEPlEEvT_iT0_(0x6d)	frame size: 0x0
	<0x23>
	Attribute:	EIATTR_REGCOUNT
	Format:	EIFMT_SVAL
	Value:	function: _ZN3cub17CUB_200400_750_NS23DeviceSelectSweepKernelINS0_6detail24device_select_policy_hubIlbiLb0ELb0EE9Policy900ENS0_21CountingInputIteratorIllEENS0_22TransformInputIteratorIb7NonZeroIaEPalEEPlSD_NS0_13ScanTileStateIiLb1EEENS0_8NullTypeESG_iLb0EEEvT0_T1_T2_T3_T4_T5_T6_T7_iNS2_7vsmem_tE(0x6c)	register count: 44
	<0x24>
	Attribute:	EIATTR_MIN_STACK_SIZE
	Format:	EIFMT_SVAL
	Value:	function: $__internal_19_$__cuda_sm70_votesync_ballot(0x4a)	min stack size: 0x0
	<0x25>
	Attribute:	EIATTR_FRAME_SIZE
	Format:	EIFMT_SVAL
	Value:	function: $__internal_19_$__cuda_sm70_votesync_ballot(0x4a)	frame size: 0x0
	<0x26>
	Attribute:	EIATTR_MIN_STACK_SIZE
	Format:	EIFMT_SVAL
	Value:	function: $__internal_18_$__cuda_sm70_votesync_any(0x49)	min stack size: 0x0
	<0x27>
	Attribute:	EIATTR_FRAME_SIZE
	Format:	EIFMT_SVAL
	Value:	function: $__internal_18_$__cuda_sm70_votesync_any(0x49)	frame size: 0x0
	<0x28>
	Attribute:	EIATTR_MIN_STACK_SIZE
	Format:	EIFMT_SVAL
	Value:	function: $__internal_17_$__cuda_sm70_votesync_all(0x48)	min stack size: 0x0
	<0x29>
	Attribute:	EIATTR_FRAME_SIZE
	Format:	EIFMT_SVAL
	Value:	function: $__internal_17_$__cuda_sm70_votesync_all(0x48)	frame size: 0x0
	<0x30>
	Attribute:	EIATTR_MIN_STACK_SIZE
	Format:	EIFMT_SVAL
	Value:	function: $__internal_16_$__cuda_sm70_shflsync_down(0x47)	min stack size: 0x0
	<0x31>
	Attribute:	EIATTR_FRAME_SIZE
	Format:	EIFMT_SVAL
	Value:	function: $__internal_16_$__cuda_sm70_shflsync_down(0x47)	frame size: 0x0
	<0x32>
	Attribute:	EIATTR_MIN_STACK_SIZE
	Format:	EIFMT_SVAL
	Value:	function: _ZN3cub17CUB_200400_750_NS23DeviceSelectSweepKernelINS0_6detail24device_select_policy_hubIlbiLb0ELb0EE9Policy900ENS0_21CountingInputIteratorIllEENS0_22TransformInputIteratorIb7NonZeroIaEPalEEPlSD_NS0_13ScanTileStateIiLb1EEENS0_8NullTypeESG_iLb0EEEvT0_T1_T2_T3_T4_T5_T6_T7_iNS2_7vsmem_tE(0x6c)	min stack size: 0x0
	<0x33>
	Attribute:	EIATTR_FRAME_SIZE
	Format:	EIFMT_SVAL
	Value:	function: _ZN3cub17CUB_200400_750_NS23DeviceSelectSweepKernelINS0_6detail24device_select_policy_hubIlbiLb0ELb0EE9Policy900ENS0_21CountingInputIteratorIllEENS0_22TransformInputIteratorIb7NonZeroIaEPalEEPlSD_NS0_13ScanTileStateIiLb1EEENS0_8NullTypeESG_iLb0EEEvT0_T1_T2_T3_T4_T5_T6_T7_iNS2_7vsmem_tE(0x6c)	frame size: 0x0
	<0x34>
	Attribute:	EIATTR_REGCOUNT
	Format:	EIFMT_SVAL
	Value:	function: _ZN3cub17CUB_200400_750_NS28DeviceReduceSingleTileKernelINS0_18DeviceReducePolicyIlyN4cuda3std3__44plusIvEEE9Policy600ENS0_22TransformInputIteratorIb7NonZeroIsEPslEEPlyS7_llNS5_10__identityEEEvT0_T1_T2_T3_T4_T6_(0x6b)	register count: 27
	<0x35>
	Attribute:	EIATTR_MIN_STACK_SIZE
	Format:	EIFMT_SVAL
	Value:	function: _ZN3cub17CUB_200400_750_NS28DeviceReduceSingleTileKernelINS0_18DeviceReducePolicyIlyN4cuda3std3__44plusIvEEE9Policy600ENS0_22TransformInputIteratorIb7NonZeroIsEPslEEPlyS7_llNS5_10__identityEEEvT0_T1_T2_T3_T4_T6_(0x6b)	min stack size: 0x0
	<0x36>
	Attribute:	EIATTR_FRAME_SIZE
	Format:	EIFMT_SVAL
	Value:	function: _ZN3cub17CUB_200400_750_NS28DeviceReduceSingleTileKernelINS0_18DeviceReducePolicyIlyN4cuda3std3__44plusIvEEE9Policy600ENS0_22TransformInputIteratorIb7NonZeroIsEPslEEPlyS7_llNS5_10__identityEEEvT0_T1_T2_T3_T4_T6_(0x6b)	frame size: 0x0
	<0x37>
	Attribute:	EIATTR_REGCOUNT
	Format:	EIFMT_SVAL
	Value:	function: _ZN3cub17CUB_200400_750_NS18DeviceReduceKernelINS0_18DeviceReducePolicyIlyN4cuda3std3__44plusIvEEE9Policy600ENS0_22TransformInputIteratorIb7NonZeroIsEPslEEyS7_lNS5_10__identityEEEvT0_PT3_T1_NS0_13GridEvenShareISJ_EET2_T4_(0x6a)	register count: 29
	<0x38>
	Attribute:	EIATTR_MIN_STACK_SIZE
	Format:	EIFMT_SVAL
	Value:	function: _ZN3cub17CUB_200400_750_NS18DeviceReduceKernelINS0_18DeviceReducePolicyIlyN4cuda3std3__44plusIvEEE9Policy600ENS0_22TransformInputIteratorIb7NonZeroIsEPslEEyS7_lNS5_10__identityEEEvT0_PT3_T1_NS0_13GridEvenShareISJ_EET2_T4_(0x6a)	min stack size: 0x0
	<0x39>
	Attribute:	EIATTR_FRAME_SIZE
	Format:	EIFMT_SVAL
	Value:	function: _ZN3cub17CUB_200400_750_NS18DeviceReduceKernelINS0_18DeviceReducePolicyIlyN4cuda3std3__44plusIvEEE9Policy600ENS0_22TransformInputIteratorIb7NonZeroIsEPslEEyS7_lNS5_10__identityEEEvT0_PT3_T1_NS0_13GridEvenShareISJ_EET2_T4_(0x6a)	frame size: 0x0
	<0x40>
	Attribute:	EIATTR_REGCOUNT
	Format:	EIFMT_SVAL
	Value:	function: _ZN3cub17CUB_200400_750_NS23DeviceSelectSweepKernelINS0_6detail24device_select_policy_hubIlbiLb0ELb0EE9Policy900ENS0_21CountingInputIteratorIllEENS0_22TransformInputIteratorIb7NonZeroIsEPslEEPlSD_NS0_13ScanTileStateIiLb1EEENS0_8NullTypeESG_iLb0EEEvT0_T1_T2_T3_T4_T5_T6_T7_iNS2_7vsmem_tE(0x69)	register count: 44
	<0x41>
	Attribute:	EIATTR_MIN_STACK_SIZE
	Format:	EIFMT_SVAL
	Value:	function: $__internal_15_$__cuda_sm70_votesync_ballot(0x3d)	min stack size: 0x0
	<0x42>
	Attribute:	EIATTR_FRAME_SIZE
	Format:	EIFMT_SVAL
	Value:	function: $__internal_15_$__cuda_sm70_votesync_ballot(0x3d)	frame size: 0x0
	<0x43>
	Attribute:	EIATTR_MIN_STACK_SIZE
	Format:	EIFMT_SVAL
	Value:	function: $__internal_14_$__cuda_sm70_votesync_any(0x3c)	min stack size: 0x0
	<0x44>
	Attribute:	EIATTR_FRAME_SIZE
	Format:	EIFMT_SVAL
	Value:	function: $__internal_14_$__cuda_sm70_votesync_any(0x3c)	frame size: 0x0
	<0x45>
	Attribute:	EIATTR_MIN_STACK_SIZE
	Format:	EIFMT_SVAL
	Value:	function: $__internal_13_$__cuda_sm70_votesync_all(0x3b)	min stack size: 0x0
	<0x46>
	Attribute:	EIATTR_FRAME_SIZE
	Format:	EIFMT_SVAL
	Value:	function: $__internal_13_$__cuda_sm70_votesync_all(0x3b)	frame size: 0x0
	<0x47>
	Attribute:	EIATTR_MIN_STACK_SIZE
	Format:	EIFMT_SVAL
	Value:	function: $__internal_12_$__cuda_sm70_shflsync_down(0x3a)	min stack size: 0x0
	<0x48>
	Attribute:	EIATTR_FRAME_SIZE
	Format:	EIFMT_SVAL
	Value:	function: $__internal_12_$__cuda_sm70_shflsync_down(0x3a)	frame size: 0x0
	<0x49>
	Attribute:	EIATTR_MIN_STACK_SIZE
	Format:	EIFMT_SVAL
	Value:	function: _ZN3cub17CUB_200400_750_NS23DeviceSelectSweepKernelINS0_6detail24device_select_policy_hubIlbiLb0ELb0EE9Policy900ENS0_21CountingInputIteratorIllEENS0_22TransformInputIteratorIb7NonZeroIsEPslEEPlSD_NS0_13ScanTileStateIiLb1EEENS0_8NullTypeESG_iLb0EEEvT0_T1_T2_T3_T4_T5_T6_T7_iNS2_7vsmem_tE(0x69)	min stack size: 0x0
	<0x50>
	Attribute:	EIATTR_FRAME_SIZE
	Format:	EIFMT_SVAL
	Value:	function: _ZN3cub17CUB_200400_750_NS23DeviceSelectSweepKernelINS0_6detail24device_select_policy_hubIlbiLb0ELb0EE9Policy900ENS0_21CountingInputIteratorIllEENS0_22TransformInputIteratorIb7NonZeroIsEPslEEPlSD_NS0_13ScanTileStateIiLb1EEENS0_8NullTypeESG_iLb0EEEvT0_T1_T2_T3_T4_T5_T6_T7_iNS2_7vsmem_tE(0x69)	frame size: 0x0
	<0x51>
	Attribute:	EIATTR_REGCOUNT
	Format:	EIFMT_SVAL
	Value:	function: _ZN3cub17CUB_200400_750_NS28DeviceReduceSingleTileKernelINS0_18DeviceReducePolicyIlyN4cuda3std3__44plusIvEEE9Policy600ENS0_22TransformInputIteratorIb7NonZeroIiEPilEEPlyS7_llNS5_10__identityEEEvT0_T1_T2_T3_T4_T6_(0x68)	register count: 27
	<0x52>
	Attribute:	EIATTR_MIN_STACK_SIZE
	Format:	EIFMT_SVAL
	Value:	function: _ZN3cub17CUB_200400_750_NS28DeviceReduceSingleTileKernelINS0_18DeviceReducePolicyIlyN4cuda3std3__44plusIvEEE9Policy600ENS0_22TransformInputIteratorIb7NonZeroIiEPilEEPlyS7_llNS5_10__identityEEEvT0_T1_T2_T3_T4_T6_(0x68)	min stack size: 0x0
	<0x53>
	Attribute:	EIATTR_FRAME_SIZE
	Format:	EIFMT_SVAL
	Value:	function: _ZN3cub17CUB_200400_750_NS28DeviceReduceSingleTileKernelINS0_18DeviceReducePolicyIlyN4cuda3std3__44plusIvEEE9Policy600ENS0_22TransformInputIteratorIb7NonZeroIiEPilEEPlyS7_llNS5_10__identityEEEvT0_T1_T2_T3_T4_T6_(0x68)	frame size: 0x0
	<0x54>
	Attribute:	EIATTR_REGCOUNT
	Format:	EIFMT_SVAL
	Value:	function: _ZN3cub17CUB_200400_750_NS18DeviceReduceKernelINS0_18DeviceReducePolicyIlyN4cuda3std3__44plusIvEEE9Policy600ENS0_22TransformInputIteratorIb7NonZeroIiEPilEEyS7_lNS5_10__identityEEEvT0_PT3_T1_NS0_13GridEvenShareISJ_EET2_T4_(0x67)	register count: 29
	<0x55>
	Attribute:	EIATTR_MIN_STACK_SIZE
	Format:	EIFMT_SVAL
	Value:	function: _ZN3cub17CUB_200400_750_NS18DeviceReduceKernelINS0_18DeviceReducePolicyIlyN4cuda3std3__44plusIvEEE9Policy600ENS0_22TransformInputIteratorIb7NonZeroIiEPilEEyS7_lNS5_10__identityEEEvT0_PT3_T1_NS0_13GridEvenShareISJ_EET2_T4_(0x67)	min stack size: 0x0
	<0x56>
	Attribute:	EIATTR_FRAME_SIZE
	Format:	EIFMT_SVAL
	Value:	function: _ZN3cub17CUB_200400_750_NS18DeviceReduceKernelINS0_18DeviceReducePolicyIlyN4cuda3std3__44plusIvEEE9Policy600ENS0_22TransformInputIteratorIb7NonZeroIiEPilEEyS7_lNS5_10__identityEEEvT0_PT3_T1_NS0_13GridEvenShareISJ_EET2_T4_(0x67)	frame size: 0x0
	<0x57>
	Attribute:	EIATTR_REGCOUNT
	Format:	EIFMT_SVAL
	Value:	function: _ZN3cub17CUB_200400_750_NS23DeviceSelectSweepKernelINS0_6detail24device_select_policy_hubIlbiLb0ELb0EE9Policy900ENS0_21CountingInputIteratorIllEENS0_22TransformInputIteratorIb7NonZeroIiEPilEEPlSD_NS0_13ScanTileStateIiLb1EEENS0_8NullTypeESG_iLb0EEEvT0_T1_T2_T3_T4_T5_T6_T7_iNS2_7vsmem_tE(0x66)	register count: 44
	<0x58>
	Attribute:	EIATTR_MIN_STACK_SIZE
	Format:	EIFMT_SVAL
	Value:	function: $__internal_11_$__cuda_sm70_votesync_ballot(0x30)	min stack size: 0x0
	<0x59>
	Attribute:	EIATTR_FRAME_SIZE
	Format:	EIFMT_SVAL
	Value:	function: $__internal_11_$__cuda_sm70_votesync_ballot(0x30)	frame size: 0x0
	<0x60>
	Attribute:	EIATTR_MIN_STACK_SIZE
	Format:	EIFMT_SVAL
	Value:	function: $__internal_10_$__cuda_sm70_votesync_any(0x2f)	min stack size: 0x0
	<0x61>
	Attribute:	EIATTR_FRAME_SIZE
	Format:	EIFMT_SVAL
	Value:	function: $__internal_10_$__cuda_sm70_votesync_any(0x2f)	frame size: 0x0
	<0x62>
	Attribute:	EIATTR_MIN_STACK_SIZE
	Format:	EIFMT_SVAL
	Value:	function: $__internal_9_$__cuda_sm70_votesync_all(0x2e)	min stack size: 0x0
	<0x63>
	Attribute:	EIATTR_FRAME_SIZE
	Format:	EIFMT_SVAL
	Value:	function: $__internal_9_$__cuda_sm70_votesync_all(0x2e)	frame size: 0x0
	<0x64>
	Attribute:	EIATTR_MIN_STACK_SIZE
	Format:	EIFMT_SVAL
	Value:	function: $__internal_8_$__cuda_sm70_shflsync_down(0x2d)	min stack size: 0x0
	<0x65>
	Attribute:	EIATTR_FRAME_SIZE
	Format:	EIFMT_SVAL
	Value:	function: $__internal_8_$__cuda_sm70_shflsync_down(0x2d)	frame size: 0x0
	<0x66>
	Attribute:	EIATTR_MIN_STACK_SIZE
	Format:	EIFMT_SVAL
	Value:	function: _ZN3cub17CUB_200400_750_NS23DeviceSelectSweepKernelINS0_6detail24device_select_policy_hubIlbiLb0ELb0EE9Policy900ENS0_21CountingInputIteratorIllEENS0_22TransformInputIteratorIb7NonZeroIiEPilEEPlSD_NS0_13ScanTileStateIiLb1EEENS0_8NullTypeESG_iLb0EEEvT0_T1_T2_T3_T4_T5_T6_T7_iNS2_7vsmem_tE(0x66)	min stack size: 0x0
	<0x67>
	Attribute:	EIATTR_FRAME_SIZE
	Format:	EIFMT_SVAL
	Value:	function: _ZN3cub17CUB_200400_750_NS23DeviceSelectSweepKernelINS0_6detail24device_select_policy_hubIlbiLb0ELb0EE9Policy900ENS0_21CountingInputIteratorIllEENS0_22TransformInputIteratorIb7NonZeroIiEPilEEPlSD_NS0_13ScanTileStateIiLb1EEENS0_8NullTypeESG_iLb0EEEvT0_T1_T2_T3_T4_T5_T6_T7_iNS2_7vsmem_tE(0x66)	frame size: 0x0
	<0x68>
	Attribute:	EIATTR_REGCOUNT
	Format:	EIFMT_SVAL
	Value:	function: _ZN3cub17CUB_200400_750_NS28DeviceReduceSingleTileKernelINS0_18DeviceReducePolicyIlyN4cuda3std3__44plusIvEEE9Policy600ENS0_22TransformInputIteratorIb7NonZeroIfEPflEEPlyS7_llNS5_10__identityEEEvT0_T1_T2_T3_T4_T6_(0x65)	register count: 27
	<0x69>
	Attribute:	EIATTR_MIN_STACK_SIZE
	Format:	EIFMT_SVAL
	Value:	function: _ZN3cub17CUB_200400_750_NS28DeviceReduceSingleTileKernelINS0_18DeviceReducePolicyIlyN4cuda3std3__44plusIvEEE9Policy600ENS0_22TransformInputIteratorIb7NonZeroIfEPflEEPlyS7_llNS5_10__identityEEEvT0_T1_T2_T3_T4_T6_(0x65)	min stack size: 0x0
	<0x70>
	Attribute:	EIATTR_FRAME_SIZE
	Format:	EIFMT_SVAL
	Value:	function: _ZN3cub17CUB_200400_750_NS28DeviceReduceSingleTileKernelINS0_18DeviceReducePolicyIlyN4cuda3std3__44plusIvEEE9Policy600ENS0_22TransformInputIteratorIb7NonZeroIfEPflEEPlyS7_llNS5_10__identityEEEvT0_T1_T2_T3_T4_T6_(0x65)	frame size: 0x0
	<0x71>
	Attribute:	EIATTR_REGCOUNT
	Format:	EIFMT_SVAL
	Value:	function: _ZN3cub17CUB_200400_750_NS18DeviceReduceKernelINS0_18DeviceReducePolicyIlyN4cuda3std3__44plusIvEEE9Policy600ENS0_22TransformInputIteratorIb7NonZeroIfEPflEEyS7_lNS5_10__identityEEEvT0_PT3_T1_NS0_13GridEvenShareISJ_EET2_T4_(0x64)	register count: 29
	<0x72>
	Attribute:	EIATTR_MIN_STACK_SIZE
	Format:	EIFMT_SVAL
	Value:	function: _ZN3cub17CUB_200400_750_NS18DeviceReduceKernelINS0_18DeviceReducePolicyIlyN4cuda3std3__44plusIvEEE9Policy600ENS0_22TransformInputIteratorIb7NonZeroIfEPflEEyS7_lNS5_10__identityEEEvT0_PT3_T1_NS0_13GridEvenShareISJ_EET2_T4_(0x64)	min stack size: 0x0
	<0x73>
	Attribute:	EIATTR_FRAME_SIZE
	Format:	EIFMT_SVAL
	Value:	function: _ZN3cub17CUB_200400_750_NS18DeviceReduceKernelINS0_18DeviceReducePolicyIlyN4cuda3std3__44plusIvEEE9Policy600ENS0_22TransformInputIteratorIb7NonZeroIfEPflEEyS7_lNS5_10__identityEEEvT0_PT3_T1_NS0_13GridEvenShareISJ_EET2_T4_(0x64)	frame size: 0x0
	<0x74>
	Attribute:	EIATTR_REGCOUNT
	Format:	EIFMT_SVAL
	Value:	function: _ZN3cub17CUB_200400_750_NS23DeviceSelectSweepKernelINS0_6detail24device_select_policy_hubIlbiLb0ELb0EE9Policy900ENS0_21CountingInputIteratorIllEENS0_22TransformInputIteratorIb7NonZeroIfEPflEEPlSD_NS0_13ScanTileStateIiLb1EEENS0_8NullTypeESG_iLb0EEEvT0_T1_T2_T3_T4_T5_T6_T7_iNS2_7vsmem_tE(0x63)	register count: 44
	<0x75>
	Attribute:	EIATTR_MIN_STACK_SIZE
	Format:	EIFMT_SVAL
	Value:	function: $__internal_7_$__cuda_sm70_votesync_ballot(0x23)	min stack size: 0x0
	<0x76>
	Attribute:	EIATTR_FRAME_SIZE
	Format:	EIFMT_SVAL
	Value:	function: $__internal_7_$__cuda_sm70_votesync_ballot(0x23)	frame size: 0x0
	<0x77>
	Attribute:	EIATTR_MIN_STACK_SIZE
	Format:	EIFMT_SVAL
	Value:	function: $__internal_6_$__cuda_sm70_votesync_any(0x22)	min stack size: 0x0
	<0x78>
	Attribute:	EIATTR_FRAME_SIZE
	Format:	EIFMT_SVAL
	Value:	function: $__internal_6_$__cuda_sm70_votesync_any(0x22)	frame size: 0x0
	<0x79>
	Attribute:	EIATTR_MIN_STACK_SIZE
	Format:	EIFMT_SVAL
	Value:	function: $__internal_5_$__cuda_sm70_votesync_all(0x21)	min stack size: 0x0
	<0x80>
	Attribute:	EIATTR_FRAME_SIZE
	Format:	EIFMT_SVAL
	Value:	function: $__internal_5_$__cuda_sm70_votesync_all(0x21)	frame size: 0x0
	<0x81>
	Attribute:	EIATTR_MIN_STACK_SIZE
	Format:	EIFMT_SVAL
	Value:	function: $__internal_4_$__cuda_sm70_shflsync_down(0x20)	min stack size: 0x0
	<0x82>
	Attribute:	EIATTR_FRAME_SIZE
	Format:	EIFMT_SVAL
	Value:	function: $__internal_4_$__cuda_sm70_shflsync_down(0x20)	frame size: 0x0
	<0x83>
	Attribute:	EIATTR_MIN_STACK_SIZE
	Format:	EIFMT_SVAL
	Value:	function: _ZN3cub17CUB_200400_750_NS23DeviceSelectSweepKernelINS0_6detail24device_select_policy_hubIlbiLb0ELb0EE9Policy900ENS0_21CountingInputIteratorIllEENS0_22TransformInputIteratorIb7NonZeroIfEPflEEPlSD_NS0_13ScanTileStateIiLb1EEENS0_8NullTypeESG_iLb0EEEvT0_T1_T2_T3_T4_T5_T6_T7_iNS2_7vsmem_tE(0x63)	min stack size: 0x0
	<0x84>
	Attribute:	EIATTR_FRAME_SIZE
	Format:	EIFMT_SVAL
	Value:	function: _ZN3cub17CUB_200400_750_NS23DeviceSelectSweepKernelINS0_6detail24device_select_policy_hubIlbiLb0ELb0EE9Policy900ENS0_21CountingInputIteratorIllEENS0_22TransformInputIteratorIb7NonZeroIfEPflEEPlSD_NS0_13ScanTileStateIiLb1EEENS0_8NullTypeESG_iLb0EEEvT0_T1_T2_T3_T4_T5_T6_T7_iNS2_7vsmem_tE(0x63)	frame size: 0x0
	<0x85>
	Attribute:	EIATTR_REGCOUNT
	Format:	EIFMT_SVAL
	Value:	function: _ZN3cub17CUB_200400_750_NS28DeviceReduceSingleTileKernelINS0_18DeviceReducePolicyIlyN4cuda3std3__44plusIvEEE9Policy600ENS0_22TransformInputIteratorIb7NonZeroIdEPdlEEPlyS7_llNS5_10__identityEEEvT0_T1_T2_T3_T4_T6_(0x62)	register count: 44
	<0x86>
	Attribute:	EIATTR_MIN_STACK_SIZE
	Format:	EIFMT_SVAL
	Value:	function: _ZN3cub17CUB_200400_750_NS28DeviceReduceSingleTileKernelINS0_18DeviceReducePolicyIlyN4cuda3std3__44plusIvEEE9Policy600ENS0_22TransformInputIteratorIb7NonZeroIdEPdlEEPlyS7_llNS5_10__identityEEEvT0_T1_T2_T3_T4_T6_(0x62)	min stack size: 0x0
	<0x87>
	Attribute:	EIATTR_FRAME_SIZE
	Format:	EIFMT_SVAL
	Value:	function: _ZN3cub17CUB_200400_750_NS28DeviceReduceSingleTileKernelINS0_18DeviceReducePolicyIlyN4cuda3std3__44plusIvEEE9Policy600ENS0_22TransformInputIteratorIb7NonZeroIdEPdlEEPlyS7_llNS5_10__identityEEEvT0_T1_T2_T3_T4_T6_(0x62)	frame size: 0x0
	<0x88>
	Attribute:	EIATTR_REGCOUNT
	Format:	EIFMT_SVAL
	Value:	function: _ZN3cub17CUB_200400_750_NS18DeviceReduceKernelINS0_18DeviceReducePolicyIlyN4cuda3std3__44plusIvEEE9Policy600ENS0_22TransformInputIteratorIb7NonZeroIdEPdlEEyS7_lNS5_10__identityEEEvT0_PT3_T1_NS0_13GridEvenShareISJ_EET2_T4_(0x61)	register count: 46
	<0x89>
	Attribute:	EIATTR_MIN_STACK_SIZE
	Format:	EIFMT_SVAL
	Value:	function: _ZN3cub17CUB_200400_750_NS18DeviceReduceKernelINS0_18DeviceReducePolicyIlyN4cuda3std3__44plusIvEEE9Policy600ENS0_22TransformInputIteratorIb7NonZeroIdEPdlEEyS7_lNS5_10__identityEEEvT0_PT3_T1_NS0_13GridEvenShareISJ_EET2_T4_(0x61)	min stack size: 0x0
	<0x90>
	Attribute:	EIATTR_FRAME_SIZE
	Format:	EIFMT_SVAL
	Value:	function: _ZN3cub17CUB_200400_750_NS18DeviceReduceKernelINS0_18DeviceReducePolicyIlyN4cuda3std3__44plusIvEEE9Policy600ENS0_22TransformInputIteratorIb7NonZeroIdEPdlEEyS7_lNS5_10__identityEEEvT0_PT3_T1_NS0_13GridEvenShareISJ_EET2_T4_(0x61)	frame size: 0x0
	<0x91>
	Attribute:	EIATTR_REGCOUNT
	Format:	EIFMT_SVAL
	Value:	function: _ZN3cub17CUB_200400_750_NS23DeviceSelectSweepKernelINS0_6detail24device_select_policy_hubIlbiLb0ELb0EE9Policy900ENS0_21CountingInputIteratorIllEENS0_22TransformInputIteratorIb7NonZeroIdEPdlEEPlSD_NS0_13ScanTileStateIiLb1EEENS0_8NullTypeESG_iLb0EEEvT0_T1_T2_T3_T4_T5_T6_T7_iNS2_7vsmem_tE(0x60)	register count: 49
	<0x92>
	Attribute:	EIATTR_MIN_STACK_SIZE
	Format:	EIFMT_SVAL
	Value:	function: $__internal_3_$__cuda_sm70_votesync_ballot(0x16)	min stack size: 0x0
	<0x93>
	Attribute:	EIATTR_FRAME_SIZE
	Format:	EIFMT_SVAL
	Value:	function: $__internal_3_$__cuda_sm70_votesync_ballot(0x16)	frame size: 0x0
	<0x94>
	Attribute:	EIATTR_MIN_STACK_SIZE
	Format:	EIFMT_SVAL
	Value:	function: $__internal_2_$__cuda_sm70_votesync_any(0x15)	min stack size: 0x0
	<0x95>
	Attribute:	EIATTR_FRAME_SIZE
	Format:	EIFMT_SVAL
	Value:	function: $__internal_2_$__cuda_sm70_votesync_any(0x15)	frame size: 0x0
	<0x96>
	Attribute:	EIATTR_MIN_STACK_SIZE
	Format:	EIFMT_SVAL
	Value:	function: $__internal_1_$__cuda_sm70_votesync_all(0x14)	min stack size: 0x0
	<0x97>
	Attribute:	EIATTR_FRAME_SIZE
	Format:	EIFMT_SVAL
	Value:	function: $__internal_1_$__cuda_sm70_votesync_all(0x14)	frame size: 0x0
	<0x98>
	Attribute:	EIATTR_MIN_STACK_SIZE
	Format:	EIFMT_SVAL
	Value:	function: $__internal_0_$__cuda_sm70_shflsync_down(0x13)	min stack size: 0x0
	<0x99>
	Attribute:	EIATTR_FRAME_SIZE
	Format:	EIFMT_SVAL
	Value:	function: $__internal_0_$__cuda_sm70_shflsync_down(0x13)	frame size: 0x0
	<0x100>
	Attribute:	EIATTR_MIN_STACK_SIZE
	Format:	EIFMT_SVAL
	Value:	function: _ZN3cub17CUB_200400_750_NS23DeviceSelectSweepKernelINS0_6detail24device_select_policy_hubIlbiLb0ELb0EE9Policy900ENS0_21CountingInputIteratorIllEENS0_22TransformInputIteratorIb7NonZeroIdEPdlEEPlSD_NS0_13ScanTileStateIiLb1EEENS0_8NullTypeESG_iLb0EEEvT0_T1_T2_T3_T4_T5_T6_T7_iNS2_7vsmem_tE(0x60)	min stack size: 0x0
	<0x101>
	Attribute:	EIATTR_FRAME_SIZE
	Format:	EIFMT_SVAL
	Value:	function: _ZN3cub17CUB_200400_750_NS23DeviceSelectSweepKernelINS0_6detail24device_select_policy_hubIlbiLb0ELb0EE9Policy900ENS0_21CountingInputIteratorIllEENS0_22TransformInputIteratorIb7NonZeroIdEPdlEEPlSD_NS0_13ScanTileStateIiLb1EEENS0_8NullTypeESG_iLb0EEEvT0_T1_T2_T3_T4_T5_T6_T7_iNS2_7vsmem_tE(0x60)	frame size: 0x0
	<0x102>
	Attribute:	EIATTR_MIN_STACK_SIZE
	Format:	EIFMT_SVAL
	Value:	function: _ZN3cub17CUB_200400_750_NS23DeviceSelectSweepKernelINS0_6detail24device_select_policy_hubIlbiLb0ELb0EE9Policy900ENS0_21CountingInputIteratorIllEENS0_22TransformInputIteratorIb7NonZeroIdEPdlEEPlSD_NS0_13ScanTileStateIiLb1EEENS0_8NullTypeESG_iLb0EEEvT0_T1_T2_T3_T4_T5_T6_T7_iNS2_7vsmem_tE(0x60)	min stack size: 0x0
	<0x103>
	Attribute:	EIATTR_MIN_STACK_SIZE
	Format:	EIFMT_SVAL
	Value:	function: _ZN3cub17CUB_200400_750_NS18DeviceReduceKernelINS0_18DeviceReducePolicyIlyN4cuda3std3__44plusIvEEE9Policy600ENS0_22TransformInputIteratorIb7NonZeroIdEPdlEEyS7_lNS5_10__identityEEEvT0_PT3_T1_NS0_13GridEvenShareISJ_EET2_T4_(0x61)	min stack size: 0x0
	<0x104>
	Attribute:	EIATTR_MIN_STACK_SIZE
	Format:	EIFMT_SVAL
	Value:	function: _ZN3cub17CUB_200400_750_NS28DeviceReduceSingleTileKernelINS0_18DeviceReducePolicyIlyN4cuda3std3__44plusIvEEE9Policy600ENS0_22TransformInputIteratorIb7NonZeroIdEPdlEEPlyS7_llNS5_10__identityEEEvT0_T1_T2_T3_T4_T6_(0x62)	min stack size: 0x0
	<0x105>
	Attribute:	EIATTR_MIN_STACK_SIZE
	Format:	EIFMT_SVAL
	Value:	function: _ZN3cub17CUB_200400_750_NS23DeviceSelectSweepKernelINS0_6detail24device_select_policy_hubIlbiLb0ELb0EE9Policy900ENS0_21CountingInputIteratorIllEENS0_22TransformInputIteratorIb7NonZeroIfEPflEEPlSD_NS0_13ScanTileStateIiLb1EEENS0_8NullTypeESG_iLb0EEEvT0_T1_T2_T3_T4_T5_T6_T7_iNS2_7vsmem_tE(0x63)	min stack size: 0x0
	<0x106>
	Attribute:	EIATTR_MIN_STACK_SIZE
	Format:	EIFMT_SVAL
	Value:	function: _ZN3cub17CUB_200400_750_NS18DeviceReduceKernelINS0_18DeviceReducePolicyIlyN4cuda3std3__44plusIvEEE9Policy600ENS0_22TransformInputIteratorIb7NonZeroIfEPflEEyS7_lNS5_10__identityEEEvT0_PT3_T1_NS0_13GridEvenShareISJ_EET2_T4_(0x64)	min stack size: 0x0
	<0x107>
	Attribute:	EIATTR_MIN_STACK_SIZE
	Format:	EIFMT_SVAL
	Value:	function: _ZN3cub17CUB_200400_750_NS28DeviceReduceSingleTileKernelINS0_18DeviceReducePolicyIlyN4cuda3std3__44plusIvEEE9Policy600ENS0_22TransformInputIteratorIb7NonZeroIfEPflEEPlyS7_llNS5_10__identityEEEvT0_T1_T2_T3_T4_T6_(0x65)	min stack size: 0x0
	<0x108>
	Attribute:	EIATTR_MIN_STACK_SIZE
	Format:	EIFMT_SVAL
	Value:	function: _ZN3cub17CUB_200400_750_NS23DeviceSelectSweepKernelINS0_6detail24device_select_policy_hubIlbiLb0ELb0EE9Policy900ENS0_21CountingInputIteratorIllEENS0_22TransformInputIteratorIb7NonZeroIiEPilEEPlSD_NS0_13ScanTileStateIiLb1EEENS0_8NullTypeESG_iLb0EEEvT0_T1_T2_T3_T4_T5_T6_T7_iNS2_7vsmem_tE(0x66)	min stack size: 0x0
	<0x109>
	Attribute:	EIATTR_MIN_STACK_SIZE
	Format:	EIFMT_SVAL
	Value:	function: _ZN3cub17CUB_200400_750_NS18DeviceReduceKernelINS0_18DeviceReducePolicyIlyN4cuda3std3__44plusIvEEE9Policy600ENS0_22TransformInputIteratorIb7NonZeroIiEPilEEyS7_lNS5_10__identityEEEvT0_PT3_T1_NS0_13GridEvenShareISJ_EET2_T4_(0x67)	min stack size: 0x0
	<0x110>
	Attribute:	EIATTR_MIN_STACK_SIZE
	Format:	EIFMT_SVAL
	Value:	function: _ZN3cub17CUB_200400_750_NS28DeviceReduceSingleTileKernelINS0_18DeviceReducePolicyIlyN4cuda3std3__44plusIvEEE9Policy600ENS0_22TransformInputIteratorIb7NonZeroIiEPilEEPlyS7_llNS5_10__identityEEEvT0_T1_T2_T3_T4_T6_(0x68)	min stack size: 0x0
	<0x111>
	Attribute:	EIATTR_MIN_STACK_SIZE
	Format:	EIFMT_SVAL
	Value:	function: _ZN3cub17CUB_200400_750_NS23DeviceSelectSweepKernelINS0_6detail24device_select_policy_hubIlbiLb0ELb0EE9Policy900ENS0_21CountingInputIteratorIllEENS0_22TransformInputIteratorIb7NonZeroIsEPslEEPlSD_NS0_13ScanTileStateIiLb1EEENS0_8NullTypeESG_iLb0EEEvT0_T1_T2_T3_T4_T5_T6_T7_iNS2_7vsmem_tE(0x69)	min stack size: 0x0
	<0x112>
	Attribute:	EIATTR_MIN_STACK_SIZE
	Format:	EIFMT_SVAL
	Value:	function: _ZN3cub17CUB_200400_750_NS18DeviceReduceKernelINS0_18DeviceReducePolicyIlyN4cuda3std3__44plusIvEEE9Policy600ENS0_22TransformInputIteratorIb7NonZeroIsEPslEEyS7_lNS5_10__identityEEEvT0_PT3_T1_NS0_13GridEvenShareISJ_EET2_T4_(0x6a)	min stack size: 0x0
	<0x113>
	Attribute:	EIATTR_MIN_STACK_SIZE
	Format:	EIFMT_SVAL
	Value:	function: _ZN3cub17CUB_200400_750_NS28DeviceReduceSingleTileKernelINS0_18DeviceReducePolicyIlyN4cuda3std3__44plusIvEEE9Policy600ENS0_22TransformInputIteratorIb7NonZeroIsEPslEEPlyS7_llNS5_10__identityEEEvT0_T1_T2_T3_T4_T6_(0x6b)	min stack size: 0x0
	<0x114>
	Attribute:	EIATTR_MIN_STACK_SIZE
	Format:	EIFMT_SVAL
	Value:	function: _ZN3cub17CUB_200400_750_NS23DeviceSelectSweepKernelINS0_6detail24device_select_policy_hubIlbiLb0ELb0EE9Policy900ENS0_21CountingInputIteratorIllEENS0_22TransformInputIteratorIb7NonZeroIaEPalEEPlSD_NS0_13ScanTileStateIiLb1EEENS0_8NullTypeESG_iLb0EEEvT0_T1_T2_T3_T4_T5_T6_T7_iNS2_7vsmem_tE(0x6c)	min stack size: 0x0
	<0x115>
	Attribute:	EIATTR_MIN_STACK_SIZE
	Format:	EIFMT_SVAL
	Value:	function: _ZN3cub17CUB_200400_750_NS23DeviceCompactInitKernelINS0_13ScanTileStateIiLb1EEEPlEEvT_iT0_(0x6d)	min stack size: 0x0
	<0x116>
	Attribute:	EIATTR_MIN_STACK_SIZE
	Format:	EIFMT_SVAL
	Value:	function: _ZN3cub17CUB_200400_750_NS28DeviceReduceSingleTileKernelINS0_18DeviceReducePolicyIlyN4cuda3std3__44plusIvEEE9Policy600EPlSA_iS7_llNS5_10__identityEEEvT0_T1_T2_T3_T4_T6_(0x6e)	min stack size: 0x0
	<0x117>
	Attribute:	EIATTR_MIN_STACK_SIZE
	Format:	EIFMT_SVAL
	Value:	function: _ZN3cub17CUB_200400_750_NS18DeviceReduceKernelINS0_18DeviceReducePolicyIlyN4cuda3std3__44plusIvEEE9Policy600ENS0_22TransformInputIteratorIb7NonZeroIaEPalEEyS7_lNS5_10__identityEEEvT0_PT3_T1_NS0_13GridEvenShareISJ_EET2_T4_(0x6f)	min stack size: 0x0
	<0x118>
	Attribute:	EIATTR_MIN_STACK_SIZE
	Format:	EIFMT_SVAL
	Value:	function: _ZN3cub17CUB_200400_750_NS28DeviceReduceSingleTileKernelINS0_18DeviceReducePolicyIlyN4cuda3std3__44plusIvEEE9Policy600ENS0_22TransformInputIteratorIb7NonZeroIaEPalEEPlyS7_llNS5_10__identityEEEvT0_T1_T2_T3_T4_T6_(0x70)	min stack size: 0x0
	<0x119>
	Attribute:	EIATTR_MIN_STACK_SIZE
	Format:	EIFMT_SVAL
	Value:	function: _ZN3cub17CUB_200400_750_NS11EmptyKernelIvEEvv(0x71)	min stack size: 0x0
	<0x120>
	Attribute:	EIATTR_MIN_STACK_SIZE
	Format:	EIFMT_SVAL
	Value:	function: _Z13write_indicesIlEvPl10TensorDimsIT_EiS2_(0x72)	min stack size: 0x0


.nv.info._ZN3cub17CUB_200400_750_NS23DeviceSelectSweepKernelINS0_6detail24device_select_policy_hubIlbiLb0ELb0EE9Policy900ENS0_21CountingInputIteratorIllEENS0_22TransformInputIteratorIb7NonZeroIdEPdlEEPlSD_NS0_13ScanTileStateIiLb1EEENS0_8NullTypeESG_iLb0EEEvT0_T1_T2_T3_T4_T5_T6_T7_iNS2_7vsmem_tE
	<0x1>
	Attribute:	EIATTR_SW_WAR
	Format:	EIFMT_SVAL
	Value:	0x1 
	<0x2>
	Attribute:	EIATTR_CUDA_API_VERSION
	Format:	EIFMT_SVAL
	Value:	0x7d 
	<0x3>
	Attribute:	EIATTR_PARAM_CBANK
	Format:	EIFMT_SVAL
	Value:	0x17 0x480160 
	<0x4>
	Attribute:	EIATTR_CBANK_PARAM_SIZE
	Format:	EIFMT_HVAL
	Value:	0x48
	<0x5>
	Attribute:	EIATTR_KPARAM_INFO
	Format:	EIFMT_SVAL
	Value:	Index : 0x0	Ordinal : 0x9	Offset  : 0x40	Size    : 0x8
		Pointee's logAlignment : 0x0	Space : 0x0	cbank : 0x1f	Parameter Space : CBANK	
	<0x6>
	Attribute:	EIATTR_KPARAM_INFO
	Format:	EIFMT_SVAL
	Value:	Index : 0x0	Ordinal : 0x8	Offset  : 0x38	Size    : 0x4
		Pointee's logAlignment : 0x0	Space : 0x0	cbank : 0x1f	Parameter Space : CBANK	
	<0x7>
	Attribute:	EIATTR_KPARAM_INFO
	Format:	EIFMT_SVAL
	Value:	Index : 0x0	Ordinal : 0x7	Offset  : 0x34	Size    : 0x4
		Pointee's logAlignment : 0x0	Space : 0x0	cbank : 0x1f	Parameter Space : CBANK	
	<0x8>
	Attribute:	EIATTR_KPARAM_INFO
	Format:	EIFMT_SVAL
	Value:	Index : 0x0	Ordinal : 0x6	Offset  : 0x31	Size    : 0x1
		Pointee's logAlignment : 0x0	Space : 0x0	cbank : 0x1f	Parameter Space : CBANK	
	<0x9>
	Attribute:	EIATTR_KPARAM_INFO
	Format:	EIFMT_SVAL
	Value:	Index : 0x0	Ordinal : 0x5	Offset  : 0x30	Size    : 0x1
		Pointee's logAlignment : 0x0	Space : 0x0	cbank : 0x1f	Parameter Space : CBANK	
	<0x10>
	Attribute:	EIATTR_KPARAM_INFO
	Format:	EIFMT_SVAL
	Value:	Index : 0x0	Ordinal : 0x4	Offset  : 0x28	Size    : 0x8
		Pointee's logAlignment : 0x0	Space : 0x0	cbank : 0x1f	Parameter Space : CBANK	
	<0x11>
	Attribute:	EIATTR_KPARAM_INFO
	Format:	EIFMT_SVAL
	Value:	Index : 0x0	Ordinal : 0x3	Offset  : 0x20	Size    : 0x8
		Pointee's logAlignment : 0x0	Space : 0x0	cbank : 0x1f	Parameter Space : CBANK	
	<0x12>
	Attribute:	EIATTR_KPARAM_INFO
	Format:	EIFMT_SVAL
	Value:	Index : 0x0	Ordinal : 0x2	Offset  : 0x18	Size    : 0x8
		Pointee's logAlignment : 0x0	Space : 0x0	cbank : 0x1f	Parameter Space : CBANK	
	<0x13>
	Attribute:	EIATTR_KPARAM_INFO
	Format:	EIFMT_SVAL
	Value:	Index : 0x0	Ordinal : 0x1	Offset  : 0x8	Size    : 0x10
		Pointee's logAlignment : 0x0	Space : 0x0	cbank : 0x1f	Parameter Space : CBANK	
	<0x14>
	Attribute:	EIATTR_KPARAM_INFO
	Format:	EIFMT_SVAL
	Value:	Index : 0x0	Ordinal : 0x0	Offset  : 0x0	Size    : 0x8
		Pointee's logAlignment : 0x0	Space : 0x0	cbank : 0x1f	Parameter Space : CBANK	
	<0x15>
	Attribute:	EIATTR_MAXREG_COUNT
	Format:	EIFMT_HVAL
	Value:	0xff
	<0x16>
	Attribute:	EIATTR_UNUSED_LOAD_BYTE_OFFSET
	Format:	EIFMT_SVAL
	Value:	0xfc0 0xfff0 
	<0x17>
	Attribute:	EIATTR_INT_WARP_WIDE_INSTR_OFFSETS
	Format:	EIFMT_SVAL
	Value:	0x810 0x830 0xc30 0xc50 0xe50 0xe70 0x34e0 0x3500 0x3900 0x3920 0x3b20 0x3b40 
	<0x18>
	Attribute:	EIATTR_COOP_GROUP_MASK_REGIDS
	Format:	EIFMT_SVAL
	Value:	0xffffffff 0xffffffff 0xffffffff 0xffffffff 0xffffffff 0xffffffff 0xffffffff 0xffffffff 0xffffffff 0xffffffff 0xffffffff 0xffffffff 0xffffffff 0xffffffff 0xffffffff 0xffffffff 0xffffffff 0xffffffff 0xffffffff 0xffffffff 0xffffffff 0xffffffff 0xffffffff 0xffffffff 0xffffffff 0xffffffff 0xffffffff 0xffffffff 0xffffffff 0xffffffff 0xffffffff 0xffffffff 0xffffffff 0xffffffff 0xffffffff 0xffffffff 0xffffffff 0xffffffff 0xffffffff 0xffffffff 0xffffffff 0xffffffff 0xffffffff 0xffffffff 0xffffffff 0xffffffff 0xffffffff 0xffffffff 0xffffffff 0xffffffff 0xffffffff 0xffffffff 0xffffffff 0xffffffff 0xffffffff 0xffffffff 0xffffffff 0xffffffff 0xffffffff 0xffffffff 0xffffffff 0xffffffff 0xffffffff 0xffffffff 0xffffffff 0xffffffff 0xffffffff 0xffffffff 0xffffffff 0xffffffff 0xffffffff 0xffffffff 0xffffffff 0xffffffff 0xffffffff 0xffffffff 0xffffffff 0xffffffff 0xffffffff 0xffffffff 
	<0x19>
	Attribute:	EIATTR_COOP_GROUP_INSTR_OFFSETS
	Format:	EIFMT_SVAL
	Value:	0x450 0x470 0x490 0x4b0 0x4e0 0x780 0x8c0 0x930 0x970 0x9d0 0xa10 0xa40 0xad0 0xba0 0xcc0 0xd20 0xd60 0xda0 0xde0 0xe10 0x1fd0 0x1ff0 0x2010 0x2030 0x2050 0x3130 0x3150 0x3170 0x3190 0x31b0 0x3450 0x3590 0x3600 0x3650 0x36a0 0x36e0 0x3710 0x37a0 0x3870 0x3990 0x39f0 0x3a30 0x3a70 0x3ab0 0x3ae0 0x48d0 0x48f0 0x4910 0x4930 0x4950 0x5470 0x54d0 0x5570 0x55e0 0x5660 0x56e0 0x5760 0x57b0 0x5810 0x5870 0x5900 0x5970 0x59e0 0x5a50 0x5ac0 0x5b10 0x5b70 0x5c10 0x5c80 0x5d00 0x5d80 0x5e00 0x5e60 0x5ec0 0x5f20 0x5fb0 0x6020 0x6090 0x6100 0x6180 
	<0x20>
	Attribute:	EIATTR_EXIT_INSTR_OFFSETS
	Format:	EIFMT_SVAL
	Value:	0x2dd0 0x2e10 0x3e30 0x3e70 0x3fa0 0x4150 0x4690 0x4720 0x4be0 0x4c20 0x4cb0 0x4e50 0x53a0 0x5430 
	<0x21>
	Attribute:	EIATTR_MAX_THREADS
	Format:	EIFMT_SVAL
	Value:	0x80 0x1 0x1 
	<0x22>
	Attribute:	EIATTR_CRS_STACK_SIZE
	Format:	EIFMT_SVAL
	Value:	0x0 


.nv.info._ZN3cub17CUB_200400_750_NS18DeviceReduceKernelINS0_18DeviceReducePolicyIlyN4cuda3std3__44plusIvEEE9Policy600ENS0_22TransformInputIteratorIb7NonZeroIdEPdlEEyS7_lNS5_10__identityEEEvT0_PT3_T1_NS0_13GridEvenShareISJ_EET2_T4_
	<0x1>
	Attribute:	EIATTR_SW_WAR
	Format:	EIFMT_SVAL
	Value:	0x1 
	<0x2>
	Attribute:	EIATTR_CUDA_API_VERSION
	Format:	EIFMT_SVAL
	Value:	0x7d 
	<0x3>
	Attribute:	EIATTR_PARAM_CBANK
	Format:	EIFMT_SVAL
	Value:	0x1a 0x6a0160 
	<0x4>
	Attribute:	EIATTR_CBANK_PARAM_SIZE
	Format:	EIFMT_HVAL
	Value:	0x6a
	<0x5>
	Attribute:	EIATTR_KPARAM_INFO
	Format:	EIFMT_SVAL
	Value:	Index : 0x0	Ordinal : 0x5	Offset  : 0x69	Size    : 0x1
		Pointee's logAlignment : 0x0	Space : 0x0	cbank : 0x1f	Parameter Space : CBANK	
	<0x6>
	Attribute:	EIATTR_KPARAM_INFO
	Format:	EIFMT_SVAL
	Value:	Index : 0x0	Ordinal : 0x4	Offset  : 0x68	Size    : 0x1
		Pointee's logAlignment : 0x0	Space : 0x0	cbank : 0x1f	Parameter Space : CBANK	
	<0x7>
	Attribute:	EIATTR_KPARAM_INFO
	Format:	EIFMT_SVAL
	Value:	Index : 0x0	Ordinal : 0x3	Offset  : 0x20	Size    : 0x48
		Pointee's logAlignment : 0x0	Space : 0x0	cbank : 0x1f	Parameter Space : CBANK	
	<0x8>
	Attribute:	EIATTR_KPARAM_INFO
	Format:	EIFMT_SVAL
	Value:	Index : 0x0	Ordinal : 0x2	Offset  : 0x18	Size    : 0x8
		Pointee's logAlignment : 0x0	Space : 0x0	cbank : 0x1f	Parameter Space : CBANK	
	<0x9>
	Attribute:	EIATTR_KPARAM_INFO
	Format:	EIFMT_SVAL
	Value:	Index : 0x0	Ordinal : 0x1	Offset  : 0x10	Size    : 0x8
		Pointee's logAlignment : 0x0	Space : 0x0	cbank : 0x1f	Parameter Space : CBANK	
	<0x10>
	Attribute:	EIATTR_KPARAM_INFO
	Format:	EIFMT_SVAL
	Value:	Index : 0x0	Ordinal : 0x0	Offset  : 0x0	Size    : 0x10
		Pointee's logAlignment : 0x0	Space : 0x0	cbank : 0x1f	Parameter Space : CBANK	
	<0x11>
	Attribute:	EIATTR_MAXREG_COUNT
	Format:	EIFMT_HVAL
	Value:	0xff
	<0x12>
	Attribute:	EIATTR_COOP_GROUP_MASK_REGIDS
	Format:	EIFMT_SVAL
	Value:	0xffffffff 0xffffffff 0xffffffff 0xffffffff 0xffffffff 0xffffffff 0xffffffff 0xffffffff 0xffffffff 0xffffffff 0xffffffff 0xffffffff 0xffffffff 0xffffffff 0xffffffff 0xffffffff 0xffffffff 0xffffffff 0xffffffff 0xffffffff 0xffffffff 0xffffffff 0xffffffff 0xffffffff 0xffffffff 0xffffffff 0xffffffff 0xffffffff 0xffffffff 0xffffffff 
	<0x13>
	Attribute:	EIATTR_COOP_GROUP_INSTR_OFFSETS
	Format:	EIFMT_SVAL
	Value:	0x1270 0x1280 0x12f0 0x1300 0x1360 0x1370 0x13d0 0x13f0 0x1460 0x1490 0x2320 0x2330 0x2390 0x23a0 0x2400 0x2430 0x24a0 0x24b0 0x2510 0x2520 0x27d0 0x2800 0x2860 0x2870 0x28d0 0x28e0 0x2940 0x2950 0x29b0 0x29c0 
	<0x14>
	Attribute:	EIATTR_EXIT_INSTR_OFFSETS
	Format:	EIFMT_SVAL
	Value:	0x2b40 0x2b80 
	<0x15>
	Attribute:	EIATTR_MAX_THREADS
	Format:	EIFMT_SVAL
	Value:	0x100 0x1 0x1 
	<0x16>
	Attribute:	EIATTR_CRS_STACK_SIZE
	Format:	EIFMT_SVAL
	Value:	0x0 


.nv.info._ZN3cub17CUB_200400_750_NS28DeviceReduceSingleTileKernelINS0_18DeviceReducePolicyIlyN4cuda3std3__44plusIvEEE9Policy600ENS0_22TransformInputIteratorIb7NonZeroIdEPdlEEPlyS7_llNS5_10__identityEEEvT0_T1_T2_T3_T4_T6_
	<0x1>
	Attribute:	EIATTR_SW_WAR
	Format:	EIFMT_SVAL
	Value:	0x1 
	<0x2>
	Attribute:	EIATTR_CUDA_API_VERSION
	Format:	EIFMT_SVAL
	Value:	0x7d 
	<0x3>
	Attribute:	EIATTR_PARAM_CBANK
	Format:	EIFMT_SVAL
	Value:	0x1d 0x310160 
	<0x4>
	Attribute:	EIATTR_CBANK_PARAM_SIZE
	Format:	EIFMT_HVAL
	Value:	0x31
	<0x5>
	Attribute:	EIATTR_KPARAM_INFO
	Format:	EIFMT_SVAL
	Value:	Index : 0x0	Ordinal : 0x5	Offset  : 0x30	Size    : 0x1
		Pointee's logAlignment : 0x0	Space : 0x0	cbank : 0x1f	Parameter Space : CBANK	
	<0x6>
	Attribute:	EIATTR_KPARAM_INFO
	Format:	EIFMT_SVAL
	Value:	Index : 0x0	Ordinal : 0x4	Offset  : 0x28	Size    : 0x8
		Pointee's logAlignment : 0x0	Space : 0x0	cbank : 0x1f	Parameter Space : CBANK	
	<0x7>
	Attribute:	EIATTR_KPARAM_INFO
	Format:	EIFMT_SVAL
	Value:	Index : 0x0	Ordinal : 0x3	Offset  : 0x20	Size    : 0x1
		Pointee's logAlignment : 0x0	Space : 0x0	cbank : 0x1f	Parameter Space : CBANK	
	<0x8>
	Attribute:	EIATTR_KPARAM_INFO
	Format:	EIFMT_SVAL
	Value:	Index : 0x0	Ordinal : 0x2	Offset  : 0x18	Size    : 0x8
		Pointee's logAlignment : 0x0	Space : 0x0	cbank : 0x1f	Parameter Space : CBANK	
	<0x9>
	Attribute:	EIATTR_KPARAM_INFO
	Format:	EIFMT_SVAL
	Value:	Index : 0x0	Ordinal : 0x1	Offset  : 0x10	Size    : 0x8
		Pointee's logAlignment : 0x0	Space : 0x0	cbank : 0x1f	Parameter Space : CBANK	
	<0x10>
	Attribute:	EIATTR_KPARAM_INFO
	Format:	EIFMT_SVAL
	Value:	Index : 0x0	Ordinal : 0x0	Offset  : 0x0	Size    : 0x10
		Pointee's logAlignment : 0x0	Space : 0x0	cbank : 0x1f	Parameter Space : CBANK	
	<0x11>
	Attribute:	EIATTR_MAXREG_COUNT
	Format:	EIFMT_HVAL
	Value:	0xff
	<0x12>
	Attribute:	EIATTR_COOP_GROUP_MASK_REGIDS
	Format:	EIFMT_SVAL
	Value:	0xffffffff 0xffffffff 0xffffffff 0xffffffff 0xffffffff 0xffffffff 0xffffffff 0xffffffff 0xffffffff 0xffffffff 0xffffffff 0xffffffff 0xffffffff 0xffffffff 0xffffffff 0xffffffff 0xffffffff 0xffffffff 0xffffffff 0xffffffff 0xffffffff 0xffffffff 0xffffffff 0xffffffff 0xffffffff 0xffffffff 0xffffffff 0xffffffff 0xffffffff 0xffffffff 
	<0x13>
	Attribute:	EIATTR_COOP_GROUP_INSTR_OFFSETS
	Format:	EIFMT_SVAL
	Value:	0x1170 0x1180 0x11f0 0x1200 0x1260 0x1270 0x12d0 0x12f0 0x1360 0x1390 0x21b0 0x21c0 0x2230 0x2240 0x22b0 0x22c0 0x2330 0x2340 0x23a0 0x23b0 0x2660 0x2690 0x26f0 0x2700 0x2760 0x2770 0x27d0 0x27e0 0x2840 0x2850 
	<0x14>
	Attribute:	EIATTR_EXIT_INSTR_OFFSETS
	Format:	EIFMT_SVAL
	Value:	0x29d0 0x2a20 0x2a50 0x2aa0 
	<0x15>
	Attribute:	EIATTR_MAX_THREADS
	Format:	EIFMT_SVAL
	Value:	0x100 0x1 0x1 
	<0x16>
	Attribute:	EIATTR_CRS_STACK_SIZE
	Format:	EIFMT_SVAL
	Value:	0x0 


.nv.info._ZN3cub17CUB_200400_750_NS23DeviceSelectSweepKernelINS0_6detail24device_select_policy_hubIlbiLb0ELb0EE9Policy900ENS0_21CountingInputIteratorIllEENS0_22TransformInputIteratorIb7NonZeroIfEPflEEPlSD_NS0_13ScanTileStateIiLb1EEENS0_8NullTypeESG_iLb0EEEvT0_T1_T2_T3_T4_T5_T6_T7_iNS2_7vsmem_tE
	<0x1>
	Attribute:	EIATTR_SW_WAR
	Format:	EIFMT_SVAL
	Value:	0x1 
	<0x2>
	Attribute:	EIATTR_CUDA_API_VERSION
	Format:	EIFMT_SVAL
	Value:	0x7d 
	<0x3>
	Attribute:	EIATTR_PARAM_CBANK
	Format:	EIFMT_SVAL
	Value:	0x24 0x480160 
	<0x4>
	Attribute:	EIATTR_CBANK_PARAM_SIZE
	Format:	EIFMT_HVAL
	Value:	0x48
	<0x5>
	Attribute:	EIATTR_KPARAM_INFO
	Format:	EIFMT_SVAL
	Value:	Index : 0x0	Ordinal : 0x9	Offset  : 0x40	Size    : 0x8
		Pointee's logAlignment : 0x0	Space : 0x0	cbank : 0x1f	Parameter Space : CBANK	
	<0x6>
	Attribute:	EIATTR_KPARAM_INFO
	Format:	EIFMT_SVAL
	Value:	Index : 0x0	Ordinal : 0x8	Offset  : 0x38	Size    : 0x4
		Pointee's logAlignment : 0x0	Space : 0x0	cbank : 0x1f	Parameter Space : CBANK	
	<0x7>
	Attribute:	EIATTR_KPARAM_INFO
	Format:	EIFMT_SVAL
	Value:	Index : 0x0	Ordinal : 0x7	Offset  : 0x34	Size    : 0x4
		Pointee's logAlignment : 0x0	Space : 0x0	cbank : 0x1f	Parameter Space : CBANK	
	<0x8>
	Attribute:	EIATTR_KPARAM_INFO
	Format:	EIFMT_SVAL
	Value:	Index : 0x0	Ordinal : 0x6	Offset  : 0x31	Size    : 0x1
		Pointee's logAlignment : 0x0	Space : 0x0	cbank : 0x1f	Parameter Space : CBANK	
	<0x9>
	Attribute:	EIATTR_KPARAM_INFO
	Format:	EIFMT_SVAL
	Value:	Index : 0x0	Ordinal : 0x5	Offset  : 0x30	Size    : 0x1
		Pointee's logAlignment : 0x0	Space : 0x0	cbank : 0x1f	Parameter Space : CBANK	
	<0x10>
	Attribute:	EIATTR_KPARAM_INFO
	Format:	EIFMT_SVAL
	Value:	Index : 0x0	Ordinal : 0x4	Offset  : 0x28	Size    : 0x8
		Pointee's logAlignment : 0x0	Space : 0x0	cbank : 0x1f	Parameter Space : CBANK	
	<0x11>
	Attribute:	EIATTR_KPARAM_INFO
	Format:	EIFMT_SVAL
	Value:	Index : 0x0	Ordinal : 0x3	Offset  : 0x20	Size    : 0x8
		Pointee's logAlignment : 0x0	Space : 0x0	cbank : 0x1f	Parameter Space : CBANK	
	<0x12>
	Attribute:	EIATTR_KPARAM_INFO
	Format:	EIFMT_SVAL
	Value:	Index : 0x0	Ordinal : 0x2	Offset  : 0x18	Size    : 0x8
		Pointee's logAlignment : 0x0	Space : 0x0	cbank : 0x1f	Parameter Space : CBANK	
	<0x13>
	Attribute:	EIATTR_KPARAM_INFO
	Format:	EIFMT_SVAL
	Value:	Index : 0x0	Ordinal : 0x1	Offset  : 0x8	Size    : 0x10
		Pointee's logAlignment : 0x0	Space : 0x0	cbank : 0x1f	Parameter Space : CBANK	
	<0x14>
	Attribute:	EIATTR_KPARAM_INFO
	Format:	EIFMT_SVAL
	Value:	Index : 0x0	Ordinal : 0x0	Offset  : 0x0	Size    : 0x8
		Pointee's logAlignment : 0x0	Space : 0x0	cbank : 0x1f	Parameter Space : CBANK	
	<0x15>
	Attribute:	EIATTR_MAXREG_COUNT
	Format:	EIFMT_HVAL
	Value:	0xff
	<0x16>
	Attribute:	EIATTR_UNUSED_LOAD_BYTE_OFFSET
	Format:	EIFMT_SVAL
	Value:	0xfc0 0xfff0 
	<0x17>
	Attribute:	EIATTR_INT_WARP_WIDE_INSTR_OFFSETS
	Format:	EIFMT_SVAL
	Value:	0x810 0x830 0xc30 0xc50 0xe50 0xe70 0x3430 0x3450 0x3850 0x3870 0x3a70 0x3a90 
	<0x18>
	Attribute:	EIATTR_COOP_GROUP_MASK_REGIDS
	Format:	EIFMT_SVAL
	Value:	0xffffffff 0xffffffff 0xffffffff 0xffffffff 0xffffffff 0xffffffff 0xffffffff 0xffffffff 0xffffffff 0xffffffff 0xffffffff 0xffffffff 0xffffffff 0xffffffff 0xffffffff 0xffffffff 0xffffffff 0xffffffff 0xffffffff 0xffffffff 0xffffffff 0xffffffff 0xffffffff 0xffffffff 0xffffffff 0xffffffff 0xffffffff 0xffffffff 0xffffffff 0xffffffff 0xffffffff 0xffffffff 0xffffffff 0xffffffff 0xffffffff 0xffffffff 0xffffffff 0xffffffff 0xffffffff 0xffffffff 0xffffffff 0xffffffff 0xffffffff 0xffffffff 0xffffffff 0xffffffff 0xffffffff 0xffffffff 0xffffffff 0xffffffff 0xffffffff 0xffffffff 0xffffffff 0xffffffff 0xffffffff 0xffffffff 0xffffffff 0xffffffff 0xffffffff 0xffffffff 0xffffffff 0xffffffff 0xffffffff 0xffffffff 0xffffffff 0xffffffff 0xffffffff 0xffffffff 0xffffffff 0xffffffff 0xffffffff 0xffffffff 0xffffffff 0xffffffff 0xffffffff 0xffffffff 0xffffffff 0xffffffff 0xffffffff 0xffffffff 
	<0x19>
	Attribute:	EIATTR_COOP_GROUP_INSTR_OFFSETS
	Format:	EIFMT_SVAL
	Value:	0x450 0x470 0x490 0x4b0 0x4d0 0x780 0x8c0 0x950 0x990 0x9d0 0xa10 0xa40 0xad0 0xba0 0xcc0 0xd20 0xd60 0xda0 0xde0 0xe10 0x1f80 0x1fa0 0x1fc0 0x1fe0 0x2000 0x3080 0x30a0 0x30c0 0x30e0 0x3100 0x33a0 0x34e0 0x3570 0x35b0 0x35f0 0x3630 0x3660 0x36f0 0x37c0 0x38e0 0x3940 0x3980 0x39c0 0x3a00 0x3a30 0x47f0 0x4810 0x4830 0x4850 0x4870 0x5350 0x53b0 0x5460 0x54f0 0x5590 0x5630 0x56d0 0x5720 0x5780 0x57e0 0x5880 0x5910 0x59a0 0x5a30 0x5ac0 0x5b10 0x5b70 0x5c20 0x5cb0 0x5d50 0x5df0 0x5e90 0x5ee0 0x5f40 0x5fa0 0x6040 0x60d0 0x6160 0x61f0 0x6280 
	<0x20>
	Attribute:	EIATTR_EXIT_INSTR_OFFSETS
	Format:	EIFMT_SVAL
	Value:	0x2d20 0x2d60 0x3d80 0x3dc0 0x3ef0 0x4090 0x45b0 0x4640 0x4b00 0x4b40 0x4bd0 0x4d50 0x5280 0x5310 
	<0x21>
	Attribute:	EIATTR_MAX_THREADS
	Format:	EIFMT_SVAL
	Value:	0x80 0x1 0x1 
	<0x22>
	Attribute:	EIATTR_CRS_STACK_SIZE
	Format:	EIFMT_SVAL
	Value:	0x0 


.nv.info._ZN3cub17CUB_200400_750_NS18DeviceReduceKernelINS0_18DeviceReducePolicyIlyN4cuda3std3__44plusIvEEE9Policy600ENS0_22TransformInputIteratorIb7NonZeroIfEPflEEyS7_lNS5_10__identityEEEvT0_PT3_T1_NS0_13GridEvenShareISJ_EET2_T4_
	<0x1>
	Attribute:	EIATTR_SW_WAR
	Format:	EIFMT_SVAL
	Value:	0x1 
	<0x2>
	Attribute:	EIATTR_CUDA_API_VERSION
	Format:	EIFMT_SVAL
	Value:	0x7d 
	<0x3>
	Attribute:	EIATTR_PARAM_CBANK
	Format:	EIFMT_SVAL
	Value:	0x27 0x6a0160 
	<0x4>
	Attribute:	EIATTR_CBANK_PARAM_SIZE
	Format:	EIFMT_HVAL
	Value:	0x6a
	<0x5>
	Attribute:	EIATTR_KPARAM_INFO
	Format:	EIFMT_SVAL
	Value:	Index : 0x0	Ordinal : 0x5	Offset  : 0x69	Size    : 0x1
		Pointee's logAlignment : 0x0	Space : 0x0	cbank : 0x1f	Parameter Space : CBANK	
	<0x6>
	Attribute:	EIATTR_KPARAM_INFO
	Format:	EIFMT_SVAL
	Value:	Index : 0x0	Ordinal : 0x4	Offset  : 0x68	Size    : 0x1
		Pointee's logAlignment : 0x0	Space : 0x0	cbank : 0x1f	Parameter Space : CBANK	
	<0x7>
	Attribute:	EIATTR_KPARAM_INFO
	Format:	EIFMT_SVAL
	Value:	Index : 0x0	Ordinal : 0x3	Offset  : 0x20	Size    : 0x48
		Pointee's logAlignment : 0x0	Space : 0x0	cbank : 0x1f	Parameter Space : CBANK	
	<0x8>
	Attribute:	EIATTR_KPARAM_INFO
	Format:	EIFMT_SVAL
	Value:	Index : 0x0	Ordinal : 0x2	Offset  : 0x18	Size    : 0x8
		Pointee's logAlignment : 0x0	Space : 0x0	cbank : 0x1f	Parameter Space : CBANK	
	<0x9>
	Attribute:	EIATTR_KPARAM_INFO
	Format:	EIFMT_SVAL
	Value:	Index : 0x0	Ordinal : 0x1	Offset  : 0x10	Size    : 0x8
		Pointee's logAlignment : 0x0	Space : 0x0	cbank : 0x1f	Parameter Space : CBANK	
	<0x10>
	Attribute:	EIATTR_KPARAM_INFO
	Format:	EIFMT_SVAL
	Value:	Index : 0x0	Ordinal : 0x0	Offset  : 0x0	Size    : 0x10
		Pointee's logAlignment : 0x0	Space : 0x0	cbank : 0x1f	Parameter Space : CBANK	
	<0x11>
	Attribute:	EIATTR_MAXREG_COUNT
	Format:	EIFMT_HVAL
	Value:	0xff
	<0x12>
	Attribute:	EIATTR_COOP_GROUP_MASK_REGIDS
	Format:	EIFMT_SVAL
	Value:	0xffffffff 0xffffffff 0xffffffff 0xffffffff 0xffffffff 0xffffffff 0xffffffff 0xffffffff 0xffffffff 0xffffffff 0xffffffff 0xffffffff 0xffffffff 0xffffffff 0xffffffff 0xffffffff 0xffffffff 0xffffffff 0xffffffff 0xffffffff 0xffffffff 0xffffffff 0xffffffff 0xffffffff 0xffffffff 0xffffffff 0xffffffff 0xffffffff 0xffffffff 0xffffffff 
	<0x13>
	Attribute:	EIATTR_COOP_GROUP_INSTR_OFFSETS
	Format:	EIFMT_SVAL
	Value:	0x12c0 0x12d0 0x1340 0x1350 0x13b0 0x13c0 0x1420 0x1440 0x14b0 0x14e0 0x2350 0x2360 0x23c0 0x23d0 0x2430 0x2460 0x24d0 0x24e0 0x2540 0x2550 0x2800 0x2830 0x2890 0x28a0 0x2900 0x2910 0x2970 0x2980 0x29e0 0x29f0 
	<0x14>
	Attribute:	EIATTR_EXIT_INSTR_OFFSETS
	Format:	EIFMT_SVAL
	Value:	0x2b70 0x2bb0 
	<0x15>
	Attribute:	EIATTR_MAX_THREADS
	Format:	EIFMT_SVAL
	Value:	0x100 0x1 0x1 
	<0x16>
	Attribute:	EIATTR_CRS_STACK_SIZE
	Format:	EIFMT_SVAL
	Value:	0x0 


.nv.info._ZN3cub17CUB_200400_750_NS28DeviceReduceSingleTileKernelINS0_18DeviceReducePolicyIlyN4cuda3std3__44plusIvEEE9Policy600ENS0_22TransformInputIteratorIb7NonZeroIfEPflEEPlyS7_llNS5_10__identityEEEvT0_T1_T2_T3_T4_T6_
	<0x1>
	Attribute:	EIATTR_SW_WAR
	Format:	EIFMT_SVAL
	Value:	0x1 
	<0x2>
	Attribute:	EIATTR_CUDA_API_VERSION
	Format:	EIFMT_SVAL
	Value:	0x7d 
	<0x3>
	Attribute:	EIATTR_PARAM_CBANK
	Format:	EIFMT_SVAL
	Value:	0x2a 0x310160 
	<0x4>
	Attribute:	EIATTR_CBANK_PARAM_SIZE
	Format:	EIFMT_HVAL
	Value:	0x31
	<0x5>
	Attribute:	EIATTR_KPARAM_INFO
	Format:	EIFMT_SVAL
	Value:	Index : 0x0	Ordinal : 0x5	Offset  : 0x30	Size    : 0x1
		Pointee's logAlignment : 0x0	Space : 0x0	cbank : 0x1f	Parameter Space : CBANK	
	<0x6>
	Attribute:	EIATTR_KPARAM_INFO
	Format:	EIFMT_SVAL
	Value:	Index : 0x0	Ordinal : 0x4	Offset  : 0x28	Size    : 0x8
		Pointee's logAlignment : 0x0	Space : 0x0	cbank : 0x1f	Parameter Space : CBANK	
	<0x7>
	Attribute:	EIATTR_KPARAM_INFO
	Format:	EIFMT_SVAL
	Value:	Index : 0x0	Ordinal : 0x3	Offset  : 0x20	Size    : 0x1
		Pointee's logAlignment : 0x0	Space : 0x0	cbank : 0x1f	Parameter Space : CBANK	
	<0x8>
	Attribute:	EIATTR_KPARAM_INFO
	Format:	EIFMT_SVAL
	Value:	Index : 0x0	Ordinal : 0x2	Offset  : 0x18	Size    : 0x8
		Pointee's logAlignment : 0x0	Space : 0x0	cbank : 0x1f	Parameter Space : CBANK	
	<0x9>
	Attribute:	EIATTR_KPARAM_INFO
	Format:	EIFMT_SVAL
	Value:	Index : 0x0	Ordinal : 0x1	Offset  : 0x10	Size    : 0x8
		Pointee's logAlignment : 0x0	Space : 0x0	cbank : 0x1f	Parameter Space : CBANK	
	<0x10>
	Attribute:	EIATTR_KPARAM_INFO
	Format:	EIFMT_SVAL
	Value:	Index : 0x0	Ordinal : 0x0	Offset  : 0x0	Size    : 0x10
		Pointee's logAlignment : 0x0	Space : 0x0	cbank : 0x1f	Parameter Space : CBANK	
	<0x11>
	Attribute:	EIATTR_MAXREG_COUNT
	Format:	EIFMT_HVAL
	Value:	0xff
	<0x12>
	Attribute:	EIATTR_COOP_GROUP_MASK_REGIDS
	Format:	EIFMT_SVAL
	Value:	0xffffffff 0xffffffff 0xffffffff 0xffffffff 0xffffffff 0xffffffff 0xffffffff 0xffffffff 0xffffffff 0xffffffff 0xffffffff 0xffffffff 0xffffffff 0xffffffff 0xffffffff 0xffffffff 0xffffffff 0xffffffff 0xffffffff 0xffffffff 0xffffffff 0xffffffff 0xffffffff 0xffffffff 0xffffffff 0xffffffff 0xffffffff 0xffffffff 0xffffffff 0xffffffff 
	<0x13>
	Attribute:	EIATTR_COOP_GROUP_INSTR_OFFSETS
	Format:	EIFMT_SVAL
	Value:	0x1180 0x1190 0x1200 0x1210 0x1270 0x1280 0x12e0 0x1300 0x1370 0x13a0 0x21c0 0x21d0 0x2240 0x2250 0x22c0 0x22d0 0x2340 0x2350 0x23b0 0x23c0 0x2670 0x26a0 0x2700 0x2710 0x2770 0x2780 0x27e0 0x27f0 0x2850 0x2860 
	<0x14>
	Attribute:	EIATTR_EXIT_INSTR_OFFSETS
	Format:	EIFMT_SVAL
	Value:	0x29e0 0x2a30 0x2a60 0x2ab0 
	<0x15>
	Attribute:	EIATTR_MAX_THREADS
	Format:	EIFMT_SVAL
	Value:	0x100 0x1 0x1 
	<0x16>
	Attribute:	EIATTR_CRS_STACK_SIZE
	Format:	EIFMT_SVAL
	Value:	0x0 


.nv.info._ZN3cub17CUB_200400_750_NS23DeviceSelectSweepKernelINS0_6detail24device_select_policy_hubIlbiLb0ELb0EE9Policy900ENS0_21CountingInputIteratorIllEENS0_22TransformInputIteratorIb7NonZeroIiEPilEEPlSD_NS0_13ScanTileStateIiLb1EEENS0_8NullTypeESG_iLb0EEEvT0_T1_T2_T3_T4_T5_T6_T7_iNS2_7vsmem_tE
	<0x1>
	Attribute:	EIATTR_SW_WAR
	Format:	EIFMT_SVAL
	Value:	0x1 
	<0x2>
	Attribute:	EIATTR_CUDA_API_VERSION
	Format:	EIFMT_SVAL
	Value:	0x7d 
	<0x3>
	Attribute:	EIATTR_PARAM_CBANK
	Format:	EIFMT_SVAL
	Value:	0x31 0x480160 
	<0x4>
	Attribute:	EIATTR_CBANK_PARAM_SIZE
	Format:	EIFMT_HVAL
	Value:	0x48
	<0x5>
	Attribute:	EIATTR_KPARAM_INFO
	Format:	EIFMT_SVAL
	Value:	Index : 0x0	Ordinal : 0x9	Offset  : 0x40	Size    : 0x8
		Pointee's logAlignment : 0x0	Space : 0x0	cbank : 0x1f	Parameter Space : CBANK	
	<0x6>
	Attribute:	EIATTR_KPARAM_INFO
	Format:	EIFMT_SVAL
	Value:	Index : 0x0	Ordinal : 0x8	Offset  : 0x38	Size    : 0x4
		Pointee's logAlignment : 0x0	Space : 0x0	cbank : 0x1f	Parameter Space : CBANK	
	<0x7>
	Attribute:	EIATTR_KPARAM_INFO
	Format:	EIFMT_SVAL
	Value:	Index : 0x0	Ordinal : 0x7	Offset  : 0x34	Size    : 0x4
		Pointee's logAlignment : 0x0	Space : 0x0	cbank : 0x1f	Parameter Space : CBANK	
	<0x8>
	Attribute:	EIATTR_KPARAM_INFO
	Format:	EIFMT_SVAL
	Value:	Index : 0x0	Ordinal : 0x6	Offset  : 0x31	Size    : 0x1
		Pointee's logAlignment : 0x0	Space : 0x0	cbank : 0x1f	Parameter Space : CBANK	
	<0x9>
	Attribute:	EIATTR_KPARAM_INFO
	Format:	EIFMT_SVAL
	Value:	Index : 0x0	Ordinal : 0x5	Offset  : 0x30	Size    : 0x1
		Pointee's logAlignment : 0x0	Space : 0x0	cbank : 0x1f	Parameter Space : CBANK	
	<0x10>
	Attribute:	EIATTR_KPARAM_INFO
	Format:	EIFMT_SVAL
	Value:	Index : 0x0	Ordinal : 0x4	Offset  : 0x28	Size    : 0x8
		Pointee's logAlignment : 0x0	Space : 0x0	cbank : 0x1f	Parameter Space : CBANK	
	<0x11>
	Attribute:	EIATTR_KPARAM_INFO
	Format:	EIFMT_SVAL
	Value:	Index : 0x0	Ordinal : 0x3	Offset  : 0x20	Size    : 0x8
		Pointee's logAlignment : 0x0	Space : 0x0	cbank : 0x1f	Parameter Space : CBANK	
	<0x12>
	Attribute:	EIATTR_KPARAM_INFO
	Format:	EIFMT_SVAL
	Value:	Index : 0x0	Ordinal : 0x2	Offset  : 0x18	Size    : 0x8
		Pointee's logAlignment : 0x0	Space : 0x0	cbank : 0x1f	Parameter Space : CBANK	
	<0x13>
	Attribute:	EIATTR_KPARAM_INFO
	Format:	EIFMT_SVAL
	Value:	Index : 0x0	Ordinal : 0x1	Offset  : 0x8	Size    : 0x10
		Pointee's logAlignment : 0x0	Space : 0x0	cbank : 0x1f	Parameter Space : CBANK	
	<0x14>
	Attribute:	EIATTR_KPARAM_INFO
	Format:	EIFMT_SVAL
	Value:	Index : 0x0	Ordinal : 0x0	Offset  : 0x0	Size    : 0x8
		Pointee's logAlignment : 0x0	Space : 0x0	cbank : 0x1f	Parameter Space : CBANK	
	<0x15>
	Attribute:	EIATTR_MAXREG_COUNT
	Format:	EIFMT_HVAL
	Value:	0xff
	<0x16>
	Attribute:	EIATTR_UNUSED_LOAD_BYTE_OFFSET
	Format:	EIFMT_SVAL
	Value:	0xfc0 0xfff0 
	<0x17>
	Attribute:	EIATTR_INT_WARP_WIDE_INSTR_OFFSETS
	Format:	EIFMT_SVAL
	Value:	0x810 0x830 0xc30 0xc50 0xe50 0xe70 0x3430 0x3450 0x3850 0x3870 0x3a70 0x3a90 
	<0x18>
	Attribute:	EIATTR_COOP_GROUP_MASK_REGIDS
	Format:	EIFMT_SVAL
	Value:	0xffffffff 0xffffffff 0xffffffff 0xffffffff 0xffffffff 0xffffffff 0xffffffff 0xffffffff 0xffffffff 0xffffffff 0xffffffff 0xffffffff 0xffffffff 0xffffffff 0xffffffff 0xffffffff 0xffffffff 0xffffffff 0xffffffff 0xffffffff 0xffffffff 0xffffffff 0xffffffff 0xffffffff 0xffffffff 0xffffffff 0xffffffff 0xffffffff 0xffffffff 0xffffffff 0xffffffff 0xffffffff 0xffffffff 0xffffffff 0xffffffff 0xffffffff 0xffffffff 0xffffffff 0xffffffff 0xffffffff 0xffffffff 0xffffffff 0xffffffff 0xffffffff 0xffffffff 0xffffffff 0xffffffff 0xffffffff 0xffffffff 0xffffffff 0xffffffff 0xffffffff 0xffffffff 0xffffffff 0xffffffff 0xffffffff 0xffffffff 0xffffffff 0xffffffff 0xffffffff 0xffffffff 0xffffffff 0xffffffff 0xffffffff 0xffffffff 0xffffffff 0xffffffff 0xffffffff 0xffffffff 0xffffffff 0xffffffff 0xffffffff 0xffffffff 0xffffffff 0xffffffff 0xffffffff 0xffffffff 0xffffffff 0xffffffff 0xffffffff 
	<0x19>
	Attribute:	EIATTR_COOP_GROUP_INSTR_OFFSETS
	Format:	EIFMT_SVAL
	Value:	0x450 0x470 0x490 0x4b0 0x4d0 0x780 0x8c0 0x950 0x990 0x9d0 0xa10 0xa40 0xad0 0xba0 0xcc0 0xd20 0xd60 0xda0 0xde0 0xe10 0x1f80 0x1fa0 0x1fc0 0x1fe0 0x2000 0x3080 0x30a0 0x30c0 0x30e0 0x3100 0x33a0 0x34e0 0x3570 0x35b0 0x35f0 0x3630 0x3660 0x36f0 0x37c0 0x38e0 0x3940 0x3980 0x39c0 0x3a00 0x3a30 0x4800 0x4820 0x4840 0x4860 0x4880 0x53f0 0x5450 0x5500 0x5590 0x5630 0x56d0 0x5770 0x57c0 0x5820 0x5880 0x5920 0x59b0 0x5a40 0x5ad0 0x5b60 0x5bb0 0x5c10 0x5cc0 0x5d50 0x5df0 0x5e90 0x5f30 0x5f80 0x5fe0 0x6040 0x60e0 0x6170 0x6200 0x6290 0x6320 
	<0x20>
	Attribute:	EIATTR_EXIT_INSTR_OFFSETS
	Format:	EIFMT_SVAL
	Value:	0x2d20 0x2d60 0x3d80 0x3dc0 0x3ef0 0x4090 0x45b0 0x4640 0x4b50 0x4b90 0x4c70 0x4df0 0x5320 0x53b0 
	<0x21>
	Attribute:	EIATTR_MAX_THREADS
	Format:	EIFMT_SVAL
	Value:	0x80 0x1 0x1 
	<0x22>
	Attribute:	EIATTR_CRS_STACK_SIZE
	Format:	EIFMT_SVAL
	Value:	0x0 


.nv.info._ZN3cub17CUB_200400_750_NS18DeviceReduceKernelINS0_18DeviceReducePolicyIlyN4cuda3std3__44plusIvEEE9Policy600ENS0_22TransformInputIteratorIb7NonZeroIiEPilEEyS7_lNS5_10__identityEEEvT0_PT3_T1_NS0_13GridEvenShareISJ_EET2_T4_
	<0x1>
	Attribute:	EIATTR_SW_WAR
	Format:	EIFMT_SVAL
	Value:	0x1 
	<0x2>
	Attribute:	EIATTR_CUDA_API_VERSION
	Format:	EIFMT_SVAL
	Value:	0x7d 
	<0x3>
	Attribute:	EIATTR_PARAM_CBANK
	Format:	EIFMT_SVAL
	Value:	0x34 0x6a0160 
	<0x4>
	Attribute:	EIATTR_CBANK_PARAM_SIZE
	Format:	EIFMT_HVAL
	Value:	0x6a
	<0x5>
	Attribute:	EIATTR_KPARAM_INFO
	Format:	EIFMT_SVAL
	Value:	Index : 0x0	Ordinal : 0x5	Offset  : 0x69	Size    : 0x1
		Pointee's logAlignment : 0x0	Space : 0x0	cbank : 0x1f	Parameter Space : CBANK	
	<0x6>
	Attribute:	EIATTR_KPARAM_INFO
	Format:	EIFMT_SVAL
	Value:	Index : 0x0	Ordinal : 0x4	Offset  : 0x68	Size    : 0x1
		Pointee's logAlignment : 0x0	Space : 0x0	cbank : 0x1f	Parameter Space : CBANK	
	<0x7>
	Attribute:	EIATTR_KPARAM_INFO
	Format:	EIFMT_SVAL
	Value:	Index : 0x0	Ordinal : 0x3	Offset  : 0x20	Size    : 0x48
		Pointee's logAlignment : 0x0	Space : 0x0	cbank : 0x1f	Parameter Space : CBANK	
	<0x8>
	Attribute:	EIATTR_KPARAM_INFO
	Format:	EIFMT_SVAL
	Value:	Index : 0x0	Ordinal : 0x2	Offset  : 0x18	Size    : 0x8
		Pointee's logAlignment : 0x0	Space : 0x0	cbank : 0x1f	Parameter Space : CBANK	
	<0x9>
	Attribute:	EIATTR_KPARAM_INFO
	Format:	EIFMT_SVAL
	Value:	Index : 0x0	Ordinal : 0x1	Offset  : 0x10	Size    : 0x8
		Pointee's logAlignment : 0x0	Space : 0x0	cbank : 0x1f	Parameter Space : CBANK	
	<0x10>
	Attribute:	EIATTR_KPARAM_INFO
	Format:	EIFMT_SVAL
	Value:	Index : 0x0	Ordinal : 0x0	Offset  : 0x0	Size    : 0x10
		Pointee's logAlignment : 0x0	Space : 0x0	cbank : 0x1f	Parameter Space : CBANK	
	<0x11>
	Attribute:	EIATTR_MAXREG_COUNT
	Format:	EIFMT_HVAL
	Value:	0xff
	<0x12>
	Attribute:	EIATTR_COOP_GROUP_MASK_REGIDS
	Format:	EIFMT_SVAL
	Value:	0xffffffff 0xffffffff 0xffffffff 0xffffffff 0xffffffff 0xffffffff 0xffffffff 0xffffffff 0xffffffff 0xffffffff 0xffffffff 0xffffffff 0xffffffff 0xffffffff 0xffffffff 0xffffffff 0xffffffff 0xffffffff 0xffffffff 0xffffffff 0xffffffff 0xffffffff 0xffffffff 0xffffffff 0xffffffff 0xffffffff 0xffffffff 0xffffffff 0xffffffff 0xffffffff 
	<0x13>
	Attribute:	EIATTR_COOP_GROUP_INSTR_OFFSETS
	Format:	EIFMT_SVAL
	Value:	0x12c0 0x12d0 0x1340 0x1350 0x13b0 0x13c0 0x1420 0x1440 0x14b0 0x14e0 0x2350 0x2360 0x23c0 0x23d0 0x2430 0x2460 0x24d0 0x24e0 0x2540 0x2550 0x2800 0x2830 0x2890 0x28a0 0x2900 0x2910 0x2970 0x2980 0x29e0 0x29f0 
	<0x14>
	Attribute:	EIATTR_EXIT_INSTR_OFFSETS
	Format:	EIFMT_SVAL
	Value:	0x2b70 0x2bb0 
	<0x15>
	Attribute:	EIATTR_MAX_THREADS
	Format:	EIFMT_SVAL
	Value:	0x100 0x1 0x1 
	<0x16>
	Attribute:	EIATTR_CRS_STACK_SIZE
	Format:	EIFMT_SVAL
	Value:	0x0 


.nv.info._ZN3cub17CUB_200400_750_NS28DeviceReduceSingleTileKernelINS0_18DeviceReducePolicyIlyN4cuda3std3__44plusIvEEE9Policy600ENS0_22TransformInputIteratorIb7NonZeroIiEPilEEPlyS7_llNS5_10__identityEEEvT0_T1_T2_T3_T4_T6_
	<0x1>
	Attribute:	EIATTR_SW_WAR
	Format:	EIFMT_SVAL
	Value:	0x1 
	<0x2>
	Attribute:	EIATTR_CUDA_API_VERSION
	Format:	EIFMT_SVAL
	Value:	0x7d 
	<0x3>
	Attribute:	EIATTR_PARAM_CBANK
	Format:	EIFMT_SVAL
	Value:	0x37 0x310160 
	<0x4>
	Attribute:	EIATTR_CBANK_PARAM_SIZE
	Format:	EIFMT_HVAL
	Value:	0x31
	<0x5>
	Attribute:	EIATTR_KPARAM_INFO
	Format:	EIFMT_SVAL
	Value:	Index : 0x0	Ordinal : 0x5	Offset  : 0x30	Size    : 0x1
		Pointee's logAlignment : 0x0	Space : 0x0	cbank : 0x1f	Parameter Space : CBANK	
	<0x6>
	Attribute:	EIATTR_KPARAM_INFO
	Format:	EIFMT_SVAL
	Value:	Index : 0x0	Ordinal : 0x4	Offset  : 0x28	Size    : 0x8
		Pointee's logAlignment : 0x0	Space : 0x0	cbank : 0x1f	Parameter Space : CBANK	
	<0x7>
	Attribute:	EIATTR_KPARAM_INFO
	Format:	EIFMT_SVAL
	Value:	Index : 0x0	Ordinal : 0x3	Offset  : 0x20	Size    : 0x1
		Pointee's logAlignment : 0x0	Space : 0x0	cbank : 0x1f	Parameter Space : CBANK	
	<0x8>
	Attribute:	EIATTR_KPARAM_INFO
	Format:	EIFMT_SVAL
	Value:	Index : 0x0	Ordinal : 0x2	Offset  : 0x18	Size    : 0x8
		Pointee's logAlignment : 0x0	Space : 0x0	cbank : 0x1f	Parameter Space : CBANK	
	<0x9>
	Attribute:	EIATTR_KPARAM_INFO
	Format:	EIFMT_SVAL
	Value:	Index : 0x0	Ordinal : 0x1	Offset  : 0x10	Size    : 0x8
		Pointee's logAlignment : 0x0	Space : 0x0	cbank : 0x1f	Parameter Space : CBANK	
	<0x10>
	Attribute:	EIATTR_KPARAM_INFO
	Format:	EIFMT_SVAL
	Value:	Index : 0x0	Ordinal : 0x0	Offset  : 0x0	Size    : 0x10
		Pointee's logAlignment : 0x0	Space : 0x0	cbank : 0x1f	Parameter Space : CBANK	
	<0x11>
	Attribute:	EIATTR_MAXREG_COUNT
	Format:	EIFMT_HVAL
	Value:	0xff
	<0x12>
	Attribute:	EIATTR_COOP_GROUP_MASK_REGIDS
	Format:	EIFMT_SVAL
	Value:	0xffffffff 0xffffffff 0xffffffff 0xffffffff 0xffffffff 0xffffffff 0xffffffff 0xffffffff 0xffffffff 0xffffffff 0xffffffff 0xffffffff 0xffffffff 0xffffffff 0xffffffff 0xffffffff 0xffffffff 0xffffffff 0xffffffff 0xffffffff 0xffffffff 0xffffffff 0xffffffff 0xffffffff 0xffffffff 0xffffffff 0xffffffff 0xffffffff 0xffffffff 0xffffffff 
	<0x13>
	Attribute:	EIATTR_COOP_GROUP_INSTR_OFFSETS
	Format:	EIFMT_SVAL
	Value:	0x1180 0x1190 0x1200 0x1210 0x1270 0x1280 0x12e0 0x1300 0x1370 0x13a0 0x21c0 0x21d0 0x2240 0x2250 0x22c0 0x22d0 0x2340 0x2350 0x23b0 0x23c0 0x2670 0x26a0 0x2700 0x2710 0x2770 0x2780 0x27e0 0x27f0 0x2850 0x2860 
	<0x14>
	Attribute:	EIATTR_EXIT_INSTR_OFFSETS
	Format:	EIFMT_SVAL
	Value:	0x29e0 0x2a30 0x2a60 0x2ab0 
	<0x15>
	Attribute:	EIATTR_MAX_THREADS
	Format:	EIFMT_SVAL
	Value:	0x100 0x1 0x1 
	<0x16>
	Attribute:	EIATTR_CRS_STACK_SIZE
	Format:	EIFMT_SVAL
	Value:	0x0 


.nv.info._ZN3cub17CUB_200400_750_NS23DeviceSelectSweepKernelINS0_6detail24device_select_policy_hubIlbiLb0ELb0EE9Policy900ENS0_21CountingInputIteratorIllEENS0_22TransformInputIteratorIb7NonZeroIsEPslEEPlSD_NS0_13ScanTileStateIiLb1EEENS0_8NullTypeESG_iLb0EEEvT0_T1_T2_T3_T4_T5_T6_T7_iNS2_7vsmem_tE
	<0x1>
	Attribute:	EIATTR_SW_WAR
	Format:	EIFMT_SVAL
	Value:	0x1 
	<0x2>
	Attribute:	EIATTR_CUDA_API_VERSION
	Format:	EIFMT_SVAL
	Value:	0x7d 
	<0x3>
	Attribute:	EIATTR_PARAM_CBANK
	Format:	EIFMT_SVAL
	Value:	0x3e 0x480160 
	<0x4>
	Attribute:	EIATTR_CBANK_PARAM_SIZE
	Format:	EIFMT_HVAL
	Value:	0x48
	<0x5>
	Attribute:	EIATTR_KPARAM_INFO
	Format:	EIFMT_SVAL
	Value:	Index : 0x0	Ordinal : 0x9	Offset  : 0x40	Size    : 0x8
		Pointee's logAlignment : 0x0	Space : 0x0	cbank : 0x1f	Parameter Space : CBANK	
	<0x6>
	Attribute:	EIATTR_KPARAM_INFO
	Format:	EIFMT_SVAL
	Value:	Index : 0x0	Ordinal : 0x8	Offset  : 0x38	Size    : 0x4
		Pointee's logAlignment : 0x0	Space : 0x0	cbank : 0x1f	Parameter Space : CBANK	
	<0x7>
	Attribute:	EIATTR_KPARAM_INFO
	Format:	EIFMT_SVAL
	Value:	Index : 0x0	Ordinal : 0x7	Offset  : 0x34	Size    : 0x4
		Pointee's logAlignment : 0x0	Space : 0x0	cbank : 0x1f	Parameter Space : CBANK	
	<0x8>
	Attribute:	EIATTR_KPARAM_INFO
	Format:	EIFMT_SVAL
	Value:	Index : 0x0	Ordinal : 0x6	Offset  : 0x31	Size    : 0x1
		Pointee's logAlignment : 0x0	Space : 0x0	cbank : 0x1f	Parameter Space : CBANK	
	<0x9>
	Attribute:	EIATTR_KPARAM_INFO
	Format:	EIFMT_SVAL
	Value:	Index : 0x0	Ordinal : 0x5	Offset  : 0x30	Size    : 0x1
		Pointee's logAlignment : 0x0	Space : 0x0	cbank : 0x1f	Parameter Space : CBANK	
	<0x10>
	Attribute:	EIATTR_KPARAM_INFO
	Format:	EIFMT_SVAL
	Value:	Index : 0x0	Ordinal : 0x4	Offset  : 0x28	Size    : 0x8
		Pointee's logAlignment : 0x0	Space : 0x0	cbank : 0x1f	Parameter Space : CBANK	
	<0x11>
	Attribute:	EIATTR_KPARAM_INFO
	Format:	EIFMT_SVAL
	Value:	Index : 0x0	Ordinal : 0x3	Offset  : 0x20	Size    : 0x8
		Pointee's logAlignment : 0x0	Space : 0x0	cbank : 0x1f	Parameter Space : CBANK	
	<0x12>
	Attribute:	EIATTR_KPARAM_INFO
	Format:	EIFMT_SVAL
	Value:	Index : 0x0	Ordinal : 0x2	Offset  : 0x18	Size    : 0x8
		Pointee's logAlignment : 0x0	Space : 0x0	cbank : 0x1f	Parameter Space : CBANK	
	<0x13>
	Attribute:	EIATTR_KPARAM_INFO
	Format:	EIFMT_SVAL
	Value:	Index : 0x0	Ordinal : 0x1	Offset  : 0x8	Size    : 0x10
		Pointee's logAlignment : 0x0	Space : 0x0	cbank : 0x1f	Parameter Space : CBANK	
	<0x14>
	Attribute:	EIATTR_KPARAM_INFO
	Format:	EIFMT_SVAL
	Value:	Index : 0x0	Ordinal : 0x0	Offset  : 0x0	Size    : 0x8
		Pointee's logAlignment : 0x0	Space : 0x0	cbank : 0x1f	Parameter Space : CBANK	
	<0x15>
	Attribute:	EIATTR_MAXREG_COUNT
	Format:	EIFMT_HVAL
	Value:	0xff
	<0x16>
	Attribute:	EIATTR_UNUSED_LOAD_BYTE_OFFSET
	Format:	EIFMT_SVAL
	Value:	0xfc0 0xfff0 
	<0x17>
	Attribute:	EIATTR_INT_WARP_WIDE_INSTR_OFFSETS
	Format:	EIFMT_SVAL
	Value:	0x810 0x830 0xc30 0xc50 0xe50 0xe70 0x3430 0x3450 0x3850 0x3870 0x3a70 0x3a90 
	<0x18>
	Attribute:	EIATTR_COOP_GROUP_MASK_REGIDS
	Format:	EIFMT_SVAL
	Value:	0xffffffff 0xffffffff 0xffffffff 0xffffffff 0xffffffff 0xffffffff 0xffffffff 0xffffffff 0xffffffff 0xffffffff 0xffffffff 0xffffffff 0xffffffff 0xffffffff 0xffffffff 0xffffffff 0xffffffff 0xffffffff 0xffffffff 0xffffffff 0xffffffff 0xffffffff 0xffffffff 0xffffffff 0xffffffff 0xffffffff 0xffffffff 0xffffffff 0xffffffff 0xffffffff 0xffffffff 0xffffffff 0xffffffff 0xffffffff 0xffffffff 0xffffffff 0xffffffff 0xffffffff 0xffffffff 0xffffffff 0xffffffff 0xffffffff 0xffffffff 0xffffffff 0xffffffff 0xffffffff 0xffffffff 0xffffffff 0xffffffff 0xffffffff 0xffffffff 0xffffffff 0xffffffff 0xffffffff 0xffffffff 0xffffffff 0xffffffff 0xffffffff 0xffffffff 0xffffffff 0xffffffff 0xffffffff 0xffffffff 0xffffffff 0xffffffff 0xffffffff 0xffffffff 0xffffffff 0xffffffff 0xffffffff 0xffffffff 0xffffffff 0xffffffff 0xffffffff 0xffffffff 0xffffffff 0xffffffff 0xffffffff 0xffffffff 0xffffffff 
	<0x19>
	Attribute:	EIATTR_COOP_GROUP_INSTR_OFFSETS
	Format:	EIFMT_SVAL
	Value:	0x450 0x470 0x490 0x4b0 0x4d0 0x780 0x8c0 0x950 0x990 0x9d0 0xa10 0xa40 0xad0 0xba0 0xcc0 0xd20 0xd60 0xda0 0xde0 0xe10 0x1f80 0x1fa0 0x1fc0 0x1fe0 0x2000 0x3080 0x30a0 0x30c0 0x30e0 0x3100 0x33a0 0x34e0 0x3570 0x35b0 0x35f0 0x3630 0x3660 0x36f0 0x37c0 0x38e0 0x3940 0x3980 0x39c0 0x3a00 0x3a30 0x4800 0x4820 0x4840 0x4860 0x4880 0x53f0 0x5450 0x5500 0x5590 0x5630 0x56d0 0x5770 0x57c0 0x5820 0x5880 0x5920 0x59b0 0x5a40 0x5ad0 0x5b60 0x5bb0 0x5c10 0x5cc0 0x5d50 0x5df0 0x5e90 0x5f30 0x5f80 0x5fe0 0x6040 0x60e0 0x6170 0x6200 0x6290 0x6320 
	<0x20>
	Attribute:	EIATTR_EXIT_INSTR_OFFSETS
	Format:	EIFMT_SVAL
	Value:	0x2d20 0x2d60 0x3d80 0x3dc0 0x3ef0 0x4090 0x45b0 0x4640 0x4b50 0x4b90 0x4c70 0x4df0 0x5320 0x53b0 
	<0x21>
	Attribute:	EIATTR_MAX_THREADS
	Format:	EIFMT_SVAL
	Value:	0x80 0x1 0x1 
	<0x22>
	Attribute:	EIATTR_CRS_STACK_SIZE
	Format:	EIFMT_SVAL
	Value:	0x0 


.nv.info._ZN3cub17CUB_200400_750_NS18DeviceReduceKernelINS0_18DeviceReducePolicyIlyN4cuda3std3__44plusIvEEE9Policy600ENS0_22TransformInputIteratorIb7NonZeroIsEPslEEyS7_lNS5_10__identityEEEvT0_PT3_T1_NS0_13GridEvenShareISJ_EET2_T4_
	<0x1>
	Attribute:	EIATTR_SW_WAR
	Format:	EIFMT_SVAL
	Value:	0x1 
	<0x2>
	Attribute:	EIATTR_CUDA_API_VERSION
	Format:	EIFMT_SVAL
	Value:	0x7d 
	<0x3>
	Attribute:	EIATTR_PARAM_CBANK
	Format:	EIFMT_SVAL
	Value:	0x41 0x6a0160 
	<0x4>
	Attribute:	EIATTR_CBANK_PARAM_SIZE
	Format:	EIFMT_HVAL
	Value:	0x6a
	<0x5>
	Attribute:	EIATTR_KPARAM_INFO
	Format:	EIFMT_SVAL
	Value:	Index : 0x0	Ordinal : 0x5	Offset  : 0x69	Size    : 0x1
		Pointee's logAlignment : 0x0	Space : 0x0	cbank : 0x1f	Parameter Space : CBANK	
	<0x6>
	Attribute:	EIATTR_KPARAM_INFO
	Format:	EIFMT_SVAL
	Value:	Index : 0x0	Ordinal : 0x4	Offset  : 0x68	Size    : 0x1
		Pointee's logAlignment : 0x0	Space : 0x0	cbank : 0x1f	Parameter Space : CBANK	
	<0x7>
	Attribute:	EIATTR_KPARAM_INFO
	Format:	EIFMT_SVAL
	Value:	Index : 0x0	Ordinal : 0x3	Offset  : 0x20	Size    : 0x48
		Pointee's logAlignment : 0x0	Space : 0x0	cbank : 0x1f	Parameter Space : CBANK	
	<0x8>
	Attribute:	EIATTR_KPARAM_INFO
	Format:	EIFMT_SVAL
	Value:	Index : 0x0	Ordinal : 0x2	Offset  : 0x18	Size    : 0x8
		Pointee's logAlignment : 0x0	Space : 0x0	cbank : 0x1f	Parameter Space : CBANK	
	<0x9>
	Attribute:	EIATTR_KPARAM_INFO
	Format:	EIFMT_SVAL
	Value:	Index : 0x0	Ordinal : 0x1	Offset  : 0x10	Size    : 0x8
		Pointee's logAlignment : 0x0	Space : 0x0	cbank : 0x1f	Parameter Space : CBANK	
	<0x10>
	Attribute:	EIATTR_KPARAM_INFO
	Format:	EIFMT_SVAL
	Value:	Index : 0x0	Ordinal : 0x0	Offset  : 0x0	Size    : 0x10
		Pointee's logAlignment : 0x0	Space : 0x0	cbank : 0x1f	Parameter Space : CBANK	
	<0x11>
	Attribute:	EIATTR_MAXREG_COUNT
	Format:	EIFMT_HVAL
	Value:	0xff
	<0x12>
	Attribute:	EIATTR_COOP_GROUP_MASK_REGIDS
	Format:	EIFMT_SVAL
	Value:	0xffffffff 0xffffffff 0xffffffff 0xffffffff 0xffffffff 0xffffffff 0xffffffff 0xffffffff 0xffffffff 0xffffffff 0xffffffff 0xffffffff 0xffffffff 0xffffffff 0xffffffff 0xffffffff 0xffffffff 0xffffffff 0xffffffff 0xffffffff 0xffffffff 0xffffffff 0xffffffff 0xffffffff 0xffffffff 0xffffffff 0xffffffff 0xffffffff 0xffffffff 0xffffffff 
	<0x13>
	Attribute:	EIATTR_COOP_GROUP_INSTR_OFFSETS
	Format:	EIFMT_SVAL
	Value:	0x12c0 0x12d0 0x1340 0x1350 0x13b0 0x13c0 0x1420 0x1440 0x14b0 0x14e0 0x2350 0x2360 0x23c0 0x23d0 0x2430 0x2460 0x24d0 0x24e0 0x2540 0x2550 0x2800 0x2830 0x2890 0x28a0 0x2900 0x2910 0x2970 0x2980 0x29e0 0x29f0 
	<0x14>
	Attribute:	EIATTR_EXIT_INSTR_OFFSETS
	Format:	EIFMT_SVAL
	Value:	0x2b70 0x2bb0 
	<0x15>
	Attribute:	EIATTR_MAX_THREADS
	Format:	EIFMT_SVAL
	Value:	0x100 0x1 0x1 
	<0x16>
	Attribute:	EIATTR_CRS_STACK_SIZE
	Format:	EIFMT_SVAL
	Value:	0x0 


.nv.info._ZN3cub17CUB_200400_750_NS28DeviceReduceSingleTileKernelINS0_18DeviceReducePolicyIlyN4cuda3std3__44plusIvEEE9Policy600ENS0_22TransformInputIteratorIb7NonZeroIsEPslEEPlyS7_llNS5_10__identityEEEvT0_T1_T2_T3_T4_T6_
	<0x1>
	Attribute:	EIATTR_SW_WAR
	Format:	EIFMT_SVAL
	Value:	0x1 
	<0x2>
	Attribute:	EIATTR_CUDA_API_VERSION
	Format:	EIFMT_SVAL
	Value:	0x7d 
	<0x3>
	Attribute:	EIATTR_PARAM_CBANK
	Format:	EIFMT_SVAL
	Value:	0x44 0x310160 
	<0x4>
	Attribute:	EIATTR_CBANK_PARAM_SIZE
	Format:	EIFMT_HVAL
	Value:	0x31
	<0x5>
	Attribute:	EIATTR_KPARAM_INFO
	Format:	EIFMT_SVAL
	Value:	Index : 0x0	Ordinal : 0x5	Offset  : 0x30	Size    : 0x1
		Pointee's logAlignment : 0x0	Space : 0x0	cbank : 0x1f	Parameter Space : CBANK	
	<0x6>
	Attribute:	EIATTR_KPARAM_INFO
	Format:	EIFMT_SVAL
	Value:	Index : 0x0	Ordinal : 0x4	Offset  : 0x28	Size    : 0x8
		Pointee's logAlignment : 0x0	Space : 0x0	cbank : 0x1f	Parameter Space : CBANK	
	<0x7>
	Attribute:	EIATTR_KPARAM_INFO
	Format:	EIFMT_SVAL
	Value:	Index : 0x0	Ordinal : 0x3	Offset  : 0x20	Size    : 0x1
		Pointee's logAlignment : 0x0	Space : 0x0	cbank : 0x1f	Parameter Space : CBANK	
	<0x8>
	Attribute:	EIATTR_KPARAM_INFO
	Format:	EIFMT_SVAL
	Value:	Index : 0x0	Ordinal : 0x2	Offset  : 0x18	Size    : 0x8
		Pointee's logAlignment : 0x0	Space : 0x0	cbank : 0x1f	Parameter Space : CBANK	
	<0x9>
	Attribute:	EIATTR_KPARAM_INFO
	Format:	EIFMT_SVAL
	Value:	Index : 0x0	Ordinal : 0x1	Offset  : 0x10	Size    : 0x8
		Pointee's logAlignment : 0x0	Space : 0x0	cbank : 0x1f	Parameter Space : CBANK	
	<0x10>
	Attribute:	EIATTR_KPARAM_INFO
	Format:	EIFMT_SVAL
	Value:	Index : 0x0	Ordinal : 0x0	Offset  : 0x0	Size    : 0x10
		Pointee's logAlignment : 0x0	Space : 0x0	cbank : 0x1f	Parameter Space : CBANK	
	<0x11>
	Attribute:	EIATTR_MAXREG_COUNT
	Format:	EIFMT_HVAL
	Value:	0xff
	<0x12>
	Attribute:	EIATTR_COOP_GROUP_MASK_REGIDS
	Format:	EIFMT_SVAL
	Value:	0xffffffff 0xffffffff 0xffffffff 0xffffffff 0xffffffff 0xffffffff 0xffffffff 0xffffffff 0xffffffff 0xffffffff 0xffffffff 0xffffffff 0xffffffff 0xffffffff 0xffffffff 0xffffffff 0xffffffff 0xffffffff 0xffffffff 0xffffffff 0xffffffff 0xffffffff 0xffffffff 0xffffffff 0xffffffff 0xffffffff 0xffffffff 0xffffffff 0xffffffff 0xffffffff 
	<0x13>
	Attribute:	EIATTR_COOP_GROUP_INSTR_OFFSETS
	Format:	EIFMT_SVAL
	Value:	0x1180 0x1190 0x1200 0x1210 0x1270 0x1280 0x12e0 0x1300 0x1370 0x13a0 0x21c0 0x21d0 0x2240 0x2250 0x22c0 0x22d0 0x2340 0x2350 0x23b0 0x23c0 0x2670 0x26a0 0x2700 0x2710 0x2770 0x2780 0x27e0 0x27f0 0x2850 0x2860 
	<0x14>
	Attribute:	EIATTR_EXIT_INSTR_OFFSETS
	Format:	EIFMT_SVAL
	Value:	0x29e0 0x2a30 0x2a60 0x2ab0 
	<0x15>
	Attribute:	EIATTR_MAX_THREADS
	Format:	EIFMT_SVAL
	Value:	0x100 0x1 0x1 
	<0x16>
	Attribute:	EIATTR_CRS_STACK_SIZE
	Format:	EIFMT_SVAL
	Value:	0x0 


.nv.info._ZN3cub17CUB_200400_750_NS23DeviceSelectSweepKernelINS0_6detail24device_select_policy_hubIlbiLb0ELb0EE9Policy900ENS0_21CountingInputIteratorIllEENS0_22TransformInputIteratorIb7NonZeroIaEPalEEPlSD_NS0_13ScanTileStateIiLb1EEENS0_8NullTypeESG_iLb0EEEvT0_T1_T2_T3_T4_T5_T6_T7_iNS2_7vsmem_tE
	<0x1>
	Attribute:	EIATTR_SW_WAR
	Format:	EIFMT_SVAL
	Value:	0x1 
	<0x2>
	Attribute:	EIATTR_CUDA_API_VERSION
	Format:	EIFMT_SVAL
	Value:	0x7d 
	<0x3>
	Attribute:	EIATTR_PARAM_CBANK
	Format:	EIFMT_SVAL
	Value:	0x4b 0x480160 
	<0x4>
	Attribute:	EIATTR_CBANK_PARAM_SIZE
	Format:	EIFMT_HVAL
	Value:	0x48
	<0x5>
	Attribute:	EIATTR_KPARAM_INFO
	Format:	EIFMT_SVAL
	Value:	Index : 0x0	Ordinal : 0x9	Offset  : 0x40	Size    : 0x8
		Pointee's logAlignment : 0x0	Space : 0x0	cbank : 0x1f	Parameter Space : CBANK	
	<0x6>
	Attribute:	EIATTR_KPARAM_INFO
	Format:	EIFMT_SVAL
	Value:	Index : 0x0	Ordinal : 0x8	Offset  : 0x38	Size    : 0x4
		Pointee's logAlignment : 0x0	Space : 0x0	cbank : 0x1f	Parameter Space : CBANK	
	<0x7>
	Attribute:	EIATTR_KPARAM_INFO
	Format:	EIFMT_SVAL
	Value:	Index : 0x0	Ordinal : 0x7	Offset  : 0x34	Size    : 0x4
		Pointee's logAlignment : 0x0	Space : 0x0	cbank : 0x1f	Parameter Space : CBANK	
	<0x8>
	Attribute:	EIATTR_KPARAM_INFO
	Format:	EIFMT_SVAL
	Value:	Index : 0x0	Ordinal : 0x6	Offset  : 0x31	Size    : 0x1
		Pointee's logAlignment : 0x0	Space : 0x0	cbank : 0x1f	Parameter Space : CBANK	
	<0x9>
	Attribute:	EIATTR_KPARAM_INFO
	Format:	EIFMT_SVAL
	Value:	Index : 0x0	Ordinal : 0x5	Offset  : 0x30	Size    : 0x1
		Pointee's logAlignment : 0x0	Space : 0x0	cbank : 0x1f	Parameter Space : CBANK	
	<0x10>
	Attribute:	EIATTR_KPARAM_INFO
	Format:	EIFMT_SVAL
	Value:	Index : 0x0	Ordinal : 0x4	Offset  : 0x28	Size    : 0x8
		Pointee's logAlignment : 0x0	Space : 0x0	cbank : 0x1f	Parameter Space : CBANK	
	<0x11>
	Attribute:	EIATTR_KPARAM_INFO
	Format:	EIFMT_SVAL
	Value:	Index : 0x0	Ordinal : 0x3	Offset  : 0x20	Size    : 0x8
		Pointee's logAlignment : 0x0	Space : 0x0	cbank : 0x1f	Parameter Space : CBANK	
	<0x12>
	Attribute:	EIATTR_KPARAM_INFO
	Format:	EIFMT_SVAL
	Value:	Index : 0x0	Ordinal : 0x2	Offset  : 0x18	Size    : 0x8
		Pointee's logAlignment : 0x0	Space : 0x0	cbank : 0x1f	Parameter Space : CBANK	
	<0x13>
	Attribute:	EIATTR_KPARAM_INFO
	Format:	EIFMT_SVAL
	Value:	Index : 0x0	Ordinal : 0x1	Offset  : 0x8	Size    : 0x10
		Pointee's logAlignment : 0x0	Space : 0x0	cbank : 0x1f	Parameter Space : CBANK	
	<0x14>
	Attribute:	EIATTR_KPARAM_INFO
	Format:	EIFMT_SVAL
	Value:	Index : 0x0	Ordinal : 0x0	Offset  : 0x0	Size    : 0x8
		Pointee's logAlignment : 0x0	Space : 0x0	cbank : 0x1f	Parameter Space : CBANK	
	<0x15>
	Attribute:	EIATTR_MAXREG_COUNT
	Format:	EIFMT_HVAL
	Value:	0xff
	<0x16>
	Attribute:	EIATTR_UNUSED_LOAD_BYTE_OFFSET
	Format:	EIFMT_SVAL
	Value:	0xfa0 0xfff0 
	<0x17>
	Attribute:	EIATTR_INT_WARP_WIDE_INSTR_OFFSETS
	Format:	EIFMT_SVAL
	Value:	0x7f0 0x810 0xc10 0xc30 0xe30 0xe50 0x33d0 0x33f0 0x37f0 0x3810 0x3a10 0x3a30 
	<0x18>
	Attribute:	EIATTR_COOP_GROUP_MASK_REGIDS
	Format:	EIFMT_SVAL
	Value:	0xffffffff 0xffffffff 0xffffffff 0xffffffff 0xffffffff 0xffffffff 0xffffffff 0xffffffff 0xffffffff 0xffffffff 0xffffffff 0xffffffff 0xffffffff 0xffffffff 0xffffffff 0xffffffff 0xffffffff 0xffffffff 0xffffffff 0xffffffff 0xffffffff 0xffffffff 0xffffffff 0xffffffff 0xffffffff 0xffffffff 0xffffffff 0xffffffff 0xffffffff 0xffffffff 0xffffffff 0xffffffff 0xffffffff 0xffffffff 0xffffffff 0xffffffff 0xffffffff 0xffffffff 0xffffffff 0xffffffff 0xffffffff 0xffffffff 0xffffffff 0xffffffff 0xffffffff 0xffffffff 0xffffffff 0xffffffff 0xffffffff 0xffffffff 0xffffffff 0xffffffff 0xffffffff 0xffffffff 0xffffffff 0xffffffff 0xffffffff 0xffffffff 0xffffffff 0xffffffff 0xffffffff 0xffffffff 0xffffffff 0xffffffff 0xffffffff 0xffffffff 0xffffffff 0xffffffff 0xffffffff 0xffffffff 0xffffffff 0xffffffff 0xffffffff 0xffffffff 0xffffffff 0xffffffff 0xffffffff 0xffffffff 0xffffffff 0xffffffff 
	<0x19>
	Attribute:	EIATTR_COOP_GROUP_INSTR_OFFSETS
	Format:	EIFMT_SVAL
	Value:	0x430 0x450 0x470 0x490 0x4b0 0x760 0x8a0 0x930 0x970 0x9b0 0x9f0 0xa20 0xab0 0xb80 0xca0 0xd00 0xd40 0xd80 0xdc0 0xdf0 0x1f40 0x1f60 0x1f80 0x1fa0 0x1fc0 0x3020 0x3040 0x3060 0x3080 0x30a0 0x3340 0x3480 0x3510 0x3550 0x3590 0x35d0 0x3600 0x3690 0x3760 0x3880 0x38e0 0x3920 0x3960 0x39a0 0x39d0 0x4780 0x47a0 0x47c0 0x47e0 0x4800 0x5370 0x53d0 0x5480 0x5510 0x55b0 0x5650 0x56f0 0x5740 0x57a0 0x5800 0x58a0 0x5930 0x59c0 0x5a50 0x5ae0 0x5b30 0x5b90 0x5c40 0x5cd0 0x5d70 0x5e10 0x5eb0 0x5f00 0x5f60 0x5fc0 0x6060 0x60f0 0x6180 0x6210 0x62a0 
	<0x20>
	Attribute:	EIATTR_EXIT_INSTR_OFFSETS
	Format:	EIFMT_SVAL
	Value:	0x2ce0 0x2d20 0x3d20 0x3d60 0x3e90 0x4030 0x4550 0x45e0 0x4ad0 0x4b10 0x4bf0 0x4d70 0x52a0 0x5330 
	<0x21>
	Attribute:	EIATTR_MAX_THREADS
	Format:	EIFMT_SVAL
	Value:	0x80 0x1 0x1 
	<0x22>
	Attribute:	EIATTR_CRS_STACK_SIZE
	Format:	EIFMT_SVAL
	Value:	0x0 


.nv.info._ZN3cub17CUB_200400_750_NS23DeviceCompactInitKernelINS0_13ScanTileStateIiLb1EEEPlEEvT_iT0_
	<0x1>
	Attribute:	EIATTR_SW_WAR
	Format:	EIFMT_SVAL
	Value:	0x1 
	<0x2>
	Attribute:	EIATTR_CUDA_API_VERSION
	Format:	EIFMT_SVAL
	Value:	0x7d 
	<0x3>
	Attribute:	EIATTR_PARAM_CBANK
	Format:	EIFMT_SVAL
	Value:	0x4d 0x180160 
	<0x4>
	Attribute:	EIATTR_CBANK_PARAM_SIZE
	Format:	EIFMT_HVAL
	Value:	0x18
	<0x5>
	Attribute:	EIATTR_KPARAM_INFO
	Format:	EIFMT_SVAL
	Value:	Index : 0x0	Ordinal : 0x2	Offset  : 0x10	Size    : 0x8
		Pointee's logAlignment : 0x0	Space : 0x0	cbank : 0x1f	Parameter Space : CBANK	
	<0x6>
	Attribute:	EIATTR_KPARAM_INFO
	Format:	EIFMT_SVAL
	Value:	Index : 0x0	Ordinal : 0x1	Offset  : 0x8	Size    : 0x4
		Pointee's logAlignment : 0x0	Space : 0x0	cbank : 0x1f	Parameter Space : CBANK	
	<0x7>
	Attribute:	EIATTR_KPARAM_INFO
	Format:	EIFMT_SVAL
	Value:	Index : 0x0	Ordinal : 0x0	Offset  : 0x0	Size    : 0x8
		Pointee's logAlignment : 0x0	Space : 0x0	cbank : 0x1f	Parameter Space : CBANK	
	<0x8>
	Attribute:	EIATTR_MAXREG_COUNT
	Format:	EIFMT_HVAL
	Value:	0xff
	<0x9>
	Attribute:	EIATTR_EXIT_INSTR_OFFSETS
	Format:	EIFMT_SVAL
	Value:	0x110 0x140 


.nv.info._ZN3cub17CUB_200400_750_NS28DeviceReduceSingleTileKernelINS0_18DeviceReducePolicyIlyN4cuda3std3__44plusIvEEE9Policy600EPlSA_iS7_llNS5_10__identityEEEvT0_T1_T2_T3_T4_T6_
	<0x1>
	Attribute:	EIATTR_SW_WAR
	Format:	EIFMT_SVAL
	Value:	0x1 
	<0x2>
	Attribute:	EIATTR_CUDA_API_VERSION
	Format:	EIFMT_SVAL
	Value:	0x7d 
	<0x3>
	Attribute:	EIATTR_PARAM_CBANK
	Format:	EIFMT_SVAL
	Value:	0x50 0x210160 
	<0x4>
	Attribute:	EIATTR_CBANK_PARAM_SIZE
	Format:	EIFMT_HVAL
	Value:	0x21
	<0x5>
	Attribute:	EIATTR_KPARAM_INFO
	Format:	EIFMT_SVAL
	Value:	Index : 0x0	Ordinal : 0x5	Offset  : 0x20	Size    : 0x1
		Pointee's logAlignment : 0x0	Space : 0x0	cbank : 0x1f	Parameter Space : CBANK	
	<0x6>
	Attribute:	EIATTR_KPARAM_INFO
	Format:	EIFMT_SVAL
	Value:	Index : 0x0	Ordinal : 0x4	Offset  : 0x18	Size    : 0x8
		Pointee's logAlignment : 0x0	Space : 0x0	cbank : 0x1f	Parameter Space : CBANK	
	<0x7>
	Attribute:	EIATTR_KPARAM_INFO
	Format:	EIFMT_SVAL
	Value:	Index : 0x0	Ordinal : 0x3	Offset  : 0x14	Size    : 0x1
		Pointee's logAlignment : 0x0	Space : 0x0	cbank : 0x1f	Parameter Space : CBANK	
	<0x8>
	Attribute:	EIATTR_KPARAM_INFO
	Format:	EIFMT_SVAL
	Value:	Index : 0x0	Ordinal : 0x2	Offset  : 0x10	Size    : 0x4
		Pointee's logAlignment : 0x0	Space : 0x0	cbank : 0x1f	Parameter Space : CBANK	
	<0x9>
	Attribute:	EIATTR_KPARAM_INFO
	Format:	EIFMT_SVAL
	Value:	Index : 0x0	Ordinal : 0x1	Offset  : 0x8	Size    : 0x8
		Pointee's logAlignment : 0x0	Space : 0x0	cbank : 0x1f	Parameter Space : CBANK	
	<0x10>
	Attribute:	EIATTR_KPARAM_INFO
	Format:	EIFMT_SVAL
	Value:	Index : 0x0	Ordinal : 0x0	Offset  : 0x0	Size    : 0x8
		Pointee's logAlignment : 0x0	Space : 0x0	cbank : 0x1f	Parameter Space : CBANK	
	<0x11>
	Attribute:	EIATTR_MAXREG_COUNT
	Format:	EIFMT_HVAL
	Value:	0xff
	<0x12>
	Attribute:	EIATTR_COOP_GROUP_MASK_REGIDS
	Format:	EIFMT_SVAL
	Value:	0xffffffff 0xffffffff 0xffffffff 0xffffffff 0xffffffff 0xffffffff 0xffffffff 0xffffffff 0xffffffff 0xffffffff 0xffffffff 0xffffffff 0xffffffff 0xffffffff 0xffffffff 0xffffffff 0xffffffff 0xffffffff 0xffffffff 0xffffffff 0xffffffff 0xffffffff 0xffffffff 0xffffffff 0xffffffff 0xffffffff 0xffffffff 0xffffffff 0xffffffff 0xffffffff 0xffffffff 0xffffffff 0xffffffff 0xffffffff 0xffffffff 0xffffffff 0xffffffff 0xffffffff 0xffffffff 0xffffffff 0xffffffff 0xffffffff 0xffffffff 0xffffffff 0xffffffff 0xffffffff 0xffffffff 0xffffffff 0xffffffff 0xffffffff 0xffffffff 0xffffffff 0xffffffff 0xffffffff 0xffffffff 0xffffffff 0xffffffff 0xffffffff 0xffffffff 0xffffffff 
	<0x13>
	Attribute:	EIATTR_COOP_GROUP_INSTR_OFFSETS
	Format:	EIFMT_SVAL
	Value:	0xcd0 0xce0 0xd50 0xd60 0xdc0 0xdd0 0xe30 0xe40 0xea0 0xec0 0x1960 0x1970 0x19d0 0x19e0 0x1a40 0x1a70 0x1ac0 0x1af0 0x1b30 0x1b60 0x1e10 0x1e40 0x1ea0 0x1eb0 0x1f10 0x1f20 0x1f80 0x1f90 0x1ff0 0x2000 0x2d40 0x2d50 0x2dd0 0x2e00 0x2e80 0x2e90 0x2ef0 0x2f00 0x2f60 0x2f70 0x39e0 0x39f0 0x3a50 0x3a60 0x3ad0 0x3ae0 0x3b50 0x3b60 0x3bc0 0x3bd0 0x3e80 0x3eb0 0x3f10 0x3f20 0x3f80 0x3f90 0x3ff0 0x4000 0x4060 0x4070 
	<0x14>
	Attribute:	EIATTR_EXIT_INSTR_OFFSETS
	Format:	EIFMT_SVAL
	Value:	0x41f0 0x4240 0x4270 0x42c0 
	<0x15>
	Attribute:	EIATTR_MAX_THREADS
	Format:	EIFMT_SVAL
	Value:	0x100 0x1 0x1 
	<0x16>
	Attribute:	EIATTR_CRS_STACK_SIZE
	Format:	EIFMT_SVAL
	Value:	0x0 


.nv.info._ZN3cub17CUB_200400_750_NS18DeviceReduceKernelINS0_18DeviceReducePolicyIlyN4cuda3std3__44plusIvEEE9Policy600ENS0_22TransformInputIteratorIb7NonZeroIaEPalEEyS7_lNS5_10__identityEEEvT0_PT3_T1_NS0_13GridEvenShareISJ_EET2_T4_
	<0x1>
	Attribute:	EIATTR_SW_WAR
	Format:	EIFMT_SVAL
	Value:	0x1 
	<0x2>
	Attribute:	EIATTR_CUDA_API_VERSION
	Format:	EIFMT_SVAL
	Value:	0x7d 
	<0x3>
	Attribute:	EIATTR_PARAM_CBANK
	Format:	EIFMT_SVAL
	Value:	0x53 0x6a0160 
	<0x4>
	Attribute:	EIATTR_CBANK_PARAM_SIZE
	Format:	EIFMT_HVAL
	Value:	0x6a
	<0x5>
	Attribute:	EIATTR_KPARAM_INFO
	Format:	EIFMT_SVAL
	Value:	Index : 0x0	Ordinal : 0x5	Offset  : 0x69	Size    : 0x1
		Pointee's logAlignment : 0x0	Space : 0x0	cbank : 0x1f	Parameter Space : CBANK	
	<0x6>
	Attribute:	EIATTR_KPARAM_INFO
	Format:	EIFMT_SVAL
	Value:	Index : 0x0	Ordinal : 0x4	Offset  : 0x68	Size    : 0x1
		Pointee's logAlignment : 0x0	Space : 0x0	cbank : 0x1f	Parameter Space : CBANK	
	<0x7>
	Attribute:	EIATTR_KPARAM_INFO
	Format:	EIFMT_SVAL
	Value:	Index : 0x0	Ordinal : 0x3	Offset  : 0x20	Size    : 0x48
		Pointee's logAlignment : 0x0	Space : 0x0	cbank : 0x1f	Parameter Space : CBANK	
	<0x8>
	Attribute:	EIATTR_KPARAM_INFO
	Format:	EIFMT_SVAL
	Value:	Index : 0x0	Ordinal : 0x2	Offset  : 0x18	Size    : 0x8
		Pointee's logAlignment : 0x0	Space : 0x0	cbank : 0x1f	Parameter Space : CBANK	
	<0x9>
	Attribute:	EIATTR_KPARAM_INFO
	Format:	EIFMT_SVAL
	Value:	Index : 0x0	Ordinal : 0x1	Offset  : 0x10	Size    : 0x8
		Pointee's logAlignment : 0x0	Space : 0x0	cbank : 0x1f	Parameter Space : CBANK	
	<0x10>
	Attribute:	EIATTR_KPARAM_INFO
	Format:	EIFMT_SVAL
	Value:	Index : 0x0	Ordinal : 0x0	Offset  : 0x0	Size    : 0x10
		Pointee's logAlignment : 0x0	Space : 0x0	cbank : 0x1f	Parameter Space : CBANK	
	<0x11>
	Attribute:	EIATTR_MAXREG_COUNT
	Format:	EIFMT_HVAL
	Value:	0xff
	<0x12>
	Attribute:	EIATTR_COOP_GROUP_MASK_REGIDS
	Format:	EIFMT_SVAL
	Value:	0xffffffff 0xffffffff 0xffffffff 0xffffffff 0xffffffff 0xffffffff 0xffffffff 0xffffffff 0xffffffff 0xffffffff 0xffffffff 0xffffffff 0xffffffff 0xffffffff 0xffffffff 0xffffffff 0xffffffff 0xffffffff 0xffffffff 0xffffffff 0xffffffff 0xffffffff 0xffffffff 0xffffffff 0xffffffff 0xffffffff 0xffffffff 0xffffffff 0xffffffff 0xffffffff 
	<0x13>
	Attribute:	EIATTR_COOP_GROUP_INSTR_OFFSETS
	Format:	EIFMT_SVAL
	Value:	0x12c0 0x12d0 0x1340 0x1350 0x13b0 0x13c0 0x1420 0x1440 0x14b0 0x14e0 0x2310 0x2320 0x2380 0x2390 0x23f0 0x2420 0x2490 0x24a0 0x2500 0x2510 0x27c0 0x27f0 0x2850 0x2860 0x28c0 0x28d0 0x2930 0x2940 0x29a0 0x29b0 
	<0x14>
	Attribute:	EIATTR_EXIT_INSTR_OFFSETS
	Format:	EIFMT_SVAL
	Value:	0x2b30 0x2b70 
	<0x15>
	Attribute:	EIATTR_MAX_THREADS
	Format:	EIFMT_SVAL
	Value:	0x100 0x1 0x1 
	<0x16>
	Attribute:	EIATTR_CRS_STACK_SIZE
	Format:	EIFMT_SVAL
	Value:	0x0 


.nv.info._ZN3cub17CUB_200400_750_NS28DeviceReduceSingleTileKernelINS0_18DeviceReducePolicyIlyN4cuda3std3__44plusIvEEE9Policy600ENS0_22TransformInputIteratorIb7NonZeroIaEPalEEPlyS7_llNS5_10__identityEEEvT0_T1_T2_T3_T4_T6_
	<0x1>
	Attribute:	EIATTR_SW_WAR
	Format:	EIFMT_SVAL
	Value:	0x1 
	<0x2>
	Attribute:	EIATTR_CUDA_API_VERSION
	Format:	EIFMT_SVAL
	Value:	0x7d 
	<0x3>
	Attribute:	EIATTR_PARAM_CBANK
	Format:	EIFMT_SVAL
	Value:	0x56 0x310160 
	<0x4>
	Attribute:	EIATTR_CBANK_PARAM_SIZE
	Format:	EIFMT_HVAL
	Value:	0x31
	<0x5>
	Attribute:	EIATTR_KPARAM_INFO
	Format:	EIFMT_SVAL
	Value:	Index : 0x0	Ordinal : 0x5	Offset  : 0x30	Size    : 0x1
		Pointee's logAlignment : 0x0	Space : 0x0	cbank : 0x1f	Parameter Space : CBANK	
	<0x6>
	Attribute:	EIATTR_KPARAM_INFO
	Format:	EIFMT_SVAL
	Value:	Index : 0x0	Ordinal : 0x4	Offset  : 0x28	Size    : 0x8
		Pointee's logAlignment : 0x0	Space : 0x0	cbank : 0x1f	Parameter Space : CBANK	
	<0x7>
	Attribute:	EIATTR_KPARAM_INFO
	Format:	EIFMT_SVAL
	Value:	Index : 0x0	Ordinal : 0x3	Offset  : 0x20	Size    : 0x1
		Pointee's logAlignment : 0x0	Space : 0x0	cbank : 0x1f	Parameter Space : CBANK	
	<0x8>
	Attribute:	EIATTR_KPARAM_INFO
	Format:	EIFMT_SVAL
	Value:	Index : 0x0	Ordinal : 0x2	Offset  : 0x18	Size    : 0x8
		Pointee's logAlignment : 0x0	Space : 0x0	cbank : 0x1f	Parameter Space : CBANK	
	<0x9>
	Attribute:	EIATTR_KPARAM_INFO
	Format:	EIFMT_SVAL
	Value:	Index : 0x0	Ordinal : 0x1	Offset  : 0x10	Size    : 0x8
		Pointee's logAlignment : 0x0	Space : 0x0	cbank : 0x1f	Parameter Space : CBANK	
	<0x10>
	Attribute:	EIATTR_KPARAM_INFO
	Format:	EIFMT_SVAL
	Value:	Index : 0x0	Ordinal : 0x0	Offset  : 0x0	Size    : 0x10
		Pointee's logAlignment : 0x0	Space : 0x0	cbank : 0x1f	Parameter Space : CBANK	
	<0x11>
	Attribute:	EIATTR_MAXREG_COUNT
	Format:	EIFMT_HVAL
	Value:	0xff
	<0x12>
	Attribute:	EIATTR_COOP_GROUP_MASK_REGIDS
	Format:	EIFMT_SVAL
	Value:	0xffffffff 0xffffffff 0xffffffff 0xffffffff 0xffffffff 0xffffffff 0xffffffff 0xffffffff 0xffffffff 0xffffffff 0xffffffff 0xffffffff 0xffffffff 0xffffffff 0xffffffff 0xffffffff 0xffffffff 0xffffffff 0xffffffff 0xffffffff 0xffffffff 0xffffffff 0xffffffff 0xffffffff 0xffffffff 0xffffffff 0xffffffff 0xffffffff 0xffffffff 0xffffffff 
	<0x13>
	Attribute:	EIATTR_COOP_GROUP_INSTR_OFFSETS
	Format:	EIFMT_SVAL
	Value:	0x1220 0x1230 0x12a0 0x12b0 0x1310 0x1320 0x1380 0x13a0 0x1410 0x1440 0x22a0 0x22b0 0x2320 0x2330 0x23a0 0x23b0 0x2420 0x2430 0x2490 0x24a0 0x2750 0x2780 0x27e0 0x27f0 0x2850 0x2860 0x28c0 0x28d0 0x2930 0x2940 
	<0x14>
	Attribute:	EIATTR_EXIT_INSTR_OFFSETS
	Format:	EIFMT_SVAL
	Value:	0x2ac0 0x2b10 0x2b40 0x2b90 
	<0x15>
	Attribute:	EIATTR_MAX_THREADS
	Format:	EIFMT_SVAL
	Value:	0x100 0x1 0x1 
	<0x16>
	Attribute:	EIATTR_CRS_STACK_SIZE
	Format:	EIFMT_SVAL
	Value:	0x0 


.nv.info._ZN3cub17CUB_200400_750_NS11EmptyKernelIvEEvv
	<0x1>
	Attribute:	EIATTR_SW_WAR
	Format:	EIFMT_SVAL
	Value:	0x1 
	<0x2>
	Attribute:	EIATTR_CUDA_API_VERSION
	Format:	EIFMT_SVAL
	Value:	0x7d 
	<0x3>
	Attribute:	EIATTR_MAXREG_COUNT
	Format:	EIFMT_HVAL
	Value:	0xff
	<0x4>
	Attribute:	EIATTR_EXIT_INSTR_OFFSETS
	Format:	EIFMT_SVAL
	Value:	0x10 


.nv.info._Z13write_indicesIlEvPl10TensorDimsIT_EiS2_
	<0x1>
	Attribute:	EIATTR_SW_WAR
	Format:	EIFMT_SVAL
	Value:	0x1 
	<0x2>
	Attribute:	EIATTR_CUDA_API_VERSION
	Format:	EIFMT_SVAL
	Value:	0x7d 
	<0x3>
	Attribute:	EIATTR_PARAM_CBANK
	Format:	EIFMT_SVAL
	Value:	0x5c 0x280160 
	<0x4>
	Attribute:	EIATTR_CBANK_PARAM_SIZE
	Format:	EIFMT_HVAL
	Value:	0x28
	<0x5>
	Attribute:	EIATTR_KPARAM_INFO
	Format:	EIFMT_SVAL
	Value:	Index : 0x0	Ordinal : 0x3	Offset  : 0x20	Size    : 0x8
		Pointee's logAlignment : 0x0	Space : 0x0	cbank : 0x1f	Parameter Space : CBANK	
	<0x6>
	Attribute:	EIATTR_KPARAM_INFO
	Format:	EIFMT_SVAL
	Value:	Index : 0x0	Ordinal : 0x2	Offset  : 0x18	Size    : 0x4
		Pointee's logAlignment : 0x0	Space : 0x0	cbank : 0x1f	Parameter Space : CBANK	
	<0x7>
	Attribute:	EIATTR_KPARAM_INFO
	Format:	EIFMT_SVAL
	Value:	Index : 0x0	Ordinal : 0x1	Offset  : 0x8	Size    : 0x10
		Pointee's logAlignment : 0x0	Space : 0x0	cbank : 0x1f	Parameter Space : CBANK	
	<0x8>
	Attribute:	EIATTR_KPARAM_INFO
	Format:	EIFMT_SVAL
	Value:	Index : 0x0	Ordinal : 0x0	Offset  : 0x0	Size    : 0x8
		Pointee's logAlignment : 0x0	Space : 0x0	cbank : 0x1f	Parameter Space : CBANK	
	<0x9>
	Attribute:	EIATTR_MAXREG_COUNT
	Format:	EIFMT_HVAL
	Value:	0xff
	<0x10>
	Attribute:	EIATTR_EXIT_INSTR_OFFSETS
	Format:	EIFMT_SVAL
	Value:	0x60 0x370 0x790 
	<0x11>
	Attribute:	EIATTR_CRS_STACK_SIZE
	Format:	EIFMT_SVAL
	Value:	0x0 


.nv.callgraph
 <0,-1>
 <0,-2>
 <0,-3>
 <0,-4>


.nv.rel.action
Header : Base Relocation : R_CUDA_CONST_FIELD22_37
Reloc type : Symbol Kind,Addend Shift,Source Position1,length1,Destination Position1,Source Position2,length2,Destination Position2
R_CUDA_CONST_FIELD22_37 : EIVALUE_SYM_KIND_ADDR,0,0,17,37,0,5,54


.text._ZN3cub17CUB_200400_750_NS23DeviceSelectSweepKernelINS0_6detail24device_select_policy_hubIlbiLb0ELb0EE9Policy900ENS0_21CountingInputIteratorIllEENS0_22TransformInputIteratorIb7NonZeroIdEPdlEEPlSD_NS0_13ScanTileStateIiLb1EEENS0_8NullTypeESG_iLb0EEEvT0_T1_T2_T3_T4_T5_T6_T7_iNS2_7vsmem_tE
bar = 1	reg = 49	lmem=0	smem=5120
0xff017624 0x00000a00 0x078e00ff 0x000fe400
0x00007919 0x00000000 0x00002500 0x000e2200
0x00047ab9 0x00006600 0x00000800 0x000fe400
0x04047890 0xffffffff 0x0fffe03f 0x000fe200
0x00037919 0x00000000 0x00002600 0x000e2400
0x00007a24 0x00000400 0x078e0203 0x001fc800
0x00037824 0x00000280 0x078e02ff 0x040fe200
0x00007c0c 0x00000004 0x0bf06270 0x000fd800
0x00008947 0x00002d90 0x03800000 0x000fea00
0x00167919 0x00000000 0x00002100 0x000e2200
0x0000720c 0x000000ff 0x03f05270 0x000fe200
0x00ff7355 0x00000000 0x00100000 0x000fe200
0xff047819 0x0000001f 0x00011403 0x000fe200
0x00007945 0x00002ce0 0x03800000 0x000fe200
0x03157a10 0x00006500 0x07ffe1ff 0x000fe200
0x160c7824 0x00000005 0x078e02ff 0x001fe200
0xff027819 0x00000005 0x00011616 0x000fc800
0xff057819 0x0000001f 0x0001140c 0x000fe400
0x0c067a10 0x00005800 0x07a3e003 0x000fc800
0x05077a10 0x00005900 0x00fe4404 0x000fe200
0x00008947 0x00001b90 0x03800000 0x000fea00
0x00007b1d 0x00000000 0x00000000 0x000fea00
0x03037210 0x0000000c 0x07f1e0ff 0x000fe400
0x0c0a7810 0x00000001 0x07ffe0ff 0x040fe400
0x0c00720c 0x00000015 0x03fc6270 0x000fe200
0x040e7824 0x00000001 0x000e0605 0x000fe200
0x03047a11 0x00005c00 0x078018ff 0x000fc400
0x0c087810 0x00000002 0x07ffe0ff 0x000fe400
0x0a00720c 0x00000015 0x03f66270 0x080fe400
0x03057a11 0x00005d00 0x000f1c0e 0x000fe400
0x0800720c 0x00000015 0x03f46270 0x000fe400
0x0c087810 0x00000003 0x07ffe0ff 0x040fe400
0x0c0c7810 0x00000004 0x07ffe0ff 0x000fc400
0x0410e381 0x00000000 0x001eeb00 0x000ea200
0x0800720c 0x00000015 0x03f26270 0x080fe400
0x0c00720c 0x00000015 0x03f06270 0x000fe200
0x0408b381 0x00000800 0x001eeb00 0x000ee800
0x040aa381 0x00001000 0x001eeb00 0x000f2a00
0x040c9381 0x00001800 0x001eeb00 0x000f6800
0x040e8381 0x00002000 0x001eeb00 0x000f2200
0xff147424 0x00000001 0x078e00ff 0x000fc400
0xff137424 0x00000001 0x078e00ff 0x000fe400
0xff127424 0x00000001 0x078e00ff 0x000fe200
0x00007b1d 0x00000000 0x00000000 0x000fea00
0x1000e22a 0x000000ff 0x03f8d000 0x00406400
0x00107919 0x00000000 0x00000000 0x001e2400
0x0800b22a 0x000000ff 0x03fad000 0x008e8a00
0xff03e807 0x00000001 0x06000000 0x002fc800
0x0314e816 0x00007610 0x00000014 0x000fe200
0x0c00922a 0x000000ff 0x03fcd000 0x020e6200
0xff03b807 0x00000001 0x06800000 0x004fc600
0x0a00a22a 0x000000ff 0x03f8d000 0x0104e200
0x0313b816 0x00007610 0x00000013 0x000fe200
0xff0b7424 0x00000001 0x078e00ff 0x004fe200
0x140a7812 0x0000ffff 0x078ec0ff 0x000fe200
0x0e00822a 0x000000ff 0x03fad000 0x00052200
0xff059807 0x00000001 0x07000000 0x002fe200
0xff0e7424 0x00000001 0x078e00ff 0x004fc600
0xff04a807 0x00000001 0x06000000 0x008fe400
0x050e9816 0x00007610 0x0000000e 0x000fe400
0xff088807 0x00000001 0x06800000 0x010fe400
0x0412a816 0x00007610 0x00000012 0x000fe400
0x080b8816 0x00007610 0x0000000b 0x000fe400
0x13057812 0x0000ffff 0x078ec0ff 0x000fc400
0x12047812 0x0000ffff 0x078ec0ff 0x000fe400
0x0e037812 0x0000ffff 0x078ec0ff 0x000fe400
0x0b087812 0x0000ffff 0x078ec0ff 0x000fe400
0x04097210 0x00000005 0x07ffe00a 0x000fc800
0x08117210 0x00000009 0x07ffe003 0x000fd000
0x11087989 0x04200000 0x000000ff 0x000e6400
0x11080824 0x00000001 0x078e0208 0x002fd000
0x08097989 0x04400000 0x000000ff 0x000e6400
0x08090824 0x00000001 0x078e0209 0x002fd000
0x090c7989 0x04800000 0x000000ff 0x000e6400
0x090c0824 0x00000001 0x078e020c 0x002fd000
0x0c0d7989 0x05000000 0x000000ff 0x000e6400
0x0c0d0824 0x00000001 0x078e020d 0x002fe200
0x1000780c 0x0000001f 0x03f05270 0x001fce00
0x0d0f7989 0x06000000 0x000200ff 0x000e2400
0x0d0f1824 0x00000001 0x078e020f 0x001fe200
0x1000720c 0x000000ff 0x03f25270 0x000fc600
0x0f087824 0x00000001 0x078e0a11 0x000fc800
0x02008388 0x0000000f 0x00004800 0x000fe800
0x00007b1d 0x00000000 0x00000000 0x000fea00
0xff187984 0x00000000 0x00001c00 0x000e2200
0x0200780c 0x00000002 0x03f05270 0x000fc400
0x08097207 0x000000ff 0x00800000 0x000fe400
0x0200720c 0x000000ff 0x03f25270 0x000fe200
0x18197824 0x00000001 0x078e0219 0x001fc800
0x191a7824 0x00000001 0x078e021a 0x040fe200
0x19187207 0x00000018 0x04000000 0x000fe400
0x0200780c 0x00000003 0x03f05270 0x000fc800
0x1a187207 0x00000018 0x04000000 0x000fe400
0x0200720c 0x000000ff 0x03f05270 0x000fc600
0x180d7824 0x00000001 0x078e0209 0x000fe400
0x1b097824 0x00000001 0x078e021a 0x000fc600
0x08027207 0x0000000d 0x04000000 0x000fe200
0x00001947 0x00000950 0x03800000 0x000fea00
0x1600720c 0x000000ff 0x03f05270 0x000fe200
0xff107624 0x00000300 0x078e00ff 0x000fe200
0xff0f7212 0x00000016 0x078e33ff 0x000fc800
0x1000780c 0x000001f4 0x03f26070 0x000fe200
0x00187824 0x00000001 0x078e020f 0x000fca00
0xff0d8424 0x00000008 0x078e00ff 0x000fe200
0xff008388 0x00002c09 0x00000800 0x0001e200
0xff088424 0x00000064 0x078e00ff 0x000fe400
0x000c8625 0x00006200 0x078e020d 0x000fd000
0x0c008385 0x00000100 0x00114b08 0x0001e200
0x00009947 0x00000030 0x03800000 0x000fea00
0x0000795d 0x000001c2 0x03a00000 0x000fe200
0x00007946 0x00000000 0x03800000 0x000fe200
0x00007947 0x00000010 0x03800000 0x000fea00
0x00007992 0x00000000 0x00000000 0x000fea00
0xff1b7424 0x00000008 0x078e00ff 0x000fc800
0x181a7625 0x00006200 0x078e021b 0x000fd000
0x1a0c7980 0x00000100 0x00114b00 0x00116200
0x01ff7355 0x00000000 0x00100000 0x000fe200
0x00017945 0x00000120 0x03800000 0x000fe400
0x0c00780c 0x00000063 0x03f45270 0x020fe200
0x00007947 0x00004cc2 0x03800000 0x000ff600
0x00087806 0x00000000 0x050e0100 0x000fc800
0x0800720c 0x000000ff 0x03f45070 0x000fd800
0x0000a947 0x000000c0 0x03800000 0x000fea00
0x00009947 0x00000030 0x03800000 0x000fea00
0x0000795d 0x0000015e 0x03a00000 0x000fe200
0x00007946 0x00000000 0x03800000 0x000fe200
0x00007947 0x00000010 0x03800000 0x000fea00
0x00007992 0x00000000 0x00000000 0x000fea00
0x1a0c7980 0x00000100 0x00114b00 0x00036400
0x00087806 0x00000000 0x038e0100 0x000fe200
0x00007946 0x00000000 0x03800000 0x000fe200
0x00047886 0x00000000 0x038e0100 0x000fe400
0x08ff7c12 0x00000004 0x0f840cff 0x000fd800
0x0000a947 0xffffff01 0x0383ffff 0x023fea00
0x00007947 0xffffffa0 0x0383ffff 0x000fea00
0x00017941 0x00000000 0x03800000 0x000fea00
0x00177919 0x00000000 0x00000000 0x000e6200
0x0c00780c 0x00000065 0x03f45270 0x000fe200
0x00007947 0x00004bf2 0x03800000 0x000ff400
0x00087919 0x00000000 0x00003c00 0x000ea200
0x000f7806 0x00000000 0x050e0100 0x000fe400
0x17197810 0x00000002 0x07ffe0ff 0x002fe400
0x0f0f7812 0x80000000 0x078eec08 0x004fcc00
0x000f7301 0x0000000f 0x00000000 0x000e7000
0x00107300 0x0000000f 0x000e0000 0x002e6400
0x10117810 0x0000001f 0x07ffe1ff 0x002fc800
0x1700720c 0x00000011 0x03f46270 0x000fc800
0x0d107989 0x08200000 0x000e0011 0x000e6400
0x10107207 0x000000ff 0x05000000 0x002fe400
0x1900720c 0x00000011 0x03f44270 0x000fc600
0x10107824 0x00000001 0x078e020d 0x000fd000
0x101a7989 0x08400000 0x000e0011 0x001e2400
0x1a1b7207 0x000000ff 0x05000000 0x001fe400
0x171a7810 0x00000004 0x07ffe0ff 0x000fc600
0x101c7824 0x00000001 0x078e021b 0x000fe200
0x1a00720c 0x00000011 0x03f44270 0x000fe400
0x171b7810 0x00000008 0x07ffe0ff 0x000fca00
0x1c0f7989 0x08800000 0x000e0011 0x000e2400
0x0f0f7207 0x000000ff 0x05000000 0x001fe400
0x1b00720c 0x00000011 0x03f44270 0x000fc600
0x1c1e7824 0x00000001 0x078e020f 0x000fd000
0x1e0d7989 0x09000000 0x000e0011 0x000e2400
0x0d0d7207 0x000000ff 0x05000000 0x001fca00
0x1e267824 0x00000001 0x078e020d 0x000fd000
0x26107989 0x0a000000 0x000e0011 0x00006400
0x171e7810 0x00000010 0x07ffe0ff 0x000fe200
0x01ff7355 0x00000000 0x00100000 0x000fe200
0x00017945 0x00000440 0x03800000 0x000fe400
0x1e00720c 0x00000011 0x03f44270 0x000fc800
0x101f7207 0x000000ff 0x05000000 0x002fca00
0x1f1f7824 0x00000001 0x078e0226 0x000fe400
0x0c00780c 0x00000065 0x03f45270 0x000fe200
0x00007947 0x00004cb2 0x03800000 0x000ff600
0x000c7806 0x00000000 0x010e0100 0x000fe200
0x00047886 0x00000000 0x038e0100 0x000fc600
0x0c0c7c12 0x00000004 0x0f8ec0ff 0x000fc800
0x0c007c0c 0x00000004 0x0bf42070 0x000fd800
0x0000a947 0x00000390 0x03800000 0x000fea00
0x18187810 0xffffffe0 0x07ffe0ff 0x000fe200
0xff1d7424 0x00000008 0x078e00ff 0x000fc800
0x181c7625 0x00006200 0x078e021d 0x000fd000
0x1c0c7980 0x00000100 0x00114b00 0x00036200
0x02ff7355 0x00000000 0x00100000 0x000fe200
0x00027945 0x00000120 0x03800000 0x000fe400
0x0c00780c 0x00000063 0x03f45270 0x020fe200
0x00007947 0x00004c42 0x03800000 0x000ff600
0x000f7806 0x00000000 0x050e0100 0x000fc800
0x0f00720c 0x000000ff 0x03f45070 0x000fd800
0x0000a947 0x000000c0 0x03800000 0x000fea00
0x00009947 0x00000030 0x03800000 0x000fea00
0x0000795d 0x0000015e 0x03a00000 0x000fe200
0x00007946 0x00000000 0x03800000 0x000fe200
0x00007947 0x00000010 0x03800000 0x000fea00
0x00007992 0x00000000 0x00000000 0x000fea00
0x1c0c7980 0x00000100 0x00114b00 0x00056400
0x000f7806 0x00000000 0x038e0100 0x000fe200
0x00007946 0x00000000 0x03800000 0x000fe200
0x00047886 0x00000000 0x038e0100 0x000fe400
0x0fff7c12 0x00000004 0x0f840cff 0x000fd800
0x0000a947 0xffffff01 0x0383ffff 0x027fea00
0x00007947 0xffffffa0 0x0383ffff 0x000fea00
0x00027941 0x00000000 0x03800000 0x000fea00
0x0c00780c 0x00000065 0x03f45270 0x000fe200
0x00007947 0x00004b82 0x03800000 0x000ff600
0x000f7806 0x00000000 0x050e0100 0x000fc800
0x0f0f7812 0x80000000 0x078eec08 0x000fcc00
0x000f7301 0x0000000f 0x00000000 0x000eb000
0x00107300 0x0000000f 0x000e0000 0x004ea400
0x10117810 0x0000001f 0x07ffe1ff 0x005fc800
0x1700720c 0x00000011 0x03f46270 0x000fc800
0x0d107989 0x08200000 0x000e0011 0x000e2400
0x10107207 0x000000ff 0x05000000 0x001fe400
0x1900720c 0x00000011 0x03f44270 0x000fc600
0x10107824 0x00000001 0x078e020d 0x000fd000
0x101c7989 0x08400000 0x000e0011 0x002e2400
0x1c1d7207 0x000000ff 0x05000000 0x001fe400
0x1a00720c 0x00000011 0x03f44270 0x000fc600
0x101c7824 0x00000001 0x078e021d 0x000fd000
0x1c1d7989 0x08800000 0x000e0011 0x000e2400
0x1d1d7207 0x000000ff 0x05000000 0x001fe400
0x1b00720c 0x00000011 0x03f44270 0x000fc600
0x1c207824 0x00000001 0x078e021d 0x000fd000
0x200d7989 0x09000000 0x000e0011 0x000e2400
0x0d0d7207 0x000000ff 0x05000000 0x001fca00
0x20267824 0x00000001 0x078e020d 0x000fd000
0x26107989 0x0a000000 0x000e0011 0x00006400
0x1e00720c 0x00000011 0x03f44270 0x000fc800
0x10107207 0x000000ff 0x05000000 0x002fc800
0x261f7210 0x00000010 0x07ffe01f 0x000fe400
0x000d7806 0x00000000 0x038e0100 0x000fe200
0x00007946 0x00000000 0x03800000 0x000fe200
0x00047886 0x00000000 0x038e0100 0x000fe400
0x0dff7c12 0x00000004 0x0f840cff 0x000fd800
0x0000a947 0xfffffc11 0x0383ffff 0x001fea00
0x00007947 0xffffffa0 0x0383ffff 0x000fea00
0x00017941 0x00000000 0x03800000 0x000fea00
0xff0d8424 0x00000008 0x078e00ff 0x000fe200
0x1700720c 0x000000ff 0x03f25270 0x000fe200
0x09118824 0x00000001 0x078e021f 0x001fe400
0xff108424 0x00000065 0x078e00ff 0x000fe400
0x00088625 0x00006200 0x078e020d 0x000fc800
0xff0d7224 0x000000ff 0x078e0002 0x000fc800
0x08008385 0x00000100 0x00114b10 0x0001e200
0xff0d9224 0x000000ff 0x078e001f 0x000fc600
0xff008388 0x00002811 0x00000800 0x0001e800
0xff008388 0x0000241f 0x00000800 0x0001e800
0xff009388 0x0000141f 0x00000800 0x0001e400
0x00007948 0xffffffff 0x03800000 0x000fe800
0x00007b1d 0x00000000 0x00000000 0x000fea00
0xff027984 0x00001400 0x00001800 0x000e6200
0x1600720c 0x000000ff 0x03f05270 0x000fc400
0x15157810 0x00000280 0x07ffe1ff 0x000fe200
0xff187984 0x00002000 0x00001c00 0x000ea200
0x02027207 0x000000ff 0x00000000 0x002fc600
0x1b097824 0x00000001 0x078e0a15 0x005fe400
0x020d7824 0x00000001 0x078e020d 0x000fe400
0x1a1a7824 0x00000001 0x078e0a15 0x000fe200
0x0900780c 0x00000080 0x03f04270 0x000fe200
0x0a0a7824 0x00000001 0x078e020d 0x000fc800
0x05057824 0x00000001 0x078e020a 0x000fc800
0x04047824 0x00000001 0x078e0205 0x000fc800
0x03037824 0x00000001 0x078e0204 0x000fe200
0x00000947 0x00000280 0x03800000 0x000fea00
0x14007816 0x00009910 0x000000ff 0x000fe400
0x0d00720c 0x0000001a 0x03f06270 0x080fe400
0x13027816 0x00009910 0x000000ff 0x000fe400
0x0a00720c 0x0000001a 0x03f26270 0x000fe400
0x0000720c 0x000000ff 0x00702670 0x000fe400
0x12007816 0x00009910 0x000000ff 0x000fc400
0x0200720c 0x000000ff 0x00f22670 0x000fe400
0x0500720c 0x0000001a 0x03f46270 0x080fe400
0x0e027816 0x00009910 0x000000ff 0x000fe400
0x0400720c 0x0000001a 0x03f66270 0x000fe400
0x0000720c 0x000000ff 0x01742670 0x000fe200
0xff088424 0x00000008 0x078e00ff 0x000fe200
0x0200720c 0x000000ff 0x01f62670 0x000fc400
0xff0f9424 0x00000008 0x078e00ff 0x000fe200
0x06109810 0x00000001 0x07f9e0ff 0x000fe200
0x0d088625 0x00005e00 0x078e0208 0x000fe200
0x0b007816 0x00009910 0x000000ff 0x000fc600
0x0a0c9625 0x00005e00 0x078e020f 0x000fe400
0x0612a810 0x00000002 0x07fbe0ff 0x040fe400
0xff0ea424 0x00000008 0x078e00ff 0x000fe200
0x0614b810 0x00000003 0x07fde0ff 0x000fe200
0xff13b424 0x00000008 0x078e00ff 0x000fe200
0x08008386 0x00000006 0x0010eb00 0x0001e200
0x050ea625 0x00005e00 0x078e020e 0x000fe200
0x0300720c 0x0000001a 0x03f06270 0x000fc600
0xff119224 0x000000ff 0x020e0607 0x000fe200
0x0000720c 0x000000ff 0x00702670 0x000fe200
0x0404b625 0x00005e00 0x078e0213 0x000fc800
0xff13a224 0x000000ff 0x028e0607 0x100fe400
0xff15b224 0x000000ff 0x030e0607 0x000fe200
0x0c009386 0x00000010 0x0010eb00 0x0001ea00
0x0e00a386 0x00000012 0x0010eb00 0x0001e800
0x0400b386 0x00000014 0x0010eb00 0x0001e200
0x00000947 0x00001b20 0x03800000 0x000fea00
0x06047810 0x00000004 0x07f1e0ff 0x001fe200
0xff027424 0x00000008 0x078e00ff 0x000fc800
0x03027625 0x00005e00 0x078e0202 0x000fc800
0xff057224 0x000000ff 0x000e0607 0x000fd000
0x02007386 0x00000004 0x0010eb00 0x0001e200
0x00007947 0x00001ac0 0x03800000 0x000fea00
0x14027816 0x00009910 0x000000ff 0x000fe200
0x00007b1d 0x00000000 0x00000000 0x000fea00
0x13137816 0x00009910 0x000000ff 0x000fe400
0x0200720c 0x000000ff 0x03f85270 0x000fe400
0x0e0e7816 0x00009910 0x000000ff 0x000fe200
0xff027224 0x000000ff 0x078e0013 0x000fe200
0x0b0c7816 0x00009910 0x000000ff 0x000fc400
0x12087816 0x00009910 0x000000ff 0x000fe200
0xff0b7224 0x000000ff 0x078e000e 0x000fe200
0x0200720c 0x000000ff 0x03f65270 0x000fe200
0xff027224 0x000000ff 0x078e000c 0x000fe200
0x0800720c 0x000000ff 0x03f45270 0x000fe400
0x0b00720c 0x000000ff 0x03f25270 0x000fe200
0x0d0f4824 0x00000001 0x078e0a19 0x000fe200
0x0200720c 0x000000ff 0x03f05270 0x000fcc00
0x0a113824 0x00000001 0x078e0a19 0x100fe200
0x060a3810 0x00000001 0x07fde0ff 0x040fe200
0x0f004388 0x00000006 0x00008a00 0x000fe200
0x06022810 0x00000002 0x07fbe0ff 0x000fe200
0x04151824 0x00000001 0x078e0a19 0x000fe200
0x06041810 0x00000003 0x07f9e0ff 0x000fe200
0xff0b3224 0x000000ff 0x030e0607 0x000fe400
0x03170824 0x00000001 0x078e0a19 0x100fe400
0x05132824 0x00000001 0x078e0a19 0x000fc400
0xff032224 0x000000ff 0x028e0607 0x100fe200
0x060c0810 0x00000004 0x07fde0ff 0x000fe200
0xff051224 0x000000ff 0x020e0607 0x100fe200
0x11003388 0x0000000a 0x00008a00 0x000fe600
0xff0d0224 0x000000ff 0x030e0607 0x000fe400
0x13002388 0x00000002 0x00008a00 0x000fe800
0x15001388 0x00000004 0x00008a00 0x000fe800
0x17000388 0x0000000c 0x00008a00 0x000fe800
0x00007b1d 0x00000000 0x00000000 0x000fea00
0x1600720c 0x00000009 0x03f06270 0x000fd800
0x00000947 0x00001890 0x03800000 0x000fea00
0x1b1b7a10 0x00006500 0x07ffe0ff 0x000fe200
0x01ff7355 0x00000000 0x00100000 0x000fe200
0x00017945 0x000001b0 0x03800000 0x000fe400
0x161b7810 0xfffffd7f 0x07ffe11b 0x000fca00
0x001b7824 0xfffffd80 0x078e021b 0x000fca00
0x1b007811 0x00000001 0x078fc8ff 0x040fe400
0x1b00780c 0x00000180 0x03f26070 0x000fe400
0x00047812 0x00000003 0x0780c0ff 0x000fe200
0xff007224 0x000000ff 0x078e0016 0x000fd600
0x00008947 0x00000130 0x03800000 0x000fea00
0x16027824 0x00000001 0x078e0219 0x000fe400
0xff037424 0x00000008 0x078e00ff 0x000fe400
0xff067224 0x000000ff 0x078e0004 0x000fe400
0x02027625 0x00005e00 0x078e0203 0x000fc800
0xff087224 0x000000ff 0x078e0002 0x000fe400
0xff0b7224 0x000000ff 0x078e0003 0x000fe400
0x16077824 0x00000008 0x078e00ff 0x000fe400
0xff007224 0x000000ff 0x078e0016 0x000fcc00
0x07027984 0x00000000 0x00001a00 0x00106200
0xff047224 0x000000ff 0x078e0008 0x000fe200
0x06067810 0xffffffff 0x07ffe0ff 0x000fe200
0xff057224 0x000000ff 0x078e000b 0x000fe200
0x08087810 0x00000400 0x07f5e0ff 0x000fc400
0x0600720c 0x000000ff 0x03f05270 0x000fe400
0x00007810 0x00000080 0x07ffe0ff 0x000fe200
0xff0b7224 0x000000ff 0x010e060b 0x000fe200
0x07077810 0x00000400 0x07ffe0ff 0x001fe200
0x04007386 0x00000002 0x0010eb00 0x0021ee00
0x00000947 0xffffff50 0x0383ffff 0x000fea00
0x00017941 0x00000000 0x03800000 0x000fea00
0x00009947 0x000016a0 0x03800000 0x000fea00
0x09027824 0x00000001 0x078e0a00 0x001fe200
0x01ff7355 0x00000000 0x00100000 0x000fe200
0xff037424 0x00000008 0x078e00ff 0x000fe200
0x00017945 0x00000310 0x03800000 0x000fe200
0x0000781c 0x00000000 0x03f0f070 0x000fc400
0x0200780c 0x00000600 0x03f24270 0x000fe200
0x00027824 0x00000001 0x078e0219 0x040fe200
0x00047811 0x00000800 0x078e18ff 0x000fc600
0x02027625 0x00005e00 0x078e0203 0x000fce00
0x00009947 0x000002a0 0x03800000 0x000fea00
0x0000781c 0x00000000 0x03f0e170 0x000fe400
0x09057810 0xfffffa00 0x07ffe0ff 0x000fe400
0x04067984 0xfff80000 0x00001a00 0x000e2200
0x00007810 0x00000800 0x07ffe0ff 0x000fc600
0x040a7984 0xfffc0000 0x00001a00 0x000e6200
0x0000720c 0x00000005 0x03f26270 0x000fc600
0x040c7984 0x00000000 0x00001a00 0x000ea800
0x040e7984 0x00040000 0x00001a00 0x000ee800
0x04107984 0x00080000 0x00001a00 0x000f2800
0x04127984 0x000c0000 0x00001a00 0x000f6800
0x04147984 0x00100000 0x00001a00 0x000e2800
0x04187984 0x00140000 0x00001a00 0x000e6800
0x041c7984 0x00180000 0x00001a00 0x000ea800
0x041e7984 0x001c0000 0x00001a00 0x000ee800
0x04207984 0x00200000 0x00001a00 0x000f2800
0x04227984 0x00240000 0x00001a00 0x000f6800
0x04247984 0x00280000 0x00001a00 0x000f6800
0x04267984 0x002c0000 0x00001a00 0x000f6800
0x04287984 0x00300000 0x00001a00 0x000f6800
0x042a7984 0x00340000 0x00001a00 0x00036800
0x02007386 0x00000006 0x0010eb00 0x0011e200
0x04047810 0x00004000 0x07ffe0ff 0x002fc600
0x02007386 0x0004000a 0x0010eb00 0x000fe800
0x02007386 0x0008000c 0x0010eb00 0x004fe800
0x02007386 0x000c000e 0x0010eb00 0x008fe200
0x02067810 0x00004000 0x07f5e0ff 0x001fc600
0x02007386 0x00100010 0x0010eb00 0x010fe400
0xff077224 0x000000ff 0x010e0603 0x000fe400
0x02007386 0x00140012 0x0010eb00 0x020fe800
0x02007386 0x00180014 0x0010eb00 0x000fe800
0x02007386 0x001c0018 0x0010eb00 0x000fe800
0x02007386 0x0020001c 0x0010eb00 0x000fe800
0x02007386 0x0024001e 0x0010eb00 0x000fe800
0x02007386 0x00280020 0x0010eb00 0x000fe800
0x02007386 0x002c0022 0x0010eb00 0x000fe800
0x02007386 0x00300024 0x0010eb00 0x000fe800
0x02007386 0x00340026 0x0010eb00 0x000fe800
0x02007386 0x00380028 0x0010eb00 0x000fe800
0x02007386 0x003c002a 0x0010eb00 0x0001e400
0xff027224 0x000000ff 0x078e0006 0x001fc400
0xff037224 0x000000ff 0x078e0007 0x000fe200
0x00009947 0xfffffd80 0x0383ffff 0x000fea00
0x00017941 0x00000000 0x03800000 0x000fea00
0x09057824 0x00000001 0x078e0a00 0x000fe200
0x01ff7355 0x00000000 0x00100000 0x000fe200
0x00017945 0x000001a0 0x03800000 0x000fe600
0x0500780c 0x00000200 0x03f24270 0x000fd800
0x00009947 0x00000170 0x03800000 0x000fea00
0x04067984 0xfff80000 0x00001a00 0x000e2200
0x02057810 0x00002000 0x07f3e0ff 0x000fe400
0x0000781c 0x00000000 0x03f0e170 0x000fe200
0x040a7984 0xfffc0000 0x00001a00 0x000e6200
0x00007810 0x00000400 0x07ffe0ff 0x000fe200
0xff087224 0x000000ff 0x008e0603 0x000fe400
0x040c7984 0x00000000 0x00001a00 0x000ea800
0x040e7984 0x00040000 0x00001a00 0x000ee800
0x04107984 0x00080000 0x00001a00 0x000f2800
0x04127984 0x000c0000 0x00001a00 0x000f6800
0x04147984 0x00100000 0x00001a00 0x000f6800
0x04187984 0x00140000 0x00001a00 0x00016400
0x04047810 0x00002000 0x07ffe0ff 0x001fc400
0x02007386 0x00000006 0x0010eb00 0x000fe800
0x02007386 0x0004000a 0x0010eb00 0x002fe800
0x02007386 0x0008000c 0x0010eb00 0x004fe800
0x02007386 0x000c000e 0x0010eb00 0x008fe800
0x02007386 0x00100010 0x0010eb00 0x010fe800
0x02007386 0x00140012 0x0010eb00 0x020fe800
0x02007386 0x00180014 0x0010eb00 0x000fe800
0x02007386 0x001c0018 0x0010eb00 0x0001e400
0xff027224 0x000000ff 0x078e0005 0x001fc400
0xff037224 0x000000ff 0x078e0008 0x000fc600
0x00017941 0x00000000 0x03800000 0x000fea00
0x0000720c 0x00000009 0x00701670 0x000fd800
0x00008947 0x00001160 0x03800000 0x000fea00
0x04067984 0xfff80000 0x00001a00 0x000e2800
0x04087984 0xfffc0000 0x00001a00 0x000e6800
0x040a7984 0x00000000 0x00001a00 0x000ea800
0x040c7984 0x00040000 0x00001a00 0x000ee800
0x02007386 0x00000006 0x0010eb00 0x0011e800
0x02007386 0x00040008 0x0010eb00 0x0021e800
0x02007386 0x0008000a 0x0010eb00 0x0041e800
0x02007386 0x000c000c 0x0010eb00 0x0081e200
0x00007947 0x000010d0 0x03800000 0x000fea00
0x00007b1d 0x00000000 0x00000000 0x000fea00
0x03037210 0x0000000c 0x07f1e0ff 0x000fc400
0x0c00720c 0x00000015 0x03fa6270 0x0c0fe400
0x0c007810 0x00000001 0x07ffe0ff 0x000fe200
0x04047824 0x00000001 0x000e0605 0x000fe200
0x030e7a11 0x00005c00 0x078018ff 0x040fe400
0x0000720c 0x00000015 0x03f86270 0x000fe400
0x030f7a11 0x00005d00 0x000f1c04 0x000fe400
0x0c087810 0x00000002 0x07ffe0ff 0x000fc800
0x0800720c 0x00000015 0x03f66270 0x000fe400
0x0e10d381 0x00000000 0x001eeb00 0x0000a200
0x0c007810 0x00000003 0x07ffe0ff 0x000fc600
0x0e04c381 0x00000800 0x001eeb00 0x0000e200
0x0000720c 0x00000015 0x03f46270 0x000fca00
0x0e08b381 0x00001000 0x001eeb00 0x00012200
0x0c0c7810 0x00000004 0x07ffe0ff 0x000fcc00
0x0e0aa381 0x00001800 0x001eeb00 0x00016200
0x0c00720c 0x00000015 0x03f26270 0x000fd800
0x0e0c9381 0x00002000 0x001eeb00 0x00016200
0xff007424 0x00000001 0x078e00ff 0x000fe400
0xff0f7424 0x00000001 0x078e00ff 0x001fe400
0xff0e7424 0x00000001 0x078e00ff 0x000fe200
0x00177919 0x00000000 0x00000000 0x000e2800
0x00007b1d 0x00000000 0x00000000 0x000fea00
0x1000d22a 0x000000ff 0x03f0d000 0x004e4800
0x0400c22a 0x000000ff 0x03fcd000 0x008e8a00
0xff03d807 0x00000001 0x04000000 0x002fcc00
0x0800b22a 0x000000ff 0x03f0d000 0x010e6200
0xff05c807 0x00000001 0x07000000 0x004fc600
0x0a00a22a 0x000000ff 0x03fcd000 0x020ea200
0xff047424 0x00000001 0x078e00ff 0x000fc800
0xff08b807 0x00000001 0x04000000 0x002fe400
0x0304d816 0x00007610 0x00000004 0x000fc800
0x0000781c 0x00000000 0x03f0f070 0x000fe400
0xff09a807 0x00000001 0x07000000 0x004fe400
0x0500c816 0x00007610 0x00000000 0x000fe400
0x080fb816 0x00007610 0x0000000f 0x000fe400
0x090ea816 0x00007610 0x0000000e 0x000fe400
0x04117812 0x0000ffff 0x078ec0ff 0x000fc400
0x00127812 0x0000ffff 0x078ec0ff 0x000fe400
0x0f137812 0x0000ffff 0x078ec0ff 0x000fe200
0x0c00922a 0x000000ff 0x03f0d000 0x000e6200
0x0e147812 0x0000ffff 0x078ec0ff 0x000fe400
0x13037210 0x00000012 0x07ffe011 0x000fca00
0x14037824 0x00000001 0x078e0203 0x000fca00
0x03057810 0x00000001 0x07ffe0ff 0x000fca00
0xff058224 0x000000ff 0x078e0203 0x002fd000
0x05087989 0x04200000 0x000200ff 0x000e6400
0x08081824 0x00000001 0x078e0205 0x002fd000
0x08037989 0x04400000 0x000200ff 0x000e6400
0x08031824 0x00000001 0x078e0203 0x002fd000
0x030c7989 0x04800000 0x000200ff 0x000e6400
0x030c1824 0x00000001 0x078e020c 0x002fd000
0x0c0d7989 0x05000000 0x000200ff 0x000e6400
0x0c0d1824 0x00000001 0x078e020d 0x002fd000
0x0d107989 0x06000000 0x000200ff 0x000e6200
0x1700780c 0x0000001f 0x03f45270 0x001fe200
0x0d101824 0x00000001 0x078e0210 0x002fd600
0x0200a388 0x00000010 0x00004800 0x000fe800
0x00007b1d 0x00000000 0x00000000 0x000fea00
0xff087984 0x00000000 0x00001c00 0x000e2200
0x0200780c 0x00000002 0x03f25270 0x000fc400
0x0200780c 0x00000003 0x03f45270 0x000fe200
0x10057824 0x00000001 0x078e0a05 0x000fe200
0x1700720c 0x000000ff 0x03f65270 0x000fc800
0x05057207 0x000000ff 0x01800000 0x000fe200
0x08097824 0x00000001 0x078e0209 0x001fc800
0x090a7824 0x00000001 0x078e020a 0x040fe200
0x09087207 0x00000008 0x04800000 0x000fe400
0x0200720c 0x000000ff 0x03f25270 0x000fe400
0x0a087207 0x00000008 0x05000000 0x040fe400
0x0a157210 0x00000015 0x07ffe00b 0x000fe400
0x08087207 0x000000ff 0x00800000 0x000fe400
0x151a7810 0xfffffd80 0x07ffe0ff 0x000fc600
0x08177824 0x00000001 0x078e0205 0x000fe200
0x1a00780c 0x00000080 0x03f24270 0x000fc600
0x11117824 0x00000001 0x078e0217 0x000fc800
0x12157824 0x00000001 0x078e0211 0x000fc800
0x13057824 0x00000001 0x078e0215 0x000fc800
0x14037824 0x00000001 0x078e0205 0x000fe200
0x00001947 0x00000270 0x03800000 0x000fea00
0x04047816 0x00009910 0x000000ff 0x000fe400
0x00027816 0x00009910 0x000000ff 0x000fe400
0x1100720c 0x0000001a 0x03f46270 0x080fe200
0xff007224 0x000000ff 0x078e0004 0x000fe200
0x1700720c 0x0000001a 0x03f26270 0x000fe400
0x0200720c 0x000000ff 0x01742670 0x000fe400
0x0000720c 0x000000ff 0x00f22670 0x000fc400
0x0f007816 0x00009910 0x000000ff 0x000fe400
0x1500720c 0x0000001a 0x03f66270 0x080fe400
0x0e027816 0x00009910 0x000000ff 0x000fe400
0x0500720c 0x0000001a 0x03f86270 0x000fe400
0x0000720c 0x000000ff 0x01f62670 0x000fe200
0xff0aa424 0x00000008 0x078e00ff 0x000fe200
0x0200720c 0x000000ff 0x02782670 0x000fe200
0xff089424 0x00000008 0x078e00ff 0x000fe200
0x060ea810 0x00000001 0x07fde0ff 0x000fe200
0x110aa625 0x00005e00 0x078e020a 0x000fe200
0x0300720c 0x0000001a 0x04706670 0x000fc600
0xff0fa224 0x000000ff 0x030e0607 0x000fe400
0x17089625 0x00005e00 0x078e0208 0x000fe200
0x0610b810 0x00000002 0x07fbe0ff 0x000fc600
0xff0cb424 0x00000008 0x078e00ff 0x000fe200
0x0612c810 0x00000003 0x07fde0ff 0x000fe200
0xff04c424 0x00000008 0x078e00ff 0x000fe400
0x150cb625 0x00005e00 0x078e020c 0x000fe200
0x08009386 0x00000006 0x0010eb00 0x0001e600
0xff11b224 0x000000ff 0x028e0607 0x000fe200
0x0a00a386 0x0000000e 0x0010eb00 0x0001e200
0x0504c625 0x00005e00 0x078e0204 0x000fc800
0xff13c224 0x000000ff 0x030e0607 0x000fe400
0x0c00b386 0x00000010 0x0010eb00 0x0001ec00
0x0400c386 0x00000012 0x0010eb00 0x0001e200
0x00000947 0x000009b0 0x03800000 0x000fea00
0x06047810 0x00000004 0x07f1e0ff 0x001fe200
0xff027424 0x00000008 0x078e00ff 0x000fc800
0x03027625 0x00005e00 0x078e0202 0x000fc800
0xff057224 0x000000ff 0x000e0607 0x000fd000
0x02007386 0x00000004 0x0010eb00 0x0001e200
0x00007947 0x00000950 0x03800000 0x000fea00
0x00027816 0x00009910 0x000000ff 0x000fe200
0x00007b1d 0x00000000 0x00000000 0x000fea00
0x0200720c 0x000000ff 0x03f25270 0x000fe400
0x0f0f7816 0x00009910 0x000000ff 0x000fe400
0x04007816 0x00009910 0x000000ff 0x000fc400
0x0e0e7816 0x00009910 0x000000ff 0x000fe200
0xff027224 0x000000ff 0x078e000f 0x000fe200
0x0000720c 0x000000ff 0x03fa5270 0x000fc600
0xff007224 0x000000ff 0x078e000e 0x000fe200
0x0200720c 0x000000ff 0x03f45270 0x000fe400
0x06081810 0x00000001 0x07f9e0ff 0x000fe400
0x0000720c 0x000000ff 0x03f65270 0x000fe400
0x06000810 0x00000004 0x07fde0ff 0x040fe200
0xff091224 0x000000ff 0x020e0607 0x100fe200
0x17005388 0x00000006 0x00008a00 0x0001e600
0xff130224 0x000000ff 0x030e0607 0x000fe200
0x060c2810 0x00000002 0x07fbe0ff 0x000fc600
0x11001388 0x00000008 0x00008a00 0x000fe200
0x060e3810 0x00000003 0x07f9e0ff 0x000fe200
0xff0d2224 0x000000ff 0x028e0607 0x100fe400
0xff060224 0x000000ff 0x078e0000 0x001fe400
0xff0f3224 0x000000ff 0x020e0607 0x000fe400
0xff070224 0x000000ff 0x078e0013 0x000fe400
0x15002388 0x0000000c 0x00008a00 0x000fe800
0x05003388 0x0000000e 0x00008a00 0x000fe800
0x03000388 0x00000006 0x00008a00 0x000fe800
0x00007b1d 0x00000000 0x00000000 0x000fea00
0x1600720c 0x0000001a 0x03f06270 0x000fd800
0x00000947 0x00000780 0x03800000 0x000fea00
0x0a0b7a10 0x00006500 0x07ffe00b 0x000fe200
0x01ff7355 0x00000000 0x00100000 0x000fe200
0x00017945 0x00000180 0x03800000 0x000fe200
0xff057224 0x000000ff 0x078e0016 0x000fe200
0x160b7810 0xfffffd7f 0x07ffe10b 0x000fc800
0x0b007811 0x00000001 0x078fc8ff 0x040fe400
0x0b00780c 0x00000180 0x03f26070 0x000fe400
0x00007812 0x00000003 0x0780c0ff 0x000fd800
0x00008947 0x00000110 0x03800000 0x000fea00
0xff037424 0x00000008 0x078e00ff 0x000fe400
0x16047824 0x00000008 0x078e00ff 0x040fe400
0x16027625 0x00005e00 0x078e0203 0x000fc800
0xff087224 0x000000ff 0x078e0002 0x000fe400
0xff097224 0x000000ff 0x078e0003 0x000fe400
0xff057224 0x000000ff 0x078e0016 0x000fe400
0x04027984 0x00000000 0x00001a00 0x00106200
0xff067224 0x000000ff 0x078e0008 0x000fe200
0x00007810 0xffffffff 0x07ffe0ff 0x000fe200
0xff077224 0x000000ff 0x078e0009 0x000fe200
0x08087810 0x00000400 0x07f5e0ff 0x000fe400
0x0000720c 0x000000ff 0x03f05270 0x000fc400
0x05057810 0x00000080 0x07ffe0ff 0x000fe200
0xff097224 0x000000ff 0x010e0609 0x000fe200
0x04047810 0x00000400 0x07ffe0ff 0x001fe200
0x06007386 0x00000002 0x0010eb00 0x0021ee00
0x00000947 0xffffff50 0x0383ffff 0x000fea00
0x00017941 0x00000000 0x03800000 0x000fea00
0x00009947 0x000005c0 0x03800000 0x000fea00
0x1a007824 0x00000001 0x078e0a05 0x000fe200
0x01ff7355 0x00000000 0x00100000 0x000fe200
0xff027424 0x00000008 0x078e00ff 0x001fe200
0x00017945 0x00000320 0x03800000 0x000fe400
0x0000780c 0x00000600 0x03f24270 0x000fe200
0x05027625 0x00005e00 0x078e0202 0x040fe200
0x05007811 0x00000800 0x078e18ff 0x000fc800
0x02027810 0x00000800 0x07f1e0ff 0x000fca00
0xff037224 0x000000ff 0x000e0603 0x000fe200
0x0000781c 0x00000000 0x03f0f070 0x000fe200
0x00009947 0x000002a0 0x03800000 0x000fec00
0x0000781c 0x00000000 0x03f0e170 0x000fe400
0x1a2a7810 0xfffffa00 0x07ffe0ff 0x000fc600
0x00067984 0xfff80000 0x00001a00 0x000e2200
0x05057810 0x00000800 0x07ffe0ff 0x000fe400
0x02047810 0x00004000 0x07f5e0ff 0x000fe200
0x00087984 0xfffc0000 0x00001a00 0x000e6200
0x0500720c 0x0000002a 0x03f26270 0x000fc600
0x000a7984 0x00000000 0x00001a00 0x000ea800
0x000c7984 0x00040000 0x00001a00 0x000ee800
0x000e7984 0x00080000 0x00001a00 0x000f2800
0x00107984 0x000c0000 0x00001a00 0x000f6800
0x00127984 0x00100000 0x00001a00 0x000e2800
0x00147984 0x00140000 0x00001a00 0x000e6800
0x00187984 0x00180000 0x00001a00 0x000ea800
0x001c7984 0x001c0000 0x00001a00 0x000ee800
0x001e7984 0x00200000 0x00001a00 0x000f2800
0x00207984 0x00240000 0x00001a00 0x000f6800
0x00227984 0x00280000 0x00001a00 0x000f6800
0x00247984 0x002c0000 0x00001a00 0x000f6800
0x00267984 0x00300000 0x00001a00 0x000f6800
0x00287984 0x00340000 0x00001a00 0x00036800
0x02007386 0xfff80006 0x0010eb00 0x0011e200
0x00007810 0x00004000 0x07ffe0ff 0x002fc600
0x02007386 0xfffc0008 0x0010eb00 0x000fe800
0x02007386 0x0000000a 0x0010eb00 0x004fe800
0x02007386 0x0004000c 0x0010eb00 0x008fe200
0xff077224 0x000000ff 0x010e0603 0x001fc600
0x02007386 0x0008000e 0x0010eb00 0x010fe800
0x02007386 0x000c0010 0x0010eb00 0x020fe800
0x02007386 0x00100012 0x0010eb00 0x000fe800
0x02007386 0x00140014 0x0010eb00 0x000fe800
0x02007386 0x00180018 0x0010eb00 0x000fe800
0x02007386 0x001c001c 0x0010eb00 0x000fe800
0x02007386 0x0020001e 0x0010eb00 0x000fe800
0x02007386 0x00240020 0x0010eb00 0x000fe800
0x02007386 0x00280022 0x0010eb00 0x000fe800
0x02007386 0x002c0024 0x0010eb00 0x000fe800
0x02007386 0x00300026 0x0010eb00 0x000fe800
0x02007386 0x00340028 0x0010eb00 0x0001e400
0xff027224 0x000000ff 0x078e0004 0x001fc400
0xff037224 0x000000ff 0x078e0007 0x000fe200
0x00009947 0xfffffd80 0x0383ffff 0x000fea00
0x00017941 0x00000000 0x03800000 0x000fea00
0x1a047824 0x00000001 0x078e0a05 0x000fe200
0x01ff7355 0x00000000 0x00100000 0x000fe200
0x00017945 0x000001a0 0x03800000 0x000fe600
0x0400780c 0x00000200 0x03f24270 0x000fd800
0x00009947 0x00000170 0x03800000 0x000fea00
0x00067984 0xfff80000 0x00001a00 0x000e2200
0x02047810 0x00002000 0x07f3e0ff 0x000fe400
0x0000781c 0x00000000 0x03f0e170 0x000fe200
0x00087984 0xfffc0000 0x00001a00 0x000e6200
0x05057810 0x00000400 0x07ffe0ff 0x000fe200
0xff177224 0x000000ff 0x008e0603 0x000fe400
0x000a7984 0x00000000 0x00001a00 0x000ea800
0x000c7984 0x00040000 0x00001a00 0x000ee800
0x000e7984 0x00080000 0x00001a00 0x000f2800
0x00107984 0x000c0000 0x00001a00 0x000f6800
0x00127984 0x00100000 0x00001a00 0x000f6800
0x00147984 0x00140000 0x00001a00 0x00016400
0x00007810 0x00002000 0x07ffe0ff 0x001fc400
0x02007386 0xfff80006 0x0010eb00 0x000fe800
0x02007386 0xfffc0008 0x0010eb00 0x002fe800
0x02007386 0x0000000a 0x0010eb00 0x004fe800
0x02007386 0x0004000c 0x0010eb00 0x008fe800
0x02007386 0x0008000e 0x0010eb00 0x010fe800
0x02007386 0x000c0010 0x0010eb00 0x020fe800
0x02007386 0x00100012 0x0010eb00 0x000fe800
0x02007386 0x00140014 0x0010eb00 0x0001e400
0xff027224 0x000000ff 0x078e0004 0x001fc400
0xff037224 0x000000ff 0x078e0017 0x000fc600
0x00017941 0x00000000 0x03800000 0x000fea00
0x0500720c 0x0000001a 0x00701670 0x000fd800
0x00040984 0xfff80000 0x00001a00 0x000e2800
0x00060984 0xfffc0000 0x00001a00 0x000e6800
0x00080984 0x00000000 0x00001a00 0x000ea800
0x000a0984 0x00040000 0x00001a00 0x000ee800
0x02000386 0xfff80004 0x0010eb00 0x0011e800
0x02000386 0xfffc0006 0x0010eb00 0x0021e800
0x02000386 0x00000008 0x0010eb00 0x0041e800
0x02000386 0x0004000a 0x0010eb00 0x0081e400
0x00007941 0x00000000 0x03800000 0x000fea00
0x1600720c 0x000000ff 0x03f05270 0x000fd800
0x0000094d 0x00000000 0x03800000 0x000fea00
0xff1b7819 0x0000001f 0x0001141a 0x000fe200
0x00047ab9 0x00006000 0x00000a00 0x000fce00
0xff007986 0x0000001a 0x0c10eb04 0x000fe200
0x0000794d 0x00000000 0x03800000 0x000fea00
0x00027919 0x00000000 0x00002100 0x000e2200
0x0000720c 0x000000ff 0x03fa5270 0x000fe400
0xff097819 0x0000001f 0x00011403 0x000fe400
0x031c7a10 0x00005800 0x07f1e0ff 0x000fc800
0x09087a10 0x00005900 0x007fe4ff 0x000fe200
0x020a7824 0x00000005 0x078e02ff 0x001fca00
0x0a047810 0x00000001 0x07ffe0ff 0x040fe400
0x0a057810 0x00000002 0x07ffe0ff 0x040fe400
0x0a067810 0x00000003 0x07ffe0ff 0x040fe400
0x0a077810 0x00000004 0x07ffe0ff 0x040fe400
0x0a247210 0x0000001c 0x07f1e0ff 0x080fe400
0x04227210 0x0000001c 0x07f3e0ff 0x000fc400
0x05207210 0x0000001c 0x07f5e0ff 0x080fe400
0x061e7210 0x0000001c 0x07f7e0ff 0x080fe400
0xff0c7819 0x0000001f 0x0001140a 0x000fe400
0x071c7210 0x0000001c 0x07f9e0ff 0x040fe400
0x04237211 0x00000008 0x008f0eff 0x080fe200
0x0c257824 0x00000001 0x000e0608 0x000fe200
0x071d7211 0x00000008 0x020f0eff 0x000fc400
0x05217211 0x00000008 0x010f0eff 0x080fe400
0x061f7211 0x00000008 0x018f0eff 0x000fe400
0xff077819 0x00000005 0x00011602 0x000fe200
0x0000d947 0x000017a0 0x03800000 0x000fea00
0x00007b1d 0x00000000 0x00000000 0x000fea00
0x03037210 0x0000000a 0x07f1e0ff 0x000fca00
0x090c7824 0x00000001 0x000e060c 0x000fe200
0x03087a11 0x00005c00 0x078018ff 0x000fc800
0x03097a11 0x00005d00 0x000f1c0c 0x000fd000
0x081a7381 0x00000000 0x001eeb00 0x000ea800
0x08187381 0x00000800 0x001eeb00 0x000ee800
0x08167381 0x00001000 0x001eeb00 0x000f2800
0x08147381 0x00001800 0x001eeb00 0x000f6800
0x08127381 0x00002000 0x001eeb00 0x000f6800
0x00107919 0x00000000 0x00000000 0x000e2800
0x00007b1d 0x00000000 0x00000000 0x000fea00
0x1a00722a 0x000000ff 0x03f0d000 0x004e4800
0x1800722a 0x000000ff 0x03f2d000 0x008e8800
0x1600722a 0x000000ff 0x03f4d000 0x010ee200
0xff037807 0x00000001 0x04000000 0x002fc600
0x1400722a 0x000000ff 0x03f6d000 0x020e6200
0xff047807 0x00000001 0x04800000 0x004fe400
0x1000780c 0x0000001f 0x03f25270 0x001fe200
0x1200722a 0x000000ff 0x03f0d000 0x000e2200
0xff057807 0x00000001 0x05000000 0x008fc800
0xff067807 0x00000001 0x05800000 0x002fe400
0x050b7210 0x00000004 0x07ffe003 0x000fca00
0x060b7824 0x00000001 0x078e020b 0x000fca00
0x0b0c7810 0x00000001 0x07ffe0ff 0x000fca00
0xff0c8224 0x000000ff 0x078e020b 0x001fd000
0x0c097989 0x04200000 0x000000ff 0x000e2400
0x09090824 0x00000001 0x078e020c 0x001fd000
0x09087989 0x04400000 0x000000ff 0x000e2400
0x09080824 0x00000001 0x078e0208 0x001fd000
0x080d7989 0x04800000 0x000000ff 0x000e2400
0x080d0824 0x00000001 0x078e020d 0x001fd000
0x0d0e7989 0x05000000 0x000000ff 0x000e2400
0x0d0e0824 0x00000001 0x078e020e 0x001fd000
0x0e0f7989 0x06000000 0x000000ff 0x000e2400
0x0e0f0824 0x00000001 0x078e020f 0x001fe200
0x0700780c 0x00000002 0x03f05270 0x000fc600
0x0f0c7824 0x00000001 0x078e0a0c 0x000fc800
0x07009388 0x0000000f 0x00004800 0x000fe800
0x00007b1d 0x00000000 0x00000000 0x000fea00
0xff087984 0x00000000 0x00001c00 0x000e2200
0x1000720c 0x000000ff 0x03f25270 0x000fe200
0x08097824 0x00000001 0x078e0209 0x001fc800
0x090a7824 0x00000001 0x078e020a 0x040fe200
0x09087207 0x00000008 0x04000000 0x000fe400
0x0700780c 0x00000003 0x03f05270 0x000fe200
0x0b277824 0x00000001 0x078e020a 0x000fe200
0x0c097207 0x000000ff 0x00800000 0x000fe400
0x0a087207 0x00000008 0x04000000 0x000fe400
0x0700720c 0x000000ff 0x03f05270 0x040fe400
0x0700720c 0x000000ff 0x03f25270 0x000fe200
0x080d7824 0x00000001 0x078e0209 0x000fca00
0x0c077207 0x0000000d 0x04800000 0x000fc800
0x00000947 0x00000950 0x03800000 0x000fea00
0x0200720c 0x000000ff 0x03f05270 0x000fe200
0xff087624 0x00000300 0x078e00ff 0x000fe200
0xff097212 0x00000002 0x078e33ff 0x000fc800
0x0800780c 0x000001f4 0x03f26070 0x000fe200
0x00087824 0x00000001 0x078e0209 0x000fca00
0xff0b8424 0x00000008 0x078e00ff 0x000fe200
0xff008388 0x00002c27 0x00000800 0x0001e200
0xff268424 0x00000064 0x078e00ff 0x000fe400
0x000a8625 0x00006200 0x078e020b 0x000fd000
0x0a008385 0x00000100 0x00114b26 0x0001e200
0x00009947 0x00000030 0x03800000 0x000fea00
0x0000795d 0x000001c2 0x03a00000 0x000fe200
0x00007946 0x00000000 0x03800000 0x000fe200
0x00007947 0x00000010 0x03800000 0x000fea00
0x00007992 0x00000000 0x00000000 0x000fea00
0xff0b7424 0x00000008 0x078e00ff 0x001fc800
0x080a7625 0x00006200 0x078e020b 0x000fd000
0x0a2a7980 0x00000100 0x00114b00 0x00016200
0x00ff7355 0x00000000 0x00100000 0x000fe200
0x00007945 0x00000120 0x03800000 0x000fe400
0x2a00780c 0x00000063 0x03f45270 0x020fe200
0x00007947 0x00002692 0x03800000 0x000ff600
0x00097806 0x00000000 0x050e0100 0x000fc800
0x0900720c 0x000000ff 0x03f45070 0x000fd800
0x0000a947 0x000000c0 0x03800000 0x000fea00
0x00009947 0x00000030 0x03800000 0x000fea00
0x0000795d 0x0000015e 0x03a00000 0x000fe200
0x00007946 0x00000000 0x03800000 0x000fe200
0x00007947 0x00000010 0x03800000 0x000fea00
0x00007992 0x00000000 0x00000000 0x000fea00
0x0a2a7980 0x00000100 0x00114b00 0x00036400
0x00097806 0x00000000 0x038e0100 0x000fe200
0x00007946 0x00000000 0x03800000 0x000fe200
0x00047886 0x00000000 0x038e0100 0x000fe400
0x09ff7c12 0x00000004 0x0f840cff 0x000fd800
0x0000a947 0xffffff01 0x0383ffff 0x023fea00
0x00007947 0xffffffa0 0x0383ffff 0x000fea00
0x00007941 0x00000000 0x03800000 0x000fea00
0x00097919 0x00000000 0x00000000 0x000e6200
0x2a00780c 0x00000065 0x03f45270 0x000fe200
0x00007947 0x000025c2 0x03800000 0x000ff400
0x002e7919 0x00000000 0x00003c00 0x000ea200
0x000b7806 0x00000000 0x050e0100 0x001fc800
0x0b0b7812 0x80000000 0x078eec2e 0x004fcc00
0x000b7301 0x0000000b 0x00000000 0x000e3000
0x00117300 0x0000000b 0x000e0000 0x0010a400
0x090b7810 0x00000004 0x07ffe0ff 0x003fc400
0x11117810 0x0000001f 0x07ffe1ff 0x004fc800
0x0900720c 0x00000011 0x03f46270 0x000fc800
0x2b0a7989 0x08200000 0x000e0011 0x000e2400
0x0a0a7207 0x000000ff 0x05000000 0x001fca00
0x0a0c7824 0x00000001 0x078e022b 0x000fe200
0x090a7810 0x00000002 0x07ffe0ff 0x000fc800
0x0a00720c 0x00000011 0x03f44270 0x000fc600
0x0c0d7989 0x08400000 0x000e0011 0x000e2400
0x0d0d7207 0x000000ff 0x05000000 0x001fe400
0x0b00720c 0x00000011 0x03f44270 0x000fc600
0x0c0e7824 0x00000001 0x078e020d 0x000fe200
0x090c7810 0x00000008 0x07ffe0ff 0x000fce00
0x0e0d7989 0x08800000 0x000e0011 0x000e2400
0x0d0d7207 0x000000ff 0x05000000 0x001fe400
0x0c00720c 0x00000011 0x03f44270 0x000fc600
0x0e107824 0x00000001 0x078e020d 0x000fd000
0x100d7989 0x09000000 0x000e0011 0x000e2400
0x0d0d7207 0x000000ff 0x05000000 0x001fca00
0x10267824 0x00000001 0x078e020d 0x000fd000
0x260f7989 0x0a000000 0x000e0011 0x00006400
0x090d7810 0x00000010 0x07ffe0ff 0x000fe200
0x00ff7355 0x00000000 0x00100000 0x000fe200
0x00007945 0x00000440 0x03800000 0x000fe400
0x0d00720c 0x00000011 0x03f44270 0x000fc800
0x0f0f7207 0x000000ff 0x05000000 0x002fca00
0x0f0e7824 0x00000001 0x078e0226 0x000fe400
0x2a00780c 0x00000065 0x03f45270 0x000fe200
0x00007947 0x00002692 0x03800000 0x000ff600
0x000f7806 0x00000000 0x010e0100 0x000fe200
0x00047886 0x00000000 0x038e0100 0x000fc600
0x0f0f7c12 0x00000004 0x0f8ec0ff 0x000fc800
0x0f007c0c 0x00000004 0x0bf42070 0x000fd800
0x0000a947 0x00000390 0x03800000 0x000fea00
0x08087810 0xffffffe0 0x07ffe0ff 0x000fe200
0xff297424 0x00000008 0x078e00ff 0x000fc800
0x08287625 0x00006200 0x078e0229 0x000fd000
0x282a7980 0x00000100 0x00114b00 0x00036200
0x01ff7355 0x00000000 0x00100000 0x000fe200
0x00017945 0x00000120 0x03800000 0x000fe400
0x2a00780c 0x00000063 0x03f45270 0x020fe200
0x00007947 0x00002622 0x03800000 0x000ff600
0x000f7806 0x00000000 0x050e0100 0x000fc800
0x0f00720c 0x000000ff 0x03f45070 0x000fd800
0x0000a947 0x000000c0 0x03800000 0x000fea00
0x00009947 0x00000030 0x03800000 0x000fea00
0x0000795d 0x0000015e 0x03a00000 0x000fe200
0x00007946 0x00000000 0x03800000 0x000fe200
0x00007947 0x00000010 0x03800000 0x000fea00
0x00007992 0x00000000 0x00000000 0x000fea00
0x282a7980 0x00000100 0x00114b00 0x00056400
0x000f7806 0x00000000 0x038e0100 0x000fe200
0x00007946 0x00000000 0x03800000 0x000fe200
0x00047886 0x00000000 0x038e0100 0x000fe400
0x0fff7c12 0x00000004 0x0f840cff 0x000fd800
0x0000a947 0xffffff01 0x0383ffff 0x027fea00
0x00007947 0xffffffa0 0x0383ffff 0x000fea00
0x00017941 0x00000000 0x03800000 0x000fea00
0x2a00780c 0x00000065 0x03f45270 0x000fe200
0x00007947 0x00002562 0x03800000 0x000ff600
0x000f7806 0x00000000 0x050e0100 0x000fc800
0x0f0f7812 0x80000000 0x078eec2e 0x000fcc00
0x000f7301 0x0000000f 0x00000000 0x000eb000
0x00117300 0x0000000f 0x000e0000 0x005e2400
0x11117810 0x0000001f 0x07ffe1ff 0x001fc800
0x0900720c 0x00000011 0x03f46270 0x000fc800
0x2b107989 0x08200000 0x000e0011 0x000e2400
0x10107207 0x000000ff 0x05000000 0x001fe400
0x0a00720c 0x00000011 0x03f44270 0x000fc600
0x10107824 0x00000001 0x078e022b 0x000fd000
0x10267989 0x08400000 0x000e0011 0x000e2400
0x26297207 0x000000ff 0x05000000 0x003fe400
0x0b00720c 0x00000011 0x03f44270 0x000fc600
0x10267824 0x00000001 0x078e0229 0x000fd000
0x26287989 0x08800000 0x000e0011 0x000e2400
0x280f7207 0x000000ff 0x05000000 0x001fe400
0x0c00720c 0x00000011 0x03f44270 0x000fc600
0x26287824 0x00000001 0x078e020f 0x000fd000
0x280f7989 0x09000000 0x000e0011 0x000e2400
0x0f0f7207 0x000000ff 0x05000000 0x001fca00
0x282b7824 0x00000001 0x078e020f 0x000fd000
0x2b107989 0x0a000000 0x000e0011 0x00006400
0x0d00720c 0x00000011 0x03f44270 0x000fc800
0x10107207 0x000000ff 0x05000000 0x002fc800
0x2b0e7210 0x00000010 0x07ffe00e 0x000fe400
0x000f7806 0x00000000 0x038e0100 0x000fe200
0x00007946 0x00000000 0x03800000 0x000fe200
0x00047886 0x00000000 0x038e0100 0x000fe400
0x0fff7c12 0x00000004 0x0f840cff 0x000fd800
0x0000a947 0xfffffc11 0x0383ffff 0x001fea00
0x00007947 0xffffffa0 0x0383ffff 0x000fea00
0x00007941 0x00000000 0x03800000 0x000fea00
0xff0b8424 0x00000008 0x078e00ff 0x000fe200
0x0900720c 0x000000ff 0x03f25270 0x000fe200
0x27278824 0x00000001 0x078e020e 0x000fe400
0xff268424 0x00000065 0x078e00ff 0x001fe400
0x00088625 0x00006200 0x078e020b 0x000fc800
0xff0d7224 0x000000ff 0x078e0007 0x000fc800
0x08008385 0x00000100 0x00114b26 0x0001e200
0xff0d9224 0x000000ff 0x078e000e 0x000fc600
0xff008388 0x00002827 0x00000800 0x0001e800
0xff008388 0x0000240e 0x00000800 0x0001e800
0xff009388 0x0000140e 0x00000800 0x0001e400
0x00007948 0xffffffff 0x03800000 0x000fe800
0x00007b1d 0x00000000 0x00000000 0x000fea00
0xff007984 0x00001400 0x00001800 0x000e6200
0x0200720c 0x000000ff 0x03f05270 0x000fc600
0xff077984 0x00002c00 0x00001800 0x000ea800
0xff0b7984 0x00002400 0x00001800 0x000ee200
0x00007207 0x000000ff 0x00000000 0x002fe400
0x0700780c 0x00000080 0x03f04270 0x004fc600
0x00007824 0x00000001 0x078e020d 0x000fc800
0x03087824 0x00000001 0x078e0200 0x001fc800
0x040a7824 0x00000001 0x078e0208 0x000fc800
0x050d7824 0x00000001 0x078e020a 0x000fc800
0x060c7824 0x00000001 0x078e020d 0x000fe200
0x00000947 0x00000160 0x03800000 0x000fea00
0x1a00722a 0x000000ff 0x03f0d000 0x008e0800
0x1800722a 0x000000ff 0x03f2d000 0x000e4800
0x1600722a 0x000000ff 0x03f4d000 0x000e8800
0x1400722a 0x000000ff 0x03f6d000 0x000ec600
0xff030424 0x00000008 0x078e00ff 0x001fc800
0x00020625 0x00005e00 0x078e0203 0x000fc800
0xff051424 0x00000008 0x078e00ff 0x002fe400
0xff072424 0x00000008 0x078e00ff 0x004fe400
0x02000386 0x00000024 0x0010eb00 0x0001e200
0x1200722a 0x000000ff 0x03f0d000 0x000e6200
0xff0e3424 0x00000008 0x078e00ff 0x008fe400
0x08041625 0x00005e00 0x078e0205 0x000fc800
0x0a062625 0x00005e00 0x078e0207 0x000fc800
0x0d083625 0x00005e00 0x078e020e 0x000fe200
0x04001386 0x00000022 0x0010eb00 0x0001e800
0x06002386 0x00000020 0x0010eb00 0x0001e800
0x08003386 0x0000001e 0x0010eb00 0x0001e200
0x0000894d 0x00000000 0x03800000 0x002fea00
0xff037424 0x00000008 0x078e00ff 0x001fc800
0x0c027625 0x00005e00 0x078e0203 0x000fd000
0x02007386 0x0000001c 0x0010eb00 0x000fe200
0x0000794d 0x00000000 0x03800000 0x000fea00
0x00007b1d 0x00000000 0x00000000 0x008fea00
0x1a00722a 0x000000ff 0x03f0d000 0x000e0800
0x1800722a 0x000000ff 0x03f2d000 0x000e4800
0x1600722a 0x000000ff 0x03f4d000 0x000e8800
0x1400722a 0x000000ff 0x03f6d000 0x000ec600
0x00030824 0x00000001 0x078e0a0b 0x001fe200
0x1200722a 0x000000ff 0x03f8d000 0x000e0600
0x08051824 0x00000001 0x078e0a0b 0x002fc800
0x03000388 0x00000024 0x00008a00 0x000fe200
0x0a092824 0x00000001 0x078e0a0b 0x104fe200
0x0200720c 0x00000007 0x03f06270 0x000fe400
0x0d0d3824 0x00000001 0x078e0a0b 0x108fe200
0x05001388 0x00000022 0x00008a00 0x000fe600
0x0c0f4824 0x00000001 0x078e0a0b 0x001fe200
0x09002388 0x00000020 0x00008a00 0x000fe800
0x0d003388 0x0000001e 0x00008a00 0x000fe800
0x0f004388 0x0000001c 0x00008a00 0x000fe800
0x00007b1d 0x00000000 0x00000000 0x000fea00
0x0000094d 0x00000000 0x03800000 0x000fea00
0xff007212 0x00000002 0x078e33ff 0x000fe200
0x00ff7355 0x00000000 0x00100000 0x000fe200
0x00007945 0x00000170 0x03800000 0x000fe600
0x00037824 0x00000001 0x078e0207 0x000fca00
0x03007811 0x00000001 0x078fc8ff 0x040fe400
0x0300780c 0x00000180 0x03f26070 0x000fe400
0x00007812 0x00000003 0x0780c0ff 0x000fd800
0x00008947 0x00000110 0x03800000 0x000fea00
0x02047824 0x00000001 0x078e020b 0x040fe400
0xff057424 0x00000008 0x078e00ff 0x000fe400
0x02037824 0x00000008 0x078e00ff 0x000fe400
0x04047625 0x00005e00 0x078e0205 0x000fc800
0xff067224 0x000000ff 0x078e0004 0x000fe400
0xff0d7224 0x000000ff 0x078e0005 0x000fe400
0x03047984 0x00000000 0x00001a00 0x00106200
0xff087224 0x000000ff 0x078e0006 0x000fe200
0x00007810 0xffffffff 0x07ffe0ff 0x000fe200
0xff097224 0x000000ff 0x078e000d 0x100fe200
0x06067810 0x00000400 0x07f5e0ff 0x000fe400
0x0000720c 0x000000ff 0x03f05270 0x000fe400
0x02027810 0x00000080 0x07ffe0ff 0x000fe200
0xff0d7224 0x000000ff 0x010e060d 0x000fe200
0x03037810 0x00000400 0x07ffe0ff 0x001fe200
0x08007386 0x00000004 0x0010eb00 0x0021ee00
0x00000947 0xffffff50 0x0383ffff 0x000fea00
0x00007941 0x00000000 0x03800000 0x000fea00
0x0000994d 0x00000000 0x03800000 0x000fea00
0x07007824 0x00000001 0x078e0a02 0x000fe200
0x00ff7355 0x00000000 0x00100000 0x000fe200
0x02047824 0x00000001 0x078e020b 0x001fe200
0x00007945 0x00000310 0x03800000 0x000fe200
0xff057424 0x00000008 0x078e00ff 0x000fe200
0x0000780c 0x00000600 0x03f24270 0x000fc400
0x0000781c 0x00000000 0x03f0f070 0x000fe200
0x04047625 0x00005e00 0x078e0205 0x000fe200
0x02007811 0x00000800 0x078e18ff 0x000fd000
0x00009947 0x000002a0 0x03800000 0x000fea00
0x0000781c 0x00000000 0x03f0e170 0x000fe400
0x07037810 0xfffffa00 0x07ffe0ff 0x000fe400
0x00087984 0xfff80000 0x00001a00 0x000e2200
0x02027810 0x00000800 0x07ffe0ff 0x000fe400
0x04067810 0x00004000 0x07f5e0ff 0x000fe200
0x000a7984 0xfffc0000 0x00001a00 0x000e6200
0x0200720c 0x00000003 0x03f26270 0x000fc600
0x000c7984 0x00000000 0x00001a00 0x000ea800
0x000e7984 0x00040000 0x00001a00 0x000ee800
0x00107984 0x00080000 0x00001a00 0x000f2800
0x00127984 0x000c0000 0x00001a00 0x000f6800
0x00147984 0x00100000 0x00001a00 0x000e2800
0x00167984 0x00140000 0x00001a00 0x000e6800
0x00187984 0x00180000 0x00001a00 0x000ea800
0x001a7984 0x001c0000 0x00001a00 0x000ee800
0x001c7984 0x00200000 0x00001a00 0x000f2800
0x001e7984 0x00240000 0x00001a00 0x000f6800
0x00207984 0x00280000 0x00001a00 0x000f6800
0x00227984 0x002c0000 0x00001a00 0x000f6800
0x00247984 0x00300000 0x00001a00 0x000f6800
0x00267984 0x00340000 0x00001a00 0x00036800
0x04007386 0x00000008 0x0010eb00 0x0011e200
0x00007810 0x00004000 0x07ffe0ff 0x002fc600
0x04007386 0x0004000a 0x0010eb00 0x000fe800
0x04007386 0x0008000c 0x0010eb00 0x004fe800
0x04007386 0x000c000e 0x0010eb00 0x008fe200
0xff097224 0x000000ff 0x010e0605 0x001fc600
0x04007386 0x00100010 0x0010eb00 0x010fe800
0x04007386 0x00140012 0x0010eb00 0x020fe800
0x04007386 0x00180014 0x0010eb00 0x000fe800
0x04007386 0x001c0016 0x0010eb00 0x000fe800
0x04007386 0x00200018 0x0010eb00 0x000fe800
0x04007386 0x0024001a 0x0010eb00 0x000fe800
0x04007386 0x0028001c 0x0010eb00 0x000fe800
0x04007386 0x002c001e 0x0010eb00 0x000fe800
0x04007386 0x00300020 0x0010eb00 0x000fe800
0x04007386 0x00340022 0x0010eb00 0x000fe800
0x04007386 0x00380024 0x0010eb00 0x000fe800
0x04007386 0x003c0026 0x0010eb00 0x0001e400
0xff047224 0x000000ff 0x078e0006 0x001fc400
0xff057224 0x000000ff 0x078e0009 0x000fe200
0x00009947 0xfffffd80 0x0383ffff 0x000fea00
0x00007941 0x00000000 0x03800000 0x000fea00
0x07037824 0x00000001 0x078e0a02 0x000fe200
0x00ff7355 0x00000000 0x00100000 0x000fe200
0x00007945 0x000001a0 0x03800000 0x000fe600
0x0300780c 0x00000200 0x03f24270 0x000fd800
0x00009947 0x00000170 0x03800000 0x000fea00
0x00087984 0xfff80000 0x00001a00 0x000e2200
0x04037810 0x00002000 0x07f3e0ff 0x000fe400
0x0000781c 0x00000000 0x03f0e170 0x000fe200
0x000a7984 0xfffc0000 0x00001a00 0x000e6200
0x02027810 0x00000400 0x07ffe0ff 0x000fe200
0xff067224 0x000000ff 0x008e0605 0x000fe400
0x000c7984 0x00000000 0x00001a00 0x000ea800
0x000e7984 0x00040000 0x00001a00 0x000ee800
0x00107984 0x00080000 0x00001a00 0x000f2800
0x00127984 0x000c0000 0x00001a00 0x000f6800
0x00147984 0x00100000 0x00001a00 0x000f6800
0x00167984 0x00140000 0x00001a00 0x00016400
0x00007810 0x00002000 0x07ffe0ff 0x001fc400
0x04007386 0x00000008 0x0010eb00 0x000fe800
0x04007386 0x0004000a 0x0010eb00 0x002fe800
0x04007386 0x0008000c 0x0010eb00 0x004fe800
0x04007386 0x000c000e 0x0010eb00 0x008fe800
0x04007386 0x00100010 0x0010eb00 0x010fe800
0x04007386 0x00140012 0x0010eb00 0x020fe800
0x04007386 0x00180014 0x0010eb00 0x000fe800
0x04007386 0x001c0016 0x0010eb00 0x0001e400
0xff047224 0x000000ff 0x078e0003 0x001fc400
0xff057224 0x000000ff 0x078e0006 0x000fc600
0x00007941 0x00000000 0x03800000 0x000fea00
0x0200720c 0x00000007 0x00701670 0x000fd800
0x0000894d 0x00000000 0x03800000 0x000fea00
0x00027984 0xfff80000 0x00001a00 0x000e2800
0x00067984 0xfffc0000 0x00001a00 0x000e6800
0x00087984 0x00000000 0x00001a00 0x000ea800
0x000a7984 0x00040000 0x00001a00 0x000ee800
0x04007386 0x00000002 0x0010eb00 0x001fe800
0x04007386 0x00040006 0x0010eb00 0x002fe800
0x04007386 0x00080008 0x0010eb00 0x004fe800
0x04007386 0x000c000a 0x0010eb00 0x008fe200
0x0000794d 0x00000000 0x03800000 0x000fea00
0x00007b1d 0x00000000 0x00000000 0x000fea00
0x03037210 0x0000000a 0x07f1e0ff 0x000fca00
0x090c7824 0x00000001 0x000e060c 0x000fe200
0x030e7a11 0x00005c00 0x078018ff 0x000fc800
0x030f7a11 0x00005d00 0x000f1c0c 0x000fd000
0x0e107381 0x00000000 0x001eeb00 0x000ea800
0x0e047381 0x00000800 0x001eeb00 0x000ee800
0x0e087381 0x00001000 0x001eeb00 0x000f2800
0x0e0a7381 0x00001800 0x001eeb00 0x000f6800
0x0e0c7381 0x00002000 0x001eeb00 0x000f6800
0x00007b1d 0x00000000 0x00000000 0x000fea00
0x1000722a 0x000000ff 0x03f0d000 0x00404400
0x00117919 0x00000000 0x00000000 0x001e2400
0x0400722a 0x000000ff 0x03f2d000 0x008e8800
0x0800722a 0x000000ff 0x03f4d000 0x010ee200
0xff007807 0x00000001 0x04000000 0x002fc600
0x0a00722a 0x000000ff 0x03f6d000 0x020e6200
0xff037807 0x00000001 0x04800000 0x004fc600
0x0c00722a 0x000000ff 0x03f8d000 0x0002a200
0xff107807 0x00000001 0x05000000 0x008fc800
0xff0c7807 0x00000001 0x05800000 0x002fe400
0x10057210 0x00000003 0x07ffe000 0x000fe400
0x1100780c 0x0000001f 0x03fc5270 0x001fc600
0x0c057824 0x00000001 0x078e0205 0x000fca00
0x05047810 0x00000001 0x07ffe0ff 0x000fca00
0xff04c224 0x000000ff 0x078e0205 0x004fd000
0x04057989 0x04200000 0x000a00ff 0x000e2400
0x05055824 0x00000001 0x078e0204 0x001fd000
0x05067989 0x04400000 0x000a00ff 0x000e2400
0x05065824 0x00000001 0x078e0206 0x001fd000
0x060d7989 0x04800000 0x000a00ff 0x000e2400
0x060d5824 0x00000001 0x078e020d 0x001fd000
0x0d0e7989 0x05000000 0x000a00ff 0x000e2400
0x0d0e5824 0x00000001 0x078e020e 0x001fd000
0x0e0f7989 0x06000000 0x000a00ff 0x000e2400
0x0e0f5824 0x00000001 0x078e020f 0x001fe200
0x0700780c 0x00000002 0x03fa5270 0x000fc600
0x0f047824 0x00000001 0x078e0a04 0x000fc800
0x0700e388 0x0000000f 0x00004800 0x000fe800
0x00007b1d 0x00000000 0x00000000 0x000fea00
0xff087984 0x00000000 0x00001c00 0x000e2200
0x1100720c 0x000000ff 0x03fc5270 0x000fc800
0x04057207 0x000000ff 0x03000000 0x000fe400
0x0700720c 0x000000ff 0x03fc5270 0x000fe200
0x08097824 0x00000001 0x078e0209 0x001fc800
0x090a7824 0x00000001 0x078e020a 0x040fe200
0x09087207 0x00000008 0x06800000 0x000fe400
0x0700780c 0x00000003 0x03fa5270 0x000fc800
0x0a087207 0x00000008 0x06800000 0x000fe400
0x0200720c 0x000000ff 0x03fa5270 0x000fe400
0x08087207 0x000000ff 0x03000000 0x000fca00
0x08097824 0x00000001 0x078e0205 0x000fe400
0x0b057824 0x00000001 0x078e020a 0x000fe400
0x00007824 0x00000001 0x078e0209 0x000fe400
0xff06d624 0x00006200 0x078e00ff 0x000fe200
0x0500780c 0x00000080 0x03fc4270 0x000fe200
0xff07d624 0x00006300 0x078e00ff 0x000fe400
0xff04d424 0x00000065 0x078e00ff 0x000fc400
0x030b7824 0x00000001 0x078e0200 0x000fc800
0x100d7824 0x00000001 0x078e020b 0x000fe400
0x0600d385 0x00000100 0x00114b04 0x0001e400
0x0c0f7824 0x00000001 0x078e020d 0x000fe200
0x00006947 0x00000110 0x03800000 0x000fea00
0xff020424 0x00000008 0x078e00ff 0x000fe400
0xff051424 0x00000008 0x078e00ff 0x001fe400
0xff062424 0x00000008 0x078e00ff 0x000fe400
0xff083424 0x00000008 0x078e00ff 0x000fc400
0x09020625 0x00005e00 0x078e0202 0x000fc800
0x00041625 0x00005e00 0x078e0205 0x000fc800
0x0b062625 0x00005e00 0x078e0206 0x000fe200
0x02000386 0x00000024 0x0010eb00 0x0001e600
0x0d083625 0x00005e00 0x078e0208 0x000fe200
0x04001386 0x00000022 0x0010eb00 0x0001e800
0x06002386 0x00000020 0x0010eb00 0x0001e800
0x08003386 0x0000001e 0x0010eb00 0x0001e200
0x0000c94d 0x00000000 0x03800000 0x000fea00
0xff027424 0x00000008 0x078e00ff 0x001fc800
0x0f027625 0x00005e00 0x078e0202 0x000fd000
0x02007386 0x0000001c 0x0010eb00 0x000fe200
0x0000794d 0x00000000 0x03800000 0x000fea00
0x00007b1d 0x00000000 0x00000000 0x000fea00
0x0200720c 0x00000005 0x03fa6270 0x000fe200
0x09000388 0x00000024 0x00008a00 0x000fe800
0x00001388 0x00000022 0x00008a00 0x000fe800
0x0b002388 0x00000020 0x00008a00 0x000fe800
0x0d003388 0x0000001e 0x00008a00 0x000fe800
0x0f004388 0x0000001c 0x00008a00 0x000fe800
0x00007b1d 0x00000000 0x00000000 0x000fea00
0x0000594d 0x00000000 0x03800000 0x000fea00
0xff007212 0x00000002 0x078e33ff 0x000fe200
0x00ff7355 0x00000000 0x00100000 0x000fe200
0x00007945 0x00000160 0x03800000 0x000fe600
0x00037824 0x00000001 0x078e0205 0x000fca00
0x03007811 0x00000001 0x078fc8ff 0x040fe400
0x0300780c 0x00000180 0x03f26070 0x000fe400
0x00007812 0x00000003 0x0780c0ff 0x000fd800
0x00008947 0x00000100 0x03800000 0x000fea00
0xff077424 0x00000008 0x078e00ff 0x001fe400
0x02037824 0x00000008 0x078e00ff 0x040fe400
0x02067625 0x00005e00 0x078e0207 0x000fc800
0xff047224 0x000000ff 0x078e0006 0x000fe400
0xff0b7224 0x000000ff 0x078e0007 0x000fe400
0x03067984 0x00000000 0x00001a00 0x00106200
0xff087224 0x000000ff 0x078e0004 0x000fe200
0x00007810 0xffffffff 0x07ffe0ff 0x000fe200
0xff097224 0x000000ff 0x078e000b 0x100fe200
0x04047810 0x00000400 0x07f5e0ff 0x000fe400
0x0000720c 0x000000ff 0x03f05270 0x000fe400
0x02027810 0x00000080 0x07ffe0ff 0x000fe200
0xff0b7224 0x000000ff 0x010e060b 0x000fe200
0x03037810 0x00000400 0x07ffe0ff 0x001fe200
0x08007386 0x00000006 0x0010eb00 0x0021ee00
0x00000947 0xffffff50 0x0383ffff 0x000fea00
0x00007941 0x00000000 0x03800000 0x000fea00
0x0000994d 0x00000000 0x03800000 0x000fea00
0x05007824 0x00000001 0x078e0a02 0x000fe200
0x00ff7355 0x00000000 0x00100000 0x000fe200
0xff077424 0x00000008 0x078e00ff 0x001fe200
0x00007945 0x00000320 0x03800000 0x000fe400
0x0000780c 0x00000600 0x03f24270 0x000fe200
0x02067625 0x00005e00 0x078e0207 0x040fe200
0x02007811 0x00000800 0x078e18ff 0x000fc800
0x06067810 0x00000800 0x07f1e0ff 0x000fca00
0xff077224 0x000000ff 0x000e0607 0x000fe200
0x0000781c 0x00000000 0x03f0f070 0x000fe200
0x00009947 0x000002a0 0x03800000 0x000fec00
0x0000781c 0x00000000 0x03f0e170 0x000fe400
0x05037810 0xfffffa00 0x07ffe0ff 0x000fc600
0x00087984 0xfff80000 0x00001a00 0x000e2200
0x02027810 0x00000800 0x07ffe0ff 0x000fe400
0x06047810 0x00004000 0x07f5e0ff 0x000fe200
0x000a7984 0xfffc0000 0x00001a00 0x000e6200
0x0200720c 0x00000003 0x03f26270 0x000fc600
0x000c7984 0x00000000 0x00001a00 0x000ea800
0x000e7984 0x00040000 0x00001a00 0x000ee800
0x00107984 0x00080000 0x00001a00 0x000f2800
0x00127984 0x000c0000 0x00001a00 0x000f6800
0x00147984 0x00100000 0x00001a00 0x000e2800
0x00167984 0x00140000 0x00001a00 0x000e6800
0x00187984 0x00180000 0x00001a00 0x000ea800
0x001a7984 0x001c0000 0x00001a00 0x000ee800
0x001c7984 0x00200000 0x00001a00 0x000f2800
0x001e7984 0x00240000 0x00001a00 0x000f6800
0x00207984 0x00280000 0x00001a00 0x000f6800
0x00227984 0x002c0000 0x00001a00 0x000f6800
0x00247984 0x00300000 0x00001a00 0x000f6800
0x00267984 0x00340000 0x00001a00 0x00036800
0x06007386 0xfff80008 0x0010eb00 0x0011e200
0x00007810 0x00004000 0x07ffe0ff 0x002fc600
0x06007386 0xfffc000a 0x0010eb00 0x000fe800
0x06007386 0x0000000c 0x0010eb00 0x004fe800
0x06007386 0x0004000e 0x0010eb00 0x008fe200
0xff097224 0x000000ff 0x010e0607 0x001fc600
0x06007386 0x00080010 0x0010eb00 0x010fe800
0x06007386 0x000c0012 0x0010eb00 0x020fe800
0x06007386 0x00100014 0x0010eb00 0x000fe800
0x06007386 0x00140016 0x0010eb00 0x000fe800
0x06007386 0x00180018 0x0010eb00 0x000fe800
0x06007386 0x001c001a 0x0010eb00 0x000fe800
0x06007386 0x0020001c 0x0010eb00 0x000fe800
0x06007386 0x0024001e 0x0010eb00 0x000fe800
0x06007386 0x00280020 0x0010eb00 0x000fe800
0x06007386 0x002c0022 0x0010eb00 0x000fe800
0x06007386 0x00300024 0x0010eb00 0x000fe800
0x06007386 0x00340026 0x0010eb00 0x0001e400
0xff067224 0x000000ff 0x078e0004 0x001fc400
0xff077224 0x000000ff 0x078e0009 0x000fe200
0x00009947 0xfffffd80 0x0383ffff 0x000fea00
0x00007941 0x00000000 0x03800000 0x000fea00
0x05037824 0x00000001 0x078e0a02 0x000fe200
0x00ff7355 0x00000000 0x00100000 0x000fe200
0x00007945 0x000001a0 0x03800000 0x000fe600
0x0300780c 0x00000200 0x03f24270 0x000fd800
0x00009947 0x00000170 0x03800000 0x000fea00
0x00087984 0xfff80000 0x00001a00 0x000e2200
0x06037810 0x00002000 0x07f3e0ff 0x000fe400
0x0000781c 0x00000000 0x03f0e170 0x000fe200
0x000a7984 0xfffc0000 0x00001a00 0x000e6200
0x02027810 0x00000400 0x07ffe0ff 0x000fe200
0xff047224 0x000000ff 0x008e0607 0x000fe400
0x000c7984 0x00000000 0x00001a00 0x000ea800
0x000e7984 0x00040000 0x00001a00 0x000ee800
0x00107984 0x00080000 0x00001a00 0x000f2800
0x00127984 0x000c0000 0x00001a00 0x000f6800
0x00147984 0x00100000 0x00001a00 0x000f6800
0x00167984 0x00140000 0x00001a00 0x00016400
0x00007810 0x00002000 0x07ffe0ff 0x001fc400
0x06007386 0xfff80008 0x0010eb00 0x000fe800
0x06007386 0xfffc000a 0x0010eb00 0x002fe800
0x06007386 0x0000000c 0x0010eb00 0x004fe800
0x06007386 0x0004000e 0x0010eb00 0x008fe800
0x06007386 0x00080010 0x0010eb00 0x010fe800
0x06007386 0x000c0012 0x0010eb00 0x020fe800
0x06007386 0x00100014 0x0010eb00 0x000fe800
0x06007386 0x00140016 0x0010eb00 0x0001e400
0xff067224 0x000000ff 0x078e0003 0x001fc400
0xff077224 0x000000ff 0x078e0004 0x000fc600
0x00007941 0x00000000 0x03800000 0x000fea00
0x0200720c 0x00000005 0x00701670 0x000fd800
0x0000894d 0x00000000 0x03800000 0x000fea00
0x00027984 0xfff80000 0x00001a00 0x000e2800
0x00047984 0xfffc0000 0x00001a00 0x000e6800
0x00087984 0x00000000 0x00001a00 0x000ea800
0x000a7984 0x00040000 0x00001a00 0x000ee800
0x06007386 0xfff80002 0x0010eb00 0x001fe800
0x06007386 0xfffc0004 0x0010eb00 0x002fe800
0x06007386 0x00000008 0x0010eb00 0x004fe800
0x06007386 0x0004000a 0x0010eb00 0x008fe200
0x0000794d 0x00000000 0x03800000 0x000fea00
0xff117807 0x00000001 0x01000000 0x000fe200
0xff107424 0xffffffff 0x078e00ff 0x000fe200
0x000f7802 0x00005480 0x00000f00 0x000fc600
0x00007944 0x00000e10 0x03c00000 0x001fea00
0x1000780c 0x00000001 0x03f42070 0x000fe200
0x00007947 0xffffb300 0x0383ffff 0x000ff600
0xff117807 0x00000001 0x01000000 0x000fe200
0xff107424 0xffffffff 0x078e00ff 0x000fe200
0x000f7802 0x000054e0 0x00000f00 0x000fc600
0x00007944 0x00000e30 0x03c00000 0x003fea00
0x00087919 0x00000000 0x00003c00 0x000e2200
0xff267224 0x000000ff 0x078e000d 0x000fc400
0xff107424 0x00000001 0x078e00ff 0x000fe400
0xff287424 0xffffffff 0x078e00ff 0x000fe200
0x110f7812 0x80000000 0x078eec08 0x001fcc00
0x000f7301 0x0000000f 0x00000000 0x000e3000
0x00117300 0x0000000f 0x000e0000 0x00106400
0x000f7802 0x00005580 0x00000f00 0x001fc400
0x11117810 0x0000001f 0x07ffe1ff 0x002fc800
0x00007944 0x00000c20 0x03c00000 0x000fea00
0x1700720c 0x00000011 0x03f46270 0x000fe200
0xff287424 0xffffffff 0x078e00ff 0x000fe200
0x000f7802 0x000055f0 0x00000f00 0x000fe400
0x10107207 0x000000ff 0x05000000 0x002fca00
0x10267824 0x00000001 0x078e020d 0x000fe400
0xff107424 0x00000002 0x078e00ff 0x000fc600
0x00007944 0x00000bb0 0x03c00000 0x000fea00
0x17197810 0x00000002 0x07ffe0ff 0x000fe200
0xff287424 0xffffffff 0x078e00ff 0x000fe200
0x000f7802 0x00005670 0x00000f00 0x000fe400
0x1900720c 0x00000011 0x03f44270 0x000fc800
0x10107207 0x000000ff 0x05000000 0x002fca00
0x26267824 0x00000001 0x078e0210 0x000fe400
0xff107424 0x00000004 0x078e00ff 0x000fc600
0x00007944 0x00000b30 0x03c00000 0x000fea00
0x171a7810 0x00000004 0x07ffe0ff 0x000fe200
0xff287424 0xffffffff 0x078e00ff 0x000fe200
0x000f7802 0x000056f0 0x00000f00 0x000fe400
0x1a00720c 0x00000011 0x03f44270 0x000fc800
0x10107207 0x000000ff 0x05000000 0x002fca00
0x26267824 0x00000001 0x078e0210 0x000fe400
0xff107424 0x00000008 0x078e00ff 0x000fc600
0x00007944 0x00000ab0 0x03c00000 0x000fea00
0x171b7810 0x00000008 0x07ffe0ff 0x000fe200
0xff287424 0xffffffff 0x078e00ff 0x000fe200
0x000f7802 0x00005770 0x00000f00 0x000fe400
0x1b00720c 0x00000011 0x03f44270 0x000fc800
0x10107207 0x000000ff 0x05000000 0x002fca00
0x26267824 0x00000001 0x078e0210 0x000fe400
0xff107424 0x00000010 0x078e00ff 0x000fc600
0x00007944 0x00000a30 0x03c00000 0x000fea00
0x00007947 0xffffb2d0 0x0383ffff 0x000fea00
0xff0f7807 0x00000001 0x05000000 0x000fe200
0xff117424 0xffffffff 0x078e00ff 0x001fe200
0x00107802 0x000057c0 0x00000f00 0x000fc600
0x00007944 0x00000a30 0x03c00000 0x000fea00
0x0f00780c 0x00000001 0x03f42070 0x000fe200
0x00007947 0xffffb330 0x0383ffff 0x000ff600
0xff117807 0x00000001 0x01000000 0x001fe200
0xff107424 0xffffffff 0x078e00ff 0x000fe200
0x000f7802 0x00005820 0x00000f00 0x000fc600
0x00007944 0x00000a70 0x03c00000 0x002fea00
0x1000780c 0x00000001 0x03f42070 0x000fe200
0x00007947 0xffffb380 0x0383ffff 0x000ff600
0xff117807 0x00000001 0x01000000 0x001fe200
0xff107424 0xffffffff 0x078e00ff 0x000fe200
0x000f7802 0x00005880 0x00000f00 0x000fc600
0x00007944 0x00000a90 0x03c00000 0x002fea00
0x110f7812 0x80000000 0x078eec08 0x000fe200
0xff267224 0x000000ff 0x078e000d 0x000fc400
0xff107424 0x00000001 0x078e00ff 0x000fe400
0xff287424 0xffffffff 0x078e00ff 0x000fe200
0x000f7301 0x0000000f 0x00000000 0x000e3000
0x00117300 0x0000000f 0x000e0000 0x00106400
0x000f7802 0x00005910 0x00000f00 0x001fc400
0x11117810 0x0000001f 0x07ffe1ff 0x002fc800
0x00007944 0x00000890 0x03c00000 0x000fea00
0x1700720c 0x00000011 0x03f46270 0x000fe200
0xff287424 0xffffffff 0x078e00ff 0x000fe200
0x000f7802 0x00005980 0x00000f00 0x000fe400
0x10107207 0x000000ff 0x05000000 0x002fca00
0x10267824 0x00000001 0x078e020d 0x000fe400
0xff107424 0x00000002 0x078e00ff 0x000fc600
0x00007944 0x00000820 0x03c00000 0x000fea00
0x1900720c 0x00000011 0x03f44270 0x000fe200
0xff287424 0xffffffff 0x078e00ff 0x000fe200
0x000f7802 0x000059f0 0x00000f00 0x000fe400
0x10107207 0x000000ff 0x05000000 0x002fca00
0x26267824 0x00000001 0x078e0210 0x000fe400
0xff107424 0x00000004 0x078e00ff 0x000fc600
0x00007944 0x000007b0 0x03c00000 0x000fea00
0x1a00720c 0x00000011 0x03f44270 0x000fe200
0xff287424 0xffffffff 0x078e00ff 0x000fe200
0x000f7802 0x00005a60 0x00000f00 0x000fe400
0x10107207 0x000000ff 0x05000000 0x002fca00
0x26267824 0x00000001 0x078e0210 0x000fe400
0xff107424 0x00000008 0x078e00ff 0x000fc600
0x00007944 0x00000740 0x03c00000 0x000fea00
0x1b00720c 0x00000011 0x03f44270 0x000fe200
0xff287424 0xffffffff 0x078e00ff 0x000fe200
0x000f7802 0x00005ad0 0x00000f00 0x000fe400
0x10107207 0x000000ff 0x05000000 0x002fca00
0x26267824 0x00000001 0x078e0210 0x000fe400
0xff107424 0x00000010 0x078e00ff 0x000fc600
0x00007944 0x000006d0 0x03c00000 0x000fea00
0x00007947 0xffffb340 0x0383ffff 0x000fea00
0xff117807 0x00000001 0x01000000 0x000fe200
0xff107424 0xffffffff 0x078e00ff 0x000fe200
0x000f7802 0x00005b20 0x00000f00 0x000fc600
0x00007944 0x00000770 0x03c00000 0x001fea00
0x1000780c 0x00000001 0x03f42070 0x000fe200
0x00007947 0xffffd930 0x0383ffff 0x000ff600
0xff117807 0x00000001 0x01000000 0x000fe200
0xff107424 0xffffffff 0x078e00ff 0x000fe200
0x000f7802 0x00005b80 0x00000f00 0x000fc600
0x00007944 0x00000790 0x03c00000 0x003fea00
0x002e7919 0x00000000 0x00003c00 0x000e2200
0xff267224 0x000000ff 0x078e002b 0x000fe200
0x000f7802 0x00005c20 0x00000f00 0x000fe200
0xff107424 0x00000001 0x078e00ff 0x000fc400
0xff287424 0xffffffff 0x078e00ff 0x000fe200
0x110a7812 0x80000000 0x078eec2e 0x001fcc00
0x000a7301 0x0000000a 0x00000000 0x000e3000
0x00117300 0x0000000a 0x000e0000 0x001e2400
0x11117810 0x0000001f 0x07ffe1ff 0x001fcc00
0x00007944 0x00000580 0x03c00000 0x000fea00
0x0900720c 0x00000011 0x03f46270 0x000fe200
0xff287424 0xffffffff 0x078e00ff 0x000fe200
0x000f7802 0x00005c90 0x00000f00 0x000fc400
0x10107207 0x000000ff 0x05000000 0x002fca00
0x10267824 0x00000001 0x078e022b 0x000fe400
0xff107424 0x00000002 0x078e00ff 0x000fc600
0x00007944 0x00000510 0x03c00000 0x000fea00
0x090a7810 0x00000002 0x07ffe0ff 0x000fe200
0xff287424 0xffffffff 0x078e00ff 0x000fe200
0x000f7802 0x00005d10 0x00000f00 0x000fe400
0x0a00720c 0x00000011 0x03f44270 0x000fc800
0x10107207 0x000000ff 0x05000000 0x002fca00
0x26267824 0x00000001 0x078e0210 0x000fe400
0xff107424 0x00000004 0x078e00ff 0x000fc600
0x00007944 0x00000490 0x03c00000 0x000fea00
0x090b7810 0x00000004 0x07ffe0ff 0x000fe200
0xff287424 0xffffffff 0x078e00ff 0x000fe200
0x000f7802 0x00005d90 0x00000f00 0x000fe400
0x0b00720c 0x00000011 0x03f44270 0x000fc800
0x10107207 0x000000ff 0x05000000 0x002fca00
0x26267824 0x00000001 0x078e0210 0x000fe400
0xff107424 0x00000008 0x078e00ff 0x000fc600
0x00007944 0x00000410 0x03c00000 0x000fea00
0x090c7810 0x00000008 0x07ffe0ff 0x000fe200
0xff287424 0xffffffff 0x078e00ff 0x000fe200
0x000f7802 0x00005e10 0x00000f00 0x000fe400
0x0c00720c 0x00000011 0x03f44270 0x000fc800
0x10107207 0x000000ff 0x05000000 0x002fca00
0x26267824 0x00000001 0x078e0210 0x000fe400
0xff107424 0x00000010 0x078e00ff 0x000fc600
0x00007944 0x00000390 0x03c00000 0x000fea00
0xff0f7224 0x000000ff 0x078e0010 0x002fe200
0x00007947 0xffffd8f0 0x0383ffff 0x000fea00
0xff0f7807 0x00000001 0x05000000 0x000fe200
0xff117424 0xffffffff 0x078e00ff 0x001fe200
0x00107802 0x00005e70 0x00000f00 0x000fc600
0x00007944 0x00000380 0x03c00000 0x000fea00
0x0f00780c 0x00000001 0x03f42070 0x000fe200
0x00007947 0xffffd950 0x0383ffff 0x000ff600
0xff117807 0x00000001 0x01000000 0x001fe200
0xff107424 0xffffffff 0x078e00ff 0x000fe200
0x000f7802 0x00005ed0 0x00000f00 0x000fc600
0x00007944 0x000003c0 0x03c00000 0x002fea00
0x1000780c 0x00000001 0x03f42070 0x000fe200
0x00007947 0xffffd9a0 0x0383ffff 0x000ff600
0xff117807 0x00000001 0x01000000 0x001fe200
0xff107424 0xffffffff 0x078e00ff 0x000fe200
0x000f7802 0x00005f30 0x00000f00 0x000fc600
0x00007944 0x000003e0 0x03c00000 0x002fea00
0x110f7812 0x80000000 0x078eec2e 0x000fe200
0xff267224 0x000000ff 0x078e002b 0x000fc400
0xff107424 0x00000001 0x078e00ff 0x000fe400
0xff287424 0xffffffff 0x078e00ff 0x000fe200
0x000f7301 0x0000000f 0x00000000 0x000e3000
0x00117300 0x0000000f 0x000e0000 0x00106400
0x000f7802 0x00005fc0 0x00000f00 0x001fc400
0x11117810 0x0000001f 0x07ffe1ff 0x002fc800
0x00007944 0x000001e0 0x03c00000 0x000fea00
0x0900720c 0x00000011 0x03f46270 0x000fe200
0xff287424 0xffffffff 0x078e00ff 0x000fe200
0x000f7802 0x00006030 0x00000f00 0x000fe400
0x10107207 0x000000ff 0x05000000 0x002fca00
0x10267824 0x00000001 0x078e022b 0x000fe400
0xff107424 0x00000002 0x078e00ff 0x000fc600
0x00007944 0x00000170 0x03c00000 0x000fea00
0x0a00720c 0x00000011 0x03f44270 0x000fe200
0xff287424 0xffffffff 0x078e00ff 0x000fe200
0x000f7802 0x000060a0 0x00000f00 0x000fe400
0x10107207 0x000000ff 0x05000000 0x002fca00
0x26267824 0x00000001 0x078e0210 0x000fe400
0xff107424 0x00000004 0x078e00ff 0x000fc600
0x00007944 0x00000100 0x03c00000 0x000fea00
0x0b00720c 0x00000011 0x03f44270 0x000fe200
0xff287424 0xffffffff 0x078e00ff 0x000fe200
0x000f7802 0x00006110 0x00000f00 0x000fe400
0x10107207 0x000000ff 0x05000000 0x002fca00
0x26267824 0x00000001 0x078e0210 0x000fe400
0xff107424 0x00000008 0x078e00ff 0x000fc600
0x00007944 0x00000090 0x03c00000 0x000fea00
0x0c00720c 0x00000011 0x03f44270 0x000fe200
0xff287424 0xffffffff 0x078e00ff 0x000fe200
0x000f7802 0x00006190 0x00000f00 0x000fe400
0x10107207 0x000000ff 0x05000000 0x002fca00
0x262b7824 0x00000001 0x078e0210 0x000fe400
0xff107424 0x00000010 0x078e00ff 0x000fe400
0xff267224 0x000000ff 0x078e002b 0x000fc600
0x00007944 0x00000010 0x03c00000 0x000fea00
0x00007947 0xffffd950 0x0383ffff 0x000fea00
0x00007348 0x00000028 0x03800000 0x000fe800
0x26107389 0x08000010 0x000e0011 0x00006200
0xff297424 0x00000000 0x078e00ff 0x000fe400
0xff287224 0x000000ff 0x078e000f 0x001fcc00
0x28007950 0xffff9e10 0x03c3ffff 0x000fea00
0x0f00780c 0x00000001 0x03f45070 0x000fe200
0x00007348 0x00000011 0x03800000 0x000fe800
0x00047886 0x00000000 0x038e0100 0x000fce00
0x000f7806 0x00000000 0x050e0100 0x000fe400
0x11117c12 0x00000004 0x0f8ec0ff 0x000fc800
0x0f0f7212 0x00000011 0x078ec0ff 0x000fc800
0x0f00720c 0x00000011 0x03f45070 0x000fe200
0xff117424 0x00000000 0x078e00ff 0x000fc600
0xff0f7807 0x00000001 0x01000000 0x000fc600
0x10007950 0xffff9d70 0x03c3ffff 0x000fea00
0x1100780c 0x00000001 0x03f45070 0x000fe200
0x00007348 0x00000010 0x03800000 0x000fe800
0xff2c7224 0x000000ff 0x078e000f 0x000fe400
0xff2d7424 0x00000000 0x078e00ff 0x000fca00
0x00117806 0x00000000 0x050e0100 0x000fc800
0x11ff7212 0x00000010 0x0784c0ff 0x000fc800
0xff107807 0x00000001 0x05000000 0x000fe200
0x2c007950 0xffff9cf0 0x03c3ffff 0x000fee00
0x1100780c 0x00000001 0x03f45070 0x000fe200
0xff287224 0x000000ff 0x078e000f 0x000fe200
0x00007348 0x00000010 0x03800000 0x000fe800
0xff297424 0x00000000 0x078e00ff 0x000fcc00
0x00117806 0x00000000 0x050e0100 0x000fc800
0x11117212 0x00000010 0x078ec0ff 0x000fe200
0x28007950 0xffff9c80 0x03c3ffff 0x000fee00
0x00007947 0xfffffff0 0x0383ffff 0x000fc000
0x00007918 0x00000000 0x00000000 0x000fc000
0x00007918 0x00000000 0x00000000 0x000fc000
0x00007918 0x00000000 0x00000000 0x000fc000
0x00007918 0x00000000 0x00000000 0x000fc000
0x00007918 0x00000000 0x00000000 0x000fc000
0x00007918 0x00000000 0x00000000 0x000fc000
0x00007918 0x00000000 0x00000000 0x000fc000



.text._ZN3cub17CUB_200400_750_NS18DeviceReduceKernelINS0_18DeviceReducePolicyIlyN4cuda3std3__44plusIvEEE9Policy600ENS0_22TransformInputIteratorIb7NonZeroIdEPdlEEyS7_lNS5_10__identityEEEvT0_PT3_T1_NS0_13GridEvenShareISJ_EET2_T4_
bar = 1	reg = 46	lmem=0	smem=80
0xff017624 0x00000a00 0x078e00ff 0x000fe400
0x00007919 0x00000000 0x00002500 0x000e2200
0x00ff7355 0x00000000 0x00100000 0x000fe200
0x00007945 0x00002af0 0x03800000 0x000fe200
0x000b7824 0x00000800 0x078e00ff 0x001fca00
0x0b0a7a10 0x00006800 0x07f3e1ff 0x000fe400
0xff057819 0x0000001f 0x0001140b 0x000fe400
0x0a00780c 0x00000800 0x03f06070 0x000fe400
0x05197a10 0x00006900 0x00ffe5ff 0x000fc800
0x1900720c 0x000000ff 0x03f06100 0x000fd800
0x00008947 0x00001570 0x03800000 0x000fea00
0x00167919 0x00000000 0x00002100 0x000e2400
0x0b187210 0x00000016 0x07f1e0ff 0x001fc800
0x16177211 0x00000005 0x000f0eff 0x000fe400
0x18027a11 0x00005a00 0x078018ff 0x000fc800
0x18037a11 0x00005b00 0x000f1c17 0x000fd000
0x021a7381 0x00000000 0x001eeb00 0x000ea800
0x02067381 0x00080000 0x001eeb00 0x000ee800
0x02087381 0x00100000 0x001eeb00 0x000f2800
0x020c7381 0x00180000 0x001eeb00 0x000f6800
0x020e7381 0x00200000 0x001eeb00 0x000f6800
0x02107381 0x00280000 0x001eeb00 0x000f6800
0x02127381 0x00300000 0x001eeb00 0x00016800
0x02147381 0x00380000 0x001eeb00 0x00016200
0x1a00722a 0x000000ff 0x03f0d000 0x004e4800
0x0600722a 0x000000ff 0x03f2d000 0x00828800
0x0800722a 0x000000ff 0x03f4d000 0x01072200
0xff067807 0x00000001 0x04000000 0x002fe200
0xff097624 0x00006a00 0x078e00ff 0x008fe400
0x0c00722a 0x000000ff 0x03f6d000 0x020e2200
0xff077807 0x00000001 0x04800000 0x004fe200
0x09097824 0x00000800 0x078e00ff 0x000fe400
0x0e00722a 0x000000ff 0x03f8d000 0x000e6200
0xff047807 0x00000001 0x05000000 0x010fe400
0xff087819 0x0000001f 0x00011409 0x000fe200
0x1000722a 0x000000ff 0x03f0d000 0x000ea200
0x04047210 0x00000007 0x07a3e006 0x000fc400
0xff027807 0x00000001 0x05800000 0x001fe200
0x1200722a 0x000000ff 0x03fcd000 0x000e2200
0xff037807 0x00000001 0x06000000 0x002fc600
0x1400722a 0x000000ff 0x03fad000 0x000e6200
0x03047210 0x00000004 0x07c7e002 0x000fe400
0xff027807 0x00000001 0x04000000 0x004fe400
0x0a00720c 0x00000009 0x03f06070 0x000fe400
0xff077807 0x00000001 0x07000000 0x001fe400
0x1900720c 0x00000008 0x03f06100 0x000fe400
0xff037210 0x000000ff 0x00fe44ff 0x000fc400
0x07047210 0x00000004 0x07a3e002 0x000fe200
0xff027224 0x000000ff 0x078e0016 0x000fe200
0xff077807 0x00000001 0x06800000 0x002fe400
0xff037210 0x00000003 0x01fe84ff 0x000fe400
0x04047210 0x00000007 0x07f7e0ff 0x000fe400
0xff037210 0x00000003 0x00fe44ff 0x000fca00
0xff037224 0x000000ff 0x018e0603 0x000fe200
0x00008947 0x00000ef0 0x03800000 0x000fea00
0x00047ab9 0x00006800 0x00000a00 0x000fe200
0x090a7210 0x0000000b 0x07f1e0ff 0x040fe200
0x04047890 0xfffff800 0x0ff1e03f 0x000fe200
0x09077210 0x00000018 0x07f3e0ff 0x000fc600
0x05057890 0xffffffff 0x087fe43f 0x000fe200
0x080b7824 0x00000001 0x000e0605 0x000fe200
0x0a007c0c 0x00000004 0x0bf04070 0x000fe200
0x080c7824 0x00000001 0x008e0617 0x000fe200
0x07067a11 0x00005a00 0x078418ff 0x000fe200
0xff057224 0x000000ff 0x078e0016 0x000fe200
0x0b007c0c 0x00000005 0x0bf04100 0x000fe400
0x0a1c7a11 0x00005a00 0x078218ff 0x000fe400
0x07077a11 0x00005b00 0x010f1c0c 0x000fc400
0x0a1d7a11 0x00005b00 0x008f1c0b 0x000fcc00
0x00000947 0x00000340 0x03800000 0x000fea00
0x050d7210 0x0000000a 0x07f1e0ff 0x000fc800
0x050e7211 0x0000000b 0x000f0eff 0x000fe400
0x0d0c7a11 0x00005a00 0x078018ff 0x000fc800
0x0d0d7a11 0x00005b00 0x000f1c0e 0x000fd000
0x0c1e7381 0x00000000 0x001eeb00 0x000ea800
0x0c0e7381 0x00080000 0x001eeb00 0x000ee800
0x0c107381 0x00100000 0x001eeb00 0x000f2800
0x0c127381 0x00180000 0x001eeb00 0x000f6800
0x0c147381 0x00200000 0x001eeb00 0x000f6800
0x0c167381 0x00280000 0x001eeb00 0x00016800
0x0c187381 0x00300000 0x001eeb00 0x00016800
0x0c1a7381 0x00380000 0x001eeb00 0x00016200
0x1e00722a 0x000000ff 0x03f0d000 0x004e4800
0x0e00722a 0x000000ff 0x03f2d000 0x00828800
0x1000722a 0x000000ff 0x03f6d000 0x010e2200
0xff0e7807 0x00000001 0x04000000 0x002fc600
0x1200722a 0x000000ff 0x03f8d000 0x020e6200
0xff0f7807 0x00000001 0x04800000 0x004fc600
0x1400722a 0x000000ff 0x03fad000 0x000ea200
0x0f0e7210 0x00000004 0x07a3e00e 0x000fe400
0xff0c7807 0x00000001 0x05800000 0x001fe200
0x1600722a 0x000000ff 0x03fcd000 0x000e2200
0xff0d7807 0x00000001 0x06000000 0x002fe400
0x0a047a10 0x00006800 0x07f9e1ff 0x000fe200
0x1800722a 0x000000ff 0x03f0d000 0x000e6200
0xff107807 0x00000001 0x06800000 0x004fc600
0x1a00722a 0x000000ff 0x03f6d000 0x000ea200
0xff0f7807 0x00000001 0x07000000 0x001fe400
0x0d0c7210 0x0000000e 0x07ebe00c 0x000fe400
0xff0e7807 0x00000001 0x04000000 0x002fe400
0xff0d7210 0x00000003 0x00fe44ff 0x000fe400
0x0400720c 0x00000009 0x03f06070 0x000fe400
0x0b037a10 0x00006900 0x027fe5ff 0x000fc400
0x0f047210 0x0000000c 0x07a3e010 0x000fe400
0x0300720c 0x00000008 0x03f06100 0x000fe400
0xff0f7807 0x00000001 0x05800000 0x004fe400
0xff0c7210 0x0000000d 0x02fec4ff 0x000fe400
0x0f047210 0x00000004 0x07c7e00e 0x000fe400
0xff037210 0x0000000c 0x00fe44ff 0x000fc800
0xff037210 0x00000003 0x01fe84ff 0x000fe200
0x00008947 0x00000b70 0x03800000 0x000fea00
0x090a7210 0x0000000a 0x07f1e0ff 0x040fe200
0xff0c7224 0x000000ff 0x078e001c 0x000fe400
0xff0d7224 0x000000ff 0x078e001d 0x000fe400
0x080b7824 0x00000001 0x000e060b 0x000fe200
0x0a007c0c 0x00000004 0x0bf04070 0x000fe200
0x090c7825 0x00000008 0x078e020c 0x000fc600
0x0b007c0c 0x00000005 0x0bf04100 0x000fe200
0x09067825 0x00000008 0x078e0206 0x000fc800
0xff1c7224 0x000000ff 0x078e000c 0x000fe400
0xff1d7224 0x000000ff 0x078e000d 0x000fca00
0x00008947 0xfffffcc0 0x0383ffff 0x000fea00
0x0a007a0c 0x00006800 0x03f06070 0x000fe200
0xff0c7224 0x000000ff 0x078e001c 0x000fe400
0xff0d7224 0x000000ff 0x078e001d 0x000fe200
0x0b007a0c 0x00006900 0x03f06100 0x000fd800
0x00000947 0x00000a70 0x03800000 0x000fea00
0x0a087a10 0x00006800 0x07ffe1ff 0x000fe200
0x01ff7355 0x00000000 0x00100000 0x000fe200
0x00017945 0x00000a40 0x03800000 0x000fe400
0x0500720c 0x00000008 0x03f06270 0x000fd800
0x00000947 0x00000a10 0x03800000 0x000fea00
0xff097212 0x00000005 0x078e33ff 0x000fe200
0x02ff7355 0x00000000 0x00100000 0x000fe200
0x00027945 0x00000120 0x03800000 0x000fe400
0x0a0a7a10 0x00006800 0x07ffe109 0x000fc800
0x0a097811 0x00000001 0x078fc0ff 0x040fe400
0x0a00780c 0x00000300 0x03f26070 0x000fe400
0x09097812 0x00000003 0x0780c0ff 0x000fd800
0x00008947 0x000000c0 0x03800000 0x000fea00
0x00057919 0x00000000 0x00002100 0x000e2400
0x060a7381 0x00000000 0x001eeb00 0x0002a200
0x09097810 0xffffffff 0x07ffe0ff 0x000fe400
0x05057810 0x00000100 0x07ffe0ff 0x001fe400
0x06067810 0x00000800 0x07f7e0ff 0x002fca00
0xff077224 0x000000ff 0x018e0607 0x000fe200
0x0a00722a 0x000000ff 0x03f0d000 0x004e1200
0xff0b7807 0x00000001 0x04000000 0x001fe400
0x0900720c 0x000000ff 0x03f05270 0x000fe400
0x04047210 0x0000000b 0x07f5e0ff 0x000fca00
0xff037224 0x000000ff 0x010e0603 0x000fca00
0x00000947 0xffffff50 0x0383ffff 0x000fea00
0x00027941 0x00000000 0x03800000 0x000fea00
0x00009947 0x000008b0 0x03800000 0x000fea00
0x08067824 0x00000001 0x078e0a05 0x000fe200
0x02ff7355 0x00000000 0x00100000 0x000fe200
0x00027945 0x000004c0 0x03800000 0x000fe200
0x0000781c 0x00000000 0x03f0f070 0x000fe400
0x0600780c 0x00000c00 0x03f24270 0x000fe200
0x05067825 0x00000008 0x078e020c 0x000fd600
0x00009947 0x00000470 0x03800000 0x000fea00
0x0000781c 0x00000000 0x03f0e170 0x000fe400
0x080e7810 0xfffff400 0x07ffe0ff 0x000fe400
0x062a7381 0x00080000 0x001eeb00 0x000ea800
0x06167381 0x00000000 0x001eeb00 0x000ee800
0x06187381 0x00100000 0x001eeb00 0x000f2800
0x061a7381 0x00180000 0x001eeb00 0x000f6800
0x061c7381 0x00200000 0x001eeb00 0x000f6800
0x061e7381 0x00280000 0x001eeb00 0x000f6800
0x06207381 0x00300000 0x001eeb00 0x000f6800
0x06227381 0x00380000 0x001eeb00 0x000f6800
0x06247381 0x00400000 0x001eeb00 0x000f6800
0x06267381 0x00480000 0x001eeb00 0x000f6800
0x06287381 0x00500000 0x001eeb00 0x000f6800
0x06147381 0x00580000 0x001eeb00 0x000f6800
0x06127381 0x00600000 0x001eeb00 0x000f6800
0x06107381 0x00680000 0x001eeb00 0x000f6800
0x060c7381 0x00700000 0x001eeb00 0x000f6800
0x060a7381 0x00780000 0x001eeb00 0x000f6200
0x05057810 0x00001000 0x07ffe0ff 0x000fe200
0x2a00722a 0x000000ff 0x03f4d000 0x004e0800
0x1600722a 0x000000ff 0x03f6d000 0x008e4800
0x1800722a 0x000000ff 0x03f8d000 0x010ea200
0xff097807 0x00000001 0x05000000 0x001fc600
0x1a00722a 0x000000ff 0x03fad000 0x020e2200
0xff0f7807 0x00000001 0x05800000 0x002fc600
0x1c00722a 0x000000ff 0x03fcd000 0x00046400
0xff1c7807 0x00000001 0x06000000 0x004fe400
0x1e00722a 0x000000ff 0x03f2d000 0x000ea200
0xff197807 0x00000001 0x06800000 0x001fc600
0x2000722a 0x000000ff 0x03f4d000 0x000e2200
0xff1a7807 0x00000001 0x07000000 0x002fc600
0x2200722a 0x000000ff 0x03f6d000 0x000e6200
0xff177807 0x00000001 0x04800000 0x004fc600
0x2400722a 0x000000ff 0x03f8d000 0x000ea200
0xff187807 0x00000001 0x05000000 0x001fe400
0x09047210 0x00000004 0x07a3e00f 0x000fe200
0x2600722a 0x000000ff 0x03fad000 0x000e2200
0xff0f7807 0x00000001 0x05800000 0x002fc600
0x2800722a 0x000000ff 0x03fcd000 0x000e6200
0xff167807 0x00000001 0x06000000 0x004fc600
0x1400722a 0x000000ff 0x03f6d000 0x0002a200
0xff097807 0x00000001 0x06800000 0x001fe400
0x19047210 0x00000004 0x07d9e01c 0x000fe400
0xff147807 0x00000001 0x07000000 0x002fe400
0x1200722a 0x000000ff 0x03fcd000 0x00006400
0xff127210 0x00000003 0x00fe44ff 0x001fe400
0xff037807 0x00000001 0x05800000 0x004fc400
0x17047210 0x00000004 0x07a3e01a 0x000fe200
0x1000722a 0x000000ff 0x03f6d000 0x0000a400
0xff107210 0x00000012 0x027ea4ff 0x001fe400
0x0f0f7210 0x00000004 0x07cbe018 0x000fe400
0xff047807 0x00000001 0x07000000 0x002fe400
0x0c00722a 0x000000ff 0x03fcd000 0x0001e400
0xff0d7210 0x00000010 0x00fe44ff 0x001fc400
0x090c7210 0x0000000f 0x0795e016 0x000fe400
0xff097807 0x00000001 0x05800000 0x004fe400
0x0a00722a 0x000000ff 0x03f6d000 0x00006400
0xff0a7210 0x0000000d 0x02fe84ff 0x001fe400
0x03037210 0x0000000c 0x07d9e014 0x000fe400
0xff0a7210 0x0000000a 0x017e24ff 0x000fc400
0x09097210 0x00000003 0x07a3e004 0x000fe400
0xff047807 0x00000001 0x05800000 0x002fe400
0x0500720c 0x0000000e 0x03f66270 0x000fe400
0xff037807 0x00000001 0x07000000 0x000fe400
0xff0a7210 0x0000000a 0x027ea4ff 0x000fe400
0x04047210 0x00000009 0x07d9e003 0x000fc400
0x06067810 0x00008000 0x07fde0ff 0x000fe400
0xff037210 0x0000000a 0x00fe44ff 0x000fc600
0xff077224 0x000000ff 0x030e0607 0x000fe200
0xff037210 0x00000003 0x027ea4ff 0x000fe200
0x0000b947 0xfffffbb0 0x0383ffff 0x000fec00
0x00027941 0x00000000 0x03800000 0x000fea00
0x08097824 0x00000001 0x078e0a05 0x000fe200
0x02ff7355 0x00000000 0x00100000 0x000fe200
0x00027945 0x00000270 0x03800000 0x000fe600
0x0900780c 0x00000400 0x03f24270 0x000fd800
0x00009947 0x00000240 0x03800000 0x000fea00
0x06187381 0x00000000 0x001eeb00 0x000ea800
0x060a7381 0x00080000 0x001eeb00 0x000ee800
0x060c7381 0x00100000 0x001eeb00 0x000f2800
0x060e7381 0x00180000 0x001eeb00 0x000f6800
0x06107381 0x00200000 0x001eeb00 0x000f6800
0x06127381 0x00280000 0x001eeb00 0x000f6800
0x06147381 0x00300000 0x001eeb00 0x000f6800
0x06167381 0x00380000 0x001eeb00 0x000f6200
0x05057810 0x00000800 0x07ffe0ff 0x000fe200
0x1800722a 0x000000ff 0x03f2d000 0x004e0800
0x0a00722a 0x000000ff 0x03f4d000 0x008e4800
0x0c00722a 0x000000ff 0x03f0d000 0x010ea200
0xff097807 0x00000001 0x04800000 0x001fc600
0x0e00722a 0x000000ff 0x03fcd000 0x020e2200
0xff0b7807 0x00000001 0x05000000 0x002fc600
0x1000722a 0x000000ff 0x03fad000 0x000e6200
0x0b0b7210 0x00000004 0x07c7e009 0x000fe400
0xff097807 0x00000001 0x04000000 0x004fe200
0x1200722a 0x000000ff 0x03f4d000 0x000ea200
0xff0a7807 0x00000001 0x07000000 0x001fc600
0x1400722a 0x000000ff 0x03f2d000 0x000e2200
0xff047807 0x00000001 0x06800000 0x002fe400
0x0a0a7210 0x0000000b 0x07ebe009 0x000fe200
0x1600722a 0x000000ff 0x03f0d000 0x000e6200
0xff097807 0x00000001 0x05000000 0x004fe400
0xff0b7210 0x00000003 0x01fe84ff 0x000fe400
0x09097210 0x0000000a 0x07a7e004 0x000fe400
0xff037807 0x00000001 0x04800000 0x001fc400
0xff047807 0x00000001 0x04000000 0x002fe400
0xff0a7210 0x0000000b 0x02fec4ff 0x000fe400
0x06067810 0x00004000 0x07fbe0ff 0x000fe400
0x04047210 0x00000009 0x07c3e003 0x000fe400
0xff037210 0x0000000a 0x01fe44ff 0x000fe200
0xff077224 0x000000ff 0x028e0607 0x000fe200
0x0000781c 0x00000000 0x03f0e170 0x000fc400
0xff037210 0x00000003 0x00fe84ff 0x000fca00
0x00027941 0x00000000 0x03800000 0x000fea00
0x0500720c 0x00000008 0x00701670 0x000fd800
0x00008947 0x00000100 0x03800000 0x000fea00
0x060e7381 0x00000000 0x001eeb00 0x000ea800
0x06087381 0x00080000 0x001eeb00 0x000ee800
0x060a7381 0x00100000 0x001eeb00 0x000f2800
0x060c7381 0x00180000 0x001eeb00 0x000f6200
0x0e00722a 0x000000ff 0x03f0d000 0x004e0800
0x0800722a 0x000000ff 0x03f2d000 0x008e4800
0x0a00722a 0x000000ff 0x03f4d000 0x0100a400
0xff0a7807 0x00000001 0x04000000 0x001fe400
0x0c00722a 0x000000ff 0x03f6d000 0x020e2200
0xff097807 0x00000001 0x04800000 0x002fc800
0xff087807 0x00000001 0x05000000 0x004fe400
0x09047210 0x00000004 0x0791e00a 0x000fe400
0xff057807 0x00000001 0x05800000 0x001fe400
0xff037210 0x00000003 0x007e24ff 0x000fe400
0x05047210 0x00000004 0x07b5e008 0x000fc800
0xff037210 0x00000003 0x017e64ff 0x000fc600
0x00017941 0x00000000 0x03800000 0x000fea00
0x000d7919 0x00000000 0x00000000 0x000e2800
0x04057f89 0x08201f00 0x000e0000 0x000e6800
0x03067f89 0x08201f00 0x000e0000 0x000ea200
0x0d00780c 0x0000001e 0x03f04270 0x001fc800
0x05057207 0x000000ff 0x04000000 0x002fc800
0x040a7210 0x00000005 0x07f3e0ff 0x000fe400
0x06067207 0x000000ff 0x04000000 0x004fe400
0x0d00780c 0x0000001d 0x03f04270 0x000fc600
0x030c7824 0x00000001 0x008e0606 0x000fe200
0x0a057f89 0x08401f00 0x000e0000 0x000e2e00
0x0c067f89 0x08401f00 0x000e0000 0x000e6200
0x05057207 0x000000ff 0x04000000 0x001fc800
0x05087210 0x0000000a 0x07f3e0ff 0x000fe400
0x06057207 0x000000ff 0x04000000 0x002fe400
0x0d00780c 0x0000001b 0x03f04270 0x000fc600
0x05057824 0x00000001 0x008e060c 0x000fe200
0x08037f89 0x08801f00 0x000e0000 0x000e2e00
0x05047f89 0x08801f00 0x000e0000 0x000e6200
0x03037207 0x000000ff 0x04000000 0x001fc800
0x03067210 0x00000008 0x07f3e0ff 0x000fe400
0x04047207 0x000000ff 0x04000000 0x002fe400
0x0d00780c 0x00000017 0x03f04270 0x000fc600
0x04097824 0x00000001 0x008e0605 0x000fe200
0x06037f89 0x09001f00 0x000e0000 0x000e2200
0x0d00720c 0x000000ff 0x03f25270 0x000fcc00
0x09047f89 0x09001f00 0x000e0000 0x000e6c00
0x000b9919 0x00000000 0x00002100 0x000ea200
0x03037207 0x000000ff 0x04000000 0x001fc800
0x03077210 0x00000006 0x07f5e0ff 0x000fe400
0x04047207 0x000000ff 0x04000000 0x002fe400
0x0d00780c 0x0000000f 0x03f04270 0x000fc600
0x04087824 0x00000001 0x010e0609 0x000fe200
0x07037f89 0x0a001f00 0x000e0000 0x000e2200
0xff049819 0x0000001f 0x0001140b 0x004fc800
0x04049211 0x0000000b 0x078f28ff 0x000fe400
0x08057f89 0x0a001f00 0x000e0000 0x000e6200
0x03067207 0x000000ff 0x04000000 0x001fe400
0xff039819 0x00000005 0x00011404 0x000fe400
0x06047210 0x00000007 0x07f5e0ff 0x000fe400
0x05057207 0x000000ff 0x04000000 0x002fe200
0x03039824 0x00000008 0x078e00ff 0x000fe200
0x0200720c 0x000000ff 0x03f05270 0x000fc600
0x05057824 0x00000001 0x010e0608 0x000fd000
0x03009388 0x00000804 0x00000a00 0x000fe800
0x00007b1d 0x00000000 0x00000000 0x000fea00
0x00000947 0x000015e0 0x03800000 0x000fea00
0xff087984 0x00001000 0x00001c00 0x000e3000
0xff0c7984 0x00002000 0x00001c00 0x000e7000
0xff107984 0x00003000 0x00001c00 0x000eb000
0xff027984 0x00004000 0x00001a00 0x000ee200
0x0a077210 0x00000008 0x0791e004 0x001fc800
0x0b097210 0x00000009 0x007e2405 0x000fe400
0x0e057210 0x00000007 0x0791e00c 0x002fc800
0x0f0d7210 0x00000009 0x007e240d 0x000fe400
0x12057210 0x00000005 0x0791e010 0x004fc800
0x13117210 0x0000000d 0x007e2411 0x000fe400
0x02047210 0x00000005 0x07f1e0ff 0x008fe200
0xff027224 0x000000ff 0x078e00ff 0x000fc800
0x03057824 0x00000001 0x000e0611 0x000fe200
0x00007947 0x00001500 0x03800000 0x000fea00
0x00087919 0x00000000 0x00002100 0x000e2200
0x0b037a10 0x00006800 0x07ffe1ff 0x000fe200
0x01ff7355 0x00000000 0x00100000 0x000fe200
0x00017945 0x000000e0 0x03800000 0x000fe200
0x00067805 0x00000000 0x0001ff00 0x000fe200
0x0800720c 0x00000003 0x03f06270 0x001fe200
0xff027224 0x000000ff 0x078e0008 0x000fd600
0x00000947 0x00000090 0x03800000 0x000fea00
0x0b047210 0x00000002 0x07f1e0ff 0x000fc800
0x02077211 0x00000005 0x000f0eff 0x000fe400
0x040c7a11 0x00005a00 0x078018ff 0x000fc800
0x040d7a11 0x00005b00 0x000f1c07 0x000fd000
0x0c067381 0x00000000 0x001eeb00 0x000ea200
0x02087810 0x00000100 0x07ffe0ff 0x000fe200
0x0600722a 0x000000ff 0x03f0d000 0x00406400
0xff067224 0x000000ff 0x078e00ff 0x001fce00
0xff077807 0x00000001 0x04000000 0x002fc600
0x00017941 0x00000000 0x03800000 0x000fea00
0x0800720c 0x00000003 0x03f06270 0x000fe200
0x01ff7355 0x00000000 0x00100000 0x000fe200
0x00017945 0x00000ab0 0x03800000 0x000ff400
0x00000947 0x00000a90 0x03800000 0x000fea00
0xff047212 0x00000008 0x078e33ff 0x000fe200
0x02ff7355 0x00000000 0x00100000 0x000fe200
0x00027945 0x00000170 0x03800000 0x000fe400
0x0b097a10 0x00006800 0x07ffe104 0x000fc800
0x09047811 0x00000001 0x078fc0ff 0x040fe400
0x0900780c 0x00000300 0x03f06070 0x000fe400
0x04047812 0x00000003 0x0782c0ff 0x000fd800
0x00009947 0x00000110 0x03800000 0x000fea00
0x0b0e7210 0x00000008 0x07f3e0ff 0x000fc800
0x080d7211 0x00000005 0x008f0eff 0x000fe400
0x0e097a11 0x00005a00 0x078218ff 0x000fc800
0x0e0e7a11 0x00005b00 0x008f1c0d 0x000fc600
0xff0c7224 0x000000ff 0x078e0009 0x000fe400
0xff0d7224 0x000000ff 0x078e000e 0x000fd000
0x0c0c7381 0x00000000 0x001eeb00 0x000ea200
0x04047810 0xffffffff 0x07ffe0ff 0x000fe400
0x09097810 0x00000800 0x07f7e0ff 0x000fe400
0x08087810 0x00000100 0x07ffe0ff 0x000fc600
0xff0e7224 0x000000ff 0x018e060e 0x000fe200
0x0c00722a 0x000000ff 0x03f2d000 0x004e1200
0xff0a7807 0x00000001 0x04800000 0x001fe400
0x0400720c 0x000000ff 0x03f25270 0x000fe400
0x07077210 0x0000000a 0x07f5e0ff 0x000fca00
0xff067224 0x000000ff 0x010e0606 0x000fca00
0x00001947 0xffffff30 0x0383ffff 0x000fea00
0x00027941 0x00000000 0x03800000 0x000fea00
0x00008947 0x000008e0 0x03800000 0x000fea00
0x03097824 0x00000001 0x078e0a08 0x000fe200
0x0b0b7210 0x00000008 0x07f1e0ff 0x000fe200
0x02ff7355 0x00000000 0x00100000 0x000fe200
0x00027945 0x000004e0 0x03800000 0x000fe400
0x0900780c 0x00000c00 0x03f24270 0x000fe400
0x080a7211 0x00000005 0x000f0eff 0x000fe400
0x0b047a11 0x00005a00 0x078018ff 0x000fc800
0x0b057a11 0x00005b00 0x000f1c0a 0x000fe400
0x0000781c 0x00000000 0x03f0f070 0x000fe400
0x00009947 0x00000470 0x03800000 0x000fea00
0x0000781c 0x00000000 0x03f0e170 0x000fe400
0x03097810 0xfffff400 0x07ffe0ff 0x000fc600
0x04287381 0x00080000 0x001eeb00 0x000ea800
0x04147381 0x00000000 0x001eeb00 0x000ee800
0x04167381 0x00100000 0x001eeb00 0x000f2800
0x04187381 0x00180000 0x001eeb00 0x000f6800
0x041a7381 0x00200000 0x001eeb00 0x000f6800
0x041c7381 0x00280000 0x001eeb00 0x000f6800
0x041e7381 0x00300000 0x001eeb00 0x000f6800
0x04207381 0x00380000 0x001eeb00 0x000f6800
0x04227381 0x00400000 0x001eeb00 0x000f6800
0x04247381 0x00480000 0x001eeb00 0x000f6800
0x04267381 0x00500000 0x001eeb00 0x000f6800
0x04127381 0x00580000 0x001eeb00 0x000f6800
0x04107381 0x00600000 0x001eeb00 0x000f6800
0x040e7381 0x00680000 0x001eeb00 0x000f6800
0x040c7381 0x00700000 0x001eeb00 0x000f6800
0x040a7381 0x00780000 0x001eeb00 0x000f6200
0x08087810 0x00001000 0x07ffe0ff 0x000fe200
0x2800722a 0x000000ff 0x03f4d000 0x004fc800
0x1400722a 0x000000ff 0x03f6d000 0x008e0800
0x1600722a 0x000000ff 0x03f8d000 0x010e4800
0x1800722a 0x000000ff 0x03fad000 0x0202a200
0xff157807 0x00000001 0x05800000 0x001fc600
0x1a00722a 0x000000ff 0x03fcd000 0x0000e200
0xff197807 0x00000001 0x06000000 0x002fe400
0xff1a7807 0x00000001 0x05000000 0x001fe200
0x1c00722a 0x000000ff 0x03f2d000 0x000e2200
0xff187807 0x00000001 0x06800000 0x004fc600
0x1e00722a 0x000000ff 0x03f4d000 0x000e6200
0xff177807 0x00000001 0x07000000 0x008fc600
0x2000722a 0x000000ff 0x03f6d000 0x000ea200
0xff167807 0x00000001 0x04800000 0x001fc600
0x2200722a 0x000000ff 0x03f8d000 0x000e2200
0xff147807 0x00000001 0x05000000 0x002fe400
0x1a1a7210 0x00000007 0x07a3e015 0x000fe200
0x2400722a 0x000000ff 0x03fad000 0x000e6200
0xff077807 0x00000001 0x05800000 0x004fc600
0x2600722a 0x000000ff 0x03fcd000 0x000ea200
0xff157807 0x00000001 0x06000000 0x001fc600
0x1200722a 0x000000ff 0x03f6d000 0x00022400
0xff127807 0x00000001 0x06800000 0x002fe400
0x18187210 0x0000001a 0x07d9e019 0x000fe400
0xff137807 0x00000001 0x07000000 0x004fe400
0x1000722a 0x000000ff 0x03fcd000 0x0002a400
0xff117210 0x00000006 0x00fe44ff 0x002fc400
0xff107807 0x00000001 0x05800000 0x001fe400
0x16067210 0x00000018 0x07a3e017 0x000fe200
0x0e00722a 0x000000ff 0x03f6d000 0x00006400
0xff0e7210 0x00000011 0x027ea4ff 0x001fe400
0x07067210 0x00000006 0x07cbe014 0x000fe400
0xff077807 0x00000001 0x07000000 0x004fe400
0x0c00722a 0x000000ff 0x03fcd000 0x0001c400
0xff0d7210 0x0000000e 0x00fe44ff 0x001fe400
0x120c7210 0x00000006 0x0795e015 0x000fe400
0xff067807 0x00000001 0x05800000 0x002fe400
0x0a00722a 0x000000ff 0x03f6d000 0x00006400
0xff0b7210 0x0000000d 0x02fe84ff 0x001fe400
0x100a7210 0x0000000c 0x07d9e013 0x000fc400
0xff0b7210 0x0000000b 0x017e24ff 0x000fe400
0x060a7210 0x0000000a 0x07a3e007 0x000fe400
0xff077807 0x00000001 0x05800000 0x002fe400
0x0800720c 0x00000009 0x03f66270 0x000fe400
0xff067807 0x00000001 0x07000000 0x000fe400
0xff0b7210 0x0000000b 0x027ea4ff 0x000fc400
0x07077210 0x0000000a 0x07d9e006 0x000fe400
0x04047810 0x00008000 0x07fde0ff 0x000fe400
0xff067210 0x0000000b 0x00fe44ff 0x000fc600
0xff057224 0x000000ff 0x030e0605 0x000fe200
0xff067210 0x00000006 0x027ea4ff 0x000fe200
0x0000b947 0xfffffbb0 0x0383ffff 0x000fec00
0x00027941 0x00000000 0x03800000 0x000fea00
0x03097824 0x00000001 0x078e0a08 0x000fe200
0x02ff7355 0x00000000 0x00100000 0x000fe200
0x00027945 0x00000270 0x03800000 0x000fe600
0x0900780c 0x00000400 0x03f24270 0x000fd800
0x00009947 0x00000240 0x03800000 0x000fea00
0x04187381 0x00000000 0x001eeb00 0x000ea800
0x040a7381 0x00080000 0x001eeb00 0x000ee800
0x040c7381 0x00100000 0x001eeb00 0x000f2800
0x040e7381 0x00180000 0x001eeb00 0x000f6800
0x04107381 0x00200000 0x001eeb00 0x000f6800
0x04127381 0x00280000 0x001eeb00 0x000f6800
0x04147381 0x00300000 0x001eeb00 0x000f6800
0x04167381 0x00380000 0x001eeb00 0x000f6200
0x08087810 0x00000800 0x07ffe0ff 0x000fe200
0x1800722a 0x000000ff 0x03f2d000 0x004e0800
0x0a00722a 0x000000ff 0x03f4d000 0x008e4800
0x0c00722a 0x000000ff 0x03f0d000 0x010ea200
0xff097807 0x00000001 0x04800000 0x001fc600
0x0e00722a 0x000000ff 0x03fcd000 0x020e2200
0xff0a7807 0x00000001 0x05000000 0x002fc600
0x1000722a 0x000000ff 0x03fad000 0x000e6200
0x0a097210 0x00000007 0x07c7e009 0x000fe400
0xff0c7807 0x00000001 0x04000000 0x004fe200
0x1200722a 0x000000ff 0x03f4d000 0x000ea200
0xff077807 0x00000001 0x07000000 0x001fe400
0xff0b7210 0x00000006 0x01fe84ff 0x000fe200
0x1400722a 0x000000ff 0x03f2d000 0x000e2200
0xff0a7807 0x00000001 0x06800000 0x002fe400
0x07077210 0x00000009 0x07ebe00c 0x000fe200
0x1600722a 0x000000ff 0x03f0d000 0x000e6200
0xff097807 0x00000001 0x05000000 0x004fc800
0x09097210 0x00000007 0x07a7e00a 0x000fe400
0xff067807 0x00000001 0x04800000 0x001fe400
0xff077807 0x00000001 0x04000000 0x002fe400
0xff0a7210 0x0000000b 0x02fec4ff 0x000fe400
0x04047810 0x00004000 0x07fbe0ff 0x000fe400
0x07077210 0x00000009 0x07c3e006 0x000fc400
0xff067210 0x0000000a 0x01fe44ff 0x000fe200
0xff057224 0x000000ff 0x028e0605 0x000fe200
0x0000781c 0x00000000 0x03f0e170 0x000fe400
0xff067210 0x00000006 0x00fe84ff 0x000fca00
0x00027941 0x00000000 0x03800000 0x000fea00
0x0800720c 0x00000003 0x00701670 0x000fd800
0x00008947 0x00000100 0x03800000 0x000fea00
0x040e7381 0x00000000 0x001eeb00 0x000ea800
0x04087381 0x00080000 0x001eeb00 0x000ee800
0x040a7381 0x00100000 0x001eeb00 0x000f2800
0x040c7381 0x00180000 0x001eeb00 0x000f6200
0x0e00722a 0x000000ff 0x03f0d000 0x004e0800
0x0800722a 0x000000ff 0x03f2d000 0x008e4800
0x0a00722a 0x000000ff 0x03f4d000 0x0100a400
0xff0b7807 0x00000001 0x04000000 0x001fe400
0x0c00722a 0x000000ff 0x03f6d000 0x020e2200
0xff0a7807 0x00000001 0x04800000 0x002fc800
0xff097807 0x00000001 0x05000000 0x004fe400
0x0a077210 0x00000007 0x0791e00b 0x000fe400
0xff087807 0x00000001 0x05800000 0x001fe400
0xff067210 0x00000006 0x007e24ff 0x000fe400
0x08077210 0x00000007 0x07b5e009 0x000fc800
0xff067210 0x00000006 0x017e64ff 0x000fc600
0x00017941 0x00000000 0x03800000 0x000fea00
0x00047919 0x00000000 0x00000000 0x000e2200
0x0300780c 0x000000ff 0x03f04270 0x000fe400
0xff057819 0x0000001f 0x00011402 0x000fc800
0x05057211 0x00000002 0x078f28ff 0x000fc800
0xff057819 0x00000005 0x00011405 0x000fca00
0x05087824 0x00000008 0x078e00ff 0x000fe200
0x00000947 0x00000540 0x03800000 0x000fea00
0x05057824 0x00000020 0x078e00ff 0x000fe200
0x0400720c 0x000000ff 0x03f45270 0x001fc800
0xff0c7212 0x00000005 0x078e33ff 0x000fe400
0x050a7810 0x00000020 0x07ffe0ff 0x000fc600
0x030c7824 0x00000001 0x078e020c 0x000fe200
0x0a00720c 0x00000003 0x03f04270 0x000fc800
0x0c097807 0x0000001f 0x00000000 0x000fe400
0x040c7810 0x00000002 0x07ffe0ff 0x040fe400
0x0400720c 0x00000009 0x03f06270 0x000fc800
0x07057989 0x08200000 0x000e0009 0x000e2800
0x060a7989 0x08200000 0x000e0009 0x000e6200
0x050e7207 0x000000ff 0x04000000 0x001fc800
0x070e7210 0x0000000e 0x07f3e0ff 0x000fe400
0x0a057207 0x000000ff 0x04000000 0x002fe400
0x0c00720c 0x00000009 0x03f04270 0x000fc600
0x06107824 0x00000001 0x008e0605 0x000fc600
0x0e057989 0x08400000 0x000e0009 0x000e2a00
0x100a7989 0x08400000 0x000e0009 0x000e6200
0x05057207 0x000000ff 0x04000000 0x001fc800
0x050c7210 0x0000000e 0x07f3e0ff 0x000fe400
0x0a077207 0x000000ff 0x04000000 0x002fe400
0x040a7810 0x00000004 0x07ffe0ff 0x000fc600
0x07077824 0x00000001 0x008e0610 0x000fe200
0x0c057989 0x08800000 0x000e0009 0x000e2200
0x0a00720c 0x00000009 0x03f04270 0x000fe400
0x040a7810 0x00000008 0x07ffe0ff 0x000fc800
0x07067989 0x08800000 0x000e0009 0x000e6200
0x05057207 0x000000ff 0x04000000 0x001fc800
0x050e7210 0x0000000c 0x07f3e0ff 0x000fe400
0x06067207 0x000000ff 0x04000000 0x002fe400
0x0a00720c 0x00000009 0x03f04270 0x000fe400
0x040a7810 0x00000010 0x07ffe0ff 0x000fe200
0x060b7824 0x00000001 0x008e0607 0x000fe200
0x0e057989 0x09000000 0x000e0009 0x000e2e00
0x0b067989 0x09000000 0x000e0009 0x000e6200
0x05057207 0x000000ff 0x04000000 0x001fc800
0x050c7210 0x0000000e 0x07f3e0ff 0x000fe400
0x06067207 0x000000ff 0x04000000 0x002fe400
0x0a00720c 0x00000009 0x03f04270 0x000fc600
0x06077824 0x00000001 0x008e060b 0x000fe200
0x0c057989 0x0a000000 0x000e0009 0x000e2e00
0x07067989 0x0a000000 0x000e0009 0x000e6200
0x05057207 0x000000ff 0x04000000 0x001fc800
0x05047210 0x0000000c 0x07f3e0ff 0x000fe400
0x06067207 0x000000ff 0x04000000 0x002fe400
0x0200720c 0x000000ff 0x03f05270 0x000fc600
0x06057824 0x00000001 0x008e0607 0x000fd000
0x0800a388 0x00000804 0x00000a00 0x000fe800
0x00007b1d 0x00000000 0x00000000 0x000fea00
0x00000947 0x00000570 0x03800000 0x000fea00
0xff107984 0x00001000 0x00001c00 0x000e2200
0x0300780c 0x00000020 0x03f04270 0x000fc400
0x0300780c 0x00000040 0x03f24270 0x000fca00
0xff0c7984 0x00002000 0x00001c00 0x000e7000
0xff087984 0x00003000 0x00001c00 0x000ea200
0x10027207 0x000000ff 0x00000000 0x001fe400
0x12077207 0x000000ff 0x00800000 0x000fc400
0x11107207 0x000000ff 0x00000000 0x000fe400
0x13127207 0x000000ff 0x00800000 0x000fe400
0x07047210 0x00000004 0x07b5e002 0x000fe400
0x0300780c 0x00000060 0x03f04270 0x040fe400
0x0300780c 0x00000080 0x03f24270 0x000fe400
0x12077210 0x00000005 0x017e6410 0x000fc400
0x0300780c 0x000000e1 0x03f46270 0x000fe400
0x0c057207 0x000000ff 0x00000000 0x002fe400
0x0d0d7207 0x000000ff 0x00000000 0x000fe400
0x0e027207 0x000000ff 0x00800000 0x000fe400
0x0f067207 0x000000ff 0x00800000 0x000fe400
0x0300780c 0x000000a0 0x03f04270 0x000fc400
0x0300780c 0x000000c0 0x03f24270 0x000fe400
0x02027210 0x00000004 0x07c7e005 0x000fe400
0x08037207 0x000000ff 0x00000000 0x004fe400
0x0a047207 0x000000ff 0x00800000 0x000fe400
0x09087207 0x000000ff 0x00000000 0x000fe400
0x0b057207 0x000000ff 0x00800000 0x000fc400
0x06067210 0x00000007 0x01fe840d 0x000fe400
0x04047210 0x00000002 0x0791e003 0x000fe200
0xff027224 0x000000ff 0x078e00ff 0x000fc600
0x05057210 0x00000006 0x007e2408 0x000fe200
0x0000a947 0x00000390 0x03800000 0x000fea00
0xff067984 0x00004000 0x00001a00 0x000e2400
0x06047210 0x00000004 0x07f1e0ff 0x001fca00
0x07057824 0x00000001 0x000e0605 0x000fe200
0x00007947 0x00000350 0x03800000 0x000fea00
0x07037f89 0x08201f00 0x000e0000 0x000e6200
0x0400780c 0x0000001e 0x03f24270 0x041fe400
0x0400720c 0x000000ff 0x03f45270 0x000fe200
0x06057f89 0x08201f00 0x000e0000 0x000e2200
0x030c7207 0x000000ff 0x04800000 0x002fc800
0x070c7210 0x0000000c 0x07f1e0ff 0x000fe400
0x05057207 0x000000ff 0x04800000 0x001fe400
0x0400780c 0x0000001d 0x03f24270 0x000fc600
0x060e7824 0x00000001 0x000e0605 0x000fe200
0x0c037f89 0x08401f00 0x000e0000 0x000e2e00
0x0e057f89 0x08401f00 0x000e0000 0x000e6200
0x03037207 0x000000ff 0x04800000 0x001fc800
0x030a7210 0x0000000c 0x07f1e0ff 0x000fe400
0x05057207 0x000000ff 0x04800000 0x002fe400
0x0400780c 0x0000001b 0x03f24270 0x000fc600
0x05107824 0x00000001 0x000e060e 0x000fe200
0x0a037f89 0x08801f00 0x000e0000 0x000e2e00
0x10057f89 0x08801f00 0x000e0000 0x000e6200
0x03037207 0x000000ff 0x04800000 0x001fc800
0x030c7210 0x0000000a 0x07f1e0ff 0x000fe400
0x05057207 0x000000ff 0x04800000 0x002fe400
0x0400780c 0x00000017 0x03f24270 0x000fc600
0x050e7824 0x00000001 0x000e0610 0x000fe200
0x0c037f89 0x09001f00 0x000e0000 0x000e2e00
0x0e057f89 0x09001f00 0x000e0000 0x000e6200
0x03037207 0x000000ff 0x04800000 0x001fc800
0x03067210 0x0000000c 0x07f1e0ff 0x000fe400
0x05057207 0x000000ff 0x04800000 0x002fe400
0x0400780c 0x0000000f 0x03f24270 0x000fc600
0x050a7824 0x00000001 0x000e060e 0x000fe200
0x06037f89 0x0a001f00 0x000e0000 0x000e2e00
0x0a057f89 0x0a001f00 0x000e0000 0x000e6200
0x03037207 0x000000ff 0x04800000 0x001fc800
0x03047210 0x00000006 0x07f1e0ff 0x000fe400
0x05057207 0x000000ff 0x04800000 0x002fca00
0x05057824 0x00000001 0x000e060a 0x000fe200
0x0200720c 0x000000ff 0x03f05270 0x000fce00
0x0800a388 0x00000804 0x00000a00 0x000fe800
0x00007b1d 0x00000000 0x00000000 0x000fea00
0x00000947 0x000000d0 0x03800000 0x000fea00
0xff087984 0x00001000 0x00001c00 0x000e3000
0xff0c7984 0x00002000 0x00001c00 0x000e7000
0xff107984 0x00003000 0x00001c00 0x000eb000
0xff027984 0x00004000 0x00001a00 0x000ee200
0x0a077210 0x00000008 0x0791e004 0x001fc800
0x0b097210 0x00000009 0x007e2405 0x000fe400
0x0e057210 0x00000007 0x0791e00c 0x002fc800
0x0f0d7210 0x00000009 0x007e240d 0x000fe400
0x12057210 0x00000005 0x0791e010 0x004fc800
0x13117210 0x0000000d 0x007e2411 0x000fe400
0x02047210 0x00000005 0x07f1e0ff 0x008fe200
0xff027224 0x000000ff 0x078e00ff 0x000fc800
0x03057824 0x00000001 0x000e0611 0x000fc600
0x00007941 0x00000000 0x03800000 0x000fea00
0x0200720c 0x000000ff 0x03f05270 0x000fd800
0x0000094d 0x00000000 0x03800000 0x000fea00
0xff037424 0x00000008 0x078e00ff 0x000fc800
0x00027625 0x00005c00 0x078e0003 0x000fd000
0x02007386 0x00000004 0x0010eb00 0x000fe200
0x0000794d 0x00000000 0x03800000 0x000fea00
0x00007947 0xfffffff0 0x0383ffff 0x000fc000
0x00007918 0x00000000 0x00000000 0x000fc000
0x00007918 0x00000000 0x00000000 0x000fc000
0x00007918 0x00000000 0x00000000 0x000fc000
0x00007918 0x00000000 0x00000000 0x000fc000
0x00007918 0x00000000 0x00000000 0x000fc000
0x00007918 0x00000000 0x00000000 0x000fc000



.text._ZN3cub17CUB_200400_750_NS28DeviceReduceSingleTileKernelINS0_18DeviceReducePolicyIlyN4cuda3std3__44plusIvEEE9Policy600ENS0_22TransformInputIteratorIb7NonZeroIdEPdlEEPlyS7_llNS5_10__identityEEEvT0_T1_T2_T3_T4_T6_
bar = 1	reg = 44	lmem=0	smem=80
0xff017624 0x00000a00 0x078e00ff 0x000fe400
0xff007a0c 0x00005e00 0x03f05070 0x000fc800
0xff007a0c 0x00005f00 0x03f05300 0x000fd800
0x00008947 0x000029f0 0x03800000 0x000fea00
0xff027624 0x00005e00 0x078e00ff 0x000fe200
0x00ff7355 0x00000000 0x00100000 0x000fe200
0xff1a7624 0x00005f00 0x078e00ff 0x000fe200
0x00007945 0x00002940 0x03800000 0x000fe400
0x0200780c 0x00000800 0x03f06070 0x000fc800
0x1a00720c 0x000000ff 0x03f06100 0x000fd800
0x00008947 0x00001470 0x03800000 0x000fea00
0x00007919 0x00000000 0x00002100 0x000e2200
0xff057424 0x00000008 0x078e00ff 0x000fc800
0x00047625 0x00005a00 0x078e0205 0x001fd000
0x04147381 0x00000000 0x001eeb00 0x000ea800
0x04067381 0x00080000 0x001eeb00 0x000ee800
0x04087381 0x00100000 0x001eeb00 0x000f2800
0x040a7381 0x00180000 0x001eeb00 0x000f6800
0x040c7381 0x00200000 0x001eeb00 0x000f6800
0x040e7381 0x00280000 0x001eeb00 0x000f6800
0x04107381 0x00300000 0x001eeb00 0x000f6800
0x04127381 0x00380000 0x001eeb00 0x000f6200
0xff197424 0x00000800 0x078e00ff 0x000fe200
0x1400722a 0x000000ff 0x03f0d000 0x004e0800
0x0600722a 0x000000ff 0x03f2d000 0x00804800
0x0800722a 0x000000ff 0x03f4d000 0x0104e200
0xff077807 0x00000001 0x04000000 0x001fe200
0xff097224 0x000000ff 0x078e00ff 0x004fe400
0x0a00722a 0x000000ff 0x03f6d000 0x020e2200
0xff067807 0x00000001 0x04800000 0x002fc600
0x0c00722a 0x000000ff 0x03f8d000 0x000e6200
0xff037807 0x00000001 0x05000000 0x008fc600
0x0e00722a 0x000000ff 0x03f0d000 0x000ea200
0x03037210 0x00000006 0x0795e007 0x000fe400
0xff077807 0x00000001 0x05800000 0x001fe200
0x1000722a 0x000000ff 0x03fcd000 0x000e2200
0xff067807 0x00000001 0x06000000 0x002fc600
0x1200722a 0x000000ff 0x03fad000 0x000e6200
0x06037210 0x00000003 0x07c7e007 0x000fe400
0xff077807 0x00000001 0x04000000 0x004fe400
0x02187810 0xfffff800 0x07f1e0ff 0x000fe400
0xff087807 0x00000001 0x07000000 0x001fe400
0x1a1a7810 0xffffffff 0x007fe4ff 0x000fe400
0x1800780c 0x00000800 0x03f06070 0x000fc400
0xff067210 0x000000ff 0x017e24ff 0x000fe400
0x1a00720c 0x000000ff 0x03f06100 0x000fe400
0x08027210 0x00000003 0x07a3e007 0x000fe400
0xff077807 0x00000001 0x06800000 0x002fe400
0xff037210 0x00000006 0x01fe84ff 0x000fe400
0x02027210 0x00000007 0x07f7e0ff 0x000fc400
0xff037210 0x00000003 0x00fe44ff 0x000fca00
0xff037224 0x000000ff 0x018e0603 0x000fe200
0x00008947 0x000002e0 0x03800000 0x000fea00
0xff197424 0x00000800 0x078e00ff 0x000fe400
0xff097224 0x000000ff 0x078e00ff 0x000fc600
0x19067211 0x00000004 0x078018ff 0x000fc800
0x19077211 0x00000005 0x000f1c09 0x000fd000
0x061c7381 0x00000000 0x001eeb00 0x000ea800
0x060a7381 0x00080000 0x001eeb00 0x000ee800
0x060c7381 0x00100000 0x001eeb00 0x000f2800
0x060e7381 0x00180000 0x001eeb00 0x000f6800
0x06107381 0x00200000 0x001eeb00 0x000f6800
0x06127381 0x00280000 0x001eeb00 0x00016800
0x06147381 0x00300000 0x001eeb00 0x00016800
0x06167381 0x00380000 0x001eeb00 0x00016200
0x1c00722a 0x000000ff 0x03f0d000 0x004e4800
0x0a00722a 0x000000ff 0x03f2d000 0x008e8800
0x0c00722a 0x000000ff 0x03f6d000 0x010e2200
0xff087807 0x00000001 0x04000000 0x002fc600
0x0e00722a 0x000000ff 0x03f8d000 0x020e6200
0xff0b7807 0x00000001 0x04800000 0x004fc600
0x1000722a 0x000000ff 0x03fad000 0x000ea200
0x0b027210 0x00000002 0x07a3e008 0x000fe400
0xff067807 0x00000001 0x05800000 0x001fe200
0x1200722a 0x000000ff 0x03fcd000 0x000e2200
0xff0b7807 0x00000001 0x06000000 0x002fe400
0x190a7a10 0x00005e00 0x07f9e1ff 0x000fe200
0x1400722a 0x000000ff 0x03f0d000 0x000e6200
0xff087807 0x00000001 0x06800000 0x004fe400
0xff037210 0x00000003 0x00fe44ff 0x000fe200
0x1600722a 0x000000ff 0x03f6d000 0x000ea200
0xff077807 0x00000001 0x07000000 0x001fc400
0x0b027210 0x00000002 0x07ebe006 0x000fe400
0xff067807 0x00000001 0x04000000 0x002fe400
0x07027210 0x00000002 0x07a3e008 0x000fe400
0x0a00780c 0x00000800 0x03f06070 0x000fe400
0x09087a10 0x00005f00 0x027fe5ff 0x000fe400
0xff077807 0x00000001 0x05800000 0x004fc400
0x0800720c 0x000000ff 0x03f06100 0x000fe400
0xff037210 0x00000003 0x02fec4ff 0x000fe400
0x07027210 0x00000002 0x07c7e006 0x000fe400
0xff037210 0x00000003 0x00fe44ff 0x000fc800
0xff037210 0x00000003 0x01fe84ff 0x000fe400
0x00008947 0x00000b80 0x03800000 0x000fea00
0x19197810 0x00000800 0x07f1e0ff 0x000fca00
0xff097224 0x000000ff 0x000e0609 0x000fe200
0x1900720c 0x00000018 0x03f04070 0x000fc800
0x0900720c 0x0000001a 0x03f04100 0x000fd800
0x00008947 0xfffffd40 0x0383ffff 0x000fea00
0x19007a0c 0x00005e00 0x03f06070 0x000fc800
0x09007a0c 0x00005f00 0x03f06100 0x000fd800
0x00000947 0x00000b00 0x03800000 0x000fea00
0x00067919 0x00000000 0x00002100 0x000e2200
0x19077a10 0x00005e00 0x07ffe1ff 0x000fe200
0x01ff7355 0x00000000 0x00100000 0x000fe200
0x00017945 0x00000ac0 0x03800000 0x000fe400
0x0600720c 0x00000007 0x03f06270 0x001fd800
0x00000947 0x00000a90 0x03800000 0x000fea00
0xff047212 0x00000006 0x078e33ff 0x000fe200
0x02ff7355 0x00000000 0x00100000 0x000fe200
0x00027945 0x00000170 0x03800000 0x000fe400
0x19057a10 0x00005e00 0x07ffe104 0x000fc800
0x05047811 0x00000001 0x078fc0ff 0x040fe400
0x0500780c 0x00000300 0x03f06070 0x000fe400
0x04047812 0x00000003 0x0782c0ff 0x000fd800
0x00009947 0x00000110 0x03800000 0x000fea00
0x06057210 0x00000019 0x07f3e0ff 0x000fe200
0xff087224 0x000000ff 0x078e0004 0x000fc600
0x060c7211 0x00000009 0x008f0eff 0x000fe400
0x050a7a11 0x00005a00 0x078218ff 0x000fc800
0x05057a11 0x00005b00 0x008f1c0c 0x000fe400
0xff047224 0x000000ff 0x078e000a 0x000fd000
0x040c7381 0x00000000 0x001eeb00 0x0000a200
0x08087810 0xffffffff 0x07ffe0ff 0x000fe400
0x0a0a7810 0x00000800 0x07f7e0ff 0x000fe400
0x06067810 0x00000100 0x07ffe0ff 0x000fc600
0xff057224 0x000000ff 0x018e0605 0x001fe200
0x0c00722a 0x000000ff 0x03f2d000 0x004e1200
0xff0b7807 0x00000001 0x04800000 0x001fe400
0x0800720c 0x000000ff 0x03f25270 0x000fe400
0x02027210 0x0000000b 0x07f5e0ff 0x000fca00
0xff037224 0x000000ff 0x010e0603 0x000fca00
0x00001947 0xffffff40 0x0383ffff 0x000fea00
0x00027941 0x00000000 0x03800000 0x000fea00
0x00008947 0x000008e0 0x03800000 0x000fea00
0x070a7824 0x00000001 0x078e0a06 0x000fe200
0x06057210 0x00000019 0x07f1e0ff 0x000fe200
0x02ff7355 0x00000000 0x00100000 0x000fe200
0x00027945 0x000004e0 0x03800000 0x000fe400
0x0a00780c 0x00000c00 0x03f24270 0x000fe400
0x06087211 0x00000009 0x000f0eff 0x000fe400
0x05047a11 0x00005a00 0x078018ff 0x000fc800
0x05057a11 0x00005b00 0x000f1c08 0x000fe400
0x0000781c 0x00000000 0x03f0f070 0x000fe400
0x00009947 0x00000470 0x03800000 0x000fea00
0x0000781c 0x00000000 0x03f0e170 0x000fe400
0x070d7810 0xfffff400 0x07ffe0ff 0x000fc600
0x04287381 0x00080000 0x001eeb00 0x000ea800
0x04147381 0x00000000 0x001eeb00 0x000ee800
0x04167381 0x00100000 0x001eeb00 0x000f2800
0x04187381 0x00180000 0x001eeb00 0x000f6800
0x041a7381 0x00200000 0x001eeb00 0x000f6800
0x041c7381 0x00280000 0x001eeb00 0x000f6800
0x041e7381 0x00300000 0x001eeb00 0x000f6800
0x04207381 0x00380000 0x001eeb00 0x000f6800
0x04227381 0x00400000 0x001eeb00 0x000f6800
0x04247381 0x00480000 0x001eeb00 0x000f6800
0x04267381 0x00500000 0x001eeb00 0x000f6800
0x04127381 0x00580000 0x001eeb00 0x000f6800
0x04107381 0x00600000 0x001eeb00 0x000f6800
0x040e7381 0x00680000 0x001eeb00 0x000f6800
0x040a7381 0x00700000 0x001eeb00 0x000f6800
0x04087381 0x00780000 0x001eeb00 0x000f6200
0x06067810 0x00001000 0x07ffe0ff 0x000fe200
0x2800722a 0x000000ff 0x03f4d000 0x004e0800
0x1400722a 0x000000ff 0x03f6d000 0x00804800
0x1600722a 0x000000ff 0x03f8d000 0x010ea200
0xff157807 0x00000001 0x05000000 0x001fc600
0x1800722a 0x000000ff 0x03fad000 0x02022400
0xff187807 0x00000001 0x05800000 0x002fe400
0x1a00722a 0x000000ff 0x03fcd000 0x00046400
0xff1b7807 0x00000001 0x06000000 0x004fe400
0x1c00722a 0x000000ff 0x03f2d000 0x000ea200
0xff167807 0x00000001 0x06800000 0x001fc600
0x1e00722a 0x000000ff 0x03f4d000 0x000e2200
0xff197807 0x00000001 0x07000000 0x002fc600
0x2000722a 0x000000ff 0x03f6d000 0x000e6200
0xff0c7807 0x00000001 0x04800000 0x004fc600
0x2200722a 0x000000ff 0x03f8d000 0x000ea200
0xff177807 0x00000001 0x05000000 0x001fe400
0x15187210 0x00000002 0x07a3e018 0x000fe200
0x2400722a 0x000000ff 0x03fad000 0x000e2200
0xff147807 0x00000001 0x05800000 0x002fc600
0x2600722a 0x000000ff 0x03fcd000 0x000e6200
0xff157807 0x00000001 0x06000000 0x004fc600
0x1200722a 0x000000ff 0x03f6d000 0x0004e200
0xff027807 0x00000001 0x06800000 0x001fe400
0x16127210 0x00000018 0x07d9e01b 0x004fe400
0xff137807 0x00000001 0x07000000 0x002fe400
0x1000722a 0x000000ff 0x03fcd000 0x00006400
0xff107210 0x00000003 0x00fe44ff 0x001fe400
0x0c037210 0x00000012 0x07a3e019 0x000fc400
0xff0c7807 0x00000001 0x05800000 0x008fe400
0x0e00722a 0x000000ff 0x03f6d000 0x0000a400
0xff0f7210 0x00000010 0x027ea4ff 0x001fe400
0x140e7210 0x00000003 0x07cbe017 0x000fe400
0xff037807 0x00000001 0x07000000 0x002fe400
0x0a00722a 0x000000ff 0x03fcd000 0x0001c400
0xff0b7210 0x0000000f 0x00fe44ff 0x001fe400
0x020a7210 0x0000000e 0x0795e015 0x000fe400
0xff027807 0x00000001 0x05800000 0x004fe400
0x0800722a 0x000000ff 0x03f6d000 0x00006400
0xff097210 0x0000000b 0x02fe84ff 0x001fe400
0x0c087210 0x0000000a 0x07d9e013 0x000fc400
0xff097210 0x00000009 0x017e24ff 0x000fe400
0x02087210 0x00000008 0x07a3e003 0x000fe400
0xff027807 0x00000001 0x05800000 0x002fe400
0x0600720c 0x0000000d 0x03f66270 0x000fe400
0xff037807 0x00000001 0x07000000 0x000fe400
0xff097210 0x00000009 0x027ea4ff 0x000fc400
0x02027210 0x00000008 0x07d9e003 0x000fe400
0x04047810 0x00008000 0x07fde0ff 0x000fe400
0xff037210 0x00000009 0x00fe44ff 0x000fc600
0xff057224 0x000000ff 0x030e0605 0x000fe200
0xff037210 0x00000003 0x027ea4ff 0x000fe200
0x0000b947 0xfffffbb0 0x0383ffff 0x000fec00
0x00027941 0x00000000 0x03800000 0x000fea00
0x07087824 0x00000001 0x078e0a06 0x000fe200
0x02ff7355 0x00000000 0x00100000 0x000fe200
0x00027945 0x00000270 0x03800000 0x000fe600
0x0800780c 0x00000400 0x03f24270 0x000fd800
0x00009947 0x00000240 0x03800000 0x000fea00
0x04167381 0x00000000 0x001eeb00 0x000ea800
0x04087381 0x00080000 0x001eeb00 0x000ee800
0x040a7381 0x00100000 0x001eeb00 0x000f2800
0x040c7381 0x00180000 0x001eeb00 0x000f6800
0x040e7381 0x00200000 0x001eeb00 0x000f6800
0x04107381 0x00280000 0x001eeb00 0x000f6800
0x04127381 0x00300000 0x001eeb00 0x000f6800
0x04147381 0x00380000 0x001eeb00 0x000f6200
0x06067810 0x00000800 0x07ffe0ff 0x000fe200
0x1600722a 0x000000ff 0x03f2d000 0x004e0800
0x0800722a 0x000000ff 0x03f4d000 0x00804800
0x0a00722a 0x000000ff 0x03f0d000 0x010ea200
0xff087807 0x00000001 0x04800000 0x001fc600
0x0c00722a 0x000000ff 0x03fcd000 0x020e2200
0xff097807 0x00000001 0x05000000 0x002fc600
0x0e00722a 0x000000ff 0x03fad000 0x000e6200
0x09087210 0x00000002 0x07c7e008 0x000fe400
0xff0b7807 0x00000001 0x04000000 0x004fe200
0x1000722a 0x000000ff 0x03f4d000 0x000ea200
0xff027807 0x00000001 0x07000000 0x001fe400
0xff0a7210 0x00000003 0x01fe84ff 0x000fe200
0x1200722a 0x000000ff 0x03f2d000 0x000e2200
0xff097807 0x00000001 0x06800000 0x002fe400
0x02027210 0x00000008 0x07ebe00b 0x000fe200
0x1400722a 0x000000ff 0x03f0d000 0x000e6200
0xff087807 0x00000001 0x05000000 0x004fc800
0x08087210 0x00000002 0x07a7e009 0x000fe400
0xff037807 0x00000001 0x04800000 0x001fe400
0xff027807 0x00000001 0x04000000 0x002fe400
0xff097210 0x0000000a 0x02fec4ff 0x000fe400
0x04047810 0x00004000 0x07fbe0ff 0x000fe400
0x02027210 0x00000008 0x07c3e003 0x000fc400
0xff037210 0x00000009 0x01fe44ff 0x000fe200
0xff057224 0x000000ff 0x028e0605 0x000fe200
0x0000781c 0x00000000 0x03f0e170 0x000fe400
0xff037210 0x00000003 0x00fe84ff 0x000fca00
0x00027941 0x00000000 0x03800000 0x000fea00
0x0600720c 0x00000007 0x00701670 0x000fd800
0x00008947 0x00000100 0x03800000 0x000fea00
0x040c7381 0x00000000 0x001eeb00 0x000ea800
0x04067381 0x00080000 0x001eeb00 0x000ee800
0x04087381 0x00100000 0x001eeb00 0x000f2800
0x040a7381 0x00180000 0x001eeb00 0x000f6200
0x0c00722a 0x000000ff 0x03f0d000 0x004e0800
0x0600722a 0x000000ff 0x03f2d000 0x008e4800
0x0800722a 0x000000ff 0x03f4d000 0x0100a400
0xff087807 0x00000001 0x04000000 0x001fe400
0x0a00722a 0x000000ff 0x03f6d000 0x020e2200
0xff097807 0x00000001 0x04800000 0x002fc800
0xff077807 0x00000001 0x05000000 0x004fe400
0x09027210 0x00000002 0x0791e008 0x000fe400
0xff067807 0x00000001 0x05800000 0x001fe400
0xff037210 0x00000003 0x007e24ff 0x000fe400
0x06027210 0x00000002 0x07b5e007 0x000fc800
0xff037210 0x00000003 0x017e64ff 0x000fc600
0x00017941 0x00000000 0x03800000 0x000fea00
0x000c7919 0x00000000 0x00000000 0x000e2800
0x02047f89 0x08201f00 0x000e0000 0x000e6800
0x03057f89 0x08201f00 0x000e0000 0x000ea200
0x0c00780c 0x0000001e 0x03f04270 0x001fc800
0x04097207 0x000000ff 0x04000000 0x002fc800
0x02097210 0x00000009 0x07f3e0ff 0x000fe400
0x05047207 0x000000ff 0x04000000 0x004fe400
0x0c00780c 0x0000001d 0x03f04270 0x000fc600
0x030b7824 0x00000001 0x008e0604 0x000fc600
0x09047f89 0x08401f00 0x000e0000 0x000e2a00
0x0b057f89 0x08401f00 0x000e0000 0x000e6200
0x04047207 0x000000ff 0x04000000 0x001fc800
0x04077210 0x00000009 0x07f3e0ff 0x000fe400
0x05047207 0x000000ff 0x04000000 0x002fe400
0x0c00780c 0x0000001b 0x03f04270 0x000fc600
0x04047824 0x00000001 0x008e060b 0x000fe200
0x07027f89 0x08801f00 0x000e0000 0x000e2e00
0x04037f89 0x08801f00 0x000e0000 0x000e6200
0x02027207 0x000000ff 0x04000000 0x001fc800
0x02057210 0x00000007 0x07f3e0ff 0x000fe400
0x03037207 0x000000ff 0x04000000 0x002fe400
0x0c00780c 0x00000017 0x03f04270 0x000fc600
0x030a7824 0x00000001 0x008e0604 0x000fe200
0x05027f89 0x09001f00 0x000e0000 0x000e2200
0x0c00720c 0x000000ff 0x03f25270 0x000fcc00
0x0a037f89 0x09001f00 0x000e0000 0x000e6c00
0x00079919 0x00000000 0x00002100 0x000ea200
0x02027207 0x000000ff 0x04000000 0x001fc800
0x02067210 0x00000005 0x07f5e0ff 0x000fe400
0x03037207 0x000000ff 0x04000000 0x002fe400
0x0c00780c 0x0000000f 0x03f04270 0x000fc600
0x03087824 0x00000001 0x010e060a 0x000fe200
0x06027f89 0x0a001f00 0x000e0000 0x000e2200
0xff049819 0x0000001f 0x00011407 0x004fc800
0x04049211 0x00000007 0x078f28ff 0x000fe400
0x08037f89 0x0a001f00 0x000e0000 0x000e6200
0x02057207 0x000000ff 0x04000000 0x001fe400
0xff029819 0x00000005 0x00011404 0x000fe400
0x05047210 0x00000006 0x07f5e0ff 0x000fe400
0x03057207 0x000000ff 0x04000000 0x002fe200
0x02039824 0x00000008 0x078e00ff 0x000fe200
0x0000720c 0x000000ff 0x03f05270 0x000fc600
0x05057824 0x00000001 0x010e0608 0x000fd000
0x03009388 0x00000804 0x00000a00 0x000fe800
0x00007b1d 0x00000000 0x00000000 0x000fea00
0x00000947 0x00001570 0x03800000 0x000fea00
0xff087984 0x00001000 0x00001c00 0x000e2200
0xff007224 0x000000ff 0x078e00ff 0x000fce00
0xff0c7984 0x00002000 0x00001c00 0x000e7000
0xff107984 0x00003000 0x00001c00 0x000eb000
0xff027984 0x00004000 0x00001a00 0x000ee200
0x0a077210 0x00000008 0x0791e004 0x001fc800
0x0b097210 0x00000009 0x007e2405 0x000fe400
0x0e057210 0x00000007 0x0791e00c 0x002fc800
0x0f0d7210 0x00000009 0x007e240d 0x000fe400
0x12057210 0x00000005 0x0791e010 0x004fc800
0x13117210 0x0000000d 0x007e2411 0x000fe400
0x02047210 0x00000005 0x07f1e0ff 0x008fca00
0x03057824 0x00000001 0x000e0611 0x000fe200
0x00007947 0x00001490 0x03800000 0x000fea00
0x00007919 0x00000000 0x00002100 0x000e2200
0x01ff7355 0x00000000 0x00100000 0x000fe200
0x00017945 0x000000d0 0x03800000 0x000fe200
0xff067224 0x000000ff 0x078e00ff 0x000fe400
0xff037224 0x000000ff 0x078e00ff 0x000fe200
0x00007a0c 0x00005e00 0x03f06270 0x001fe200
0xff077224 0x000000ff 0x078e0000 0x000fd600
0x00000947 0x00000070 0x03800000 0x000fea00
0xff047424 0x00000008 0x078e00ff 0x000fc800
0x07047625 0x00005a00 0x078e0204 0x000fd000
0x04047381 0x00000000 0x001eeb00 0x000ea200
0xff037224 0x000000ff 0x078e00ff 0x000fe200
0x07077810 0x00000100 0x07ffe0ff 0x000fe200
0x0400722a 0x000000ff 0x03f0d000 0x004e1200
0xff067807 0x00000001 0x04000000 0x001fc600
0x00017941 0x00000000 0x03800000 0x000fea00
0x07007a0c 0x00005e00 0x03f06270 0x000fe200
0x01ff7355 0x00000000 0x00100000 0x000fe200
0x00017945 0x00000a70 0x03800000 0x000ff400
0x00000947 0x00000a50 0x03800000 0x000fea00
0xff047212 0x00000007 0x078e33ff 0x000fe200
0x02ff7355 0x00000000 0x00100000 0x000fe200
0x00027945 0x00000130 0x03800000 0x000fe400
0x04057a10 0x00005e00 0x07ffe0ff 0x000fc800
0x05047811 0x00000001 0x078fc0ff 0x040fe400
0x0500780c 0x00000300 0x03f26070 0x000fe400
0x04087812 0x00000003 0x0780c0ff 0x000fd800
0x00008947 0x000000d0 0x03800000 0x000fea00
0xff047424 0x00000008 0x078e00ff 0x000fc800
0x07047625 0x00005a00 0x078e0204 0x000fd000
0x040a7381 0x00000000 0x001eeb00 0x0000a200
0x08087810 0xffffffff 0x07ffe0ff 0x000fe400
0x07077810 0x00000100 0x07ffe0ff 0x000fe400
0x04047810 0x00000800 0x07f7e0ff 0x001fca00
0xff057224 0x000000ff 0x018e0605 0x000fe200
0x0a00722a 0x000000ff 0x03f0d000 0x004e1200
0xff097807 0x00000001 0x04000000 0x001fe400
0x0800720c 0x000000ff 0x03f05270 0x000fe400
0x06067210 0x00000009 0x07f5e0ff 0x000fca00
0xff037224 0x000000ff 0x010e0603 0x000fca00
0x00000947 0xffffff50 0x0383ffff 0x000fea00
0x00027941 0x00000000 0x03800000 0x000fea00
0x00009947 0x000008e0 0x03800000 0x000fea00
0x07087a10 0x00005e00 0x07ffe1ff 0x040fe200
0xff047424 0x00000008 0x078e00ff 0x000fe200
0x02ff7355 0x00000000 0x00100000 0x000fe200
0x00027945 0x000004e0 0x03800000 0x000fe200
0x0800780c 0x00000c00 0x03f24270 0x000fe200
0x07047625 0x00005a00 0x078e0204 0x000fca00
0x04047810 0x00001000 0x07f1e0ff 0x000fca00
0xff057224 0x000000ff 0x000e0605 0x000fe200
0x0000781c 0x00000000 0x03f0f070 0x000fe200
0x00009947 0x00000470 0x03800000 0x000fec00
0x0000781c 0x00000000 0x03f0e170 0x000fe400
0x020c7810 0xfffff400 0x07ffe0ff 0x000fc600
0x04287381 0xfff80000 0x001eeb00 0x000ea800
0x04147381 0xfff00000 0x001eeb00 0x000ee800
0x04167381 0x00000000 0x001eeb00 0x000f2800
0x04187381 0x00080000 0x001eeb00 0x000f6800
0x041a7381 0x00100000 0x001eeb00 0x000f6800
0x041c7381 0x00180000 0x001eeb00 0x000f6800
0x041e7381 0x00200000 0x001eeb00 0x000f6800
0x04207381 0x00280000 0x001eeb00 0x000f6800
0x04227381 0x00300000 0x001eeb00 0x000f6800
0x04247381 0x00380000 0x001eeb00 0x000f6800
0x04267381 0x00400000 0x001eeb00 0x000f6800
0x04127381 0x00480000 0x001eeb00 0x000f6800
0x04107381 0x00500000 0x001eeb00 0x000f6800
0x040e7381 0x00580000 0x001eeb00 0x000f6800
0x040a7381 0x00600000 0x001eeb00 0x000f6800
0x04087381 0x00680000 0x001eeb00 0x000f6200
0x07077810 0x00001000 0x07ffe0ff 0x000fe200
0x2800722a 0x000000ff 0x03f4d000 0x004fc800
0x1400722a 0x000000ff 0x03f6d000 0x008e0800
0x1600722a 0x000000ff 0x03f8d000 0x010e4800
0x1800722a 0x000000ff 0x03fad000 0x0204e200
0xff147807 0x00000001 0x05800000 0x001fe400
0xff197807 0x00000001 0x05000000 0x004fe200
0x1a00722a 0x000000ff 0x03fcd000 0x000e2200
0xff187807 0x00000001 0x06000000 0x002fc600
0x1c00722a 0x000000ff 0x03f2d000 0x000e6200
0xff177807 0x00000001 0x06800000 0x008fc600
0x1e00722a 0x000000ff 0x03f4d000 0x000ea200
0xff167807 0x00000001 0x07000000 0x001fc600
0x2000722a 0x000000ff 0x03f6d000 0x000e2200
0xff0d7807 0x00000001 0x04800000 0x002fc600
0x2200722a 0x000000ff 0x03f8d000 0x000e6200
0xff157807 0x00000001 0x05000000 0x004fe400
0x19197210 0x00000006 0x07a3e014 0x000fe200
0x2400722a 0x000000ff 0x03fad000 0x000ea200
0xff067807 0x00000001 0x05800000 0x001fc600
0x2600722a 0x000000ff 0x03fcd000 0x000e2200
0xff147807 0x00000001 0x06000000 0x002fc600
0x1200722a 0x000000ff 0x03f6d000 0x00046400
0xff137807 0x00000001 0x06800000 0x004fe400
0x17177210 0x00000019 0x07d9e018 0x000fe400
0xff127807 0x00000001 0x07000000 0x001fe400
0x1000722a 0x000000ff 0x03fcd000 0x0000a400
0xff107210 0x00000003 0x00fe44ff 0x001fc400
0x0d037210 0x00000017 0x07a3e016 0x000fe400
0xff0d7807 0x00000001 0x05800000 0x002fe400
0x0e00722a 0x000000ff 0x03f6d000 0x00006400
0xff0e7210 0x00000010 0x027ea4ff 0x001fe400
0x06037210 0x00000003 0x07cbe015 0x000fe400
0xff067807 0x00000001 0x07000000 0x004fc400
0x0a00722a 0x000000ff 0x03fcd000 0x0001e400
0xff0b7210 0x0000000e 0x00fe44ff 0x001fe400
0x130a7210 0x00000003 0x0795e014 0x000fe400
0xff037807 0x00000001 0x05800000 0x002fe400
0x0800722a 0x000000ff 0x03f6d000 0x00006400
0xff097210 0x0000000b 0x02fe84ff 0x001fc400
0x0d087210 0x0000000a 0x07d9e012 0x000fe400
0xff097210 0x00000009 0x017e24ff 0x000fe400
0x03087210 0x00000008 0x07a3e006 0x000fe400
0xff067807 0x00000001 0x05800000 0x002fe400
0x0700720c 0x0000000c 0x03f66270 0x000fe400
0xff037807 0x00000001 0x07000000 0x000fc400
0xff097210 0x00000009 0x027ea4ff 0x000fe400
0x06067210 0x00000008 0x07d9e003 0x000fe400
0x04047810 0x00008000 0x07fde0ff 0x000fe400
0xff037210 0x00000009 0x00fe44ff 0x000fc600
0xff057224 0x000000ff 0x030e0605 0x000fe200
0xff037210 0x00000003 0x027ea4ff 0x000fe200
0x0000b947 0xfffffbb0 0x0383ffff 0x000fec00
0x00027941 0x00000000 0x03800000 0x000fea00
0x07087a10 0x00005e00 0x07ffe1ff 0x000fe200
0x02ff7355 0x00000000 0x00100000 0x000fe200
0x00027945 0x00000270 0x03800000 0x000fe400
0x0800780c 0x00000400 0x03f24270 0x000fd800
0x00009947 0x00000240 0x03800000 0x000fea00
0x04167381 0xfff00000 0x001eeb00 0x000ea800
0x04087381 0xfff80000 0x001eeb00 0x000ee800
0x040a7381 0x00000000 0x001eeb00 0x000f2800
0x040c7381 0x00080000 0x001eeb00 0x000f6800
0x040e7381 0x00100000 0x001eeb00 0x000f6800
0x04107381 0x00180000 0x001eeb00 0x000f6800
0x04127381 0x00200000 0x001eeb00 0x000f6800
0x04147381 0x00280000 0x001eeb00 0x000f6200
0x07077810 0x00000800 0x07ffe0ff 0x000fe200
0x1600722a 0x000000ff 0x03f2d000 0x004e0800
0x0800722a 0x000000ff 0x03f4d000 0x00804800
0x0a00722a 0x000000ff 0x03f0d000 0x010ea200
0xff087807 0x00000001 0x04800000 0x001fc600
0x0c00722a 0x000000ff 0x03fcd000 0x020e2200
0xff097807 0x00000001 0x05000000 0x002fc600
0x0e00722a 0x000000ff 0x03fad000 0x000e6200
0x09087210 0x00000006 0x07c7e008 0x000fe400
0xff0b7807 0x00000001 0x04000000 0x004fe200
0x1000722a 0x000000ff 0x03f4d000 0x000ea200
0xff067807 0x00000001 0x07000000 0x001fe400
0xff0a7210 0x00000003 0x01fe84ff 0x000fe200
0x1200722a 0x000000ff 0x03f2d000 0x000e2200
0xff097807 0x00000001 0x06800000 0x002fe400
0x06067210 0x00000008 0x07ebe00b 0x000fe200
0x1400722a 0x000000ff 0x03f0d000 0x000e6200
0xff087807 0x00000001 0x05000000 0x004fc800
0x08087210 0x00000006 0x07a7e009 0x000fe400
0xff037807 0x00000001 0x04800000 0x001fe400
0xff067807 0x00000001 0x04000000 0x002fe400
0xff097210 0x0000000a 0x02fec4ff 0x000fe400
0x04047810 0x00004000 0x07fbe0ff 0x000fe400
0x06067210 0x00000008 0x07c3e003 0x000fc400
0xff037210 0x00000009 0x01fe44ff 0x000fe200
0xff057224 0x000000ff 0x028e0605 0x000fe200
0x0000781c 0x00000000 0x03f0e170 0x000fe400
0xff037210 0x00000003 0x00fe84ff 0x000fca00
0x00027941 0x00000000 0x03800000 0x000fea00
0x07007a0c 0x00005e00 0x00701670 0x000fd800
0x00008947 0x00000100 0x03800000 0x000fea00
0x040e7381 0xfff00000 0x001eeb00 0x000ea800
0x04087381 0xfff80000 0x001eeb00 0x000ee800
0x040a7381 0x00000000 0x001eeb00 0x000f2800
0x040c7381 0x00080000 0x001eeb00 0x000f6200
0x0e00722a 0x000000ff 0x03f0d000 0x004e0800
0x0800722a 0x000000ff 0x03f2d000 0x008e4800
0x0a00722a 0x000000ff 0x03f4d000 0x0100a400
0xff0a7807 0x00000001 0x04000000 0x001fe400
0x0c00722a 0x000000ff 0x03f6d000 0x020e2200
0xff097807 0x00000001 0x04800000 0x002fc800
0xff087807 0x00000001 0x05000000 0x004fe400
0x09067210 0x00000006 0x0791e00a 0x000fe400
0xff077807 0x00000001 0x05800000 0x001fe400
0xff037210 0x00000003 0x007e24ff 0x000fe400
0x07067210 0x00000006 0x07b5e008 0x000fc800
0xff037210 0x00000003 0x017e64ff 0x000fc600
0x00017941 0x00000000 0x03800000 0x000fea00
0x00047919 0x00000000 0x00000000 0x000e2200
0x0200780c 0x000000ff 0x03f04270 0x000fe400
0xff057819 0x0000001f 0x00011400 0x000fc800
0x05057211 0x00000000 0x078f28ff 0x000fc800
0xff077819 0x00000005 0x00011405 0x000fe400
0x00000947 0x00000540 0x03800000 0x000fea00
0x07057824 0x00000020 0x078e00ff 0x000fe200
0x040a7810 0x00000002 0x07ffe0ff 0x041fe400
0x0400720c 0x000000ff 0x03f45270 0x000fe400
0x05087810 0x00000020 0x07ffe0ff 0x000fe400
0xff057212 0x00000005 0x078e33ff 0x000fe400
0x08007a0c 0x00005e00 0x03f04270 0x000fc400
0x05057a10 0x00005e00 0x07ffe0ff 0x000fc800
0x05097807 0x0000001f 0x00000000 0x000fc800
0x0400720c 0x00000009 0x03f06270 0x000fc800
0x06057989 0x08200000 0x000e0009 0x000e2800
0x03087989 0x08200000 0x000e0009 0x000e6200
0x05057207 0x000000ff 0x04000000 0x001fc800
0x060c7210 0x00000005 0x07f3e0ff 0x000fe400
0x08087207 0x000000ff 0x04000000 0x002fe400
0x0a00720c 0x00000009 0x03f04270 0x000fe400
0x04067810 0x00000004 0x07ffe0ff 0x000fe200
0x030b7824 0x00000001 0x008e0608 0x000fe200
0x0c057989 0x08400000 0x000e0009 0x000e2e00
0x0b087989 0x08400000 0x000e0009 0x000e6200
0x05057207 0x000000ff 0x04000000 0x001fc800
0x050a7210 0x0000000c 0x07f3e0ff 0x000fe400
0x08087207 0x000000ff 0x04000000 0x002fe400
0x0600720c 0x00000009 0x03f04270 0x000fe400
0x04067810 0x00000008 0x07ffe0ff 0x000fe200
0x08087824 0x00000001 0x008e060b 0x000fe200
0x0a037989 0x08800000 0x000e0009 0x000e2e00
0x08057989 0x08800000 0x000e0009 0x000e6200
0x03037207 0x000000ff 0x04000000 0x001fc800
0x030c7210 0x0000000a 0x07f3e0ff 0x000fe400
0x05057207 0x000000ff 0x04000000 0x002fe400
0x0600720c 0x00000009 0x03f04270 0x000fe400
0x04067810 0x00000010 0x07ffe0ff 0x000fe200
0x050e7824 0x00000001 0x008e0608 0x000fe200
0x0c037989 0x09000000 0x000e0009 0x000e2e00
0x0e057989 0x09000000 0x000e0009 0x000e6200
0x03037207 0x000000ff 0x04000000 0x001fc800
0x03087210 0x0000000c 0x07f3e0ff 0x000fe400
0x05057207 0x000000ff 0x04000000 0x002fe400
0x0600720c 0x00000009 0x03f04270 0x000fc600
0x050a7824 0x00000001 0x008e060e 0x000fe200
0x08037989 0x0a000000 0x000e0009 0x000e2e00
0x0a057989 0x0a000000 0x000e0009 0x000e6200
0x03037207 0x000000ff 0x04000000 0x001fc800
0x03047210 0x00000008 0x07f3e0ff 0x000fe400
0x05057207 0x000000ff 0x04000000 0x002fe400
0x0000720c 0x000000ff 0x03f05270 0x000fc600
0x05057824 0x00000001 0x008e060a 0x000fd000
0x0700a388 0x00000804 0x00008a00 0x000fe800
0x00007b1d 0x00000000 0x00000000 0x000fea00
0x00000947 0x00000570 0x03800000 0x000fea00
0xff107984 0x00001000 0x00001c00 0x000e2200
0x0200780c 0x00000020 0x03f04270 0x000fc400
0x0200780c 0x00000040 0x03f24270 0x000fca00
0xff0c7984 0x00002000 0x00001c00 0x000e7000
0xff087984 0x00003000 0x00001c00 0x000ea200
0x10007207 0x000000ff 0x00000000 0x001fe400
0x12037207 0x000000ff 0x00800000 0x000fc400
0x11107207 0x000000ff 0x00000000 0x000fe400
0x13127207 0x000000ff 0x00800000 0x000fe400
0x03047210 0x00000004 0x07b5e000 0x000fe400
0x0200780c 0x00000060 0x03f04270 0x040fe400
0x0200780c 0x00000080 0x03f24270 0x000fe400
0x12057210 0x00000005 0x017e6410 0x000fc400
0x0c037207 0x000000ff 0x00000000 0x002fe400
0x0e007207 0x000000ff 0x00800000 0x000fe400
0x0200780c 0x000000e1 0x03f46270 0x040fe400
0x0d0d7207 0x000000ff 0x00000000 0x000fe400
0x0f0e7207 0x000000ff 0x00800000 0x000fe400
0x0200780c 0x000000a0 0x03f04270 0x000fc400
0x0200780c 0x000000c0 0x03f24270 0x000fe400
0x00007210 0x00000004 0x07c7e003 0x000fe400
0x08037207 0x000000ff 0x00000000 0x004fe400
0x0a047207 0x000000ff 0x00800000 0x000fe400
0x0e027210 0x00000005 0x01fe840d 0x000fe400
0x09087207 0x000000ff 0x00000000 0x000fc400
0x0b057207 0x000000ff 0x00800000 0x000fe400
0x04047210 0x00000000 0x0791e003 0x000fe200
0xff007224 0x000000ff 0x078e00ff 0x000fc600
0x05057210 0x00000002 0x007e2408 0x000fe200
0x0000a947 0x00000390 0x03800000 0x000fea00
0xff027984 0x00004000 0x00001a00 0x000e2400
0x02047210 0x00000004 0x07f1e0ff 0x001fca00
0x03057824 0x00000001 0x000e0605 0x000fe200
0x00007947 0x00000350 0x03800000 0x000fea00
0x06027f89 0x08201f00 0x000e0000 0x000e6200
0x0400780c 0x0000001e 0x03f24270 0x041fe400
0x0400720c 0x000000ff 0x03f45270 0x000fe200
0x03057f89 0x08201f00 0x000e0000 0x000e2200
0x020b7207 0x000000ff 0x04800000 0x002fc800
0x060b7210 0x0000000b 0x07f1e0ff 0x000fe400
0x05087207 0x000000ff 0x04800000 0x001fe400
0x0400780c 0x0000001d 0x03f24270 0x000fc600
0x03087824 0x00000001 0x000e0608 0x000fe200
0x0b027f89 0x08401f00 0x000e0000 0x000e2e00
0x08057f89 0x08401f00 0x000e0000 0x000e6200
0x02027207 0x000000ff 0x04800000 0x001fc800
0x02097210 0x0000000b 0x07f1e0ff 0x000fe400
0x05057207 0x000000ff 0x04800000 0x002fe400
0x0400780c 0x0000001b 0x03f24270 0x000fc600
0x05067824 0x00000001 0x000e0608 0x000fe200
0x09027f89 0x08801f00 0x000e0000 0x000e2e00
0x06037f89 0x08801f00 0x000e0000 0x000e6200
0x02027207 0x000000ff 0x04800000 0x001fc800
0x02057210 0x00000009 0x07f1e0ff 0x000fe400
0x03037207 0x000000ff 0x04800000 0x002fe400
0x0400780c 0x00000017 0x03f24270 0x000fc600
0x03087824 0x00000001 0x000e0606 0x000fe200
0x05027f89 0x09001f00 0x000e0000 0x000e2e00
0x08037f89 0x09001f00 0x000e0000 0x000e6200
0x02027207 0x000000ff 0x04800000 0x001fc800
0x02097210 0x00000005 0x07f1e0ff 0x000fe400
0x03037207 0x000000ff 0x04800000 0x002fe400
0x0400780c 0x0000000f 0x03f24270 0x000fc600
0x03067824 0x00000001 0x000e0608 0x000fe200
0x09027f89 0x0a001f00 0x000e0000 0x000e2e00
0x06037f89 0x0a001f00 0x000e0000 0x000e6200
0x02027207 0x000000ff 0x04800000 0x001fc800
0x02047210 0x00000009 0x07f1e0ff 0x000fe400
0x03037207 0x000000ff 0x04800000 0x002fca00
0x03057824 0x00000001 0x000e0606 0x000fe200
0x0000720c 0x000000ff 0x03f05270 0x000fce00
0x0700a388 0x00000804 0x00008a00 0x000fe800
0x00007b1d 0x00000000 0x00000000 0x000fea00
0x00000947 0x000000d0 0x03800000 0x000fea00
0xff087984 0x00001000 0x00001c00 0x000e2200
0xff007224 0x000000ff 0x078e00ff 0x000fce00
0xff0c7984 0x00002000 0x00001c00 0x000e7000
0xff107984 0x00003000 0x00001c00 0x000eb000
0xff027984 0x00004000 0x00001a00 0x000ee200
0x0a077210 0x00000008 0x0791e004 0x001fc800
0x0b097210 0x00000009 0x007e2405 0x000fe400
0x0e057210 0x00000007 0x0791e00c 0x002fc800
0x0f0d7210 0x00000009 0x007e240d 0x000fe400
0x12057210 0x00000005 0x0791e010 0x004fc800
0x13117210 0x0000000d 0x007e2411 0x000fe400
0x02047210 0x00000005 0x07f1e0ff 0x008fca00
0x03057824 0x00000001 0x000e0611 0x000fc600
0x00007941 0x00000000 0x03800000 0x000fea00
0x0000720c 0x000000ff 0x03f05270 0x000fd800
0x0000094d 0x00000000 0x03800000 0x000fea00
0x04047a10 0x00006200 0x07f1e0ff 0x000fe200
0x00047ab9 0x00005c00 0x00000a00 0x000fc600
0x05057a10 0x00006300 0x007fe4ff 0x000fd000
0xff007986 0x00000004 0x0c10eb04 0x000fe200
0x0000794d 0x00000000 0x03800000 0x000fea00
0x00007919 0x00000000 0x00002100 0x000e2400
0x0000720c 0x000000ff 0x03f05270 0x001fd800
0x0000094d 0x00000000 0x03800000 0x000fea00
0xff027624 0x00006200 0x078e00ff 0x000fe200
0x00047ab9 0x00005c00 0x00000a00 0x000fe200
0xff037624 0x00006300 0x078e00ff 0x000fd000
0xff007986 0x00000002 0x0c10eb04 0x000fe200
0x0000794d 0x00000000 0x03800000 0x000fea00
0x00007947 0xfffffff0 0x0383ffff 0x000fc000
0x00007918 0x00000000 0x00000000 0x000fc000
0x00007918 0x00000000 0x00000000 0x000fc000
0x00007918 0x00000000 0x00000000 0x000fc000
0x00007918 0x00000000 0x00000000 0x000fc000



.text._ZN3cub17CUB_200400_750_NS23DeviceSelectSweepKernelINS0_6detail24device_select_policy_hubIlbiLb0ELb0EE9Policy900ENS0_21CountingInputIteratorIllEENS0_22TransformInputIteratorIb7NonZeroIfEPflEEPlSD_NS0_13ScanTileStateIiLb1EEENS0_8NullTypeESG_iLb0EEEvT0_T1_T2_T3_T4_T5_T6_T7_iNS2_7vsmem_tE
bar = 1	reg = 44	lmem=0	smem=5120
0xff017624 0x00000a00 0x078e00ff 0x000fe400
0x00007919 0x00000000 0x00002500 0x000e2200
0x00047ab9 0x00006600 0x00000800 0x000fe400
0x04047890 0xffffffff 0x0fffe03f 0x000fe200
0x00027919 0x00000000 0x00002600 0x000e2400
0x00007a24 0x00000400 0x078e0202 0x001fc800
0x00047824 0x00000280 0x078e02ff 0x040fe200
0x00007c0c 0x00000004 0x0bf06270 0x000fd800
0x00008947 0x00002ce0 0x03800000 0x000fea00
0x00147919 0x00000000 0x00002100 0x000e2200
0x0000720c 0x000000ff 0x03f05270 0x000fe200
0x00ff7355 0x00000000 0x00100000 0x000fe200
0xff057819 0x0000001f 0x00011404 0x000fe200
0x00007945 0x00002c30 0x03800000 0x000fe200
0x04137a10 0x00006500 0x07ffe1ff 0x000fe200
0x14067824 0x00000005 0x078e02ff 0x001fe200
0xff087819 0x00000005 0x00011614 0x000fc800
0xff077819 0x0000001f 0x00011406 0x000fe400
0x06027a10 0x00005800 0x07a3e004 0x000fc800
0x07037a10 0x00005900 0x00fe4405 0x000fe200
0x00008947 0x00001b50 0x03800000 0x000fea00
0x04097210 0x00000006 0x07f1e0ff 0x000fe200
0x00007b1d 0x00000000 0x00000000 0x000fea00
0x06047810 0x00000001 0x07ffe0ff 0x040fe200
0x050a7824 0x00000001 0x000e0607 0x000fe200
0x06057810 0x00000003 0x07ffe0ff 0x000fe400
0x0400720c 0x00000013 0x03f06270 0x000fc400
0x0600720c 0x00000013 0x03fa6270 0x0c0fe400
0x09047a11 0x00005c00 0x078810ff 0x000fe400
0x0500720c 0x00000013 0x03f46270 0x000fe400
0x09057a11 0x00005d00 0x020f140a 0x000fe400
0x06077810 0x00000002 0x07ffe0ff 0x040fe400
0x06067810 0x00000004 0x07ffe0ff 0x000fc400
0x0700720c 0x00000013 0x03f26270 0x080fe400
0x040ad381 0x00000000 0x001ee900 0x0000a200
0x0600720c 0x00000013 0x03f66270 0x000fc600
0x04068381 0x00000400 0x001ee900 0x0000e800
0x0409a381 0x00000c00 0x001ee900 0x00012800
0x04079381 0x00000800 0x001ee900 0x00016800
0x0405b381 0x00001000 0x001ee900 0x00112200
0xff127424 0x00000001 0x078e00ff 0x000fc400
0xff117424 0x00000001 0x078e00ff 0x000fe400
0xff107424 0x00000001 0x078e00ff 0x000fe400
0xff0f7424 0x00000001 0x078e00ff 0x000fe400
0xff0e7424 0x00000001 0x078e00ff 0x000fe200
0x00157919 0x00000000 0x00000000 0x000e6800
0x00007b1d 0x00000000 0x00000000 0x000fea00
0x0a00d20b 0x000000ff 0x03f8d000 0x004fc800
0xff04d807 0x00000001 0x06000000 0x001fd000
0x0600820b 0x000000ff 0x03f8d000 0x008fe400
0x0700920b 0x000000ff 0x03fcd000 0x020fe400
0x0412d816 0x00007610 0x00000012 0x000fe400
0xff048807 0x00000001 0x06000000 0x000fe400
0x0900a20b 0x000000ff 0x03fad000 0x010fc800
0x0500b20b 0x000000ff 0x03f8d000 0x000fe400
0xff059807 0x00000001 0x07000000 0x000fe400
0xff06a807 0x00000001 0x06800000 0x000fe400
0xff07b807 0x00000001 0x06000000 0x000fe400
0x04118816 0x00007610 0x00000011 0x000fe400
0x05109816 0x00007610 0x00000010 0x000fc400
0x060fa816 0x00007610 0x0000000f 0x000fe400
0x070eb816 0x00007610 0x0000000e 0x000fe400
0x120d7812 0x0000ffff 0x078ec0ff 0x000fe400
0x110c7812 0x0000ffff 0x078ec0ff 0x000fe400
0x100b7812 0x0000ffff 0x078ec0ff 0x000fe400
0x0f0a7812 0x0000ffff 0x078ec0ff 0x000fc400
0x0e047812 0x0000ffff 0x078ec0ff 0x000fe400
0x0b057210 0x0000000c 0x07ffe00d 0x000fc800
0x04167210 0x00000005 0x07ffe00a 0x000fd000
0x16047989 0x04200000 0x000000ff 0x000e2400
0x16040824 0x00000001 0x078e0204 0x001fd000
0x04057989 0x04400000 0x000000ff 0x000e2400
0x04050824 0x00000001 0x078e0205 0x001fd000
0x05047989 0x04800000 0x000000ff 0x000e2400
0x05040824 0x00000001 0x078e0204 0x001fd000
0x04057989 0x05000000 0x000000ff 0x000e2400
0x04050824 0x00000001 0x078e0205 0x001fd000
0x05097989 0x06000000 0x000200ff 0x000e2200
0x1500780c 0x0000001f 0x03f05270 0x002fe200
0x05091824 0x00000001 0x078e0209 0x001fd600
0x08008388 0x00000009 0x00004800 0x000fe800
0x00007b1d 0x00000000 0x00000000 0x000fea00
0xff047984 0x00000000 0x00001c00 0x000e2200
0x0800780c 0x00000002 0x03f05270 0x000fe200
0x09097824 0x00000001 0x078e0a16 0x000fe200
0x1500720c 0x000000ff 0x03f25270 0x000fe200
0x04057824 0x00000001 0x078e0205 0x001fc800
0x05067824 0x00000001 0x078e0206 0x040fe200
0x05047207 0x00000004 0x04000000 0x000fe400
0x09057207 0x000000ff 0x00800000 0x000fe400
0x0800780c 0x00000003 0x03f05270 0x040fe400
0x0800720c 0x000000ff 0x03f25270 0x000fe400
0x06047207 0x00000004 0x04000000 0x000fe400
0x0800720c 0x000000ff 0x03f05270 0x000fc600
0x04087824 0x00000001 0x078e0205 0x000fe400
0x07077824 0x00000001 0x078e0206 0x000fc600
0x09157207 0x00000008 0x04000000 0x000fe200
0x00001947 0x00000950 0x03800000 0x000fea00
0x1400720c 0x000000ff 0x03f05270 0x000fe400
0xff197212 0x00000014 0x078e33ff 0x000fca00
0x00197824 0x00000001 0x078e0219 0x000fca00
0xff048424 0x00000008 0x078e00ff 0x000fe200
0xff008388 0x00002c07 0x00000800 0x000fe200
0xff068424 0x00000064 0x078e00ff 0x000fe400
0x00048625 0x00006200 0x078e0204 0x000fd000
0x04008385 0x00000100 0x00114b06 0x0001e400
0xff047624 0x00000300 0x078e00ff 0x001fca00
0x0400780c 0x000001f4 0x03f26070 0x000fd800
0x00009947 0x00000030 0x03800000 0x000fea00
0x0000795d 0x000001c2 0x03a00000 0x000fe200
0x00007946 0x00000000 0x03800000 0x000fe200
0x00007947 0x00000010 0x03800000 0x000fea00
0x00007992 0x00000000 0x00000000 0x000fea00
0xff167424 0x00000008 0x078e00ff 0x000fc800
0x19167625 0x00006200 0x078e0216 0x000fd000
0x16087980 0x00000100 0x00114b00 0x00016200
0x01ff7355 0x00000000 0x00100000 0x000fe200
0x00017945 0x00000120 0x03800000 0x000fe400
0x0800780c 0x00000063 0x03f45270 0x020fe200
0x00007947 0x00004ba2 0x03800000 0x000ff600
0x00047806 0x00000000 0x050e0100 0x000fc800
0x0400720c 0x000000ff 0x03f45070 0x000fd800
0x0000a947 0x000000c0 0x03800000 0x000fea00
0x00009947 0x00000030 0x03800000 0x000fea00
0x0000795d 0x0000015e 0x03a00000 0x000fe200
0x00007946 0x00000000 0x03800000 0x000fe200
0x00007947 0x00000010 0x03800000 0x000fea00
0x00007992 0x00000000 0x00000000 0x000fea00
0x16087980 0x00000100 0x00114b00 0x00036400
0x00047806 0x00000000 0x038e0100 0x000fe200
0x00007946 0x00000000 0x03800000 0x000fe200
0x00047886 0x00000000 0x038e0100 0x000fe400
0x04ff7c12 0x00000004 0x0f840cff 0x000fd800
0x0000a947 0xffffff01 0x0383ffff 0x023fea00
0x00007947 0xffffffa0 0x0383ffff 0x000fea00
0x00017941 0x00000000 0x03800000 0x000fea00
0x00187919 0x00000000 0x00000000 0x000e6200
0x0800780c 0x00000065 0x03f45270 0x000fe200
0x00007947 0x00004ad2 0x03800000 0x000ff400
0x00067919 0x00000000 0x00003c00 0x000ea200
0x00047806 0x00000000 0x050e0100 0x000fe400
0x181b7810 0x00000002 0x07ffe0ff 0x042fe400
0x181c7810 0x00000004 0x07ffe0ff 0x040fe400
0x181d7810 0x00000008 0x07ffe0ff 0x000fe400
0x04047812 0x80000000 0x078eec06 0x004fcc00
0x00047301 0x00000004 0x00000000 0x000e7000
0x00047300 0x00000004 0x000e0000 0x002e6400
0x04167810 0x0000001f 0x07ffe1ff 0x003fc800
0x1800720c 0x00000016 0x03f46270 0x000fc800
0x09047989 0x08200000 0x000e0016 0x000e2400
0x04047207 0x000000ff 0x05000000 0x001fe400
0x1b00720c 0x00000016 0x03f44270 0x000fc600
0x04047824 0x00000001 0x078e0209 0x000fd000
0x04057989 0x08400000 0x000e0016 0x000e2400
0x05057207 0x000000ff 0x05000000 0x001fe400
0x1c00720c 0x00000016 0x03f44270 0x000fc600
0x04057824 0x00000001 0x078e0205 0x000fd000
0x05047989 0x08800000 0x000e0016 0x000e2400
0x04047207 0x000000ff 0x05000000 0x001fe400
0x1d00720c 0x00000016 0x03f44270 0x000fc600
0x05047824 0x00000001 0x078e0204 0x000fd000
0x04057989 0x09000000 0x000e0016 0x000e2400
0x05057207 0x000000ff 0x05000000 0x001fca00
0x041a7824 0x00000001 0x078e0205 0x000fd000
0x1a257989 0x0a000000 0x000e0016 0x00006400
0x181e7810 0x00000010 0x07ffe0ff 0x000fe200
0x01ff7355 0x00000000 0x00100000 0x000fe200
0x00017945 0x00000440 0x03800000 0x000fe400
0x1e00720c 0x00000016 0x03f44270 0x000fc800
0x25257207 0x000000ff 0x05000000 0x002fca00
0x251a7824 0x00000001 0x078e021a 0x001fe400
0x0800780c 0x00000065 0x03f45270 0x000fe200
0x00007947 0x00004c22 0x03800000 0x000ff600
0x00047806 0x00000000 0x010e0100 0x000fe200
0x00047886 0x00000000 0x038e0100 0x000fc600
0x04047c12 0x00000004 0x0f8ec0ff 0x000fc800
0x04007c0c 0x00000004 0x0bf42070 0x000fd800
0x0000a947 0x00000390 0x03800000 0x000fea00
0x19197810 0xffffffe0 0x07ffe0ff 0x000fe200
0xff167424 0x00000008 0x078e00ff 0x000fc800
0x19167625 0x00006200 0x078e0216 0x000fd000
0x16087980 0x00000100 0x00114b00 0x00016200
0x02ff7355 0x00000000 0x00100000 0x000fe200
0x00027945 0x00000120 0x03800000 0x000fe400
0x0800780c 0x00000063 0x03f45270 0x020fe200
0x00007947 0x00004bb2 0x03800000 0x000ff600
0x00047806 0x00000000 0x050e0100 0x000fc800
0x0400720c 0x000000ff 0x03f45070 0x000fd800
0x0000a947 0x000000c0 0x03800000 0x000fea00
0x00009947 0x00000030 0x03800000 0x000fea00
0x0000795d 0x0000015e 0x03a00000 0x000fe200
0x00007946 0x00000000 0x03800000 0x000fe200
0x00007947 0x00000010 0x03800000 0x000fea00
0x00007992 0x00000000 0x00000000 0x000fea00
0x16087980 0x00000100 0x00114b00 0x00036400
0x00047806 0x00000000 0x038e0100 0x000fe200
0x00007946 0x00000000 0x03800000 0x000fe200
0x00047886 0x00000000 0x038e0100 0x000fe400
0x04ff7c12 0x00000004 0x0f840cff 0x000fd800
0x0000a947 0xffffff01 0x0383ffff 0x023fea00
0x00007947 0xffffffa0 0x0383ffff 0x000fea00
0x00027941 0x00000000 0x03800000 0x000fea00
0x0800780c 0x00000065 0x03f45270 0x000fe200
0x00007947 0x00004af2 0x03800000 0x000ff600
0x00047806 0x00000000 0x050e0100 0x000fc800
0x04047812 0x80000000 0x078eec06 0x000fcc00
0x00047301 0x00000004 0x00000000 0x000e7000
0x00047300 0x00000004 0x000e0000 0x002e6400
0x04167810 0x0000001f 0x07ffe1ff 0x003fc800
0x1800720c 0x00000016 0x03f46270 0x000fc800
0x09047989 0x08200000 0x000e0016 0x000e2400
0x04047207 0x000000ff 0x05000000 0x001fe400
0x1b00720c 0x00000016 0x03f44270 0x000fc600
0x04047824 0x00000001 0x078e0209 0x000fd000
0x04057989 0x08400000 0x000e0016 0x000e2400
0x05057207 0x000000ff 0x05000000 0x001fe400
0x1c00720c 0x00000016 0x03f44270 0x000fc600
0x04057824 0x00000001 0x078e0205 0x000fd000
0x05047989 0x08800000 0x000e0016 0x000e2400
0x04047207 0x000000ff 0x05000000 0x001fe400
0x1d00720c 0x00000016 0x03f44270 0x000fc600
0x05047824 0x00000001 0x078e0204 0x000fd000
0x04057989 0x09000000 0x000e0016 0x000e2400
0x05057207 0x000000ff 0x05000000 0x001fca00
0x04097824 0x00000001 0x078e0205 0x000fd000
0x09257989 0x0a000000 0x000e0016 0x00006400
0x1e00720c 0x00000016 0x03f44270 0x000fc800
0x25257207 0x000000ff 0x05000000 0x002fc800
0x091a7210 0x00000025 0x07ffe01a 0x000fe400
0x00047806 0x00000000 0x038e0100 0x000fe200
0x00007946 0x00000000 0x03800000 0x000fe200
0x00047886 0x00000000 0x038e0100 0x000fe400
0x04ff7c12 0x00000004 0x0f840cff 0x000fd800
0x0000a947 0xfffffc11 0x0383ffff 0x001fea00
0x00007947 0xffffffa0 0x0383ffff 0x000fea00
0x00017941 0x00000000 0x03800000 0x000fea00
0xff048424 0x00000008 0x078e00ff 0x000fe200
0x1800720c 0x000000ff 0x03f25270 0x000fe200
0x07078824 0x00000001 0x078e021a 0x000fe400
0xff068424 0x00000065 0x078e00ff 0x000fe400
0x00048625 0x00006200 0x078e0204 0x000fc800
0xff087224 0x000000ff 0x078e0015 0x000fc800
0x04008385 0x00000100 0x00114b06 0x0001e200
0xff089224 0x000000ff 0x078e001a 0x000fc600
0xff008388 0x00002807 0x00000800 0x0001e800
0xff008388 0x0000241a 0x00000800 0x0001e800
0xff009388 0x0000141a 0x00000800 0x0001e400
0x00007948 0xffffffff 0x03800000 0x000fe800
0x00007b1d 0x00000000 0x00000000 0x000fea00
0xff097984 0x00001400 0x00001800 0x000e6200
0x1400720c 0x000000ff 0x03f05270 0x000fc400
0x13137810 0x00000280 0x07ffe1ff 0x000fe200
0xff047984 0x00002000 0x00001c00 0x001e2200
0x09097207 0x000000ff 0x00000000 0x002fc600
0x07047824 0x00000001 0x078e0a13 0x101fe400
0x09087824 0x00000001 0x078e0208 0x000fe400
0x06067824 0x00000001 0x078e0a13 0x000fe200
0x0400780c 0x00000080 0x03f04270 0x000fe200
0x0d097824 0x00000001 0x078e0208 0x000fc800
0x0c0c7824 0x00000001 0x078e0209 0x000fc800
0x0b0b7824 0x00000001 0x078e020c 0x000fc800
0x0a0a7824 0x00000001 0x078e020b 0x000fe200
0x00000947 0x00000280 0x03800000 0x000fea00
0x12007816 0x00009910 0x000000ff 0x000fe400
0x0800720c 0x00000006 0x03f06270 0x080fe400
0x11047816 0x00009910 0x000000ff 0x000fe400
0x0900720c 0x00000006 0x03f26270 0x000fe400
0x0000720c 0x000000ff 0x00702670 0x000fe400
0x10007816 0x00009910 0x000000ff 0x000fc400
0x0400720c 0x000000ff 0x00f22670 0x000fe400
0x0c00720c 0x00000006 0x03f46270 0x080fe400
0x0f047816 0x00009910 0x000000ff 0x000fe400
0x0b00720c 0x00000006 0x03f66270 0x000fe400
0x0000720c 0x000000ff 0x01742670 0x000fe400
0x0400720c 0x000000ff 0x01f62670 0x000fe200
0xff048424 0x00000008 0x078e00ff 0x000fe200
0x02129810 0x00000001 0x07f9e0ff 0x000fe200
0xff009424 0x00000008 0x078e00ff 0x000fc400
0x08048625 0x00005e00 0x078e0204 0x000fc800
0x09089625 0x00005e00 0x078e0200 0x000fe200
0x0216a810 0x00000002 0x07fbe0ff 0x040fe400
0x0218b810 0x00000003 0x07fde0ff 0x000fe200
0xff0da424 0x00000008 0x078e00ff 0x000fe200
0x04008386 0x00000002 0x0010eb00 0x0001e200
0xff10b424 0x00000008 0x078e00ff 0x000fe200
0x0e007816 0x00009910 0x000000ff 0x000fe200
0xff139224 0x000000ff 0x020e0603 0x000fe200
0x0a00720c 0x00000006 0x03f06270 0x000fe200
0x0c0ca625 0x00005e00 0x078e020d 0x000fc600
0x0000720c 0x000000ff 0x00702670 0x000fe200
0xff17a224 0x000000ff 0x028e0603 0x100fe400
0x0b10b625 0x00005e00 0x078e0210 0x000fe200
0x08009386 0x00000012 0x0010eb00 0x0001e600
0xff19b224 0x000000ff 0x030e0603 0x000fe400
0x0c00a386 0x00000016 0x0010eb00 0x0001ec00
0x1000b386 0x00000018 0x0010eb00 0x0001e200
0x00000947 0x00001a70 0x03800000 0x000fea00
0x02027810 0x00000004 0x07f1e0ff 0x001fe200
0xff0b7424 0x00000008 0x078e00ff 0x000fc800
0x0a0a7625 0x00005e00 0x078e020b 0x000fc800
0xff037224 0x000000ff 0x000e0603 0x000fd000
0x0a007386 0x00000002 0x0010eb00 0x0001e200
0x00007947 0x00001a10 0x03800000 0x000fea00
0x120d7816 0x00009910 0x000000ff 0x000fe200
0x00007b1d 0x00000000 0x00000000 0x000fea00
0x11117816 0x00009910 0x000000ff 0x000fe400
0x0d00720c 0x000000ff 0x03f85270 0x000fe400
0x10107816 0x00009910 0x000000ff 0x000fe200
0xff0d7224 0x000000ff 0x078e0011 0x000fe200
0x0e117816 0x00009910 0x000000ff 0x000fc400
0x0f0f7816 0x00009910 0x000000ff 0x000fe200
0xff0e7224 0x000000ff 0x078e0010 0x000fe200
0x0d00720c 0x000000ff 0x03f65270 0x000fe200
0xff0d7224 0x000000ff 0x078e0011 0x000fe200
0x0f00720c 0x000000ff 0x03f25270 0x000fe400
0x08084824 0x00000001 0x078e0a05 0x000fe200
0x0e00720c 0x000000ff 0x03f45270 0x000fe400
0x0d00720c 0x000000ff 0x03f05270 0x000fca00
0x08004388 0x00000002 0x00008a00 0x0001e200
0x09103824 0x00000001 0x078e0a05 0x100fe200
0x020e1810 0x00000003 0x07f9e0ff 0x000fe200
0x0b0b1824 0x00000001 0x078e0a05 0x100fe400
0x0c112824 0x00000001 0x078e0a05 0x000fe200
0x020c2810 0x00000002 0x07fbe0ff 0x000fe200
0xff0f1224 0x000000ff 0x020e0603 0x000fe400
0x0a0a0824 0x00000001 0x078e0a05 0x000fe200
0x02083810 0x00000001 0x07fde0ff 0x001fe200
0xff0d2224 0x000000ff 0x028e0603 0x000fc800
0xff093224 0x000000ff 0x030e0603 0x000fce00
0x02020810 0x00000004 0x07fde0ff 0x000fe200
0x10003388 0x00000008 0x00008a00 0x000fe800
0xff030224 0x000000ff 0x030e0603 0x000fe200
0x11002388 0x0000000c 0x00008a00 0x000fe800
0x0b001388 0x0000000e 0x00008a00 0x000fe800
0x0a000388 0x00000002 0x00008a00 0x000fe800
0x00007b1d 0x00000000 0x00000000 0x000fea00
0x1400720c 0x00000004 0x03f06270 0x000fd800
0x00000947 0x000017e0 0x03800000 0x000fea00
0x07077a10 0x00006500 0x07ffe0ff 0x000fe200
0x01ff7355 0x00000000 0x00100000 0x000fe200
0x00017945 0x00000190 0x03800000 0x000fe400
0x14077810 0xfffffd7f 0x07ffe107 0x000fca00
0x00077824 0xfffffd80 0x078e0207 0x000fca00
0x07007811 0x00000001 0x078fc8ff 0x040fe400
0x0700780c 0x00000180 0x03f26070 0x000fe400
0x00087812 0x00000003 0x0780c0ff 0x000fe200
0xff007224 0x000000ff 0x078e0014 0x000fd600
0x00008947 0x00000110 0x03800000 0x000fea00
0x14027824 0x00000001 0x078e0205 0x000fe400
0xff037424 0x00000008 0x078e00ff 0x000fe400
0xff077224 0x000000ff 0x078e0008 0x000fe400
0x02027625 0x00005e00 0x078e0203 0x000fc800
0xff087224 0x000000ff 0x078e0002 0x000fe400
0xff097224 0x000000ff 0x078e0003 0x000fe400
0x140a7824 0x00000008 0x078e00ff 0x000fe400
0xff007224 0x000000ff 0x078e0014 0x000fcc00
0x0a027984 0x00000000 0x00001a00 0x00006200
0x07077810 0xffffffff 0x07ffe0ff 0x000fe400
0x00007810 0x00000080 0x07ffe0ff 0x000fe400
0x0700720c 0x000000ff 0x03f05270 0x000fc400
0x0a0a7810 0x00000400 0x07ffe0ff 0x001fe200
0x08007386 0x00000002 0x0010eb00 0x0021e400
0x08087810 0x00000400 0x07f5e0ff 0x001fca00
0xff097224 0x000000ff 0x010e0609 0x000fe400
0x00000947 0xffffff70 0x0383ffff 0x000fea00
0x00017941 0x00000000 0x03800000 0x000fea00
0x00009947 0x00001610 0x03800000 0x000fea00
0x04027824 0x00000001 0x078e0a00 0x000fe200
0x01ff7355 0x00000000 0x00100000 0x000fe200
0xff037424 0x00000008 0x078e00ff 0x000fe200
0x00017945 0x00000310 0x03800000 0x000fe200
0x0000781c 0x00000000 0x03f0f070 0x000fe400
0x0200780c 0x00000600 0x03f24270 0x000fe200
0x00027824 0x00000001 0x078e0205 0x040fe200
0x00057811 0x00000800 0x078e18ff 0x000fc600
0x02027625 0x00005e00 0x078e0203 0x000fce00
0x00009947 0x000002a0 0x03800000 0x000fea00
0x0000781c 0x00000000 0x03f0e170 0x000fe400
0x04077810 0xfffffa00 0x07ffe0ff 0x000fe400
0x05087984 0xfff80000 0x00001a00 0x000e2200
0x00007810 0x00000800 0x07ffe0ff 0x000fc600
0x050a7984 0xfffc0000 0x00001a00 0x000e6200
0x0000720c 0x00000007 0x03f26270 0x000fc600
0x050c7984 0x00000000 0x00001a00 0x000ea800
0x050e7984 0x00040000 0x00001a00 0x000ee800
0x05107984 0x00080000 0x00001a00 0x000f2800
0x05127984 0x000c0000 0x00001a00 0x000f6800
0x05167984 0x00100000 0x00001a00 0x000e2800
0x05187984 0x00140000 0x00001a00 0x000e6800
0x051a7984 0x00180000 0x00001a00 0x000ea800
0x051c7984 0x001c0000 0x00001a00 0x000ee800
0x051e7984 0x00200000 0x00001a00 0x000f2800
0x05207984 0x00240000 0x00001a00 0x000f6800
0x05227984 0x00280000 0x00001a00 0x000f6800
0x05247984 0x002c0000 0x00001a00 0x000f6800
0x05267984 0x00300000 0x00001a00 0x000f6800
0x05287984 0x00340000 0x00001a00 0x00036800
0x02007386 0x00000008 0x0010eb00 0x0011e200
0x05057810 0x00004000 0x07ffe0ff 0x002fc600
0x02007386 0x0004000a 0x0010eb00 0x000fe800
0x02007386 0x0008000c 0x0010eb00 0x004fe800
0x02007386 0x000c000e 0x0010eb00 0x008fe200
0x02087810 0x00004000 0x07f5e0ff 0x001fc600
0x02007386 0x00100010 0x0010eb00 0x010fe400
0xff097224 0x000000ff 0x010e0603 0x000fe400
0x02007386 0x00140012 0x0010eb00 0x020fe800
0x02007386 0x00180016 0x0010eb00 0x000fe800
0x02007386 0x001c0018 0x0010eb00 0x000fe800
0x02007386 0x0020001a 0x0010eb00 0x000fe800
0x02007386 0x0024001c 0x0010eb00 0x000fe800
0x02007386 0x0028001e 0x0010eb00 0x000fe800
0x02007386 0x002c0020 0x0010eb00 0x000fe800
0x02007386 0x00300022 0x0010eb00 0x000fe800
0x02007386 0x00340024 0x0010eb00 0x000fe800
0x02007386 0x00380026 0x0010eb00 0x000fe800
0x02007386 0x003c0028 0x0010eb00 0x0001e400
0xff027224 0x000000ff 0x078e0008 0x001fc400
0xff037224 0x000000ff 0x078e0009 0x000fe200
0x00009947 0xfffffd80 0x0383ffff 0x000fea00
0x00017941 0x00000000 0x03800000 0x000fea00
0x04077824 0x00000001 0x078e0a00 0x000fe200
0x01ff7355 0x00000000 0x00100000 0x000fe200
0x00017945 0x00000180 0x03800000 0x000fe600
0x0700780c 0x00000200 0x03f24270 0x000fd800
0x00009947 0x00000150 0x03800000 0x000fea00
0x05087984 0xfff80000 0x00001a00 0x000e2200
0x0000781c 0x00000000 0x03f0e170 0x000fe400
0x00007810 0x00000400 0x07ffe0ff 0x000fe200
0x050a7984 0xfffc0000 0x00001a00 0x000e6800
0x050c7984 0x00000000 0x00001a00 0x000ea800
0x050e7984 0x00040000 0x00001a00 0x000ee800
0x05107984 0x00080000 0x00001a00 0x000f2800
0x05127984 0x000c0000 0x00001a00 0x000f6800
0x05167984 0x00100000 0x00001a00 0x000f6800
0x05187984 0x00140000 0x00001a00 0x00016400
0x05057810 0x00002000 0x07ffe0ff 0x001fc400
0x02007386 0x00000008 0x0010eb00 0x000fe800
0x02007386 0x0004000a 0x0010eb00 0x002fe800
0x02007386 0x0008000c 0x0010eb00 0x004fe800
0x02007386 0x000c000e 0x0010eb00 0x008fe800
0x02007386 0x00100010 0x0010eb00 0x010fe800
0x02007386 0x00140012 0x0010eb00 0x020fe800
0x02007386 0x00180016 0x0010eb00 0x000fe800
0x02007386 0x001c0018 0x0010eb00 0x0001e400
0x02027810 0x00002000 0x07f3e0ff 0x001fca00
0xff037224 0x000000ff 0x008e0603 0x000fc600
0x00017941 0x00000000 0x03800000 0x000fea00
0x0000720c 0x00000004 0x00701670 0x000fd800
0x00008947 0x000010f0 0x03800000 0x000fea00
0x05087984 0xfff80000 0x00001a00 0x000e2800
0x050a7984 0xfffc0000 0x00001a00 0x000e6800
0x050c7984 0x00000000 0x00001a00 0x000ea800
0x05047984 0x00040000 0x00001a00 0x000ee800
0x02007386 0x00000008 0x0010eb00 0x0011e800
0x02007386 0x0004000a 0x0010eb00 0x0021e800
0x02007386 0x0008000c 0x0010eb00 0x0041e800
0x02007386 0x000c0004 0x0010eb00 0x0081e200
0x00007947 0x00001060 0x03800000 0x000fea00
0x00007b1d 0x00000000 0x00000000 0x000fea00
0x04007210 0x00000006 0x07f1e0ff 0x000fc400
0x06097810 0x00000001 0x07ffe0ff 0x040fe400
0x0600720c 0x00000013 0x03f86270 0x080fe200
0x05057824 0x00000001 0x000e0607 0x000fe200
0x00047a11 0x00005c00 0x078010ff 0x000fe400
0x0900720c 0x00000013 0x03f66270 0x000fe400
0x060a7810 0x00000003 0x07ffe0ff 0x000fe400
0x00057a11 0x00005d00 0x000f1405 0x000fc400
0x06077810 0x00000002 0x07ffe0ff 0x000fe400
0x0a00720c 0x00000013 0x03f26270 0x080fe400
0x0700720c 0x00000013 0x03f46270 0x000fe400
0x040ac381 0x00000000 0x001ee900 0x0000a800
0x0400b381 0x00000400 0x001ee900 0x0000e200
0x06067810 0x00000004 0x07ffe0ff 0x000fc600
0x04099381 0x00000c00 0x001ee900 0x00012800
0x0407a381 0x00000800 0x001ee900 0x00016200
0x0600720c 0x00000013 0x03f06270 0x000fd800
0x04058381 0x00001000 0x001ee900 0x00112200
0xff0c7424 0x00000001 0x078e00ff 0x000fe400
0xff0b7424 0x00000001 0x078e00ff 0x000fe200
0x00157919 0x00000000 0x00000000 0x000e6800
0x00007b1d 0x00000000 0x00000000 0x000fea00
0x0a00c20b 0x000000ff 0x03fcd000 0x004fc400
0x0000b20b 0x000000ff 0x03fad000 0x008fe400
0xff00c807 0x00000001 0x07000000 0x000fe400
0xff04b807 0x00000001 0x06800000 0x001fe200
0xff0a7424 0x00000001 0x078e00ff 0x000fca00
0x0700a20b 0x000000ff 0x03fcd000 0x020fe400
0x0900920b 0x000000ff 0x03fad000 0x010fe200
0xff097424 0x00000001 0x078e00ff 0x000fe200
0xff06a807 0x00000001 0x07000000 0x000fe400
0xff079807 0x00000001 0x06800000 0x000fe400
0x000ac816 0x00007610 0x0000000a 0x000fe400
0x0409b816 0x00007610 0x00000009 0x000fc400
0x060ca816 0x00007610 0x0000000c 0x000fe400
0x070b9816 0x00007610 0x0000000b 0x000fe400
0x0a0f7812 0x0000ffff 0x078ec0ff 0x000fe400
0x09107812 0x0000ffff 0x078ec0ff 0x000fe400
0x0c117812 0x0000ffff 0x078ec0ff 0x000fe400
0x0b127812 0x0000ffff 0x078ec0ff 0x000fc400
0x11007210 0x00000010 0x07ffe00f 0x000fe400
0x0500720b 0x000000ff 0x0070d400 0x000fc600
0x12007824 0x00000001 0x078e0200 0x000fca00
0x000d7810 0x00000001 0x07ffe0ff 0x000fca00
0xff0d8224 0x000000ff 0x078e0200 0x000fd000
0x0d007989 0x04200000 0x000200ff 0x000e2400
0x00001824 0x00000001 0x078e020d 0x001fd000
0x00047989 0x04400000 0x000200ff 0x000e2400
0x00041824 0x00000001 0x078e0204 0x001fd000
0x04007989 0x04800000 0x000200ff 0x000e2400
0x04001824 0x00000001 0x078e0200 0x001fd000
0x00047989 0x05000000 0x000200ff 0x000e2400
0x00041824 0x00000001 0x078e0204 0x001fd000
0x04007989 0x06000000 0x000200ff 0x000e2200
0x1500780c 0x0000001f 0x03f45270 0x002fe200
0x04001824 0x00000001 0x078e0200 0x001fd600
0x0800a388 0x00000000 0x00004800 0x000fe800
0x00007b1d 0x00000000 0x00000000 0x000fea00
0xff047984 0x00000000 0x00001c00 0x000e2200
0x0800780c 0x00000002 0x03f25270 0x000fc400
0x0800780c 0x00000003 0x03f45270 0x000fe200
0x00007824 0x00000001 0x078e0a0d 0x000fe200
0x1500720c 0x000000ff 0x03f65270 0x000fc800
0x00007207 0x000000ff 0x01800000 0x000fe200
0x04057824 0x00000001 0x078e0205 0x001fc800
0x050e7824 0x00000001 0x078e0206 0x040fe200
0x05047207 0x00000004 0x04800000 0x000fe400
0x0800720c 0x000000ff 0x03f25270 0x000fe400
0x0e047207 0x00000004 0x05000000 0x040fe400
0x0e067210 0x00000013 0x07ffe007 0x000fe400
0x04047207 0x000000ff 0x00800000 0x000fe400
0x06067810 0xfffffd80 0x07ffe0ff 0x000fc600
0x04087824 0x00000001 0x078e0200 0x000fe200
0x0600780c 0x00000080 0x03f24270 0x000fc600
0x0f0d7824 0x00000001 0x078e0208 0x000fc800
0x10137824 0x00000001 0x078e020d 0x000fc800
0x11117824 0x00000001 0x078e0213 0x000fc800
0x12007824 0x00000001 0x078e0211 0x000fe200
0x00001947 0x00000260 0x03800000 0x000fea00
0x09057816 0x00009910 0x000000ff 0x000fe400
0x0d00720c 0x00000006 0x03f46270 0x080fe400
0x0a047816 0x00009910 0x000000ff 0x000fe400
0x0500720c 0x000000ff 0x01742670 0x000fe400
0x0800720c 0x00000006 0x03f26270 0x000fe400
0x0b057816 0x00009910 0x000000ff 0x000fc400
0x0400720c 0x000000ff 0x00f22670 0x000fe400
0x0c047816 0x00009910 0x000000ff 0x000fe400
0x1300720c 0x00000006 0x03f66270 0x080fe400
0x1100720c 0x00000006 0x03f86270 0x000fe200
0xff09a424 0x00000008 0x078e00ff 0x000fe200
0x0400720c 0x000000ff 0x01f62670 0x000fe400
0x0500720c 0x000000ff 0x02782670 0x000fc400
0x020ea810 0x00000001 0x07fde0ff 0x000fe200
0xff049424 0x00000008 0x078e00ff 0x000fe200
0x0000720c 0x00000006 0x04706670 0x000fc600
0xff0fa224 0x000000ff 0x030e0603 0x000fe400
0x08049625 0x00005e00 0x078e0204 0x000fe200
0x0210b810 0x00000002 0x07fbe0ff 0x000fc600
0xff0cc424 0x00000008 0x078e00ff 0x000fe200
0x0212c810 0x00000003 0x07fde0ff 0x000fe200
0xff0ab424 0x00000008 0x078e00ff 0x000fe400
0x0d08a625 0x00005e00 0x078e0209 0x000fe200
0x04009386 0x00000002 0x0010eb00 0x0001e600
0x110cc625 0x00005e00 0x078e020c 0x000fc800
0x130ab625 0x00005e00 0x078e020a 0x000fe200
0x0800a386 0x0000000e 0x0010eb00 0x0001e600
0xff11b224 0x000000ff 0x028e0603 0x100fe400
0xff13c224 0x000000ff 0x030e0603 0x000fcc00
0x0a00b386 0x00000010 0x0010eb00 0x0001e800
0x0c00c386 0x00000012 0x0010eb00 0x0001e200
0x00000947 0x00000960 0x03800000 0x000fea00
0x02027810 0x00000004 0x07f1e0ff 0x001fe200
0xff047424 0x00000008 0x078e00ff 0x000fc800
0x00047625 0x00005e00 0x078e0204 0x000fc800
0xff037224 0x000000ff 0x000e0603 0x000fd000
0x04007386 0x00000002 0x0010eb00 0x0001e200
0x00007947 0x00000900 0x03800000 0x000fea00
0x09057816 0x00009910 0x000000ff 0x000fe200
0x00007b1d 0x00000000 0x00000000 0x000fea00
0x0500720c 0x000000ff 0x03f25270 0x000fe400
0x0a047816 0x00009910 0x000000ff 0x000fe400
0x0c0c7816 0x00009910 0x000000ff 0x000fc400
0x0b0b7816 0x00009910 0x000000ff 0x000fe400
0x0400720c 0x000000ff 0x03fa5270 0x000fe200
0xff057224 0x000000ff 0x078e000c 0x000fe200
0x020a0810 0x00000004 0x07fde0ff 0x000fe200
0xff047224 0x000000ff 0x078e000b 0x000fc600
0x0500720c 0x000000ff 0x03f45270 0x000fe200
0xff0b0224 0x000000ff 0x030e0603 0x100fe200
0x0400720c 0x000000ff 0x03f65270 0x000fe400
0x02041810 0x00000001 0x07f9e0ff 0x000fe400
0x08005388 0x00000002 0x00008a00 0x0001e600
0xff051224 0x000000ff 0x020e0603 0x000fc600
0x02082810 0x00000002 0x07fbe0ff 0x001fca00
0x0d001388 0x00000004 0x00008a00 0x000fe200
0x02023810 0x00000003 0x07f9e0ff 0x000fe200
0xff092224 0x000000ff 0x028e0603 0x000fc800
0xff033224 0x000000ff 0x020e0603 0x000fc800
0x13002388 0x00000008 0x00008a00 0x000fe800
0x11003388 0x00000002 0x00008a00 0x000fe800
0x00000388 0x0000000a 0x00008a00 0x000fe800
0x00007b1d 0x00000000 0x00000000 0x000fea00
0x1400720c 0x00000006 0x03f06270 0x000fd800
0x00000947 0x00000750 0x03800000 0x000fea00
0x0e077a10 0x00006500 0x07ffe007 0x000fe200
0x01ff7355 0x00000000 0x00100000 0x000fe200
0x00017945 0x00000170 0x03800000 0x000fe400
0x14077810 0xfffffd7f 0x07ffe107 0x000fc800
0x07007811 0x00000001 0x078fc8ff 0x040fe400
0x0700780c 0x00000180 0x03f26070 0x000fe400
0x00047812 0x00000003 0x0780c0ff 0x000fe200
0xff007224 0x000000ff 0x078e0014 0x000fd600
0x00008947 0x00000100 0x03800000 0x000fea00
0xff027424 0x00000008 0x078e00ff 0x000fe400
0xff077224 0x000000ff 0x078e0004 0x000fe400
0x14027625 0x00005e00 0x078e0202 0x000fc800
0xff047224 0x000000ff 0x078e0002 0x000fe400
0xff057224 0x000000ff 0x078e0003 0x000fe400
0x14087824 0x00000008 0x078e00ff 0x000fe400
0xff007224 0x000000ff 0x078e0014 0x000fcc00
0x08027984 0x00000000 0x00001a00 0x00006200
0x07077810 0xffffffff 0x07ffe0ff 0x000fe400
0x00007810 0x00000080 0x07ffe0ff 0x000fe400
0x0700720c 0x000000ff 0x03f05270 0x000fc400
0x08087810 0x00000400 0x07ffe0ff 0x001fe200
0x04007386 0x00000002 0x0010eb00 0x0021e400
0x04047810 0x00000400 0x07f5e0ff 0x001fca00
0xff057224 0x000000ff 0x010e0605 0x000fe400
0x00000947 0xffffff70 0x0383ffff 0x000fea00
0x00017941 0x00000000 0x03800000 0x000fea00
0x00009947 0x000005a0 0x03800000 0x000fea00
0x06047824 0x00000001 0x078e0a00 0x000fe200
0x01ff7355 0x00000000 0x00100000 0x000fe200
0xff027424 0x00000008 0x078e00ff 0x000fe200
0x00017945 0x00000320 0x03800000 0x000fe400
0x0400780c 0x00000600 0x03f24270 0x000fe200
0x00027625 0x00005e00 0x078e0202 0x040fe200
0x00047811 0x00000800 0x078e18ff 0x000fc800
0x02027810 0x00000800 0x07f1e0ff 0x000fca00
0xff037224 0x000000ff 0x000e0603 0x000fe200
0x0000781c 0x00000000 0x03f0f070 0x000fe200
0x00009947 0x000002a0 0x03800000 0x000fec00
0x0000781c 0x00000000 0x03f0e170 0x000fe400
0x06077810 0xfffffa00 0x07ffe0ff 0x000fc600
0x04087984 0xfff80000 0x00001a00 0x000e2200
0x00007810 0x00000800 0x07ffe0ff 0x000fe400
0x02057810 0x00004000 0x07f5e0ff 0x000fe200
0x040a7984 0xfffc0000 0x00001a00 0x000e6200
0x0000720c 0x00000007 0x03f26270 0x000fc600
0x040c7984 0x00000000 0x00001a00 0x000ea800
0x040e7984 0x00040000 0x00001a00 0x000ee800
0x04107984 0x00080000 0x00001a00 0x000f2800
0x04127984 0x000c0000 0x00001a00 0x000f6800
0x04167984 0x00100000 0x00001a00 0x000e2800
0x04187984 0x00140000 0x00001a00 0x000e6800
0x041a7984 0x00180000 0x00001a00 0x000ea800
0x041c7984 0x001c0000 0x00001a00 0x000ee800
0x041e7984 0x00200000 0x00001a00 0x000f2800
0x04207984 0x00240000 0x00001a00 0x000f6800
0x04227984 0x00280000 0x00001a00 0x000f6800
0x04247984 0x002c0000 0x00001a00 0x000f6800
0x04267984 0x00300000 0x00001a00 0x000f6800
0x04287984 0x00340000 0x00001a00 0x00036800
0x02007386 0xfff80008 0x0010eb00 0x0011e200
0x04047810 0x00004000 0x07ffe0ff 0x002fc600
0x02007386 0xfffc000a 0x0010eb00 0x000fe800
0x02007386 0x0000000c 0x0010eb00 0x004fe800
0x02007386 0x0004000e 0x0010eb00 0x008fe200
0xff087224 0x000000ff 0x010e0603 0x001fc600
0x02007386 0x00080010 0x0010eb00 0x010fe800
0x02007386 0x000c0012 0x0010eb00 0x020fe800
0x02007386 0x00100016 0x0010eb00 0x000fe800
0x02007386 0x00140018 0x0010eb00 0x000fe800
0x02007386 0x0018001a 0x0010eb00 0x000fe800
0x02007386 0x001c001c 0x0010eb00 0x000fe800
0x02007386 0x0020001e 0x0010eb00 0x000fe800
0x02007386 0x00240020 0x0010eb00 0x000fe800
0x02007386 0x00280022 0x0010eb00 0x000fe800
0x02007386 0x002c0024 0x0010eb00 0x000fe800
0x02007386 0x00300026 0x0010eb00 0x000fe800
0x02007386 0x00340028 0x0010eb00 0x0001e400
0xff027224 0x000000ff 0x078e0005 0x001fc400
0xff037224 0x000000ff 0x078e0008 0x000fe200
0x00009947 0xfffffd80 0x0383ffff 0x000fea00
0x00017941 0x00000000 0x03800000 0x000fea00
0x06057824 0x00000001 0x078e0a00 0x000fe200
0x01ff7355 0x00000000 0x00100000 0x000fe200
0x00017945 0x00000180 0x03800000 0x000fe600
0x0500780c 0x00000200 0x03f24270 0x000fd800
0x00009947 0x00000150 0x03800000 0x000fea00
0x04087984 0xfff80000 0x00001a00 0x000e2200
0x0000781c 0x00000000 0x03f0e170 0x000fe400
0x00007810 0x00000400 0x07ffe0ff 0x000fe200
0x040a7984 0xfffc0000 0x00001a00 0x000e6800
0x040c7984 0x00000000 0x00001a00 0x000ea800
0x040e7984 0x00040000 0x00001a00 0x000ee800
0x04107984 0x00080000 0x00001a00 0x000f2800
0x04127984 0x000c0000 0x00001a00 0x000f6800
0x04167984 0x00100000 0x00001a00 0x000f6800
0x04187984 0x00140000 0x00001a00 0x00016400
0x04047810 0x00002000 0x07ffe0ff 0x001fc400
0x02007386 0xfff80008 0x0010eb00 0x000fe800
0x02007386 0xfffc000a 0x0010eb00 0x002fe800
0x02007386 0x0000000c 0x0010eb00 0x004fe800
0x02007386 0x0004000e 0x0010eb00 0x008fe800
0x02007386 0x00080010 0x0010eb00 0x010fe800
0x02007386 0x000c0012 0x0010eb00 0x020fe800
0x02007386 0x00100016 0x0010eb00 0x000fe800
0x02007386 0x00140018 0x0010eb00 0x0001e400
0x02027810 0x00002000 0x07f3e0ff 0x001fca00
0xff037224 0x000000ff 0x008e0603 0x000fc600
0x00017941 0x00000000 0x03800000 0x000fea00
0x0000720c 0x00000006 0x00701670 0x000fd800
0x04080984 0xfff80000 0x00001a00 0x000e2800
0x040a0984 0xfffc0000 0x00001a00 0x000e6800
0x040c0984 0x00000000 0x00001a00 0x000ea800
0x04040984 0x00040000 0x00001a00 0x000ee800
0x02000386 0xfff80008 0x0010eb00 0x0011e800
0x02000386 0xfffc000a 0x0010eb00 0x0021e800
0x02000386 0x0000000c 0x0010eb00 0x0041e800
0x02000386 0x00040004 0x0010eb00 0x0081e400
0x00007941 0x00000000 0x03800000 0x000fea00
0x1400720c 0x000000ff 0x03f05270 0x000fd800
0x0000094d 0x00000000 0x03800000 0x000fea00
0xff077819 0x0000001f 0x00011406 0x000fe200
0x00047ab9 0x00006000 0x00000a00 0x000fce00
0xff007986 0x00000006 0x0c10eb04 0x000fe200
0x0000794d 0x00000000 0x03800000 0x000fea00
0x00147919 0x00000000 0x00002100 0x000e2200
0x0000720c 0x000000ff 0x03fa5270 0x000fe400
0xff117819 0x0000001f 0x00011404 0x000fe400
0x04027a10 0x00005800 0x07f1e0ff 0x000fc800
0x11107a10 0x00005900 0x007fe4ff 0x000fe200
0x14127824 0x00000005 0x078e02ff 0x001fca00
0x12037810 0x00000001 0x07ffe0ff 0x040fe400
0x12057810 0x00000002 0x07ffe0ff 0x040fe400
0x12067810 0x00000003 0x07ffe0ff 0x040fe400
0x12077810 0x00000004 0x07ffe0ff 0x040fe400
0xff137819 0x0000001f 0x00011412 0x000fe400
0x120e7210 0x00000002 0x07f1e0ff 0x000fc400
0x030c7210 0x00000002 0x07f3e0ff 0x080fe400
0x050a7210 0x00000002 0x07f5e0ff 0x080fe200
0x130f7824 0x00000001 0x000e0610 0x000fe200
0x06087210 0x00000002 0x07f7e0ff 0x080fe400
0x07027210 0x00000002 0x07f9e0ff 0x000fe400
0x030d7211 0x00000010 0x008f0eff 0x080fe400
0x050b7211 0x00000010 0x010f0eff 0x000fc400
0x06097211 0x00000010 0x018f0eff 0x080fe400
0x07037211 0x00000010 0x020f0eff 0x000fe400
0xff107819 0x00000005 0x00011614 0x000fe200
0x0000d947 0x00001770 0x03800000 0x000fea00
0x00007b1d 0x00000000 0x00000000 0x000fea00
0x04047210 0x00000012 0x07f1e0ff 0x000fca00
0x11117824 0x00000001 0x000e0613 0x000fe200
0x04187a11 0x00005c00 0x078010ff 0x000fc800
0x04197a11 0x00005d00 0x000f1411 0x000fd000
0x18267381 0x00000000 0x001ee900 0x0000a800
0x18157381 0x00000400 0x001ee900 0x0000e800
0x18167381 0x00000800 0x001ee900 0x00012800
0x18177381 0x00000c00 0x001ee900 0x00016800
0x18187381 0x00001000 0x001ee900 0x00116800
0x00137919 0x00000000 0x00000000 0x000e6800
0x00007b1d 0x00000000 0x00000000 0x000fea00
0x2600720b 0x000000ff 0x03f0d000 0x004fc400
0x1500720b 0x000000ff 0x03f2d000 0x008fe400
0xff197807 0x00000001 0x04000000 0x001fe400
0x1600720b 0x000000ff 0x03f4d000 0x010fe400
0xff1a7807 0x00000001 0x04800000 0x000fe400
0x1700720b 0x000000ff 0x03f6d000 0x020fe400
0xff1b7807 0x00000001 0x05000000 0x000fc400
0xff1c7807 0x00000001 0x05800000 0x000fe400
0x1b047210 0x0000001a 0x07ffe019 0x000fe400
0x1300780c 0x0000001f 0x03f25270 0x002fe400
0x1800720b 0x000000ff 0x03f0d000 0x000fe200
0x1c047824 0x00000001 0x078e0204 0x000fca00
0x04117810 0x00000001 0x07ffe0ff 0x000fcc00
0xff118224 0x000000ff 0x078e0204 0x000fd000
0x11047989 0x04200000 0x000000ff 0x000e2400
0x04040824 0x00000001 0x078e0211 0x001fd000
0x04057989 0x04400000 0x000000ff 0x000e2400
0x04050824 0x00000001 0x078e0205 0x001fd000
0x05047989 0x04800000 0x000000ff 0x000e2400
0x05040824 0x00000001 0x078e0204 0x001fd000
0x04057989 0x05000000 0x000000ff 0x000e2400
0x04050824 0x00000001 0x078e0205 0x001fd000
0x05127989 0x06000000 0x000000ff 0x000e2400
0x05120824 0x00000001 0x078e0212 0x001fe200
0x1000780c 0x00000002 0x03f05270 0x000fc600
0x12117824 0x00000001 0x078e0a11 0x000fc800
0x10009388 0x00000012 0x00004800 0x000fe800
0x00007b1d 0x00000000 0x00000000 0x000fea00
0xff047984 0x00000000 0x00001c00 0x000e2200
0x1300720c 0x000000ff 0x03f25270 0x000fe200
0x04057824 0x00000001 0x078e0205 0x001fc800
0x05067824 0x00000001 0x078e0206 0x040fe200
0x05047207 0x00000004 0x04000000 0x000fe400
0x1000780c 0x00000003 0x03f05270 0x000fe200
0x07077824 0x00000001 0x078e0206 0x000fe200
0x11057207 0x000000ff 0x00800000 0x000fe400
0x06047207 0x00000004 0x04000000 0x000fe400
0x1000720c 0x000000ff 0x03f05270 0x040fe400
0x1000720c 0x000000ff 0x03f25270 0x000fe200
0x04047824 0x00000001 0x078e0205 0x000fca00
0x111d7207 0x00000004 0x04800000 0x000fc800
0x00000947 0x00000950 0x03800000 0x000fea00
0x1400720c 0x000000ff 0x03f05270 0x000fd800
0xff048424 0x00000008 0x078e00ff 0x000fe200
0xff008388 0x00002c07 0x00000800 0x000fe200
0xff068424 0x00000064 0x078e00ff 0x000fe400
0x00048625 0x00006200 0x078e0204 0x000fd000
0x04008385 0x00000100 0x00114b06 0x0001e400
0xff047624 0x00000300 0x078e00ff 0x001fe200
0xff067212 0x00000014 0x078e33ff 0x000fc800
0x0400780c 0x000001f4 0x03f26070 0x000fe200
0x00067824 0x00000001 0x078e0206 0x000fd600
0x00009947 0x00000030 0x03800000 0x000fea00
0x0000795d 0x000001c2 0x03a00000 0x000fe200
0x00007946 0x00000000 0x03800000 0x000fe200
0x00007947 0x00000010 0x03800000 0x000fea00
0x00007992 0x00000000 0x00000000 0x000fea00
0xff127424 0x00000008 0x078e00ff 0x000fc800
0x06127625 0x00006200 0x078e0212 0x000fd000
0x12107980 0x00000100 0x00114b00 0x00016200
0x00ff7355 0x00000000 0x00100000 0x000fe200
0x00007945 0x00000120 0x03800000 0x000fe400
0x1000780c 0x00000063 0x03f45270 0x020fe200
0x00007947 0x00002742 0x03800000 0x000ff600
0x00047806 0x00000000 0x050e0100 0x000fc800
0x0400720c 0x000000ff 0x03f45070 0x000fd800
0x0000a947 0x000000c0 0x03800000 0x000fea00
0x00009947 0x00000030 0x03800000 0x000fea00
0x0000795d 0x0000015e 0x03a00000 0x000fe200
0x00007946 0x00000000 0x03800000 0x000fe200
0x00007947 0x00000010 0x03800000 0x000fea00
0x00007992 0x00000000 0x00000000 0x000fea00
0x12107980 0x00000100 0x00114b00 0x00036400
0x00047806 0x00000000 0x038e0100 0x000fe200
0x00007946 0x00000000 0x03800000 0x000fe200
0x00047886 0x00000000 0x038e0100 0x000fe400
0x04ff7c12 0x00000004 0x0f840cff 0x000fd800
0x0000a947 0xffffff01 0x0383ffff 0x023fea00
0x00007947 0xffffffa0 0x0383ffff 0x000fea00
0x00007941 0x00000000 0x03800000 0x000fea00
0x001e7919 0x00000000 0x00000000 0x000e6200
0x1000780c 0x00000065 0x03f45270 0x000fe200
0x00007947 0x00002672 0x03800000 0x000ff400
0x001f7919 0x00000000 0x00003c00 0x000ea200
0x00047806 0x00000000 0x050e0100 0x000fe400
0x1e207810 0x00000002 0x07ffe0ff 0x042fe400
0x1e217810 0x00000004 0x07ffe0ff 0x040fe400
0x1e227810 0x00000008 0x07ffe0ff 0x000fe400
0x04047812 0x80000000 0x078eec1f 0x004fcc00
0x00047301 0x00000004 0x00000000 0x000e7000
0x00047300 0x00000004 0x000e0000 0x002e6400
0x04127810 0x0000001f 0x07ffe1ff 0x003fc800
0x1e00720c 0x00000012 0x03f46270 0x000fc800
0x11047989 0x08200000 0x000e0012 0x000e2400
0x04047207 0x000000ff 0x05000000 0x001fe400
0x2000720c 0x00000012 0x03f44270 0x000fc600
0x04047824 0x00000001 0x078e0211 0x000fd000
0x04057989 0x08400000 0x000e0012 0x000e2400
0x05057207 0x000000ff 0x05000000 0x001fe400
0x2100720c 0x00000012 0x03f44270 0x000fc600
0x04057824 0x00000001 0x078e0205 0x000fd000
0x05047989 0x08800000 0x000e0012 0x000e2400
0x04047207 0x000000ff 0x05000000 0x001fe400
0x2200720c 0x00000012 0x03f44270 0x000fc600
0x05047824 0x00000001 0x078e0204 0x000fd000
0x04057989 0x09000000 0x000e0012 0x000e2400
0x05057207 0x000000ff 0x05000000 0x001fca00
0x04247824 0x00000001 0x078e0205 0x000fd000
0x24257989 0x0a000000 0x000e0012 0x00006400
0x1e237810 0x00000010 0x07ffe0ff 0x000fe200
0x00ff7355 0x00000000 0x00100000 0x000fe200
0x00007945 0x00000440 0x03800000 0x000fe400
0x2300720c 0x00000012 0x03f44270 0x000fc800
0x25257207 0x000000ff 0x05000000 0x002fca00
0x25247824 0x00000001 0x078e0224 0x001fe400
0x1000780c 0x00000065 0x03f45270 0x000fe200
0x00007947 0x000027c2 0x03800000 0x000ff600
0x00047806 0x00000000 0x010e0100 0x000fe200
0x00047886 0x00000000 0x038e0100 0x000fc600
0x04047c12 0x00000004 0x0f8ec0ff 0x000fc800
0x04007c0c 0x00000004 0x0bf42070 0x000fd800
0x0000a947 0x00000390 0x03800000 0x000fea00
0x06067810 0xffffffe0 0x07ffe0ff 0x000fe200
0xff127424 0x00000008 0x078e00ff 0x000fc800
0x06127625 0x00006200 0x078e0212 0x000fd000
0x12107980 0x00000100 0x00114b00 0x00016200
0x01ff7355 0x00000000 0x00100000 0x000fe200
0x00017945 0x00000120 0x03800000 0x000fe400
0x1000780c 0x00000063 0x03f45270 0x020fe200
0x00007947 0x00002752 0x03800000 0x000ff600
0x00047806 0x00000000 0x050e0100 0x000fc800
0x0400720c 0x000000ff 0x03f45070 0x000fd800
0x0000a947 0x000000c0 0x03800000 0x000fea00
0x00009947 0x00000030 0x03800000 0x000fea00
0x0000795d 0x0000015e 0x03a00000 0x000fe200
0x00007946 0x00000000 0x03800000 0x000fe200
0x00007947 0x00000010 0x03800000 0x000fea00
0x00007992 0x00000000 0x00000000 0x000fea00
0x12107980 0x00000100 0x00114b00 0x00036400
0x00047806 0x00000000 0x038e0100 0x000fe200
0x00007946 0x00000000 0x03800000 0x000fe200
0x00047886 0x00000000 0x038e0100 0x000fe400
0x04ff7c12 0x00000004 0x0f840cff 0x000fd800
0x0000a947 0xffffff01 0x0383ffff 0x023fea00
0x00007947 0xffffffa0 0x0383ffff 0x000fea00
0x00017941 0x00000000 0x03800000 0x000fea00
0x1000780c 0x00000065 0x03f45270 0x000fe200
0x00007947 0x00002692 0x03800000 0x000ff600
0x00047806 0x00000000 0x050e0100 0x000fc800
0x04047812 0x80000000 0x078eec1f 0x000fcc00
0x00047301 0x00000004 0x00000000 0x000e7000
0x00047300 0x00000004 0x000e0000 0x002e6400
0x04127810 0x0000001f 0x07ffe1ff 0x003fc800
0x1e00720c 0x00000012 0x03f46270 0x000fc800
0x11047989 0x08200000 0x000e0012 0x000e2400
0x04047207 0x000000ff 0x05000000 0x001fe400
0x2000720c 0x00000012 0x03f44270 0x000fc600
0x04047824 0x00000001 0x078e0211 0x000fd000
0x04057989 0x08400000 0x000e0012 0x000e2400
0x05057207 0x000000ff 0x05000000 0x001fe400
0x2100720c 0x00000012 0x03f44270 0x000fc600
0x04057824 0x00000001 0x078e0205 0x000fd000
0x05047989 0x08800000 0x000e0012 0x000e2400
0x04047207 0x000000ff 0x05000000 0x001fe400
0x2200720c 0x00000012 0x03f44270 0x000fc600
0x05047824 0x00000001 0x078e0204 0x000fd000
0x04057989 0x09000000 0x000e0012 0x000e2400
0x05057207 0x000000ff 0x05000000 0x001fca00
0x04117824 0x00000001 0x078e0205 0x000fd000
0x11257989 0x0a000000 0x000e0012 0x00006400
0x2300720c 0x00000012 0x03f44270 0x000fc800
0x25257207 0x000000ff 0x05000000 0x002fc800
0x11247210 0x00000025 0x07ffe024 0x000fe400
0x00047806 0x00000000 0x038e0100 0x000fe200
0x00007946 0x00000000 0x03800000 0x000fe200
0x00047886 0x00000000 0x038e0100 0x000fe400
0x04ff7c12 0x00000004 0x0f840cff 0x000fd800
0x0000a947 0xfffffc11 0x0383ffff 0x001fea00
0x00007947 0xffffffa0 0x0383ffff 0x000fea00
0x00007941 0x00000000 0x03800000 0x000fea00
0xff048424 0x00000008 0x078e00ff 0x000fe200
0x1e00720c 0x000000ff 0x03f25270 0x000fe200
0x07078824 0x00000001 0x078e0224 0x000fe400
0xff068424 0x00000065 0x078e00ff 0x000fe400
0x00048625 0x00006200 0x078e0204 0x000fd000
0x04008385 0x00000100 0x00114b06 0x0001e800
0xff008388 0x00002807 0x00000800 0x0003e800
0xff008388 0x00002424 0x00000800 0x0003e800
0xff009388 0x00001424 0x00000800 0x0003e200
0xff047224 0x000000ff 0x078e001d 0x001fc800
0xff049224 0x000000ff 0x078e0024 0x000fc800
0x00007948 0xffffffff 0x03800000 0x000fe800
0x00007b1d 0x00000000 0x00000000 0x000fea00
0xff057984 0x00001400 0x00001800 0x000e2200
0x1400720c 0x000000ff 0x03f05270 0x000fc600
0xff007984 0x00002c00 0x00001800 0x000ea800
0xff067984 0x00002400 0x00001800 0x000ee200
0x05057207 0x000000ff 0x00000000 0x001fe400
0x0000780c 0x00000080 0x03f04270 0x004fc600
0x05047824 0x00000001 0x078e0204 0x000fc800
0x19077824 0x00000001 0x078e0204 0x002fc800
0x1a107824 0x00000001 0x078e0207 0x000fc800
0x1b127824 0x00000001 0x078e0210 0x000fc800
0x1c1c7824 0x00000001 0x078e0212 0x000fe200
0x00000947 0x00000160 0x03800000 0x000fea00
0x2600720b 0x000000ff 0x03f0d000 0x008fe400
0x1500720b 0x000000ff 0x03f2d000 0x000fe400
0x1600720b 0x000000ff 0x03f4d000 0x000fe400
0x1700720b 0x000000ff 0x03f6d000 0x000fcc00
0xff050424 0x00000008 0x078e00ff 0x000fe400
0xff061424 0x00000008 0x078e00ff 0x000fe400
0x04040625 0x00005e00 0x078e0205 0x000fc800
0xff112424 0x00000008 0x078e00ff 0x000fe400
0xff133424 0x00000008 0x078e00ff 0x000fe400
0x04000386 0x0000000e 0x0010eb00 0x0001e200
0x1800720b 0x000000ff 0x03f0d000 0x000fe200
0x07061625 0x00005e00 0x078e0206 0x000fc800
0x10102625 0x00005e00 0x078e0211 0x000fc800
0x12123625 0x00005e00 0x078e0213 0x000fe200
0x06001386 0x0000000c 0x0010eb00 0x0001e800
0x10002386 0x0000000a 0x0010eb00 0x0001e800
0x12003386 0x00000008 0x0010eb00 0x0001e200
0x0000894d 0x00000000 0x03800000 0x000fea00
0xff047424 0x00000008 0x078e00ff 0x001fc800
0x1c047625 0x00005e00 0x078e0204 0x000fd000
0x04007386 0x00000002 0x0010eb00 0x000fe200
0x0000794d 0x00000000 0x03800000 0x000fea00
0x00007b1d 0x00000000 0x00000000 0x008fea00
0x2600720b 0x000000ff 0x03f0d000 0x000fe400
0x1500720b 0x000000ff 0x03f2d000 0x000fe400
0x1600720b 0x000000ff 0x03f4d000 0x000fc400
0x1700720b 0x000000ff 0x03f6d000 0x000fe400
0x1800720b 0x000000ff 0x03f8d000 0x000fc800
0x04040824 0x00000001 0x078e0a06 0x100fe400
0x07051824 0x00000001 0x078e0a06 0x100fe400
0x10072824 0x00000001 0x078e0a06 0x100fe400
0x12103824 0x00000001 0x078e0a06 0x100fe400
0x04000388 0x0000000e 0x00008a00 0x000fe200
0x1400720c 0x00000000 0x03f06270 0x000fe200
0x1c114824 0x00000001 0x078e0a06 0x000fc400
0x05001388 0x0000000c 0x00008a00 0x000fe800
0x07002388 0x0000000a 0x00008a00 0x000fe800
0x10003388 0x00000008 0x00008a00 0x000fe800
0x11004388 0x00000002 0x00008a00 0x000fe800
0x00007b1d 0x00000000 0x00000000 0x000fea00
0x0000094d 0x00000000 0x03800000 0x000fea00
0xff037212 0x00000014 0x078e33ff 0x000fe200
0x00ff7355 0x00000000 0x00100000 0x000fe200
0x00007945 0x00000160 0x03800000 0x000fe600
0x03037824 0x00000001 0x078e0200 0x000fca00
0x03027811 0x00000001 0x078fc8ff 0x040fe400
0x0300780c 0x00000180 0x03f26070 0x000fe400
0x02047812 0x00000003 0x0780c0ff 0x000fd800
0x00008947 0x00000100 0x03800000 0x000fea00
0x14027824 0x00000001 0x078e0206 0x000fe400
0xff037424 0x00000008 0x078e00ff 0x000fe400
0xff077224 0x000000ff 0x078e0004 0x000fe400
0x02027625 0x00005e00 0x078e0203 0x000fc800
0xff047224 0x000000ff 0x078e0002 0x000fe400
0xff057224 0x000000ff 0x078e0003 0x000fe400
0x14087824 0x00000008 0x078e00ff 0x000fd000
0x08027984 0x00000000 0x00001a00 0x00006200
0x07077810 0xffffffff 0x07ffe0ff 0x000fe400
0x14147810 0x00000080 0x07ffe0ff 0x000fe400
0x0700720c 0x000000ff 0x03f05270 0x000fe400
0x08087810 0x00000400 0x07ffe0ff 0x001fe200
0x04007386 0x00000002 0x0010eb00 0x0021e400
0x04047810 0x00000400 0x07f5e0ff 0x001fca00
0xff057224 0x000000ff 0x010e0605 0x000fe400
0x00000947 0xffffff70 0x0383ffff 0x000fea00
0x00007941 0x00000000 0x03800000 0x000fea00
0x0000994d 0x00000000 0x03800000 0x000fea00
0x00027824 0x00000001 0x078e0a14 0x000fe200
0x00ff7355 0x00000000 0x00100000 0x000fe200
0xff037424 0x00000008 0x078e00ff 0x000fe200
0x00007945 0x00000310 0x03800000 0x000fe200
0x0000781c 0x00000000 0x03f0f070 0x000fe400
0x0200780c 0x00000600 0x03f24270 0x000fe200
0x14027824 0x00000001 0x078e0206 0x040fe200
0x14047811 0x00000800 0x078e18ff 0x000fc600
0x02027625 0x00005e00 0x078e0203 0x000fce00
0x00009947 0x000002a0 0x03800000 0x000fea00
0x0000781c 0x00000000 0x03f0e170 0x000fe400
0x00057810 0xfffffa00 0x07ffe0ff 0x000fe400
0x04067984 0xfff80000 0x00001a00 0x000e2200
0x14147810 0x00000800 0x07ffe0ff 0x000fc600
0x04087984 0xfffc0000 0x00001a00 0x000e6200
0x1400720c 0x00000005 0x03f26270 0x000fc600
0x040a7984 0x00000000 0x00001a00 0x000ea800
0x040c7984 0x00040000 0x00001a00 0x000ee800
0x040e7984 0x00080000 0x00001a00 0x000f2800
0x04107984 0x000c0000 0x00001a00 0x000f6800
0x04127984 0x00100000 0x00001a00 0x000e2800
0x04167984 0x00140000 0x00001a00 0x000e6800
0x04187984 0x00180000 0x00001a00 0x000ea800
0x041a7984 0x001c0000 0x00001a00 0x000ee800
0x041c7984 0x00200000 0x00001a00 0x000f2800
0x041e7984 0x00240000 0x00001a00 0x000f6800
0x04207984 0x00280000 0x00001a00 0x000f6800
0x04227984 0x002c0000 0x00001a00 0x000f6800
0x04247984 0x00300000 0x00001a00 0x000f6800
0x04267984 0x00340000 0x00001a00 0x00036800
0x02007386 0x00000006 0x0010eb00 0x0011e200
0x04047810 0x00004000 0x07ffe0ff 0x002fc600
0x02007386 0x00040008 0x0010eb00 0x000fe800
0x02007386 0x0008000a 0x0010eb00 0x004fe800
0x02007386 0x000c000c 0x0010eb00 0x008fe200
0x02067810 0x00004000 0x07f5e0ff 0x001fc600
0x02007386 0x0010000e 0x0010eb00 0x010fe400
0xff077224 0x000000ff 0x010e0603 0x000fe400
0x02007386 0x00140010 0x0010eb00 0x020fe800
0x02007386 0x00180012 0x0010eb00 0x000fe800
0x02007386 0x001c0016 0x0010eb00 0x000fe800
0x02007386 0x00200018 0x0010eb00 0x000fe800
0x02007386 0x0024001a 0x0010eb00 0x000fe800
0x02007386 0x0028001c 0x0010eb00 0x000fe800
0x02007386 0x002c001e 0x0010eb00 0x000fe800
0x02007386 0x00300020 0x0010eb00 0x000fe800
0x02007386 0x00340022 0x0010eb00 0x000fe800
0x02007386 0x00380024 0x0010eb00 0x000fe800
0x02007386 0x003c0026 0x0010eb00 0x0001e400
0xff027224 0x000000ff 0x078e0006 0x001fc400
0xff037224 0x000000ff 0x078e0007 0x000fe200
0x00009947 0xfffffd80 0x0383ffff 0x000fea00
0x00007941 0x00000000 0x03800000 0x000fea00
0x00057824 0x00000001 0x078e0a14 0x000fe200
0x00ff7355 0x00000000 0x00100000 0x000fe200
0x00007945 0x00000180 0x03800000 0x000fe600
0x0500780c 0x00000200 0x03f24270 0x000fd800
0x00009947 0x00000150 0x03800000 0x000fea00
0x04067984 0xfff80000 0x00001a00 0x000e2200
0x0000781c 0x00000000 0x03f0e170 0x000fe400
0x14147810 0x00000400 0x07ffe0ff 0x000fe200
0x04087984 0xfffc0000 0x00001a00 0x000e6800
0x040a7984 0x00000000 0x00001a00 0x000ea800
0x040c7984 0x00040000 0x00001a00 0x000ee800
0x040e7984 0x00080000 0x00001a00 0x000f2800
0x04107984 0x000c0000 0x00001a00 0x000f6800
0x04127984 0x00100000 0x00001a00 0x000f6800
0x04167984 0x00140000 0x00001a00 0x00016400
0x04047810 0x00002000 0x07ffe0ff 0x001fc400
0x02007386 0x00000006 0x0010eb00 0x000fe800
0x02007386 0x00040008 0x0010eb00 0x002fe800
0x02007386 0x0008000a 0x0010eb00 0x004fe800
0x02007386 0x000c000c 0x0010eb00 0x008fe800
0x02007386 0x0010000e 0x0010eb00 0x010fe800
0x02007386 0x00140010 0x0010eb00 0x020fe800
0x02007386 0x00180012 0x0010eb00 0x000fe800
0x02007386 0x001c0016 0x0010eb00 0x0001e400
0x02027810 0x00002000 0x07f3e0ff 0x001fca00
0xff037224 0x000000ff 0x008e0603 0x000fc600
0x00007941 0x00000000 0x03800000 0x000fea00
0x1400720c 0x00000000 0x00701670 0x000fd800
0x0000894d 0x00000000 0x03800000 0x000fea00
0x04067984 0xfff80000 0x00001a00 0x000e2800
0x04087984 0xfffc0000 0x00001a00 0x000e6800
0x040a7984 0x00000000 0x00001a00 0x000ea800
0x04047984 0x00040000 0x00001a00 0x000ee800
0x02007386 0x00000006 0x0010eb00 0x001fe800
0x02007386 0x00040008 0x0010eb00 0x002fe800
0x02007386 0x0008000a 0x0010eb00 0x004fe800
0x02007386 0x000c0004 0x0010eb00 0x008fe200
0x0000794d 0x00000000 0x03800000 0x000fea00
0x00007b1d 0x00000000 0x00000000 0x000fea00
0x04127210 0x00000012 0x07f1e0ff 0x000fca00
0x11117824 0x00000001 0x000e0613 0x000fe200
0x12047a11 0x00005c00 0x078010ff 0x000fc800
0x12057a11 0x00005d00 0x000f1411 0x000fd000
0x04117381 0x00000000 0x001ee900 0x0000a800
0x04007381 0x00000400 0x001ee900 0x0000e800
0x04067381 0x00000800 0x001ee900 0x00012800
0x04077381 0x00000c00 0x001ee900 0x00016800
0x04047381 0x00001000 0x001ee900 0x001f6800
0x00177919 0x00000000 0x00000000 0x000e2800
0x00007b1d 0x00000000 0x00000000 0x000fea00
0x1700780c 0x0000001f 0x03fc5270 0x001fc400
0x1100720b 0x000000ff 0x03f0d000 0x004fe400
0x0000720b 0x000000ff 0x03f2d000 0x008fe400
0xff007807 0x00000001 0x04000000 0x000fe400
0x0600720b 0x000000ff 0x03f4d000 0x010fe400
0xff117807 0x00000001 0x04800000 0x000fe400
0x0700720b 0x000000ff 0x03f6d000 0x020fc400
0xff127807 0x00000001 0x05000000 0x000fe400
0xff137807 0x00000001 0x05800000 0x000fe400
0x0400720b 0x000000ff 0x03f8d000 0x000fe400
0x12047210 0x00000011 0x07ffe000 0x000fca00
0x13047824 0x00000001 0x078e0204 0x000fca00
0x04157810 0x00000001 0x07ffe0ff 0x000fca00
0xff15c224 0x000000ff 0x078e0204 0x000fd000
0x15047989 0x04200000 0x000a00ff 0x000e2400
0x04045824 0x00000001 0x078e0215 0x001fd000
0x04057989 0x04400000 0x000a00ff 0x000e2400
0x04055824 0x00000001 0x078e0205 0x001fd000
0x05047989 0x04800000 0x000a00ff 0x000e2400
0x05045824 0x00000001 0x078e0204 0x001fd000
0x04057989 0x05000000 0x000a00ff 0x000e2400
0x04055824 0x00000001 0x078e0205 0x001fd000
0x05167989 0x06000000 0x000a00ff 0x000e2400
0x05165824 0x00000001 0x078e0216 0x001fe200
0x1000780c 0x00000002 0x03fa5270 0x000fc600
0x16157824 0x00000001 0x078e0a15 0x000fc800
0x1000e388 0x00000016 0x00004800 0x000fe800
0x00007b1d 0x00000000 0x00000000 0x000fea00
0xff047984 0x00000000 0x00001c00 0x000e2200
0x1700720c 0x000000ff 0x03fc5270 0x000fc800
0x15157207 0x000000ff 0x03000000 0x000fe400
0x1000720c 0x000000ff 0x03fc5270 0x000fe200
0x04057824 0x00000001 0x078e0205 0x001fca00
0x05047207 0x00000004 0x06800000 0x040fe200
0x05057824 0x00000001 0x078e0206 0x000fe200
0x1000780c 0x00000003 0x03fa5270 0x000fc800
0x05047207 0x00000004 0x06800000 0x000fe200
0x07057824 0x00000001 0x078e0205 0x000fe200
0x1400720c 0x000000ff 0x03fa5270 0x000fe400
0x04047207 0x000000ff 0x03000000 0x000fe400
0x0500780c 0x00000080 0x03fc4270 0x000fc600
0x04157824 0x00000001 0x078e0215 0x000fc800
0x00007824 0x00000001 0x078e0215 0x000fe400
0xff06d624 0x00006200 0x078e00ff 0x000fe400
0xff07d624 0x00006300 0x078e00ff 0x000fe400
0xff04d424 0x00000065 0x078e00ff 0x000fe400
0x11117824 0x00000001 0x078e0200 0x000fc800
0x12127824 0x00000001 0x078e0211 0x000fe400
0x0600d385 0x00000100 0x00114b04 0x0001e400
0x13167824 0x00000001 0x078e0212 0x000fe200
0x00006947 0x00000110 0x03800000 0x000fea00
0xff040424 0x00000008 0x078e00ff 0x001fe400
0xff061424 0x00000008 0x078e00ff 0x000fe400
0xff102424 0x00000008 0x078e00ff 0x000fe400
0xff133424 0x00000008 0x078e00ff 0x000fc400
0x15040625 0x00005e00 0x078e0204 0x000fc800
0x00061625 0x00005e00 0x078e0206 0x000fc800
0x11102625 0x00005e00 0x078e0210 0x000fe200
0x04000386 0x0000000e 0x0010eb00 0x0001e600
0x12123625 0x00005e00 0x078e0213 0x000fe200
0x06001386 0x0000000c 0x0010eb00 0x0001e800
0x10002386 0x0000000a 0x0010eb00 0x0001e800
0x12003386 0x00000008 0x0010eb00 0x0001e200
0x0000c94d 0x00000000 0x03800000 0x000fea00
0xff047424 0x00000008 0x078e00ff 0x001fc800
0x16047625 0x00005e00 0x078e0204 0x000fd000
0x04007386 0x00000002 0x0010eb00 0x000fe200
0x0000794d 0x00000000 0x03800000 0x000fea00
0x00007b1d 0x00000000 0x00000000 0x000fea00
0x1400720c 0x00000005 0x03fa6270 0x000fe200
0x15000388 0x0000000e 0x00008a00 0x000fe800
0x00001388 0x0000000c 0x00008a00 0x000fe800
0x11002388 0x0000000a 0x00008a00 0x000fe800
0x12003388 0x00000008 0x00008a00 0x000fe800
0x16004388 0x00000002 0x00008a00 0x000fe800
0x00007b1d 0x00000000 0x00000000 0x000fea00
0x0000594d 0x00000000 0x03800000 0x000fea00
0xff027212 0x00000014 0x078e33ff 0x000fe200
0x00ff7355 0x00000000 0x00100000 0x000fe200
0x00007945 0x00000140 0x03800000 0x000fe600
0x02027824 0x00000001 0x078e0205 0x000fca00
0x02007811 0x00000001 0x078fc8ff 0x040fe400
0x0200780c 0x00000180 0x03f26070 0x000fe400
0x00007812 0x00000003 0x0780c0ff 0x000fd800
0x00008947 0x000000e0 0x03800000 0x000fea00
0xff027424 0x00000008 0x078e00ff 0x000fe400
0x14047824 0x00000008 0x078e00ff 0x041fe400
0x14027625 0x00005e00 0x078e0202 0x000fc800
0xff067224 0x000000ff 0x078e0002 0x000fe400
0xff077224 0x000000ff 0x078e0003 0x000fe400
0x04027984 0x00000000 0x00001a00 0x00006200
0x00007810 0xffffffff 0x07ffe0ff 0x000fe400
0x14147810 0x00000080 0x07ffe0ff 0x000fe400
0x0000720c 0x000000ff 0x03f05270 0x000fe400
0x04047810 0x00000400 0x07ffe0ff 0x001fe200
0x06007386 0x00000002 0x0010eb00 0x0021e400
0x06067810 0x00000400 0x07f5e0ff 0x001fca00
0xff077224 0x000000ff 0x010e0607 0x000fe400
0x00000947 0xffffff70 0x0383ffff 0x000fea00
0x00007941 0x00000000 0x03800000 0x000fea00
0x0000994d 0x00000000 0x03800000 0x000fea00
0x05007824 0x00000001 0x078e0a14 0x000fe200
0x00ff7355 0x00000000 0x00100000 0x000fe200
0xff027424 0x00000008 0x078e00ff 0x000fe200
0x00007945 0x00000320 0x03800000 0x000fe400
0x0000780c 0x00000600 0x03f24270 0x000fe200
0x14027625 0x00005e00 0x078e0202 0x040fe200
0x14007811 0x00000800 0x078e18ff 0x000fc800
0x02027810 0x00000800 0x07f1e0ff 0x000fca00
0xff037224 0x000000ff 0x000e0603 0x000fe200
0x0000781c 0x00000000 0x03f0f070 0x000fe200
0x00009947 0x000002a0 0x03800000 0x000fec00
0x0000781c 0x00000000 0x03f0e170 0x000fe400
0x05047810 0xfffffa00 0x07ffe0ff 0x001fc600
0x00067984 0xfff80000 0x00001a00 0x000e2200
0x14147810 0x00000800 0x07ffe0ff 0x000fc600
0x00087984 0xfffc0000 0x00001a00 0x000e6200
0x1400720c 0x00000004 0x03f26270 0x000fc600
0x000a7984 0x00000000 0x00001a00 0x000ea800
0x000c7984 0x00040000 0x00001a00 0x000ee800
0x000e7984 0x00080000 0x00001a00 0x000f2800
0x00107984 0x000c0000 0x00001a00 0x000f6800
0x00127984 0x00100000 0x00001a00 0x000e2800
0x00167984 0x00140000 0x00001a00 0x000e6800
0x00187984 0x00180000 0x00001a00 0x000ea800
0x001a7984 0x001c0000 0x00001a00 0x000ee800
0x001c7984 0x00200000 0x00001a00 0x000f2800
0x001e7984 0x00240000 0x00001a00 0x000f6800
0x00207984 0x00280000 0x00001a00 0x000f6800
0x00227984 0x002c0000 0x00001a00 0x000f6800
0x00247984 0x00300000 0x00001a00 0x000f6800
0x00267984 0x00340000 0x00001a00 0x00036800
0x02007386 0xfff80006 0x0010eb00 0x0011e200
0x00007810 0x00004000 0x07ffe0ff 0x002fc600
0x02007386 0xfffc0008 0x0010eb00 0x000fe800
0x02007386 0x0000000a 0x0010eb00 0x004fe800
0x02007386 0x0004000c 0x0010eb00 0x008fe200
0x02067810 0x00004000 0x07f5e0ff 0x001fc600
0x02007386 0x0008000e 0x0010eb00 0x010fe400
0xff077224 0x000000ff 0x010e0603 0x000fe400
0x02007386 0x000c0010 0x0010eb00 0x020fe800
0x02007386 0x00100012 0x0010eb00 0x000fe800
0x02007386 0x00140016 0x0010eb00 0x000fe800
0x02007386 0x00180018 0x0010eb00 0x000fe800
0x02007386 0x001c001a 0x0010eb00 0x000fe800
0x02007386 0x0020001c 0x0010eb00 0x000fe800
0x02007386 0x0024001e 0x0010eb00 0x000fe800
0x02007386 0x00280020 0x0010eb00 0x000fe800
0x02007386 0x002c0022 0x0010eb00 0x000fe800
0x02007386 0x00300024 0x0010eb00 0x000fe800
0x02007386 0x00340026 0x0010eb00 0x0001e400
0xff027224 0x000000ff 0x078e0006 0x001fc400
0xff037224 0x000000ff 0x078e0007 0x000fe200
0x00009947 0xfffffd80 0x0383ffff 0x000fea00
0x00007941 0x00000000 0x03800000 0x000fea00
0x05047824 0x00000001 0x078e0a14 0x001fe200
0x00ff7355 0x00000000 0x00100000 0x000fe200
0x00007945 0x00000180 0x03800000 0x000fe600
0x0400780c 0x00000200 0x03f24270 0x000fd800
0x00009947 0x00000150 0x03800000 0x000fea00
0x00067984 0xfff80000 0x00001a00 0x000e2200
0x0000781c 0x00000000 0x03f0e170 0x000fe400
0x14147810 0x00000400 0x07ffe0ff 0x000fe200
0x00087984 0xfffc0000 0x00001a00 0x000e6800
0x000a7984 0x00000000 0x00001a00 0x000ea800
0x000c7984 0x00040000 0x00001a00 0x000ee800
0x000e7984 0x00080000 0x00001a00 0x000f2800
0x00107984 0x000c0000 0x00001a00 0x000f6800
0x00127984 0x00100000 0x00001a00 0x000f6800
0x00167984 0x00140000 0x00001a00 0x00016400
0x00007810 0x00002000 0x07ffe0ff 0x001fc400
0x02007386 0xfff80006 0x0010eb00 0x000fe800
0x02007386 0xfffc0008 0x0010eb00 0x002fe800
0x02007386 0x0000000a 0x0010eb00 0x004fe800
0x02007386 0x0004000c 0x0010eb00 0x008fe800
0x02007386 0x0008000e 0x0010eb00 0x010fe800
0x02007386 0x000c0010 0x0010eb00 0x020fe800
0x02007386 0x00100012 0x0010eb00 0x000fe800
0x02007386 0x00140016 0x0010eb00 0x0001e400
0x02027810 0x00002000 0x07f3e0ff 0x001fca00
0xff037224 0x000000ff 0x008e0603 0x000fc600
0x00007941 0x00000000 0x03800000 0x000fea00
0x1400720c 0x00000005 0x00701670 0x000fd800
0x0000894d 0x00000000 0x03800000 0x000fea00
0x00047984 0xfff80000 0x00001a00 0x000e2800
0x00067984 0xfffc0000 0x00001a00 0x000e6800
0x00087984 0x00000000 0x00001a00 0x000ea800
0x000a7984 0x00040000 0x00001a00 0x000ee800
0x02007386 0xfff80004 0x0010eb00 0x001fe800
0x02007386 0xfffc0006 0x0010eb00 0x002fe800
0x02007386 0x00000008 0x0010eb00 0x004fe800
0x02007386 0x0004000a 0x0010eb00 0x008fe200
0x0000794d 0x00000000 0x03800000 0x000fea00
0xff257807 0x00000001 0x01000000 0x000fe200
0xff057424 0xffffffff 0x078e00ff 0x000fe200
0x00047802 0x00005360 0x00000f00 0x000fc600
0x00007944 0x00001030 0x03c00000 0x001fea00
0x2500780c 0x00000001 0x03f42070 0x000fe200
0x00007947 0xffffb420 0x0383ffff 0x000ff600
0xff057807 0x00000001 0x01000000 0x000fe200
0xff257424 0xffffffff 0x078e00ff 0x000fe200
0x00047802 0x000053c0 0x00000f00 0x000fc600
0x00007944 0x00001040 0x03c00000 0x003fea00
0x00067919 0x00000000 0x00003c00 0x000e2200
0xff287224 0x000000ff 0x078e0009 0x000fe200
0x00047802 0x00005470 0x00000f00 0x000fe200
0xff277424 0x00000001 0x078e00ff 0x000fe200
0x25257812 0x80000000 0x078eec06 0x001fcc00
0x00257301 0x00000025 0x00000000 0x000e3000
0x00257300 0x00000025 0x000e0000 0x001e2400
0x25167810 0x0000001f 0x07ffe1ff 0x001fe200
0xff257424 0xffffffff 0x078e00ff 0x000fc800
0xff057224 0x000000ff 0x078e0016 0x000fc600
0x00007944 0x00000e30 0x03c00000 0x000fea00
0x1800720c 0x00000016 0x03f46270 0x000fe200
0xff277424 0x00000002 0x078e00ff 0x000fe200
0x00047802 0x00005500 0x00000f00 0x000fe200
0xff057224 0x000000ff 0x078e0016 0x000fe200
0x25257207 0x000000ff 0x05000000 0x002fca00
0x25097824 0x00000001 0x078e0209 0x000fe400
0xff257424 0xffffffff 0x078e00ff 0x000fe400
0xff287224 0x000000ff 0x078e0009 0x000fc600
0x00007944 0x00000da0 0x03c00000 0x000fea00
0x181b7810 0x00000002 0x07ffe0ff 0x000fe200
0xff277424 0x00000004 0x078e00ff 0x000fe200
0x00047802 0x000055a0 0x00000f00 0x000fe200
0xff057224 0x000000ff 0x078e0016 0x000fe200
0x1b00720c 0x00000016 0x03f44270 0x000fc800
0x25257207 0x000000ff 0x05000000 0x002fca00
0x09097824 0x00000001 0x078e0225 0x000fe400
0xff257424 0xffffffff 0x078e00ff 0x000fe400
0xff287224 0x000000ff 0x078e0009 0x000fc600
0x00007944 0x00000d00 0x03c00000 0x000fea00
0x181c7810 0x00000004 0x07ffe0ff 0x000fe200
0xff277424 0x00000008 0x078e00ff 0x000fe200
0x00047802 0x00005640 0x00000f00 0x000fe200
0xff057224 0x000000ff 0x078e0016 0x000fe200
0x1c00720c 0x00000016 0x03f44270 0x000fc800
0x25257207 0x000000ff 0x05000000 0x002fca00
0x09097824 0x00000001 0x078e0225 0x000fe400
0xff257424 0xffffffff 0x078e00ff 0x000fe400
0xff287224 0x000000ff 0x078e0009 0x000fc600
0x00007944 0x00000c60 0x03c00000 0x000fea00
0x181d7810 0x00000008 0x07ffe0ff 0x000fe200
0xff277424 0x00000010 0x078e00ff 0x000fe200
0x00047802 0x000056e0 0x00000f00 0x000fe200
0xff057224 0x000000ff 0x078e0016 0x000fe200
0x1d00720c 0x00000016 0x03f44270 0x000fc800
0x251a7207 0x000000ff 0x05000000 0x002fe200
0xff257424 0xffffffff 0x078e00ff 0x000fc800
0x091a7824 0x00000001 0x078e021a 0x000fc800
0xff287224 0x000000ff 0x078e001a 0x000fc600
0x00007944 0x00000bc0 0x03c00000 0x000fea00
0x00007947 0xffffb360 0x0383ffff 0x000fea00
0xff047807 0x00000001 0x05000000 0x000fe200
0xff057424 0xffffffff 0x078e00ff 0x000fe200
0x00257802 0x00005730 0x00000f00 0x000fc600
0x00007944 0x00000bb0 0x03c00000 0x000fea00
0x2700780c 0x00000001 0x03f42070 0x000fe200
0x00007947 0xffffb3c0 0x0383ffff 0x000ff600
0xff257807 0x00000001 0x01000000 0x000fe200
0xff057424 0xffffffff 0x078e00ff 0x000fe200
0x00047802 0x00005790 0x00000f00 0x000fc600
0x00007944 0x00000c00 0x03c00000 0x001fea00
0x2500780c 0x00000001 0x03f42070 0x000fe200
0x00007947 0xffffb410 0x0383ffff 0x000ff600
0xff057807 0x00000001 0x01000000 0x000fe200
0xff257424 0xffffffff 0x078e00ff 0x000fe200
0x00047802 0x000057f0 0x00000f00 0x000fc600
0x00007944 0x00000c10 0x03c00000 0x001fea00
0x25257812 0x80000000 0x078eec06 0x000fe200
0xff287224 0x000000ff 0x078e0009 0x000fe200
0x00047802 0x00005890 0x00000f00 0x000fe200
0xff277424 0x00000001 0x078e00ff 0x000fc600
0x00257301 0x00000025 0x00000000 0x000e3000
0x00257300 0x00000025 0x000e0000 0x001e2400
0x25167810 0x0000001f 0x07ffe1ff 0x001fe200
0xff257424 0xffffffff 0x078e00ff 0x000fc800
0xff057224 0x000000ff 0x078e0016 0x000fc600
0x00007944 0x00000a10 0x03c00000 0x000fea00
0x1800720c 0x00000016 0x03f46270 0x000fe200
0xff277424 0x00000002 0x078e00ff 0x000fe200
0x00047802 0x00005920 0x00000f00 0x000fe200
0xff057224 0x000000ff 0x078e0016 0x000fe200
0x25257207 0x000000ff 0x05000000 0x002fca00
0x25097824 0x00000001 0x078e0209 0x000fe400
0xff257424 0xffffffff 0x078e00ff 0x000fe400
0xff287224 0x000000ff 0x078e0009 0x000fc600
0x00007944 0x00000980 0x03c00000 0x000fea00
0x1b00720c 0x00000016 0x03f44270 0x000fe200
0xff277424 0x00000004 0x078e00ff 0x000fe200
0x00047802 0x000059b0 0x00000f00 0x000fe200
0xff057224 0x000000ff 0x078e0016 0x000fe200
0x25257207 0x000000ff 0x05000000 0x002fca00
0x09097824 0x00000001 0x078e0225 0x000fe400
0xff257424 0xffffffff 0x078e00ff 0x000fe400
0xff287224 0x000000ff 0x078e0009 0x000fc600
0x00007944 0x000008f0 0x03c00000 0x000fea00
0x1c00720c 0x00000016 0x03f44270 0x000fe200
0xff277424 0x00000008 0x078e00ff 0x000fe200
0x00047802 0x00005a40 0x00000f00 0x000fe200
0xff057224 0x000000ff 0x078e0016 0x000fe200
0x25257207 0x000000ff 0x05000000 0x002fca00
0x09177824 0x00000001 0x078e0225 0x000fe400
0xff257424 0xffffffff 0x078e00ff 0x000fe400
0xff287224 0x000000ff 0x078e0017 0x000fc600
0x00007944 0x00000860 0x03c00000 0x000fea00
0x1d00720c 0x00000016 0x03f44270 0x000fe200
0xff277424 0x00000010 0x078e00ff 0x000fe200
0x00047802 0x00005ad0 0x00000f00 0x000fe200
0xff057224 0x000000ff 0x078e0016 0x000fe200
0x25097207 0x000000ff 0x05000000 0x002fe200
0xff257424 0xffffffff 0x078e00ff 0x000fc800
0x17097824 0x00000001 0x078e0209 0x000fc800
0xff287224 0x000000ff 0x078e0009 0x000fc600
0x00007944 0x000007d0 0x03c00000 0x000fea00
0x00007947 0xffffb340 0x0383ffff 0x000fea00
0xff257807 0x00000001 0x01000000 0x000fe200
0xff057424 0xffffffff 0x078e00ff 0x000fe200
0x00047802 0x00005b20 0x00000f00 0x000fc600
0x00007944 0x00000870 0x03c00000 0x001fea00
0x2500780c 0x00000001 0x03f42070 0x000fe200
0x00007947 0xffffd880 0x0383ffff 0x000ff600
0xff057807 0x00000001 0x01000000 0x000fe200
0xff257424 0xffffffff 0x078e00ff 0x000fe200
0x00047802 0x00005b80 0x00000f00 0x000fc600
0x00007944 0x00000880 0x03c00000 0x003fea00
0x001f7919 0x00000000 0x00003c00 0x000e2200
0xff287224 0x000000ff 0x078e0011 0x000fe200
0x00047802 0x00005c30 0x00000f00 0x000fe200
0xff277424 0x00000001 0x078e00ff 0x000fe200
0x25257812 0x80000000 0x078eec1f 0x001fcc00
0x00257301 0x00000025 0x00000000 0x000e3000
0x00257300 0x00000025 0x000e0000 0x001e2400
0x25127810 0x0000001f 0x07ffe1ff 0x001fe200
0xff257424 0xffffffff 0x078e00ff 0x000fc800
0xff057224 0x000000ff 0x078e0012 0x000fc600
0x00007944 0x00000670 0x03c00000 0x000fea00
0x1e00720c 0x00000012 0x03f46270 0x000fe200
0xff277424 0x00000002 0x078e00ff 0x000fe200
0x00047802 0x00005cc0 0x00000f00 0x000fe200
0xff057224 0x000000ff 0x078e0012 0x000fe200
0x25257207 0x000000ff 0x05000000 0x002fca00
0x25117824 0x00000001 0x078e0211 0x000fe400
0xff257424 0xffffffff 0x078e00ff 0x000fe400
0xff287224 0x000000ff 0x078e0011 0x000fc600
0x00007944 0x000005e0 0x03c00000 0x000fea00
0x1e207810 0x00000002 0x07ffe0ff 0x000fe200
0xff277424 0x00000004 0x078e00ff 0x000fe200
0x00047802 0x00005d60 0x00000f00 0x000fe200
0xff057224 0x000000ff 0x078e0012 0x000fe200
0x2000720c 0x00000012 0x03f44270 0x000fc800
0x25257207 0x000000ff 0x05000000 0x002fca00
0x11117824 0x00000001 0x078e0225 0x000fe400
0xff257424 0xffffffff 0x078e00ff 0x000fe400
0xff287224 0x000000ff 0x078e0011 0x000fc600
0x00007944 0x00000540 0x03c00000 0x000fea00
0x1e217810 0x00000004 0x07ffe0ff 0x000fe200
0xff277424 0x00000008 0x078e00ff 0x000fe200
0x00047802 0x00005e00 0x00000f00 0x000fe200
0xff057224 0x000000ff 0x078e0012 0x000fe200
0x2100720c 0x00000012 0x03f44270 0x000fc800
0x25257207 0x000000ff 0x05000000 0x002fca00
0x11117824 0x00000001 0x078e0225 0x000fe400
0xff257424 0xffffffff 0x078e00ff 0x000fe400
0xff287224 0x000000ff 0x078e0011 0x000fc600
0x00007944 0x000004a0 0x03c00000 0x000fea00
0x1e227810 0x00000008 0x07ffe0ff 0x000fe200
0xff277424 0x00000010 0x078e00ff 0x000fe200
0x00047802 0x00005ea0 0x00000f00 0x000fe200
0xff057224 0x000000ff 0x078e0012 0x000fe200
0x2200720c 0x00000012 0x03f44270 0x000fc800
0x25247207 0x000000ff 0x05000000 0x002fe200
0xff257424 0xffffffff 0x078e00ff 0x000fc800
0x11247824 0x00000001 0x078e0224 0x000fc800
0xff287224 0x000000ff 0x078e0024 0x000fc600
0x00007944 0x00000400 0x03c00000 0x000fea00
0x00007947 0xffffd7c0 0x0383ffff 0x000fea00
0xff047807 0x00000001 0x05000000 0x000fe200
0xff057424 0xffffffff 0x078e00ff 0x000fe200
0x00257802 0x00005ef0 0x00000f00 0x000fc600
0x00007944 0x000003f0 0x03c00000 0x000fea00
0x2700780c 0x00000001 0x03f42070 0x000fe200
0x00007947 0xffffd820 0x0383ffff 0x000ff600
0xff257807 0x00000001 0x01000000 0x000fe200
0xff057424 0xffffffff 0x078e00ff 0x000fe200
0x00047802 0x00005f50 0x00000f00 0x000fc600
0x00007944 0x00000440 0x03c00000 0x001fea00
0x2500780c 0x00000001 0x03f42070 0x000fe200
0x00007947 0xffffd870 0x0383ffff 0x000ff600
0xff057807 0x00000001 0x01000000 0x000fe200
0xff257424 0xffffffff 0x078e00ff 0x000fe200
0x00047802 0x00005fb0 0x00000f00 0x000fc600
0x00007944 0x00000450 0x03c00000 0x001fea00
0x25257812 0x80000000 0x078eec1f 0x000fe200
0xff287224 0x000000ff 0x078e0011 0x000fe200
0x00047802 0x00006050 0x00000f00 0x000fe200
0xff277424 0x00000001 0x078e00ff 0x000fc600
0x00257301 0x00000025 0x00000000 0x000e3000
0x00257300 0x00000025 0x000e0000 0x001e2400
0x25127810 0x0000001f 0x07ffe1ff 0x001fe200
0xff257424 0xffffffff 0x078e00ff 0x000fc800
0xff057224 0x000000ff 0x078e0012 0x000fc600
0x00007944 0x00000250 0x03c00000 0x000fea00
0x1e00720c 0x00000012 0x03f46270 0x000fe200
0xff277424 0x00000002 0x078e00ff 0x000fe200
0x00047802 0x000060e0 0x00000f00 0x000fe200
0xff057224 0x000000ff 0x078e0012 0x000fe200
0x25257207 0x000000ff 0x05000000 0x002fca00
0x25117824 0x00000001 0x078e0211 0x000fe400
0xff257424 0xffffffff 0x078e00ff 0x000fe400
0xff287224 0x000000ff 0x078e0011 0x000fc600
0x00007944 0x000001c0 0x03c00000 0x000fea00
0x2000720c 0x00000012 0x03f44270 0x000fe200
0xff277424 0x00000004 0x078e00ff 0x000fe200
0x00047802 0x00006170 0x00000f00 0x000fe200
0xff057224 0x000000ff 0x078e0012 0x000fe200
0x25257207 0x000000ff 0x05000000 0x002fca00
0x11117824 0x00000001 0x078e0225 0x000fe400
0xff257424 0xffffffff 0x078e00ff 0x000fe400
0xff287224 0x000000ff 0x078e0011 0x000fc600
0x00007944 0x00000130 0x03c00000 0x000fea00
0x2100720c 0x00000012 0x03f44270 0x000fe200
0xff277424 0x00000008 0x078e00ff 0x000fe200
0x00047802 0x00006200 0x00000f00 0x000fe200
0xff057224 0x000000ff 0x078e0012 0x000fe200
0x25257207 0x000000ff 0x05000000 0x002fca00
0x11137824 0x00000001 0x078e0225 0x000fe400
0xff257424 0xffffffff 0x078e00ff 0x000fe400
0xff287224 0x000000ff 0x078e0013 0x000fc600
0x00007944 0x000000a0 0x03c00000 0x000fea00
0x2200720c 0x00000012 0x03f44270 0x000fe200
0xff277424 0x00000010 0x078e00ff 0x000fe200
0x00047802 0x00006290 0x00000f00 0x000fe200
0xff057224 0x000000ff 0x078e0012 0x000fe200
0x25117207 0x000000ff 0x05000000 0x002fe200
0xff257424 0xffffffff 0x078e00ff 0x000fc800
0x13117824 0x00000001 0x078e0211 0x000fc800
0xff287224 0x000000ff 0x078e0011 0x000fc600
0x00007944 0x00000010 0x03c00000 0x000fea00
0x00007947 0xffffd7a0 0x0383ffff 0x000fea00
0x00007348 0x00000025 0x03800000 0x000fe800
0x28257389 0x08000027 0x000e0005 0x00006400
0xff057424 0x00000000 0x078e00ff 0x001fcc00
0x04007950 0xffff9d20 0x03c3ffff 0x000fea00
0x0400780c 0x00000001 0x03f45070 0x000fe200
0x00007348 0x00000005 0x03800000 0x000fe800
0x00047886 0x00000000 0x038e0100 0x000fce00
0x00047806 0x00000000 0x050e0100 0x000fe400
0x05057c12 0x00000004 0x0f8ec0ff 0x000fc800
0x04047212 0x00000005 0x078ec0ff 0x000fc800
0x0400720c 0x00000005 0x03f45070 0x000fe200
0xff047224 0x000000ff 0x078e0025 0x000fe400
0xff057424 0x00000000 0x078e00ff 0x000fe200
0xff277807 0x00000001 0x01000000 0x000fca00
0x04007950 0xffff9c70 0x03c3ffff 0x000fea00
0x2500780c 0x00000001 0x03f45070 0x000fe200
0x00007348 0x00000005 0x03800000 0x000ff600
0x00257806 0x00000000 0x050e0100 0x000fc800
0x25ff7212 0x00000005 0x0784c0ff 0x000fe200
0xff057424 0x00000000 0x078e00ff 0x000fc600
0xff257807 0x00000001 0x05000000 0x000fc600
0x04007950 0xffff9c00 0x03c3ffff 0x000fea00
0x0500780c 0x00000001 0x03f45070 0x000fe200
0x00007348 0x00000025 0x03800000 0x000ff600
0x00057806 0x00000000 0x050e0100 0x000fc800
0x05257212 0x00000025 0x078ec0ff 0x000fe200
0xff057424 0x00000000 0x078e00ff 0x000fcc00
0x04007950 0xffff9ba0 0x03c3ffff 0x000fea00
0x00007947 0xfffffff0 0x0383ffff 0x000fc000
0x00007918 0x00000000 0x00000000 0x000fc000



.text._ZN3cub17CUB_200400_750_NS18DeviceReduceKernelINS0_18DeviceReducePolicyIlyN4cuda3std3__44plusIvEEE9Policy600ENS0_22TransformInputIteratorIb7NonZeroIfEPflEEyS7_lNS5_10__identityEEEvT0_PT3_T1_NS0_13GridEvenShareISJ_EET2_T4_
bar = 1	reg = 29	lmem=0	smem=80
0xff017624 0x00000a00 0x078e00ff 0x000fe400
0x00007919 0x00000000 0x00002500 0x000e2200
0x00ff7355 0x00000000 0x00100000 0x000fe200
0x00007945 0x00002b20 0x03800000 0x000fe200
0x00097824 0x00000800 0x078e00ff 0x001fca00
0x09117a10 0x00006800 0x07f3e1ff 0x000fe400
0xff057819 0x0000001f 0x00011409 0x000fe400
0x1100780c 0x00000800 0x03f06070 0x000fe400
0x05137a10 0x00006900 0x00ffe5ff 0x000fc800
0x1300720c 0x000000ff 0x03f06100 0x000fd800
0x00008947 0x000015c0 0x03800000 0x000fea00
0x000e7919 0x00000000 0x00002100 0x000e2400
0x09177210 0x0000000e 0x07f1e0ff 0x001fc800
0x0e0f7211 0x00000005 0x000f0eff 0x000fe400
0x17027a11 0x00005a00 0x078010ff 0x000fc800
0x17037a11 0x00005b00 0x000f140f 0x000fd000
0x020d7381 0x00000000 0x001ee900 0x000ea800
0x02047381 0x00040000 0x001ee900 0x000ee800
0x02067381 0x00080000 0x001ee900 0x000f2800
0x02077381 0x000c0000 0x001ee900 0x000f6800
0x02087381 0x00100000 0x001ee900 0x000f6800
0x020a7381 0x00140000 0x001ee900 0x00016800
0x020b7381 0x00180000 0x001ee900 0x00016800
0x020c7381 0x001c0000 0x001ee900 0x00016200
0x0d00720b 0x000000ff 0x03f0d000 0x004fc400
0x0400720b 0x000000ff 0x03f2d000 0x008fe400
0x0600720b 0x000000ff 0x03f4d000 0x010fe400
0xff067807 0x00000001 0x04000000 0x000fe400
0xff0d7807 0x00000001 0x04800000 0x000fe400
0xff047807 0x00000001 0x05000000 0x000fe400
0x0700720b 0x000000ff 0x03f0d000 0x020fc400
0x0800720b 0x000000ff 0x03f2d000 0x000fe400
0x04047210 0x0000000d 0x07d9e006 0x000fe200
0xff067624 0x00006a00 0x078e00ff 0x000fe200
0xff027807 0x00000001 0x04000000 0x001fe400
0xff037807 0x00000001 0x04800000 0x000fe200
0x06067824 0x00000800 0x078e00ff 0x000fe200
0x0a00720b 0x000000ff 0x03f0d000 0x000fe400
0x03047210 0x00000004 0x07b5e002 0x000fc400
0xff027807 0x00000001 0x04000000 0x000fe400
0x0b00720b 0x000000ff 0x03f2d000 0x000fe400
0x1100720c 0x00000006 0x03f06070 0x000fe400
0xff087819 0x0000001f 0x00011406 0x000fe400
0xff077807 0x00000001 0x04800000 0x000fe400
0x1300720c 0x00000008 0x03f06100 0x000fc400
0x0c00720b 0x000000ff 0x03f2d000 0x000fe400
0xff037210 0x000000ff 0x027ea4ff 0x000fe400
0x07047210 0x00000004 0x07d9e002 0x000fe200
0xff027224 0x000000ff 0x078e000e 0x000fe200
0xff077807 0x00000001 0x04800000 0x000fe400
0xff037210 0x00000003 0x017e64ff 0x000fe400
0x04047210 0x00000007 0x07f3e0ff 0x000fc400
0xff037210 0x00000003 0x027ea4ff 0x000fca00
0xff037224 0x000000ff 0x008e0603 0x000fe200
0x00008947 0x00000f40 0x03800000 0x000fea00
0x00047ab9 0x00006800 0x00000a00 0x000fe200
0x06137210 0x00000009 0x07f1e0ff 0x040fe200
0x04047890 0xfffff800 0x0ff1e03f 0x000fe200
0x06177210 0x00000017 0x07f3e0ff 0x000fc600
0x05057890 0xffffffff 0x087fe43f 0x000fe200
0x08127824 0x00000001 0x000e0605 0x040fe200
0x13007c0c 0x00000004 0x0bf04070 0x000fe200
0x080c7824 0x00000001 0x008e060f 0x000fe200
0x170a7a11 0x00005a00 0x078410ff 0x000fe200
0xff057224 0x000000ff 0x078e000e 0x000fe200
0x12007c0c 0x00000005 0x0bf04100 0x000fe400
0x13167a11 0x00005a00 0x078210ff 0x000fe400
0x17177a11 0x00005b00 0x010f140c 0x000fc400
0x13197a11 0x00005b00 0x008f1412 0x000fcc00
0x00000947 0x00000360 0x03800000 0x000fea00
0x05077210 0x00000013 0x07f1e0ff 0x000fc800
0x050e7211 0x00000012 0x000f0eff 0x000fe400
0x070c7a11 0x00005a00 0x078010ff 0x000fc800
0x070d7a11 0x00005b00 0x000f140e 0x000fd000
0x0c147381 0x00000000 0x001ee900 0x000ea800
0x0c077381 0x00040000 0x001ee900 0x000ee800
0x0c097381 0x00080000 0x001ee900 0x000f2800
0x0c0b7381 0x000c0000 0x001ee900 0x000f6800
0x0c0e7381 0x00100000 0x001ee900 0x000f6800
0x0c0f7381 0x00140000 0x001ee900 0x000f6800
0x0c107381 0x00180000 0x001ee900 0x00016800
0x0c117381 0x001c0000 0x001ee900 0x00016200
0x1400720b 0x000000ff 0x03f0d000 0x004fc400
0x0700720b 0x000000ff 0x03f2d000 0x008fe400
0x13077a10 0x00006800 0x07f7e1ff 0x000fe400
0x0900720b 0x000000ff 0x03fad000 0x010fe400
0xff147807 0x00000001 0x04000000 0x000fe400
0xff157807 0x00000001 0x04800000 0x000fe400
0x0b00720b 0x000000ff 0x03fcd000 0x020fc400
0xff0b7807 0x00000001 0x06800000 0x000fe400
0x0700720c 0x00000006 0x03f06070 0x000fe400
0x0e00720b 0x000000ff 0x03f8d000 0x000fe400
0x0f00720b 0x000000ff 0x03fad000 0x000fe400
0x15047210 0x00000004 0x0795e014 0x000fe400
0xff077807 0x00000001 0x07000000 0x000fc400
0xff0c7807 0x00000001 0x06000000 0x001fe400
0xff097807 0x00000001 0x06800000 0x000fe400
0x07047210 0x00000004 0x07d9e00b 0x000fe400
0xff077210 0x00000003 0x017e24ff 0x000fe400
0x12037a10 0x00006900 0x01ffe5ff 0x000fe400
0x1000720b 0x000000ff 0x03fcd000 0x000fc400
0x0300720c 0x00000008 0x03f06100 0x000fe400
0xff0b7807 0x00000001 0x07000000 0x000fe400
0x1100720b 0x000000ff 0x03fcd000 0x000fe400
0x09047210 0x00000004 0x07a3e00c 0x000fe400
0xff097807 0x00000001 0x07000000 0x000fe400
0xff077210 0x00000007 0x027ea4ff 0x000fc400
0x09047210 0x00000004 0x07c7e00b 0x000fe400
0xff037210 0x00000007 0x00fe44ff 0x000fc800
0xff037210 0x00000003 0x01fe84ff 0x000fe200
0x00008947 0x00000bc0 0x03800000 0x000fea00
0x06137210 0x00000013 0x07f1e0ff 0x000fe200
0xff0c7224 0x000000ff 0x078e0016 0x000fe400
0xff0d7224 0x000000ff 0x078e0019 0x000fe400
0x08127824 0x00000001 0x000e0612 0x000fe200
0x13007c0c 0x00000004 0x0bf04070 0x000fe200
0xff0b7224 0x000000ff 0x078e0017 0x000fe400
0x060c7825 0x00000004 0x078e020c 0x000fe200
0x12007c0c 0x00000005 0x0bf04100 0x000fc600
0x060a7825 0x00000004 0x078e020a 0x000fc800
0xff167224 0x000000ff 0x078e000c 0x000fe400
0xff197224 0x000000ff 0x078e000d 0x000fe400
0xff177224 0x000000ff 0x078e000b 0x000fe200
0x00008947 0xfffffca0 0x0383ffff 0x000fea00
0x13007a0c 0x00006800 0x03f06070 0x000fe200
0xff0c7224 0x000000ff 0x078e0016 0x000fe400
0xff0d7224 0x000000ff 0x078e0019 0x000fe200
0x12007a0c 0x00006900 0x03f06100 0x000fd800
0x00000947 0x00000aa0 0x03800000 0x000fea00
0x13087a10 0x00006800 0x07ffe1ff 0x000fe200
0x01ff7355 0x00000000 0x00100000 0x000fe200
0x00017945 0x00000a70 0x03800000 0x000fe400
0x0500720c 0x00000008 0x03f06270 0x000fd800
0x00000947 0x00000a40 0x03800000 0x000fea00
0xff067212 0x00000005 0x078e33ff 0x000fe200
0x02ff7355 0x00000000 0x00100000 0x000fe200
0x00027945 0x00000150 0x03800000 0x000fe400
0x13137a10 0x00006800 0x07ffe106 0x000fc800
0x13067811 0x00000001 0x078fc0ff 0x040fe400
0x1300780c 0x00000300 0x03f26070 0x000fe400
0x06067812 0x00000003 0x0780c0ff 0x000fd800
0x00008947 0x000000f0 0x03800000 0x000fea00
0x00057919 0x00000000 0x00002100 0x000e2200
0xff097224 0x000000ff 0x078e0006 0x000fc600
0xff067224 0x000000ff 0x078e000a 0x000fe400
0xff077224 0x000000ff 0x078e0017 0x000fd000
0x06067381 0x00000000 0x001ee900 0x000ea200
0x09097810 0xffffffff 0x07ffe0ff 0x000fe400
0x0a0a7810 0x00000400 0x07f7e0ff 0x000fe400
0x05057810 0x00000100 0x07ffe0ff 0x001fc600
0xff177224 0x000000ff 0x018e0617 0x000fe200
0x0600720b 0x000000ff 0x03f0d000 0x004fc800
0xff0b7807 0x00000001 0x04000000 0x000fe400
0x0900720c 0x000000ff 0x03f05270 0x000fe400
0x04047210 0x0000000b 0x07f5e0ff 0x000fca00
0xff037224 0x000000ff 0x010e0603 0x000fca00
0x00000947 0xffffff30 0x0383ffff 0x000fea00
0x00027941 0x00000000 0x03800000 0x000fea00
0x00009947 0x000008b0 0x03800000 0x000fea00
0x08067824 0x00000001 0x078e0a05 0x000fe200
0x02ff7355 0x00000000 0x00100000 0x000fe200
0x00027945 0x000004c0 0x03800000 0x000fe200
0x0000781c 0x00000000 0x03f0f070 0x000fe400
0x0600780c 0x00000c00 0x03f24270 0x000fe200
0x05067825 0x00000004 0x078e020c 0x000fd600
0x00009947 0x00000470 0x03800000 0x000fea00
0x0000781c 0x00000000 0x03f0e170 0x000fe400
0x081a7810 0xfffff400 0x07ffe0ff 0x000fe400
0x06187381 0x00040000 0x001ee900 0x000ea800
0x06097381 0x00000000 0x001ee900 0x000ee800
0x060a7381 0x00080000 0x001ee900 0x000f2800
0x060b7381 0x000c0000 0x001ee900 0x000f6800
0x060c7381 0x00100000 0x001ee900 0x000f6800
0x060d7381 0x00140000 0x001ee900 0x000f6800
0x060e7381 0x00180000 0x001ee900 0x000f6800
0x060f7381 0x001c0000 0x001ee900 0x000f6800
0x06107381 0x00200000 0x001ee900 0x000f6800
0x06117381 0x00240000 0x001ee900 0x000f6800
0x06127381 0x00280000 0x001ee900 0x000f6800
0x06137381 0x002c0000 0x001ee900 0x000f6800
0x06147381 0x00300000 0x001ee900 0x000f6800
0x06157381 0x00340000 0x001ee900 0x000f6800
0x06177381 0x003c0000 0x001ee900 0x000f6800
0x06167381 0x00380000 0x001ee900 0x000f6200
0x05057810 0x00001000 0x07ffe0ff 0x000fc400
0x1800720b 0x000000ff 0x03f4d000 0x004fe400
0x0900720b 0x000000ff 0x03f2d000 0x008fe400
0xff097807 0x00000001 0x05000000 0x000fe400
0xff187807 0x00000001 0x04800000 0x000fe400
0x0a00720b 0x000000ff 0x03f2d000 0x010fe400
0x0b00720b 0x000000ff 0x03f4d000 0x020fc400
0x09047210 0x00000004 0x07ebe018 0x000fe400
0xff097807 0x00000001 0x04800000 0x000fe400
0xff0a7807 0x00000001 0x05000000 0x000fe400
0x0c00720b 0x000000ff 0x03f2d000 0x000fe400
0x0d00720b 0x000000ff 0x03f8d000 0x000fe400
0x0a0a7210 0x00000004 0x07b5e009 0x000fc400
0xff047807 0x00000001 0x04800000 0x000fe400
0xff097807 0x00000001 0x06000000 0x000fe400
0x0e00720b 0x000000ff 0x03f2d000 0x000fe400
0x0f00720b 0x000000ff 0x03f8d000 0x000fe400
0xff0b7210 0x00000003 0x02fec4ff 0x000fe400
0x09097210 0x0000000a 0x07dde004 0x000fc400
0xff047807 0x00000001 0x04800000 0x000fe400
0xff037807 0x00000001 0x06000000 0x000fe400
0x1000720b 0x000000ff 0x03f2d000 0x000fe400
0x1100720b 0x000000ff 0x03f8d000 0x000fe400
0xff0a7210 0x0000000b 0x017e64ff 0x000fe400
0x03037210 0x00000009 0x07b5e004 0x000fc400
0xff047807 0x00000001 0x04800000 0x000fe400
0xff097807 0x00000001 0x06000000 0x000fe400
0x1200720b 0x000000ff 0x03f2d000 0x000fe400
0x1300720b 0x000000ff 0x03f8d000 0x000fe400
0xff0a7210 0x0000000a 0x037ea4ff 0x000fe400
0x09097210 0x00000003 0x07dde004 0x000fc400
0xff047807 0x00000001 0x04800000 0x000fe400
0xff037807 0x00000001 0x06000000 0x000fe400
0x1400720b 0x000000ff 0x03f8d000 0x000fe400
0x1500720b 0x000000ff 0x03f2d000 0x000fe400
0xff0a7210 0x0000000a 0x017e64ff 0x000fe400
0x03037210 0x00000009 0x07b5e004 0x000fc400
0xff047807 0x00000001 0x06000000 0x000fe400
0xff097807 0x00000001 0x04800000 0x000fe400
0x1700720b 0x000000ff 0x03f2d000 0x000fe400
0xff0a7210 0x0000000a 0x037ea4ff 0x000fe400
0x09097210 0x00000003 0x07ebe004 0x000fe400
0xff047807 0x00000001 0x04800000 0x000fc400
0x0500720c 0x0000001a 0x03f26270 0x000fe400
0x1600720b 0x000000ff 0x03f8d000 0x000fe400
0xff0a7210 0x0000000a 0x017e64ff 0x000fe400
0xff037807 0x00000001 0x06000000 0x000fe400
0x06067810 0x00004000 0x07f9e0ff 0x000fe400
0x04047210 0x00000009 0x07b5e003 0x000fc400
0xff037210 0x0000000a 0x02fec4ff 0x000fe200
0xff077224 0x000000ff 0x020e0607 0x000fc600
0xff037210 0x00000003 0x017e64ff 0x000fe200
0x00009947 0xfffffbb0 0x0383ffff 0x000fea00
0x00027941 0x00000000 0x03800000 0x000fea00
0x08097824 0x00000001 0x078e0a05 0x000fe200
0x02ff7355 0x00000000 0x00100000 0x000fe200
0x00027945 0x00000270 0x03800000 0x000fe600
0x0900780c 0x00000400 0x03f24270 0x000fd800
0x00009947 0x00000240 0x03800000 0x000fea00
0x06107381 0x00000000 0x001ee900 0x000ea800
0x06097381 0x00040000 0x001ee900 0x000ee800
0x060a7381 0x00080000 0x001ee900 0x000f2800
0x060b7381 0x000c0000 0x001ee900 0x000f6800
0x060c7381 0x00100000 0x001ee900 0x000f6800
0x060d7381 0x00140000 0x001ee900 0x000f6800
0x060e7381 0x00180000 0x001ee900 0x000f6800
0x060f7381 0x001c0000 0x001ee900 0x000f6200
0x05057810 0x00000800 0x07ffe0ff 0x000fc400
0x1000720b 0x000000ff 0x03f0d000 0x004fe400
0x0900720b 0x000000ff 0x03f2d000 0x008fe400
0xff107807 0x00000001 0x04000000 0x000fe400
0xff097807 0x00000001 0x04800000 0x000fe400
0x0a00720b 0x000000ff 0x03f0d000 0x010fe400
0x0b00720b 0x000000ff 0x03f2d000 0x020fc400
0x09047210 0x00000004 0x07d9e010 0x000fe400
0xff097807 0x00000001 0x04000000 0x000fe400
0xff0a7807 0x00000001 0x04800000 0x000fe400
0x0c00720b 0x000000ff 0x03f4d000 0x000fe400
0x0d00720b 0x000000ff 0x03f6d000 0x000fe400
0x0a0a7210 0x00000004 0x0791e009 0x000fc400
0xff047807 0x00000001 0x05000000 0x000fe400
0xff097807 0x00000001 0x05800000 0x000fe400
0x0e00720b 0x000000ff 0x03f6d000 0x000fe400
0x0f00720b 0x000000ff 0x03f4d000 0x000fe400
0xff0b7210 0x00000003 0x027ea4ff 0x000fe400
0x09097210 0x0000000a 0x07cbe004 0x000fc400
0xff037807 0x00000001 0x05800000 0x000fe400
0xff047807 0x00000001 0x05000000 0x000fe400
0xff0a7210 0x0000000b 0x007e24ff 0x000fe400
0x06067810 0x00002000 0x07f7e0ff 0x000fe400
0x04047210 0x00000009 0x07a3e003 0x000fe400
0xff037210 0x0000000a 0x02fe84ff 0x000fe200
0xff077224 0x000000ff 0x018e0607 0x000fe200
0x0000781c 0x00000000 0x03f0e170 0x000fc400
0xff037210 0x00000003 0x00fe44ff 0x000fca00
0x00027941 0x00000000 0x03800000 0x000fea00
0x0500720c 0x00000008 0x00701670 0x000fd800
0x00008947 0x00000100 0x03800000 0x000fea00
0x060a7381 0x00000000 0x001ee900 0x000ea800
0x06057381 0x00040000 0x001ee900 0x000ee800
0x06097381 0x000c0000 0x001ee900 0x000f2800
0x06087381 0x00080000 0x001ee900 0x000f6200
0x0a00720b 0x000000ff 0x03f0d000 0x004fc400
0x0500720b 0x000000ff 0x03f2d000 0x008fe400
0xff0a7807 0x00000001 0x04000000 0x000fe400
0x0900720b 0x000000ff 0x03f6d000 0x010fe400
0xff097807 0x00000001 0x04800000 0x000fe400
0x0800720b 0x000000ff 0x03f4d000 0x020fe400
0xff057807 0x00000001 0x05800000 0x000fc400
0xff087807 0x00000001 0x05000000 0x000fe400
0x09047210 0x00000004 0x0791e00a 0x000fc800
0x05047210 0x00000004 0x07b5e008 0x000fe400
0xff037210 0x00000003 0x007e24ff 0x000fc800
0xff037210 0x00000003 0x017e64ff 0x000fc600
0x00017941 0x00000000 0x03800000 0x000fea00
0x000d7919 0x00000000 0x00000000 0x000e2800
0x04057f89 0x08201f00 0x000e0000 0x000e6800
0x03067f89 0x08201f00 0x000e0000 0x000ea200
0x0d00780c 0x0000001e 0x03f04270 0x001fc800
0x05057207 0x000000ff 0x04000000 0x002fc800
0x040a7210 0x00000005 0x07f3e0ff 0x000fe400
0x06067207 0x000000ff 0x04000000 0x004fe400
0x0d00780c 0x0000001d 0x03f04270 0x000fc600
0x030c7824 0x00000001 0x008e0606 0x000fe200
0x0a057f89 0x08401f00 0x000e0000 0x000e2e00
0x0c067f89 0x08401f00 0x000e0000 0x000e6200
0x05057207 0x000000ff 0x04000000 0x001fc800
0x05087210 0x0000000a 0x07f3e0ff 0x000fe400
0x06057207 0x000000ff 0x04000000 0x002fe400
0x0d00780c 0x0000001b 0x03f04270 0x000fc600
0x05057824 0x00000001 0x008e060c 0x000fe200
0x08037f89 0x08801f00 0x000e0000 0x000e2e00
0x05047f89 0x08801f00 0x000e0000 0x000e6200
0x03037207 0x000000ff 0x04000000 0x001fc800
0x03067210 0x00000008 0x07f3e0ff 0x000fe400
0x04047207 0x000000ff 0x04000000 0x002fe400
0x0d00780c 0x00000017 0x03f04270 0x000fc600
0x04097824 0x00000001 0x008e0605 0x000fe200
0x06037f89 0x09001f00 0x000e0000 0x000e2200
0x0d00720c 0x000000ff 0x03f25270 0x000fcc00
0x09047f89 0x09001f00 0x000e0000 0x000e6c00
0x000b9919 0x00000000 0x00002100 0x000ea200
0x03037207 0x000000ff 0x04000000 0x001fc800
0x03077210 0x00000006 0x07f5e0ff 0x000fe400
0x04047207 0x000000ff 0x04000000 0x002fe400
0x0d00780c 0x0000000f 0x03f04270 0x000fc600
0x04087824 0x00000001 0x010e0609 0x000fe200
0x07037f89 0x0a001f00 0x000e0000 0x000e2200
0xff049819 0x0000001f 0x0001140b 0x004fc800
0x04049211 0x0000000b 0x078f28ff 0x000fe400
0x08057f89 0x0a001f00 0x000e0000 0x000e6200
0x03067207 0x000000ff 0x04000000 0x001fe400
0xff039819 0x00000005 0x00011404 0x000fe400
0x06047210 0x00000007 0x07f5e0ff 0x000fe400
0x05057207 0x000000ff 0x04000000 0x002fe200
0x03039824 0x00000008 0x078e00ff 0x000fe200
0x0200720c 0x000000ff 0x03f05270 0x000fc600
0x05057824 0x00000001 0x010e0608 0x000fd000
0x03009388 0x00000804 0x00000a00 0x000fe800
0x00007b1d 0x00000000 0x00000000 0x000fea00
0x00000947 0x000015c0 0x03800000 0x000fea00
0xff087984 0x00001000 0x00001c00 0x000e3000
0xff0c7984 0x00002000 0x00001c00 0x000e7000
0xff107984 0x00003000 0x00001c00 0x000eb000
0xff027984 0x00004000 0x00001a00 0x000ee200
0x0a077210 0x00000008 0x0791e004 0x001fc800
0x0b097210 0x00000009 0x007e2405 0x000fe400
0x0e057210 0x00000007 0x0791e00c 0x002fc800
0x0f0d7210 0x00000009 0x007e240d 0x000fe400
0x12057210 0x00000005 0x0791e010 0x004fc800
0x13117210 0x0000000d 0x007e2411 0x000fe400
0x02047210 0x00000005 0x07f1e0ff 0x008fe200
0xff027224 0x000000ff 0x078e00ff 0x000fc800
0x03057824 0x00000001 0x000e0611 0x000fe200
0x00007947 0x000014e0 0x03800000 0x000fea00
0x00087919 0x00000000 0x00002100 0x000e2200
0x09037a10 0x00006800 0x07ffe1ff 0x000fe200
0x01ff7355 0x00000000 0x00100000 0x000fe200
0x00017945 0x000000e0 0x03800000 0x000fe200
0x00067805 0x00000000 0x0001ff00 0x000fe200
0x0800720c 0x00000003 0x03f06270 0x001fe200
0xff027224 0x000000ff 0x078e0008 0x000fd600
0x00000947 0x00000090 0x03800000 0x000fea00
0x09047210 0x00000002 0x07f1e0ff 0x000fc800
0x02077211 0x00000005 0x000f0eff 0x000fe400
0x040a7a11 0x00005a00 0x078010ff 0x000fc800
0x040b7a11 0x00005b00 0x000f1407 0x000fd000
0x0a0a7381 0x00000000 0x001ee900 0x000ea200
0x02087810 0x00000100 0x07ffe0ff 0x000fe200
0xff067224 0x000000ff 0x078e00ff 0x000fe200
0x0a00720b 0x000000ff 0x03f0d000 0x004fc800
0xff077807 0x00000001 0x04000000 0x000fc600
0x00017941 0x00000000 0x03800000 0x000fea00
0x0800720c 0x00000003 0x03f06270 0x000fe200
0x01ff7355 0x00000000 0x00100000 0x000fe200
0x00017945 0x00000a90 0x03800000 0x000ff400
0x00000947 0x00000a70 0x03800000 0x000fea00
0xff047212 0x00000008 0x078e33ff 0x000fe200
0x02ff7355 0x00000000 0x00100000 0x000fe200
0x00027945 0x00000150 0x03800000 0x000fe400
0x090a7a10 0x00006800 0x07ffe104 0x000fc800
0x0a047811 0x00000001 0x078fc0ff 0x040fe400
0x0a00780c 0x00000300 0x03f06070 0x000fe400
0x04047812 0x00000003 0x0782c0ff 0x000fd800
0x00009947 0x000000f0 0x03800000 0x000fea00
0x090b7210 0x00000008 0x07f3e0ff 0x000fc800
0x080c7211 0x00000005 0x008f0eff 0x000fe400
0x0b0a7a11 0x00005a00 0x078210ff 0x000fc800
0x0b0b7a11 0x00005b00 0x008f140c 0x000fd000
0x0a0c7381 0x00000000 0x001ee900 0x0000a200
0x04047810 0xffffffff 0x07ffe0ff 0x000fe400
0x08087810 0x00000100 0x07ffe0ff 0x000fe400
0x0a0a7810 0x00000400 0x07f7e0ff 0x001fca00
0xff0b7224 0x000000ff 0x018e060b 0x000fe200
0x0c00720b 0x000000ff 0x03f2d000 0x004fc800
0xff0c7807 0x00000001 0x04800000 0x000fe400
0x0400720c 0x000000ff 0x03f25270 0x000fe400
0x07077210 0x0000000c 0x07f5e0ff 0x000fca00
0xff067224 0x000000ff 0x010e0606 0x000fca00
0x00001947 0xffffff50 0x0383ffff 0x000fea00
0x00027941 0x00000000 0x03800000 0x000fea00
0x00008947 0x000008e0 0x03800000 0x000fea00
0x030b7824 0x00000001 0x078e0a08 0x000fe200
0x09097210 0x00000008 0x07f1e0ff 0x000fe200
0x02ff7355 0x00000000 0x00100000 0x000fe200
0x00027945 0x000004e0 0x03800000 0x000fe400
0x0b00780c 0x00000c00 0x03f24270 0x000fe400
0x080a7211 0x00000005 0x000f0eff 0x000fe400
0x09047a11 0x00005a00 0x078010ff 0x000fc800
0x09057a11 0x00005b00 0x000f140a 0x000fe400
0x0000781c 0x00000000 0x03f0f070 0x000fe400
0x00009947 0x00000470 0x03800000 0x000fea00
0x0000781c 0x00000000 0x03f0e170 0x000fe400
0x03197810 0xfffff400 0x07ffe0ff 0x000fc600
0x04187381 0x00040000 0x001ee900 0x000ea800
0x04097381 0x00000000 0x001ee900 0x000ee800
0x040a7381 0x00080000 0x001ee900 0x000f2800
0x040b7381 0x000c0000 0x001ee900 0x000f6800
0x040c7381 0x00100000 0x001ee900 0x000f6800
0x040d7381 0x00140000 0x001ee900 0x000f6800
0x040e7381 0x00180000 0x001ee900 0x000f6800
0x040f7381 0x001c0000 0x001ee900 0x000f6800
0x04107381 0x00200000 0x001ee900 0x000f6800
0x04117381 0x00240000 0x001ee900 0x000f6800
0x04127381 0x00280000 0x001ee900 0x000f6800
0x04137381 0x002c0000 0x001ee900 0x000f6800
0x04147381 0x00300000 0x001ee900 0x000f6800
0x04157381 0x00340000 0x001ee900 0x000f6800
0x04177381 0x003c0000 0x001ee900 0x000f6800
0x04167381 0x00380000 0x001ee900 0x000f6200
0x08087810 0x00001000 0x07ffe0ff 0x000fc400
0x1800720b 0x000000ff 0x03f4d000 0x004fe400
0x0900720b 0x000000ff 0x03f2d000 0x008fe400
0xff187807 0x00000001 0x05000000 0x000fe400
0xff097807 0x00000001 0x04800000 0x000fe400
0x0a00720b 0x000000ff 0x03f2d000 0x010fe400
0x0b00720b 0x000000ff 0x03f4d000 0x020fc400
0x18097210 0x00000007 0x07ebe009 0x000fe400
0xff0a7807 0x00000001 0x04800000 0x000fe400
0xff077807 0x00000001 0x05000000 0x000fe400
0x0c00720b 0x000000ff 0x03f2d000 0x000fe400
0x0d00720b 0x000000ff 0x03f8d000 0x000fe400
0x07077210 0x00000009 0x07b5e00a 0x000fc400
0xff0a7807 0x00000001 0x04800000 0x000fe400
0xff097807 0x00000001 0x06000000 0x000fe400
0x0e00720b 0x000000ff 0x03f2d000 0x000fe400
0x0f00720b 0x000000ff 0x03f8d000 0x000fe400
0xff0b7210 0x00000006 0x02fec4ff 0x000fe400
0x09097210 0x00000007 0x07dde00a 0x000fc400
0xff067807 0x00000001 0x04800000 0x000fe400
0xff077807 0x00000001 0x06000000 0x000fe400
0x1000720b 0x000000ff 0x03f2d000 0x000fe400
0x1100720b 0x000000ff 0x03f8d000 0x000fe400
0xff0a7210 0x0000000b 0x017e64ff 0x000fe400
0x07077210 0x00000009 0x07b5e006 0x000fc400
0xff067807 0x00000001 0x04800000 0x000fe400
0xff097807 0x00000001 0x06000000 0x000fe400
0x1200720b 0x000000ff 0x03f2d000 0x000fe400
0x1300720b 0x000000ff 0x03f8d000 0x000fe400
0xff0a7210 0x0000000a 0x037ea4ff 0x000fe400
0x09097210 0x00000007 0x07dde006 0x000fc400
0xff067807 0x00000001 0x04800000 0x000fe400
0xff077807 0x00000001 0x06000000 0x000fe400
0x1400720b 0x000000ff 0x03f8d000 0x000fe400
0x1500720b 0x000000ff 0x03f2d000 0x000fe400
0xff0a7210 0x0000000a 0x017e64ff 0x000fe400
0x07077210 0x00000009 0x07b5e006 0x000fc400
0xff067807 0x00000001 0x06000000 0x000fe400
0xff097807 0x00000001 0x04800000 0x000fe400
0x1700720b 0x000000ff 0x03f2d000 0x000fe400
0xff0a7210 0x0000000a 0x037ea4ff 0x000fe400
0x09097210 0x00000007 0x07ebe006 0x000fe400
0xff077807 0x00000001 0x04800000 0x000fc400
0x0800720c 0x00000019 0x03f26270 0x000fe400
0x1600720b 0x000000ff 0x03f8d000 0x000fe400
0xff0a7210 0x0000000a 0x017e64ff 0x000fe400
0xff067807 0x00000001 0x06000000 0x000fe400
0x04047810 0x00004000 0x07f9e0ff 0x000fe400
0x07077210 0x00000009 0x07b5e006 0x000fc400
0xff067210 0x0000000a 0x02fec4ff 0x000fe200
0xff057224 0x000000ff 0x020e0605 0x000fc600
0xff067210 0x00000006 0x017e64ff 0x000fe200
0x00009947 0xfffffbb0 0x0383ffff 0x000fea00
0x00027941 0x00000000 0x03800000 0x000fea00
0x03097824 0x00000001 0x078e0a08 0x000fe200
0x02ff7355 0x00000000 0x00100000 0x000fe200
0x00027945 0x00000270 0x03800000 0x000fe600
0x0900780c 0x00000400 0x03f24270 0x000fd800
0x00009947 0x00000240 0x03800000 0x000fea00
0x04107381 0x00000000 0x001ee900 0x000ea800
0x04097381 0x00040000 0x001ee900 0x000ee800
0x040a7381 0x00080000 0x001ee900 0x000f2800
0x040b7381 0x000c0000 0x001ee900 0x000f6800
0x040c7381 0x00100000 0x001ee900 0x000f6800
0x040d7381 0x00140000 0x001ee900 0x000f6800
0x040e7381 0x00180000 0x001ee900 0x000f6800
0x040f7381 0x001c0000 0x001ee900 0x000f6200
0x08087810 0x00000800 0x07ffe0ff 0x000fc400
0x1000720b 0x000000ff 0x03f0d000 0x004fe400
0x0900720b 0x000000ff 0x03f2d000 0x008fe400
0xff097807 0x00000001 0x04000000 0x000fe400
0xff107807 0x00000001 0x04800000 0x000fe400
0x0a00720b 0x000000ff 0x03f0d000 0x010fe400
0x0b00720b 0x000000ff 0x03f2d000 0x020fc400
0x10097210 0x00000007 0x07d9e009 0x000fe400
0xff0a7807 0x00000001 0x04000000 0x000fe400
0xff077807 0x00000001 0x04800000 0x000fe400
0x0c00720b 0x000000ff 0x03f4d000 0x000fe400
0x0d00720b 0x000000ff 0x03f6d000 0x000fe400
0x07077210 0x00000009 0x0791e00a 0x000fc400
0xff0a7807 0x00000001 0x05000000 0x000fe400
0xff097807 0x00000001 0x05800000 0x000fe400
0x0e00720b 0x000000ff 0x03f6d000 0x000fe400
0x0f00720b 0x000000ff 0x03f4d000 0x000fe400
0xff0b7210 0x00000006 0x027ea4ff 0x000fe400
0x09097210 0x00000007 0x07cbe00a 0x000fc400
0xff067807 0x00000001 0x05800000 0x000fe400
0xff077807 0x00000001 0x05000000 0x000fe400
0xff0a7210 0x0000000b 0x007e24ff 0x000fe400
0x04047810 0x00002000 0x07f7e0ff 0x000fe400
0x07077210 0x00000009 0x07a3e006 0x000fe400
0xff067210 0x0000000a 0x02fe84ff 0x000fe200
0xff057224 0x000000ff 0x018e0605 0x000fe200
0x0000781c 0x00000000 0x03f0e170 0x000fc400
0xff067210 0x00000006 0x00fe44ff 0x000fca00
0x00027941 0x00000000 0x03800000 0x000fea00
0x0800720c 0x00000003 0x00701670 0x000fd800
0x00008947 0x00000100 0x03800000 0x000fea00
0x040b7381 0x00000000 0x001ee900 0x000ea800
0x04087381 0x00040000 0x001ee900 0x000ee800
0x040a7381 0x000c0000 0x001ee900 0x000f2800
0x04097381 0x00080000 0x001ee900 0x000f6200
0x0b00720b 0x000000ff 0x03f0d000 0x004fc400
0x0800720b 0x000000ff 0x03f2d000 0x008fe400
0xff0b7807 0x00000001 0x04000000 0x000fe400
0x0a00720b 0x000000ff 0x03f6d000 0x010fe400
0xff0a7807 0x00000001 0x04800000 0x000fe400
0x0900720b 0x000000ff 0x03f4d000 0x020fe400
0xff087807 0x00000001 0x05800000 0x000fc400
0xff097807 0x00000001 0x05000000 0x000fe400
0x0a077210 0x00000007 0x0791e00b 0x000fc800
0x08077210 0x00000007 0x07b5e009 0x000fe400
0xff067210 0x00000006 0x007e24ff 0x000fc800
0xff067210 0x00000006 0x017e64ff 0x000fc600
0x00017941 0x00000000 0x03800000 0x000fea00
0x00047919 0x00000000 0x00000000 0x000e2200
0x0300780c 0x000000ff 0x03f04270 0x000fe400
0xff057819 0x0000001f 0x00011402 0x000fc800
0x05057211 0x00000002 0x078f28ff 0x000fc800
0xff057819 0x00000005 0x00011405 0x000fca00
0x05087824 0x00000008 0x078e00ff 0x000fe200
0x00000947 0x00000540 0x03800000 0x000fea00
0x05057824 0x00000020 0x078e00ff 0x000fe200
0x0400720c 0x000000ff 0x03f45270 0x001fc800
0xff0c7212 0x00000005 0x078e33ff 0x000fe400
0x050a7810 0x00000020 0x07ffe0ff 0x000fc600
0x030c7824 0x00000001 0x078e020c 0x000fe200
0x0a00720c 0x00000003 0x03f04270 0x000fc800
0x0c097807 0x0000001f 0x00000000 0x000fe400
0x040c7810 0x00000002 0x07ffe0ff 0x040fe400
0x0400720c 0x00000009 0x03f06270 0x000fc800
0x07057989 0x08200000 0x000e0009 0x000e2800
0x060a7989 0x08200000 0x000e0009 0x000e6200
0x050e7207 0x000000ff 0x04000000 0x001fc800
0x070e7210 0x0000000e 0x07f3e0ff 0x000fe400
0x0a057207 0x000000ff 0x04000000 0x002fe400
0x0c00720c 0x00000009 0x03f04270 0x000fc600
0x06107824 0x00000001 0x008e0605 0x000fc600
0x0e057989 0x08400000 0x000e0009 0x000e2a00
0x100a7989 0x08400000 0x000e0009 0x000e6200
0x05057207 0x000000ff 0x04000000 0x001fc800
0x050c7210 0x0000000e 0x07f3e0ff 0x000fe400
0x0a077207 0x000000ff 0x04000000 0x002fe400
0x040a7810 0x00000004 0x07ffe0ff 0x000fc600
0x07077824 0x00000001 0x008e0610 0x000fe200
0x0c057989 0x08800000 0x000e0009 0x000e2200
0x0a00720c 0x00000009 0x03f04270 0x000fe400
0x040a7810 0x00000008 0x07ffe0ff 0x000fc800
0x07067989 0x08800000 0x000e0009 0x000e6200
0x05057207 0x000000ff 0x04000000 0x001fc800
0x050e7210 0x0000000c 0x07f3e0ff 0x000fe400
0x06067207 0x000000ff 0x04000000 0x002fe400
0x0a00720c 0x00000009 0x03f04270 0x000fe400
0x040a7810 0x00000010 0x07ffe0ff 0x000fe200
0x060b7824 0x00000001 0x008e0607 0x000fe200
0x0e057989 0x09000000 0x000e0009 0x000e2e00
0x0b067989 0x09000000 0x000e0009 0x000e6200
0x05057207 0x000000ff 0x04000000 0x001fc800
0x050c7210 0x0000000e 0x07f3e0ff 0x000fe400
0x06067207 0x000000ff 0x04000000 0x002fe400
0x0a00720c 0x00000009 0x03f04270 0x000fc600
0x06077824 0x00000001 0x008e060b 0x000fe200
0x0c057989 0x0a000000 0x000e0009 0x000e2e00
0x07067989 0x0a000000 0x000e0009 0x000e6200
0x05057207 0x000000ff 0x04000000 0x001fc800
0x05047210 0x0000000c 0x07f3e0ff 0x000fe400
0x06067207 0x000000ff 0x04000000 0x002fe400
0x0200720c 0x000000ff 0x03f05270 0x000fc600
0x06057824 0x00000001 0x008e0607 0x000fd000
0x0800a388 0x00000804 0x00000a00 0x000fe800
0x00007b1d 0x00000000 0x00000000 0x000fea00
0x00000947 0x00000570 0x03800000 0x000fea00
0xff107984 0x00001000 0x00001c00 0x000e2200
0x0300780c 0x00000020 0x03f04270 0x000fc400
0x0300780c 0x00000040 0x03f24270 0x000fca00
0xff0c7984 0x00002000 0x00001c00 0x000e7000
0xff087984 0x00003000 0x00001c00 0x000ea200
0x10027207 0x000000ff 0x00000000 0x001fe400
0x12077207 0x000000ff 0x00800000 0x000fc400
0x11107207 0x000000ff 0x00000000 0x000fe400
0x13127207 0x000000ff 0x00800000 0x000fe400
0x07047210 0x00000004 0x07b5e002 0x000fe400
0x0300780c 0x00000060 0x03f04270 0x040fe400
0x0300780c 0x00000080 0x03f24270 0x000fe400
0x12077210 0x00000005 0x017e6410 0x000fc400
0x0300780c 0x000000e1 0x03f46270 0x000fe400
0x0c057207 0x000000ff 0x00000000 0x002fe400
0x0d0d7207 0x000000ff 0x00000000 0x000fe400
0x0e027207 0x000000ff 0x00800000 0x000fe400
0x0f067207 0x000000ff 0x00800000 0x000fe400
0x0300780c 0x000000a0 0x03f04270 0x000fc400
0x0300780c 0x000000c0 0x03f24270 0x000fe400
0x02027210 0x00000004 0x07c7e005 0x000fe400
0x08037207 0x000000ff 0x00000000 0x004fe400
0x0a047207 0x000000ff 0x00800000 0x000fe400
0x09087207 0x000000ff 0x00000000 0x000fe400
0x0b057207 0x000000ff 0x00800000 0x000fc400
0x06067210 0x00000007 0x01fe840d 0x000fe400
0x04047210 0x00000002 0x0791e003 0x000fe200
0xff027224 0x000000ff 0x078e00ff 0x000fc600
0x05057210 0x00000006 0x007e2408 0x000fe200
0x0000a947 0x00000390 0x03800000 0x000fea00
0xff067984 0x00004000 0x00001a00 0x000e2400
0x06047210 0x00000004 0x07f1e0ff 0x001fca00
0x07057824 0x00000001 0x000e0605 0x000fe200
0x00007947 0x00000350 0x03800000 0x000fea00
0x07037f89 0x08201f00 0x000e0000 0x000e6200
0x0400780c 0x0000001e 0x03f24270 0x041fe400
0x0400720c 0x000000ff 0x03f45270 0x000fe200
0x06057f89 0x08201f00 0x000e0000 0x000e2200
0x030c7207 0x000000ff 0x04800000 0x002fc800
0x070c7210 0x0000000c 0x07f1e0ff 0x000fe400
0x05057207 0x000000ff 0x04800000 0x001fe400
0x0400780c 0x0000001d 0x03f24270 0x000fc600
0x060e7824 0x00000001 0x000e0605 0x000fe200
0x0c037f89 0x08401f00 0x000e0000 0x000e2e00
0x0e057f89 0x08401f00 0x000e0000 0x000e6200
0x03037207 0x000000ff 0x04800000 0x001fc800
0x030a7210 0x0000000c 0x07f1e0ff 0x000fe400
0x05057207 0x000000ff 0x04800000 0x002fe400
0x0400780c 0x0000001b 0x03f24270 0x000fc600
0x05107824 0x00000001 0x000e060e 0x000fe200
0x0a037f89 0x08801f00 0x000e0000 0x000e2e00
0x10057f89 0x08801f00 0x000e0000 0x000e6200
0x03037207 0x000000ff 0x04800000 0x001fc800
0x030c7210 0x0000000a 0x07f1e0ff 0x000fe400
0x05057207 0x000000ff 0x04800000 0x002fe400
0x0400780c 0x00000017 0x03f24270 0x000fc600
0x050e7824 0x00000001 0x000e0610 0x000fe200
0x0c037f89 0x09001f00 0x000e0000 0x000e2e00
0x0e057f89 0x09001f00 0x000e0000 0x000e6200
0x03037207 0x000000ff 0x04800000 0x001fc800
0x03067210 0x0000000c 0x07f1e0ff 0x000fe400
0x05057207 0x000000ff 0x04800000 0x002fe400
0x0400780c 0x0000000f 0x03f24270 0x000fc600
0x050a7824 0x00000001 0x000e060e 0x000fe200
0x06037f89 0x0a001f00 0x000e0000 0x000e2e00
0x0a057f89 0x0a001f00 0x000e0000 0x000e6200
0x03037207 0x000000ff 0x04800000 0x001fc800
0x03047210 0x00000006 0x07f1e0ff 0x000fe400
0x05057207 0x000000ff 0x04800000 0x002fca00
0x05057824 0x00000001 0x000e060a 0x000fe200
0x0200720c 0x000000ff 0x03f05270 0x000fce00
0x0800a388 0x00000804 0x00000a00 0x000fe800
0x00007b1d 0x00000000 0x00000000 0x000fea00
0x00000947 0x000000d0 0x03800000 0x000fea00
0xff087984 0x00001000 0x00001c00 0x000e3000
0xff0c7984 0x00002000 0x00001c00 0x000e7000
0xff107984 0x00003000 0x00001c00 0x000eb000
0xff027984 0x00004000 0x00001a00 0x000ee200
0x0a077210 0x00000008 0x0791e004 0x001fc800
0x0b097210 0x00000009 0x007e2405 0x000fe400
0x0e057210 0x00000007 0x0791e00c 0x002fc800
0x0f0d7210 0x00000009 0x007e240d 0x000fe400
0x12057210 0x00000005 0x0791e010 0x004fc800
0x13117210 0x0000000d 0x007e2411 0x000fe400
0x02047210 0x00000005 0x07f1e0ff 0x008fe200
0xff027224 0x000000ff 0x078e00ff 0x000fc800
0x03057824 0x00000001 0x000e0611 0x000fc600
0x00007941 0x00000000 0x03800000 0x000fea00
0x0200720c 0x000000ff 0x03f05270 0x000fd800
0x0000094d 0x00000000 0x03800000 0x000fea00
0xff037424 0x00000008 0x078e00ff 0x000fc800
0x00027625 0x00005c00 0x078e0003 0x000fd000
0x02007386 0x00000004 0x0010eb00 0x000fe200
0x0000794d 0x00000000 0x03800000 0x000fea00
0x00007947 0xfffffff0 0x0383ffff 0x000fc000
0x00007918 0x00000000 0x00000000 0x000fc000
0x00007918 0x00000000 0x00000000 0x000fc000
0x00007918 0x00000000 0x00000000 0x000fc000



.text._ZN3cub17CUB_200400_750_NS28DeviceReduceSingleTileKernelINS0_18DeviceReducePolicyIlyN4cuda3std3__44plusIvEEE9Policy600ENS0_22TransformInputIteratorIb7NonZeroIfEPflEEPlyS7_llNS5_10__identityEEEvT0_T1_T2_T3_T4_T6_
bar = 1	reg = 27	lmem=0	smem=80
0xff017624 0x00000a00 0x078e00ff 0x000fe400
0xff007a0c 0x00005e00 0x03f05070 0x000fc800
0xff007a0c 0x00005f00 0x03f05300 0x000fd800
0x00008947 0x00002a00 0x03800000 0x000fea00
0xff027624 0x00005e00 0x078e00ff 0x000fe200
0x00ff7355 0x00000000 0x00100000 0x000fe200
0xff137624 0x00005f00 0x078e00ff 0x000fe200
0x00007945 0x00002950 0x03800000 0x000fe400
0x0200780c 0x00000800 0x03f06070 0x000fc800
0x1300720c 0x000000ff 0x03f06100 0x000fd800
0x00008947 0x00001480 0x03800000 0x000fea00
0x00007919 0x00000000 0x00002100 0x000e2200
0xff097424 0x00000004 0x078e00ff 0x000fc800
0x00087625 0x00005a00 0x078e0209 0x001fd000
0x080c7381 0x00000000 0x001ee900 0x000ea800
0x08037381 0x00040000 0x001ee900 0x000ee800
0x08047381 0x00080000 0x001ee900 0x000f2800
0x08057381 0x000c0000 0x001ee900 0x000f6800
0x08067381 0x00100000 0x001ee900 0x000f6800
0x08077381 0x00140000 0x001ee900 0x000f6800
0x080a7381 0x00180000 0x001ee900 0x000f6800
0x080b7381 0x001c0000 0x001ee900 0x000f6200
0xff117424 0x00000800 0x078e00ff 0x000fc400
0xff127224 0x000000ff 0x078e00ff 0x000fe200
0x0c00720b 0x000000ff 0x03f0d000 0x004fe400
0x0300720b 0x000000ff 0x03f2d000 0x008fe400
0xff0c7807 0x00000001 0x04000000 0x000fe400
0x0400720b 0x000000ff 0x03f4d000 0x010fe400
0xff047807 0x00000001 0x04800000 0x000fe400
0xff037807 0x00000001 0x05000000 0x000fc400
0x0500720b 0x000000ff 0x03f0d000 0x020fe400
0x0600720b 0x000000ff 0x03f6d000 0x000fe400
0x03037210 0x00000004 0x07a3e00c 0x000fe400
0xff057807 0x00000001 0x04000000 0x000fe400
0xff047807 0x00000001 0x05800000 0x000fe400
0x0700720b 0x000000ff 0x03f0d000 0x000fc400
0x04077210 0x00000003 0x07c7e005 0x000fe400
0xff037807 0x00000001 0x04000000 0x000fe400
0x02147810 0xfffff800 0x07f1e0ff 0x000fe400
0x0a00720b 0x000000ff 0x03fad000 0x000fe400
0x13137810 0xffffffff 0x007fe4ff 0x000fe400
0x1400780c 0x00000800 0x03f06070 0x000fc400
0xff067807 0x00000001 0x06800000 0x000fe400
0x1300720c 0x000000ff 0x03f06100 0x000fe400
0x0b00720b 0x000000ff 0x03fad000 0x000fe400
0xff047210 0x000000ff 0x00fe44ff 0x000fe400
0x06077210 0x00000007 0x07a3e003 0x000fe400
0xff027807 0x00000001 0x06800000 0x000fc400
0xff047210 0x00000004 0x01fe84ff 0x000fe400
0x07077210 0x00000002 0x07f7e0ff 0x000fe400
0xff047210 0x00000004 0x00fe44ff 0x000fca00
0xff047224 0x000000ff 0x018e0604 0x000fe200
0x00008947 0x000002e0 0x03800000 0x000fea00
0xff117424 0x00000800 0x078e00ff 0x000fe400
0xff127224 0x000000ff 0x078e00ff 0x000fc600
0x11027211 0x00000008 0x078010ff 0x000fc800
0x11037211 0x00000009 0x000f1412 0x000fd000
0x020f7381 0x00000000 0x001ee900 0x000ea800
0x02057381 0x00040000 0x001ee900 0x000ee800
0x02067381 0x00080000 0x001ee900 0x000f2800
0x020a7381 0x000c0000 0x001ee900 0x000f6800
0x020b7381 0x00100000 0x001ee900 0x00016800
0x020c7381 0x00140000 0x001ee900 0x00016800
0x020d7381 0x00180000 0x001ee900 0x00016800
0x020e7381 0x001c0000 0x001ee900 0x00016200
0x0f00720b 0x000000ff 0x03f0d000 0x004fc400
0x0500720b 0x000000ff 0x03f2d000 0x008fe400
0xff0f7807 0x00000001 0x04000000 0x000fe400
0x0600720b 0x000000ff 0x03fad000 0x010fe400
0xff107807 0x00000001 0x04800000 0x000fe400
0x0a00720b 0x000000ff 0x03fcd000 0x020fe400
0x11057a10 0x00005e00 0x07f7e1ff 0x000fc400
0xff037807 0x00000001 0x06800000 0x001fe400
0x0b00720b 0x000000ff 0x03f8d000 0x000fe400
0x0c00720b 0x000000ff 0x03fad000 0x000fe400
0x10077210 0x00000007 0x0795e00f 0x000fe400
0xff067807 0x00000001 0x07000000 0x000fe400
0x0500780c 0x00000800 0x03f06070 0x000fc400
0xff057807 0x00000001 0x06000000 0x000fe400
0xff027807 0x00000001 0x06800000 0x000fe400
0x06077210 0x00000007 0x07d9e003 0x000fe400
0xff047210 0x00000004 0x017e24ff 0x000fe400
0x02077210 0x00000007 0x07a3e005 0x000fe400
0x12057a10 0x00005f00 0x01ffe5ff 0x000fc400
0x0d00720b 0x000000ff 0x03fcd000 0x000fe400
0x0500720c 0x000000ff 0x03f06100 0x000fe400
0xff037807 0x00000001 0x07000000 0x000fe400
0x0e00720b 0x000000ff 0x03fcd000 0x000fe400
0xff047210 0x00000004 0x027ea4ff 0x000fe400
0xff027807 0x00000001 0x07000000 0x000fc400
0xff047210 0x00000004 0x00fe44ff 0x000fe400
0x02077210 0x00000007 0x07c7e003 0x000fc800
0xff047210 0x00000004 0x01fe84ff 0x000fe200
0x00008947 0x00000b90 0x03800000 0x000fea00
0x11117810 0x00000800 0x07f1e0ff 0x000fca00
0xff127224 0x000000ff 0x000e0612 0x000fe200
0x1100720c 0x00000014 0x03f04070 0x000fc800
0x1200720c 0x00000013 0x03f04100 0x000fd800
0x00008947 0xfffffd40 0x0383ffff 0x000fea00
0x11007a0c 0x00005e00 0x03f06070 0x000fc800
0x12007a0c 0x00005f00 0x03f06100 0x000fd800
0x00000947 0x00000b10 0x03800000 0x000fea00
0x00057919 0x00000000 0x00002100 0x000e2200
0x11067a10 0x00005e00 0x07ffe1ff 0x000fe200
0x01ff7355 0x00000000 0x00100000 0x000fe200
0x00017945 0x00000ad0 0x03800000 0x000fe400
0x0500720c 0x00000006 0x03f06270 0x001fd800
0x00000947 0x00000aa0 0x03800000 0x000fea00
0xff027212 0x00000005 0x078e33ff 0x000fe200
0x02ff7355 0x00000000 0x00100000 0x000fe200
0x00027945 0x00000180 0x03800000 0x000fe400
0x11037a10 0x00005e00 0x07ffe102 0x000fc800
0x03027811 0x00000001 0x078fc0ff 0x040fe400
0x0300780c 0x00000300 0x03f06070 0x000fe400
0x02027812 0x00000003 0x0782c0ff 0x000fd800
0x00009947 0x00000120 0x03800000 0x000fea00
0x050c7210 0x00000011 0x07f3e0ff 0x000fe200
0xff087224 0x000000ff 0x078e0002 0x000fc600
0x05037211 0x00000012 0x008f0eff 0x000fe400
0x0c097a11 0x00005a00 0x078210ff 0x000fc800
0x0c0c7a11 0x00005b00 0x008f1403 0x000fc600
0xff027224 0x000000ff 0x078e0009 0x000fe400
0xff037224 0x000000ff 0x078e000c 0x000fd000
0x02027381 0x00000000 0x001ee900 0x000ea200
0x08087810 0xffffffff 0x07ffe0ff 0x000fe400
0x09097810 0x00000400 0x07f7e0ff 0x000fe400
0x05057810 0x00000100 0x07ffe0ff 0x000fc600
0xff0c7224 0x000000ff 0x018e060c 0x000fe200
0x0200720b 0x000000ff 0x03f2d000 0x004fc800
0xff0a7807 0x00000001 0x04800000 0x000fe400
0x0800720c 0x000000ff 0x03f25270 0x000fe400
0x07077210 0x0000000a 0x07f5e0ff 0x000fca00
0xff047224 0x000000ff 0x010e0604 0x000fca00
0x00001947 0xffffff30 0x0383ffff 0x000fea00
0x00027941 0x00000000 0x03800000 0x000fea00
0x00008947 0x000008e0 0x03800000 0x000fea00
0x06097824 0x00000001 0x078e0a05 0x000fe200
0x05037210 0x00000011 0x07f1e0ff 0x000fe200
0x02ff7355 0x00000000 0x00100000 0x000fe200
0x00027945 0x000004e0 0x03800000 0x000fe400
0x0900780c 0x00000c00 0x03f24270 0x000fe400
0x05087211 0x00000012 0x000f0eff 0x000fe400
0x03027a11 0x00005a00 0x078010ff 0x000fc800
0x03037a11 0x00005b00 0x000f1408 0x000fe400
0x0000781c 0x00000000 0x03f0f070 0x000fe400
0x00009947 0x00000470 0x03800000 0x000fea00
0x0000781c 0x00000000 0x03f0e170 0x000fe400
0x06187810 0xfffff400 0x07ffe0ff 0x000fc600
0x02177381 0x00040000 0x001ee900 0x000ea800
0x02087381 0x00000000 0x001ee900 0x000ee800
0x02097381 0x00080000 0x001ee900 0x000f2800
0x020a7381 0x000c0000 0x001ee900 0x000f6800
0x020b7381 0x00100000 0x001ee900 0x000f6800
0x020c7381 0x00140000 0x001ee900 0x000f6800
0x020d7381 0x00180000 0x001ee900 0x000f6800
0x020e7381 0x001c0000 0x001ee900 0x000f6800
0x020f7381 0x00200000 0x001ee900 0x000f6800
0x02107381 0x00240000 0x001ee900 0x000f6800
0x02117381 0x00280000 0x001ee900 0x000f6800
0x02127381 0x002c0000 0x001ee900 0x000f6800
0x02137381 0x00300000 0x001ee900 0x000f6800
0x02147381 0x00340000 0x001ee900 0x000f6800
0x02167381 0x003c0000 0x001ee900 0x000f6800
0x02157381 0x00380000 0x001ee900 0x000f6200
0x05057810 0x00001000 0x07ffe0ff 0x000fc400
0x1700720b 0x000000ff 0x03f4d000 0x004fe400
0x0800720b 0x000000ff 0x03f2d000 0x008fe400
0xff087807 0x00000001 0x05000000 0x000fe400
0xff177807 0x00000001 0x04800000 0x000fe400
0x0900720b 0x000000ff 0x03f2d000 0x010fe400
0x0a00720b 0x000000ff 0x03f4d000 0x020fc400
0x08077210 0x00000007 0x07ebe017 0x000fe400
0xff087807 0x00000001 0x04800000 0x000fe400
0xff097807 0x00000001 0x05000000 0x000fe400
0x0b00720b 0x000000ff 0x03f2d000 0x000fe400
0x0c00720b 0x000000ff 0x03f8d000 0x000fe400
0x09097210 0x00000007 0x07b5e008 0x000fc400
0xff077807 0x00000001 0x04800000 0x000fe400
0xff087807 0x00000001 0x06000000 0x000fe400
0x0d00720b 0x000000ff 0x03f2d000 0x000fe400
0x0e00720b 0x000000ff 0x03f8d000 0x000fe400
0xff0a7210 0x00000004 0x02fec4ff 0x000fe400
0x08087210 0x00000009 0x07dde007 0x000fc400
0xff077807 0x00000001 0x04800000 0x000fe400
0xff047807 0x00000001 0x06000000 0x000fe400
0x0f00720b 0x000000ff 0x03f2d000 0x000fe400
0x1000720b 0x000000ff 0x03f8d000 0x000fe400
0xff097210 0x0000000a 0x017e64ff 0x000fe400
0x04047210 0x00000008 0x07b5e007 0x000fc400
0xff077807 0x00000001 0x04800000 0x000fe400
0xff087807 0x00000001 0x06000000 0x000fe400
0x1100720b 0x000000ff 0x03f2d000 0x000fe400
0x1200720b 0x000000ff 0x03f8d000 0x000fe400
0xff097210 0x00000009 0x037ea4ff 0x000fe400
0x08087210 0x00000004 0x07dde007 0x000fc400
0xff077807 0x00000001 0x04800000 0x000fe400
0xff047807 0x00000001 0x06000000 0x000fe400
0x1300720b 0x000000ff 0x03f8d000 0x000fe400
0x1400720b 0x000000ff 0x03f2d000 0x000fe400
0xff097210 0x00000009 0x017e64ff 0x000fe400
0x04047210 0x00000008 0x07b5e007 0x000fc400
0xff077807 0x00000001 0x06000000 0x000fe400
0xff087807 0x00000001 0x04800000 0x000fe400
0x1600720b 0x000000ff 0x03f2d000 0x000fe400
0xff097210 0x00000009 0x037ea4ff 0x000fe400
0x08087210 0x00000004 0x07ebe007 0x000fe400
0xff077807 0x00000001 0x04800000 0x000fc400
0x0500720c 0x00000018 0x03f26270 0x000fe400
0x1500720b 0x000000ff 0x03f8d000 0x000fe400
0xff097210 0x00000009 0x017e64ff 0x000fe400
0xff047807 0x00000001 0x06000000 0x000fe400
0x02027810 0x00004000 0x07f9e0ff 0x000fe400
0x07077210 0x00000008 0x07b5e004 0x000fc400
0xff047210 0x00000009 0x02fec4ff 0x000fe200
0xff037224 0x000000ff 0x020e0603 0x000fc600
0xff047210 0x00000004 0x017e64ff 0x000fe200
0x00009947 0xfffffbb0 0x0383ffff 0x000fea00
0x00027941 0x00000000 0x03800000 0x000fea00
0x06087824 0x00000001 0x078e0a05 0x000fe200
0x02ff7355 0x00000000 0x00100000 0x000fe200
0x00027945 0x00000270 0x03800000 0x000fe600
0x0800780c 0x00000400 0x03f24270 0x000fd800
0x00009947 0x00000240 0x03800000 0x000fea00
0x020f7381 0x00000000 0x001ee900 0x000ea800
0x02087381 0x00040000 0x001ee900 0x000ee800
0x02097381 0x00080000 0x001ee900 0x000f2800
0x020a7381 0x000c0000 0x001ee900 0x000f6800
0x020b7381 0x00100000 0x001ee900 0x000f6800
0x020c7381 0x00140000 0x001ee900 0x000f6800
0x020d7381 0x00180000 0x001ee900 0x000f6800
0x020e7381 0x001c0000 0x001ee900 0x000f6200
0x05057810 0x00000800 0x07ffe0ff 0x000fc400
0x0f00720b 0x000000ff 0x03f0d000 0x004fe400
0x0800720b 0x000000ff 0x03f2d000 0x008fe400
0xff0f7807 0x00000001 0x04000000 0x000fe400
0xff087807 0x00000001 0x04800000 0x000fe400
0x0900720b 0x000000ff 0x03f0d000 0x010fe400
0x0a00720b 0x000000ff 0x03f2d000 0x020fc400
0x08077210 0x00000007 0x07d9e00f 0x000fe400
0xff087807 0x00000001 0x04000000 0x000fe400
0xff097807 0x00000001 0x04800000 0x000fe400
0x0b00720b 0x000000ff 0x03f4d000 0x000fe400
0x0c00720b 0x000000ff 0x03f6d000 0x000fe400
0x09097210 0x00000007 0x0791e008 0x000fc400
0xff077807 0x00000001 0x05000000 0x000fe400
0xff087807 0x00000001 0x05800000 0x000fe400
0x0d00720b 0x000000ff 0x03f6d000 0x000fe400
0x0e00720b 0x000000ff 0x03f4d000 0x000fe400
0xff0a7210 0x00000004 0x027ea4ff 0x000fe400
0x08087210 0x00000009 0x07cbe007 0x000fc400
0xff047807 0x00000001 0x05800000 0x000fe400
0xff077807 0x00000001 0x05000000 0x000fe400
0xff097210 0x0000000a 0x007e24ff 0x000fe400
0x02027810 0x00002000 0x07f7e0ff 0x000fe400
0x07077210 0x00000008 0x07a3e004 0x000fe400
0xff047210 0x00000009 0x02fe84ff 0x000fe200
0xff037224 0x000000ff 0x018e0603 0x000fe200
0x0000781c 0x00000000 0x03f0e170 0x000fc400
0xff047210 0x00000004 0x00fe44ff 0x000fca00
0x00027941 0x00000000 0x03800000 0x000fea00
0x0500720c 0x00000006 0x00701670 0x000fd800
0x00008947 0x00000100 0x03800000 0x000fea00
0x02097381 0x00000000 0x001ee900 0x000ea800
0x02057381 0x00040000 0x001ee900 0x000ee800
0x02087381 0x000c0000 0x001ee900 0x000f2800
0x02067381 0x00080000 0x001ee900 0x000f6200
0x0900720b 0x000000ff 0x03f0d000 0x004fc400
0x0500720b 0x000000ff 0x03f2d000 0x008fe400
0xff097807 0x00000001 0x04000000 0x000fe400
0x0800720b 0x000000ff 0x03f6d000 0x010fe400
0xff087807 0x00000001 0x04800000 0x000fe400
0x0600720b 0x000000ff 0x03f4d000 0x020fe400
0xff057807 0x00000001 0x05800000 0x000fc400
0xff067807 0x00000001 0x05000000 0x000fe400
0x08077210 0x00000007 0x0791e009 0x000fc800
0x05077210 0x00000007 0x07b5e006 0x000fe400
0xff047210 0x00000004 0x007e24ff 0x000fc800
0xff047210 0x00000004 0x017e64ff 0x000fc600
0x00017941 0x00000000 0x03800000 0x000fea00
0x00097919 0x00000000 0x00000000 0x000e2800
0x07027f89 0x08201f00 0x000e0000 0x000e6800
0x04037f89 0x08201f00 0x000e0000 0x000ea200
0x0900780c 0x0000001e 0x03f04270 0x001fc800
0x02027207 0x000000ff 0x04000000 0x002fc800
0x07057210 0x00000002 0x07f3e0ff 0x000fe400
0x03037207 0x000000ff 0x04000000 0x004fe400
0x0900780c 0x0000001d 0x03f04270 0x000fc600
0x04067824 0x00000001 0x008e0603 0x000fe200
0x05027f89 0x08401f00 0x000e0000 0x000e2e00
0x06037f89 0x08401f00 0x000e0000 0x000e6200
0x02027207 0x000000ff 0x04000000 0x001fc800
0x02077210 0x00000005 0x07f3e0ff 0x000fe400
0x03037207 0x000000ff 0x04000000 0x002fe400
0x0900780c 0x0000001b 0x03f04270 0x000fc600
0x03047824 0x00000001 0x008e0606 0x000fe200
0x07027f89 0x08801f00 0x000e0000 0x000e2e00
0x04037f89 0x08801f00 0x000e0000 0x000e6200
0x02027207 0x000000ff 0x04000000 0x001fc800
0x02057210 0x00000007 0x07f3e0ff 0x000fe400
0x03037207 0x000000ff 0x04000000 0x002fe400
0x0900780c 0x00000017 0x03f04270 0x000fc600
0x030a7824 0x00000001 0x008e0604 0x000fe200
0x05027f89 0x09001f00 0x000e0000 0x000e2200
0x0900720c 0x000000ff 0x03f25270 0x000fcc00
0x0a037f89 0x09001f00 0x000e0000 0x000e6c00
0x00079919 0x00000000 0x00002100 0x000ea200
0x02027207 0x000000ff 0x04000000 0x001fc800
0x02067210 0x00000005 0x07f5e0ff 0x000fe400
0x03037207 0x000000ff 0x04000000 0x002fe400
0x0900780c 0x0000000f 0x03f04270 0x000fc600
0x03087824 0x00000001 0x010e060a 0x000fe200
0x06027f89 0x0a001f00 0x000e0000 0x000e2200
0xff049819 0x0000001f 0x00011407 0x004fc800
0x04049211 0x00000007 0x078f28ff 0x000fe400
0x08037f89 0x0a001f00 0x000e0000 0x000e6200
0x02057207 0x000000ff 0x04000000 0x001fe400
0xff029819 0x00000005 0x00011404 0x000fe400
0x05047210 0x00000006 0x07f5e0ff 0x000fe400
0x03057207 0x000000ff 0x04000000 0x002fe200
0x02039824 0x00000008 0x078e00ff 0x000fe200
0x0000720c 0x000000ff 0x03f05270 0x000fc600
0x05057824 0x00000001 0x010e0608 0x000fd000
0x03009388 0x00000804 0x00000a00 0x000fe800
0x00007b1d 0x00000000 0x00000000 0x000fea00
0x00000947 0x00001570 0x03800000 0x000fea00
0xff087984 0x00001000 0x00001c00 0x000e2200
0xff007224 0x000000ff 0x078e00ff 0x000fce00
0xff0c7984 0x00002000 0x00001c00 0x000e7000
0xff107984 0x00003000 0x00001c00 0x000eb000
0xff027984 0x00004000 0x00001a00 0x000ee200
0x0a077210 0x00000008 0x0791e004 0x001fc800
0x0b097210 0x00000009 0x007e2405 0x000fe400
0x0e057210 0x00000007 0x0791e00c 0x002fc800
0x0f0d7210 0x00000009 0x007e240d 0x000fe400
0x12057210 0x00000005 0x0791e010 0x004fc800
0x13117210 0x0000000d 0x007e2411 0x000fe400
0x02047210 0x00000005 0x07f1e0ff 0x008fca00
0x03057824 0x00000001 0x000e0611 0x000fe200
0x00007947 0x00001490 0x03800000 0x000fea00
0x00007919 0x00000000 0x00002100 0x000e2200
0x01ff7355 0x00000000 0x00100000 0x000fe200
0x00017945 0x000000d0 0x03800000 0x000fe200
0xff067224 0x000000ff 0x078e00ff 0x000fe400
0xff037224 0x000000ff 0x078e00ff 0x000fe200
0x00007a0c 0x00005e00 0x03f06270 0x001fe200
0xff077224 0x000000ff 0x078e0000 0x000fd600
0x00000947 0x00000070 0x03800000 0x000fea00
0xff047424 0x00000004 0x078e00ff 0x000fc800
0x07047625 0x00005a00 0x078e0204 0x000fd000
0x04047381 0x00000000 0x001ee900 0x000ea200
0xff037224 0x000000ff 0x078e00ff 0x000fe200
0x07077810 0x00000100 0x07ffe0ff 0x000fe400
0x0400720b 0x000000ff 0x03f0d000 0x004fc800
0xff067807 0x00000001 0x04000000 0x000fc600
0x00017941 0x00000000 0x03800000 0x000fea00
0x07007a0c 0x00005e00 0x03f06270 0x000fe200
0x01ff7355 0x00000000 0x00100000 0x000fe200
0x00017945 0x00000a70 0x03800000 0x000ff400
0x00000947 0x00000a50 0x03800000 0x000fea00
0xff047212 0x00000007 0x078e33ff 0x000fe200
0x02ff7355 0x00000000 0x00100000 0x000fe200
0x00027945 0x00000130 0x03800000 0x000fe400
0x04057a10 0x00005e00 0x07ffe0ff 0x000fc800
0x05047811 0x00000001 0x078fc0ff 0x040fe400
0x0500780c 0x00000300 0x03f26070 0x000fe400
0x04087812 0x00000003 0x0780c0ff 0x000fd800
0x00008947 0x000000d0 0x03800000 0x000fea00
0xff047424 0x00000004 0x078e00ff 0x000fc800
0x07047625 0x00005a00 0x078e0204 0x000fd000
0x04097381 0x00000000 0x001ee900 0x0000a200
0x08087810 0xffffffff 0x07ffe0ff 0x000fe400
0x07077810 0x00000100 0x07ffe0ff 0x000fe400
0x04047810 0x00000400 0x07f7e0ff 0x001fca00
0xff057224 0x000000ff 0x018e0605 0x000fe200
0x0900720b 0x000000ff 0x03f0d000 0x004fc800
0xff097807 0x00000001 0x04000000 0x000fe400
0x0800720c 0x000000ff 0x03f05270 0x000fe400
0x06067210 0x00000009 0x07f5e0ff 0x000fca00
0xff037224 0x000000ff 0x010e0603 0x000fca00
0x00000947 0xffffff50 0x0383ffff 0x000fea00
0x00027941 0x00000000 0x03800000 0x000fea00
0x00009947 0x000008e0 0x03800000 0x000fea00
0x07087a10 0x00005e00 0x07ffe1ff 0x040fe200
0xff047424 0x00000004 0x078e00ff 0x000fe200
0x02ff7355 0x00000000 0x00100000 0x000fe200
0x00027945 0x000004e0 0x03800000 0x000fe200
0x0800780c 0x00000c00 0x03f24270 0x000fe200
0x07047625 0x00005a00 0x078e0204 0x000fca00
0x04047810 0x00000800 0x07f1e0ff 0x000fca00
0xff057224 0x000000ff 0x000e0605 0x000fe200
0x0000781c 0x00000000 0x03f0f070 0x000fe200
0x00009947 0x00000470 0x03800000 0x000fec00
0x0000781c 0x00000000 0x03f0e170 0x000fe400
0x02187810 0xfffff400 0x07ffe0ff 0x000fc600
0x04177381 0xfffc0000 0x001ee900 0x000ea800
0x04087381 0xfff80000 0x001ee900 0x000ee800
0x04097381 0x00000000 0x001ee900 0x000f2800
0x040a7381 0x00040000 0x001ee900 0x000f6800
0x040b7381 0x00080000 0x001ee900 0x000f6800
0x040c7381 0x000c0000 0x001ee900 0x000f6800
0x040d7381 0x00100000 0x001ee900 0x000f6800
0x040e7381 0x00140000 0x001ee900 0x000f6800
0x040f7381 0x00180000 0x001ee900 0x000f6800
0x04107381 0x001c0000 0x001ee900 0x000f6800
0x04117381 0x00200000 0x001ee900 0x000f6800
0x04127381 0x00240000 0x001ee900 0x000f6800
0x04137381 0x00280000 0x001ee900 0x000f6800
0x04147381 0x002c0000 0x001ee900 0x000f6800
0x04167381 0x00340000 0x001ee900 0x000f6800
0x04157381 0x00300000 0x001ee900 0x000f6200
0x07077810 0x00001000 0x07ffe0ff 0x000fc400
0x1700720b 0x000000ff 0x03f4d000 0x004fe400
0x0800720b 0x000000ff 0x03f2d000 0x008fe400
0xff177807 0x00000001 0x05000000 0x000fe400
0xff087807 0x00000001 0x04800000 0x000fe400
0x0900720b 0x000000ff 0x03f2d000 0x010fe400
0x0a00720b 0x000000ff 0x03f4d000 0x020fc400
0x17087210 0x00000006 0x07ebe008 0x000fe400
0xff097807 0x00000001 0x04800000 0x000fe400
0xff067807 0x00000001 0x05000000 0x000fe400
0x0b00720b 0x000000ff 0x03f2d000 0x000fe400
0x0c00720b 0x000000ff 0x03f8d000 0x000fe400
0x06067210 0x00000008 0x07b5e009 0x000fc400
0xff097807 0x00000001 0x04800000 0x000fe400
0xff087807 0x00000001 0x06000000 0x000fe400
0x0d00720b 0x000000ff 0x03f2d000 0x000fe400
0x0e00720b 0x000000ff 0x03f8d000 0x000fe400
0xff0a7210 0x00000003 0x02fec4ff 0x000fe400
0x08087210 0x00000006 0x07dde009 0x000fc400
0xff037807 0x00000001 0x04800000 0x000fe400
0xff067807 0x00000001 0x06000000 0x000fe400
0x0f00720b 0x000000ff 0x03f2d000 0x000fe400
0x1000720b 0x000000ff 0x03f8d000 0x000fe400
0xff097210 0x0000000a 0x017e64ff 0x000fe400
0x06067210 0x00000008 0x07b5e003 0x000fc400
0xff037807 0x00000001 0x04800000 0x000fe400
0xff087807 0x00000001 0x06000000 0x000fe400
0x1100720b 0x000000ff 0x03f2d000 0x000fe400
0x1200720b 0x000000ff 0x03f8d000 0x000fe400
0xff097210 0x00000009 0x037ea4ff 0x000fe400
0x08087210 0x00000006 0x07dde003 0x000fc400
0xff037807 0x00000001 0x04800000 0x000fe400
0xff067807 0x00000001 0x06000000 0x000fe400
0x1300720b 0x000000ff 0x03f8d000 0x000fe400
0x1400720b 0x000000ff 0x03f2d000 0x000fe400
0xff097210 0x00000009 0x017e64ff 0x000fe400
0x06067210 0x00000008 0x07b5e003 0x000fc400
0xff037807 0x00000001 0x06000000 0x000fe400
0xff087807 0x00000001 0x04800000 0x000fe400
0x1600720b 0x000000ff 0x03f2d000 0x000fe400
0xff097210 0x00000009 0x037ea4ff 0x000fe400
0x08087210 0x00000006 0x07ebe003 0x000fe400
0xff067807 0x00000001 0x04800000 0x000fc400
0x0700720c 0x00000018 0x03f26270 0x000fe400
0x1500720b 0x000000ff 0x03f8d000 0x000fe400
0xff097210 0x00000009 0x017e64ff 0x000fe400
0xff037807 0x00000001 0x06000000 0x000fe400
0x04047810 0x00004000 0x07f9e0ff 0x000fe400
0x06067210 0x00000008 0x07b5e003 0x000fc400
0xff037210 0x00000009 0x02fec4ff 0x000fe200
0xff057224 0x000000ff 0x020e0605 0x000fc600
0xff037210 0x00000003 0x017e64ff 0x000fe200
0x00009947 0xfffffbb0 0x0383ffff 0x000fea00
0x00027941 0x00000000 0x03800000 0x000fea00
0x07087a10 0x00005e00 0x07ffe1ff 0x000fe200
0x02ff7355 0x00000000 0x00100000 0x000fe200
0x00027945 0x00000270 0x03800000 0x000fe400
0x0800780c 0x00000400 0x03f24270 0x000fd800
0x00009947 0x00000240 0x03800000 0x000fea00
0x040f7381 0xfff80000 0x001ee900 0x000ea800
0x04087381 0xfffc0000 0x001ee900 0x000ee800
0x04097381 0x00000000 0x001ee900 0x000f2800
0x040a7381 0x00040000 0x001ee900 0x000f6800
0x040b7381 0x00080000 0x001ee900 0x000f6800
0x040c7381 0x000c0000 0x001ee900 0x000f6800
0x040d7381 0x00100000 0x001ee900 0x000f6800
0x040e7381 0x00140000 0x001ee900 0x000f6200
0x07077810 0x00000800 0x07ffe0ff 0x000fc400
0x0f00720b 0x000000ff 0x03f0d000 0x004fe400
0x0800720b 0x000000ff 0x03f2d000 0x008fe400
0xff087807 0x00000001 0x04000000 0x000fe400
0xff0f7807 0x00000001 0x04800000 0x000fe400
0x0900720b 0x000000ff 0x03f0d000 0x010fe400
0x0a00720b 0x000000ff 0x03f2d000 0x020fc400
0x0f087210 0x00000006 0x07d9e008 0x000fe400
0xff097807 0x00000001 0x04000000 0x000fe400
0xff067807 0x00000001 0x04800000 0x000fe400
0x0b00720b 0x000000ff 0x03f4d000 0x000fe400
0x0c00720b 0x000000ff 0x03f6d000 0x000fe400
0x06067210 0x00000008 0x0791e009 0x000fc400
0xff097807 0x00000001 0x05000000 0x000fe400
0xff087807 0x00000001 0x05800000 0x000fe400
0x0d00720b 0x000000ff 0x03f6d000 0x000fe400
0x0e00720b 0x000000ff 0x03f4d000 0x000fe400
0xff0a7210 0x00000003 0x027ea4ff 0x000fe400
0x08087210 0x00000006 0x07cbe009 0x000fc400
0xff037807 0x00000001 0x05800000 0x000fe400
0xff067807 0x00000001 0x05000000 0x000fe400
0xff097210 0x0000000a 0x007e24ff 0x000fe400
0x04047810 0x00002000 0x07f7e0ff 0x000fe400
0x06067210 0x00000008 0x07a3e003 0x000fe400
0xff037210 0x00000009 0x02fe84ff 0x000fe200
0xff057224 0x000000ff 0x018e0605 0x000fe200
0x0000781c 0x00000000 0x03f0e170 0x000fc400
0xff037210 0x00000003 0x00fe44ff 0x000fca00
0x00027941 0x00000000 0x03800000 0x000fea00
0x07007a0c 0x00005e00 0x00701670 0x000fd800
0x00008947 0x00000100 0x03800000 0x000fea00
0x040a7381 0xfff80000 0x001ee900 0x000ea800
0x04077381 0xfffc0000 0x001ee900 0x000ee800
0x04097381 0x00040000 0x001ee900 0x000f2800
0x04087381 0x00000000 0x001ee900 0x000f6200
0x0a00720b 0x000000ff 0x03f0d000 0x004fc400
0x0700720b 0x000000ff 0x03f2d000 0x008fe400
0xff0a7807 0x00000001 0x04000000 0x000fe400
0x0900720b 0x000000ff 0x03f6d000 0x010fe400
0xff097807 0x00000001 0x04800000 0x000fe400
0x0800720b 0x000000ff 0x03f4d000 0x020fe400
0xff077807 0x00000001 0x05800000 0x000fc400
0xff087807 0x00000001 0x05000000 0x000fe400
0x09067210 0x00000006 0x0791e00a 0x000fc800
0x07067210 0x00000006 0x07b5e008 0x000fe400
0xff037210 0x00000003 0x007e24ff 0x000fc800
0xff037210 0x00000003 0x017e64ff 0x000fc600
0x00017941 0x00000000 0x03800000 0x000fea00
0x00047919 0x00000000 0x00000000 0x000e2200
0x0200780c 0x000000ff 0x03f04270 0x000fe400
0xff057819 0x0000001f 0x00011400 0x000fc800
0x05057211 0x00000000 0x078f28ff 0x000fc800
0xff077819 0x00000005 0x00011405 0x000fe400
0x00000947 0x00000540 0x03800000 0x000fea00
0x07057824 0x00000020 0x078e00ff 0x000fe200
0x040a7810 0x00000002 0x07ffe0ff 0x041fe400
0x0400720c 0x000000ff 0x03f45270 0x000fe400
0x05087810 0x00000020 0x07ffe0ff 0x000fe400
0xff057212 0x00000005 0x078e33ff 0x000fe400
0x08007a0c 0x00005e00 0x03f04270 0x000fc400
0x05057a10 0x00005e00 0x07ffe0ff 0x000fc800
0x05097807 0x0000001f 0x00000000 0x000fc800
0x0400720c 0x00000009 0x03f06270 0x000fc800
0x06057989 0x08200000 0x000e0009 0x000e2800
0x03087989 0x08200000 0x000e0009 0x000e6200
0x05057207 0x000000ff 0x04000000 0x001fc800
0x060c7210 0x00000005 0x07f3e0ff 0x000fe400
0x08087207 0x000000ff 0x04000000 0x002fe400
0x0a00720c 0x00000009 0x03f04270 0x000fe400
0x04067810 0x00000004 0x07ffe0ff 0x000fe200
0x030b7824 0x00000001 0x008e0608 0x000fe200
0x0c057989 0x08400000 0x000e0009 0x000e2e00
0x0b087989 0x08400000 0x000e0009 0x000e6200
0x05057207 0x000000ff 0x04000000 0x001fc800
0x050a7210 0x0000000c 0x07f3e0ff 0x000fe400
0x08087207 0x000000ff 0x04000000 0x002fe400
0x0600720c 0x00000009 0x03f04270 0x000fe400
0x04067810 0x00000008 0x07ffe0ff 0x000fe200
0x08087824 0x00000001 0x008e060b 0x000fe200
0x0a037989 0x08800000 0x000e0009 0x000e2e00
0x08057989 0x08800000 0x000e0009 0x000e6200
0x03037207 0x000000ff 0x04000000 0x001fc800
0x030c7210 0x0000000a 0x07f3e0ff 0x000fe400
0x05057207 0x000000ff 0x04000000 0x002fe400
0x0600720c 0x00000009 0x03f04270 0x000fe400
0x04067810 0x00000010 0x07ffe0ff 0x000fe200
0x050e7824 0x00000001 0x008e0608 0x000fe200
0x0c037989 0x09000000 0x000e0009 0x000e2e00
0x0e057989 0x09000000 0x000e0009 0x000e6200
0x03037207 0x000000ff 0x04000000 0x001fc800
0x03087210 0x0000000c 0x07f3e0ff 0x000fe400
0x05057207 0x000000ff 0x04000000 0x002fe400
0x0600720c 0x00000009 0x03f04270 0x000fc600
0x050a7824 0x00000001 0x008e060e 0x000fe200
0x08037989 0x0a000000 0x000e0009 0x000e2e00
0x0a057989 0x0a000000 0x000e0009 0x000e6200
0x03037207 0x000000ff 0x04000000 0x001fc800
0x03047210 0x00000008 0x07f3e0ff 0x000fe400
0x05057207 0x000000ff 0x04000000 0x002fe400
0x0000720c 0x000000ff 0x03f05270 0x000fc600
0x05057824 0x00000001 0x008e060a 0x000fd000
0x0700a388 0x00000804 0x00008a00 0x000fe800
0x00007b1d 0x00000000 0x00000000 0x000fea00
0x00000947 0x00000570 0x03800000 0x000fea00
0xff107984 0x00001000 0x00001c00 0x000e2200
0x0200780c 0x00000020 0x03f04270 0x000fc400
0x0200780c 0x00000040 0x03f24270 0x000fca00
0xff0c7984 0x00002000 0x00001c00 0x000e7000
0xff087984 0x00003000 0x00001c00 0x000ea200
0x10007207 0x000000ff 0x00000000 0x001fe400
0x12037207 0x000000ff 0x00800000 0x000fc400
0x11107207 0x000000ff 0x00000000 0x000fe400
0x13127207 0x000000ff 0x00800000 0x000fe400
0x03047210 0x00000004 0x07b5e000 0x000fe400
0x0200780c 0x00000060 0x03f04270 0x040fe400
0x0200780c 0x00000080 0x03f24270 0x000fe400
0x12057210 0x00000005 0x017e6410 0x000fc400
0x0c037207 0x000000ff 0x00000000 0x002fe400
0x0e007207 0x000000ff 0x00800000 0x000fe400
0x0200780c 0x000000e1 0x03f46270 0x040fe400
0x0d0d7207 0x000000ff 0x00000000 0x000fe400
0x0f0e7207 0x000000ff 0x00800000 0x000fe400
0x0200780c 0x000000a0 0x03f04270 0x000fc400
0x0200780c 0x000000c0 0x03f24270 0x000fe400
0x00007210 0x00000004 0x07c7e003 0x000fe400
0x08037207 0x000000ff 0x00000000 0x004fe400
0x0a047207 0x000000ff 0x00800000 0x000fe400
0x0e027210 0x00000005 0x01fe840d 0x000fe400
0x09087207 0x000000ff 0x00000000 0x000fc400
0x0b057207 0x000000ff 0x00800000 0x000fe400
0x04047210 0x00000000 0x0791e003 0x000fe200
0xff007224 0x000000ff 0x078e00ff 0x000fc600
0x05057210 0x00000002 0x007e2408 0x000fe200
0x0000a947 0x00000390 0x03800000 0x000fea00
0xff027984 0x00004000 0x00001a00 0x000e2400
0x02047210 0x00000004 0x07f1e0ff 0x001fca00
0x03057824 0x00000001 0x000e0605 0x000fe200
0x00007947 0x00000350 0x03800000 0x000fea00
0x06027f89 0x08201f00 0x000e0000 0x000e6200
0x0400780c 0x0000001e 0x03f24270 0x041fe400
0x0400720c 0x000000ff 0x03f45270 0x000fe200
0x03057f89 0x08201f00 0x000e0000 0x000e2200
0x020b7207 0x000000ff 0x04800000 0x002fc800
0x060b7210 0x0000000b 0x07f1e0ff 0x000fe400
0x05087207 0x000000ff 0x04800000 0x001fe400
0x0400780c 0x0000001d 0x03f24270 0x000fc600
0x03087824 0x00000001 0x000e0608 0x000fe200
0x0b027f89 0x08401f00 0x000e0000 0x000e2e00
0x08057f89 0x08401f00 0x000e0000 0x000e6200
0x02027207 0x000000ff 0x04800000 0x001fc800
0x02097210 0x0000000b 0x07f1e0ff 0x000fe400
0x05057207 0x000000ff 0x04800000 0x002fe400
0x0400780c 0x0000001b 0x03f24270 0x000fc600
0x05067824 0x00000001 0x000e0608 0x000fe200
0x09027f89 0x08801f00 0x000e0000 0x000e2e00
0x06037f89 0x08801f00 0x000e0000 0x000e6200
0x02027207 0x000000ff 0x04800000 0x001fc800
0x02057210 0x00000009 0x07f1e0ff 0x000fe400
0x03037207 0x000000ff 0x04800000 0x002fe400
0x0400780c 0x00000017 0x03f24270 0x000fc600
0x03087824 0x00000001 0x000e0606 0x000fe200
0x05027f89 0x09001f00 0x000e0000 0x000e2e00
0x08037f89 0x09001f00 0x000e0000 0x000e6200
0x02027207 0x000000ff 0x04800000 0x001fc800
0x02097210 0x00000005 0x07f1e0ff 0x000fe400
0x03037207 0x000000ff 0x04800000 0x002fe400
0x0400780c 0x0000000f 0x03f24270 0x000fc600
0x03067824 0x00000001 0x000e0608 0x000fe200
0x09027f89 0x0a001f00 0x000e0000 0x000e2e00
0x06037f89 0x0a001f00 0x000e0000 0x000e6200
0x02027207 0x000000ff 0x04800000 0x001fc800
0x02047210 0x00000009 0x07f1e0ff 0x000fe400
0x03037207 0x000000ff 0x04800000 0x002fca00
0x03057824 0x00000001 0x000e0606 0x000fe200
0x0000720c 0x000000ff 0x03f05270 0x000fce00
0x0700a388 0x00000804 0x00008a00 0x000fe800
0x00007b1d 0x00000000 0x00000000 0x000fea00
0x00000947 0x000000d0 0x03800000 0x000fea00
0xff087984 0x00001000 0x00001c00 0x000e2200
0xff007224 0x000000ff 0x078e00ff 0x000fce00
0xff0c7984 0x00002000 0x00001c00 0x000e7000
0xff107984 0x00003000 0x00001c00 0x000eb000
0xff027984 0x00004000 0x00001a00 0x000ee200
0x0a077210 0x00000008 0x0791e004 0x001fc800
0x0b097210 0x00000009 0x007e2405 0x000fe400
0x0e057210 0x00000007 0x0791e00c 0x002fc800
0x0f0d7210 0x00000009 0x007e240d 0x000fe400
0x12057210 0x00000005 0x0791e010 0x004fc800
0x13117210 0x0000000d 0x007e2411 0x000fe400
0x02047210 0x00000005 0x07f1e0ff 0x008fca00
0x03057824 0x00000001 0x000e0611 0x000fc600
0x00007941 0x00000000 0x03800000 0x000fea00
0x0000720c 0x000000ff 0x03f05270 0x000fd800
0x0000094d 0x00000000 0x03800000 0x000fea00
0x04047a10 0x00006200 0x07f1e0ff 0x000fe200
0x00047ab9 0x00005c00 0x00000a00 0x000fc600
0x05057a10 0x00006300 0x007fe4ff 0x000fd000
0xff007986 0x00000004 0x0c10eb04 0x000fe200
0x0000794d 0x00000000 0x03800000 0x000fea00
0x00007919 0x00000000 0x00002100 0x000e2400
0x0000720c 0x000000ff 0x03f05270 0x001fd800
0x0000094d 0x00000000 0x03800000 0x000fea00
0xff027624 0x00006200 0x078e00ff 0x000fe200
0x00047ab9 0x00005c00 0x00000a00 0x000fe200
0xff037624 0x00006300 0x078e00ff 0x000fd000
0xff007986 0x00000002 0x0c10eb04 0x000fe200
0x0000794d 0x00000000 0x03800000 0x000fea00
0x00007947 0xfffffff0 0x0383ffff 0x000fc000
0x00007918 0x00000000 0x00000000 0x000fc000
0x00007918 0x00000000 0x00000000 0x000fc000
0x00007918 0x00000000 0x00000000 0x000fc000



.text._ZN3cub17CUB_200400_750_NS23DeviceSelectSweepKernelINS0_6detail24device_select_policy_hubIlbiLb0ELb0EE9Policy900ENS0_21CountingInputIteratorIllEENS0_22TransformInputIteratorIb7NonZeroIiEPilEEPlSD_NS0_13ScanTileStateIiLb1EEENS0_8NullTypeESG_iLb0EEEvT0_T1_T2_T3_T4_T5_T6_T7_iNS2_7vsmem_tE
bar = 1	reg = 44	lmem=0	smem=5120
0xff017624 0x00000a00 0x078e00ff 0x000fe400
0x00007919 0x00000000 0x00002500 0x000e2200
0x00047ab9 0x00006600 0x00000800 0x000fe400
0x04047890 0xffffffff 0x0fffe03f 0x000fe200
0x00027919 0x00000000 0x00002600 0x000e2400
0x00007a24 0x00000400 0x078e0202 0x001fc800
0x00047824 0x00000280 0x078e02ff 0x040fe200
0x00007c0c 0x00000004 0x0bf06270 0x000fd800
0x00008947 0x00002ce0 0x03800000 0x000fea00
0x00147919 0x00000000 0x00002100 0x000e2200
0x0000720c 0x000000ff 0x03f05270 0x000fe200
0x00ff7355 0x00000000 0x00100000 0x000fe200
0xff057819 0x0000001f 0x00011404 0x000fe200
0x00007945 0x00002c30 0x03800000 0x000fe200
0x04137a10 0x00006500 0x07ffe1ff 0x000fe200
0x14067824 0x00000005 0x078e02ff 0x001fe200
0xff087819 0x00000005 0x00011614 0x000fc800
0xff077819 0x0000001f 0x00011406 0x000fe400
0x06027a10 0x00005800 0x07a3e004 0x000fc800
0x07037a10 0x00005900 0x00fe4405 0x000fe200
0x00008947 0x00001b50 0x03800000 0x000fea00
0x04097210 0x00000006 0x07f1e0ff 0x000fe200
0x00007b1d 0x00000000 0x00000000 0x000fea00
0x06047810 0x00000001 0x07ffe0ff 0x040fe200
0x050a7824 0x00000001 0x000e0607 0x000fe200
0x06057810 0x00000003 0x07ffe0ff 0x000fe400
0x0400720c 0x00000013 0x03f06270 0x000fc400
0x0600720c 0x00000013 0x03fa6270 0x0c0fe400
0x09047a11 0x00005c00 0x078810ff 0x000fe400
0x0500720c 0x00000013 0x03f46270 0x000fe400
0x09057a11 0x00005d00 0x020f140a 0x000fe400
0x06077810 0x00000002 0x07ffe0ff 0x040fe400
0x06067810 0x00000004 0x07ffe0ff 0x000fc400
0x0700720c 0x00000013 0x03f26270 0x080fe400
0x040ad381 0x00000000 0x001ee900 0x0000a200
0x0600720c 0x00000013 0x03f66270 0x000fc600
0x04068381 0x00000400 0x001ee900 0x0000e800
0x0409a381 0x00000c00 0x001ee900 0x00012800
0x04079381 0x00000800 0x001ee900 0x00016800
0x0405b381 0x00001000 0x001ee900 0x00112200
0xff127424 0x00000001 0x078e00ff 0x000fc400
0xff117424 0x00000001 0x078e00ff 0x000fe400
0xff107424 0x00000001 0x078e00ff 0x000fe400
0xff0f7424 0x00000001 0x078e00ff 0x000fe400
0xff0e7424 0x00000001 0x078e00ff 0x000fe200
0x00157919 0x00000000 0x00000000 0x000e6800
0x00007b1d 0x00000000 0x00000000 0x000fea00
0x0a00d20c 0x000000ff 0x03f85270 0x004fc800
0xff04d807 0x00000001 0x06000000 0x001fd000
0x0600820c 0x000000ff 0x03f85270 0x008fe400
0x0700920c 0x000000ff 0x03fc5270 0x020fe400
0x0412d816 0x00007610 0x00000012 0x000fe400
0xff048807 0x00000001 0x06000000 0x000fe400
0x0900a20c 0x000000ff 0x03fa5270 0x010fc800
0x0500b20c 0x000000ff 0x03f85270 0x000fe400
0xff059807 0x00000001 0x07000000 0x000fe400
0xff06a807 0x00000001 0x06800000 0x000fe400
0xff07b807 0x00000001 0x06000000 0x000fe400
0x04118816 0x00007610 0x00000011 0x000fe400
0x05109816 0x00007610 0x00000010 0x000fc400
0x060fa816 0x00007610 0x0000000f 0x000fe400
0x070eb816 0x00007610 0x0000000e 0x000fe400
0x120d7812 0x0000ffff 0x078ec0ff 0x000fe400
0x110c7812 0x0000ffff 0x078ec0ff 0x000fe400
0x100b7812 0x0000ffff 0x078ec0ff 0x000fe400
0x0f0a7812 0x0000ffff 0x078ec0ff 0x000fc400
0x0e047812 0x0000ffff 0x078ec0ff 0x000fe400
0x0b057210 0x0000000c 0x07ffe00d 0x000fc800
0x04167210 0x00000005 0x07ffe00a 0x000fd000
0x16047989 0x04200000 0x000000ff 0x000e2400
0x16040824 0x00000001 0x078e0204 0x001fd000
0x04057989 0x04400000 0x000000ff 0x000e2400
0x04050824 0x00000001 0x078e0205 0x001fd000
0x05047989 0x04800000 0x000000ff 0x000e2400
0x05040824 0x00000001 0x078e0204 0x001fd000
0x04057989 0x05000000 0x000000ff 0x000e2400
0x04050824 0x00000001 0x078e0205 0x001fd000
0x05097989 0x06000000 0x000200ff 0x000e2200
0x1500780c 0x0000001f 0x03f05270 0x002fe200
0x05091824 0x00000001 0x078e0209 0x001fd600
0x08008388 0x00000009 0x00004800 0x000fe800
0x00007b1d 0x00000000 0x00000000 0x000fea00
0xff047984 0x00000000 0x00001c00 0x000e2200
0x0800780c 0x00000002 0x03f05270 0x000fe200
0x09097824 0x00000001 0x078e0a16 0x000fe200
0x1500720c 0x000000ff 0x03f25270 0x000fe200
0x04057824 0x00000001 0x078e0205 0x001fc800
0x05067824 0x00000001 0x078e0206 0x040fe200
0x05047207 0x00000004 0x04000000 0x000fe400
0x09057207 0x000000ff 0x00800000 0x000fe400
0x0800780c 0x00000003 0x03f05270 0x040fe400
0x0800720c 0x000000ff 0x03f25270 0x000fe400
0x06047207 0x00000004 0x04000000 0x000fe400
0x0800720c 0x000000ff 0x03f05270 0x000fc600
0x04087824 0x00000001 0x078e0205 0x000fe400
0x07077824 0x00000001 0x078e0206 0x000fc600
0x09157207 0x00000008 0x04000000 0x000fe200
0x00001947 0x00000950 0x03800000 0x000fea00
0x1400720c 0x000000ff 0x03f05270 0x000fe400
0xff197212 0x00000014 0x078e33ff 0x000fca00
0x00197824 0x00000001 0x078e0219 0x000fca00
0xff048424 0x00000008 0x078e00ff 0x000fe200
0xff008388 0x00002c07 0x00000800 0x000fe200
0xff068424 0x00000064 0x078e00ff 0x000fe400
0x00048625 0x00006200 0x078e0204 0x000fd000
0x04008385 0x00000100 0x00114b06 0x0001e400
0xff047624 0x00000300 0x078e00ff 0x001fca00
0x0400780c 0x000001f4 0x03f26070 0x000fd800
0x00009947 0x00000030 0x03800000 0x000fea00
0x0000795d 0x000001c2 0x03a00000 0x000fe200
0x00007946 0x00000000 0x03800000 0x000fe200
0x00007947 0x00000010 0x03800000 0x000fea00
0x00007992 0x00000000 0x00000000 0x000fea00
0xff167424 0x00000008 0x078e00ff 0x000fc800
0x19167625 0x00006200 0x078e0216 0x000fd000
0x16087980 0x00000100 0x00114b00 0x00016200
0x01ff7355 0x00000000 0x00100000 0x000fe200
0x00017945 0x00000120 0x03800000 0x000fe400
0x0800780c 0x00000063 0x03f45270 0x020fe200
0x00007947 0x00004c42 0x03800000 0x000ff600
0x00047806 0x00000000 0x050e0100 0x000fc800
0x0400720c 0x000000ff 0x03f45070 0x000fd800
0x0000a947 0x000000c0 0x03800000 0x000fea00
0x00009947 0x00000030 0x03800000 0x000fea00
0x0000795d 0x0000015e 0x03a00000 0x000fe200
0x00007946 0x00000000 0x03800000 0x000fe200
0x00007947 0x00000010 0x03800000 0x000fea00
0x00007992 0x00000000 0x00000000 0x000fea00
0x16087980 0x00000100 0x00114b00 0x00036400
0x00047806 0x00000000 0x038e0100 0x000fe200
0x00007946 0x00000000 0x03800000 0x000fe200
0x00047886 0x00000000 0x038e0100 0x000fe400
0x04ff7c12 0x00000004 0x0f840cff 0x000fd800
0x0000a947 0xffffff01 0x0383ffff 0x023fea00
0x00007947 0xffffffa0 0x0383ffff 0x000fea00
0x00017941 0x00000000 0x03800000 0x000fea00
0x00187919 0x00000000 0x00000000 0x000e6200
0x0800780c 0x00000065 0x03f45270 0x000fe200
0x00007947 0x00004b72 0x03800000 0x000ff400
0x00067919 0x00000000 0x00003c00 0x000ea200
0x00047806 0x00000000 0x050e0100 0x000fe400
0x181b7810 0x00000002 0x07ffe0ff 0x042fe400
0x181c7810 0x00000004 0x07ffe0ff 0x040fe400
0x181d7810 0x00000008 0x07ffe0ff 0x000fe400
0x04047812 0x80000000 0x078eec06 0x004fcc00
0x00047301 0x00000004 0x00000000 0x000e7000
0x00047300 0x00000004 0x000e0000 0x002e6400
0x04167810 0x0000001f 0x07ffe1ff 0x003fc800
0x1800720c 0x00000016 0x03f46270 0x000fc800
0x09047989 0x08200000 0x000e0016 0x000e2400
0x04047207 0x000000ff 0x05000000 0x001fe400
0x1b00720c 0x00000016 0x03f44270 0x000fc600
0x04047824 0x00000001 0x078e0209 0x000fd000
0x04057989 0x08400000 0x000e0016 0x000e2400
0x05057207 0x000000ff 0x05000000 0x001fe400
0x1c00720c 0x00000016 0x03f44270 0x000fc600
0x04057824 0x00000001 0x078e0205 0x000fd000
0x05047989 0x08800000 0x000e0016 0x000e2400
0x04047207 0x000000ff 0x05000000 0x001fe400
0x1d00720c 0x00000016 0x03f44270 0x000fc600
0x05047824 0x00000001 0x078e0204 0x000fd000
0x04057989 0x09000000 0x000e0016 0x000e2400
0x05057207 0x000000ff 0x05000000 0x001fca00
0x041a7824 0x00000001 0x078e0205 0x000fd000
0x1a257989 0x0a000000 0x000e0016 0x00006400
0x181e7810 0x00000010 0x07ffe0ff 0x000fe200
0x01ff7355 0x00000000 0x00100000 0x000fe200
0x00017945 0x00000440 0x03800000 0x000fe400
0x1e00720c 0x00000016 0x03f44270 0x000fc800
0x25257207 0x000000ff 0x05000000 0x002fca00
0x251a7824 0x00000001 0x078e021a 0x001fe400
0x0800780c 0x00000065 0x03f45270 0x000fe200
0x00007947 0x00004cc2 0x03800000 0x000ff600
0x00047806 0x00000000 0x010e0100 0x000fe200
0x00047886 0x00000000 0x038e0100 0x000fc600
0x04047c12 0x00000004 0x0f8ec0ff 0x000fc800
0x04007c0c 0x00000004 0x0bf42070 0x000fd800
0x0000a947 0x00000390 0x03800000 0x000fea00
0x19197810 0xffffffe0 0x07ffe0ff 0x000fe200
0xff167424 0x00000008 0x078e00ff 0x000fc800
0x19167625 0x00006200 0x078e0216 0x000fd000
0x16087980 0x00000100 0x00114b00 0x00016200
0x02ff7355 0x00000000 0x00100000 0x000fe200
0x00027945 0x00000120 0x03800000 0x000fe400
0x0800780c 0x00000063 0x03f45270 0x020fe200
0x00007947 0x00004c52 0x03800000 0x000ff600
0x00047806 0x00000000 0x050e0100 0x000fc800
0x0400720c 0x000000ff 0x03f45070 0x000fd800
0x0000a947 0x000000c0 0x03800000 0x000fea00
0x00009947 0x00000030 0x03800000 0x000fea00
0x0000795d 0x0000015e 0x03a00000 0x000fe200
0x00007946 0x00000000 0x03800000 0x000fe200
0x00007947 0x00000010 0x03800000 0x000fea00
0x00007992 0x00000000 0x00000000 0x000fea00
0x16087980 0x00000100 0x00114b00 0x00036400
0x00047806 0x00000000 0x038e0100 0x000fe200
0x00007946 0x00000000 0x03800000 0x000fe200
0x00047886 0x00000000 0x038e0100 0x000fe400
0x04ff7c12 0x00000004 0x0f840cff 0x000fd800
0x0000a947 0xffffff01 0x0383ffff 0x023fea00
0x00007947 0xffffffa0 0x0383ffff 0x000fea00
0x00027941 0x00000000 0x03800000 0x000fea00
0x0800780c 0x00000065 0x03f45270 0x000fe200
0x00007947 0x00004b92 0x03800000 0x000ff600
0x00047806 0x00000000 0x050e0100 0x000fc800
0x04047812 0x80000000 0x078eec06 0x000fcc00
0x00047301 0x00000004 0x00000000 0x000e7000
0x00047300 0x00000004 0x000e0000 0x002e6400
0x04167810 0x0000001f 0x07ffe1ff 0x003fc800
0x1800720c 0x00000016 0x03f46270 0x000fc800
0x09047989 0x08200000 0x000e0016 0x000e2400
0x04047207 0x000000ff 0x05000000 0x001fe400
0x1b00720c 0x00000016 0x03f44270 0x000fc600
0x04047824 0x00000001 0x078e0209 0x000fd000
0x04057989 0x08400000 0x000e0016 0x000e2400
0x05057207 0x000000ff 0x05000000 0x001fe400
0x1c00720c 0x00000016 0x03f44270 0x000fc600
0x04057824 0x00000001 0x078e0205 0x000fd000
0x05047989 0x08800000 0x000e0016 0x000e2400
0x04047207 0x000000ff 0x05000000 0x001fe400
0x1d00720c 0x00000016 0x03f44270 0x000fc600
0x05047824 0x00000001 0x078e0204 0x000fd000
0x04057989 0x09000000 0x000e0016 0x000e2400
0x05057207 0x000000ff 0x05000000 0x001fca00
0x04097824 0x00000001 0x078e0205 0x000fd000
0x09257989 0x0a000000 0x000e0016 0x00006400
0x1e00720c 0x00000016 0x03f44270 0x000fc800
0x25257207 0x000000ff 0x05000000 0x002fc800
0x091a7210 0x00000025 0x07ffe01a 0x000fe400
0x00047806 0x00000000 0x038e0100 0x000fe200
0x00007946 0x00000000 0x03800000 0x000fe200
0x00047886 0x00000000 0x038e0100 0x000fe400
0x04ff7c12 0x00000004 0x0f840cff 0x000fd800
0x0000a947 0xfffffc11 0x0383ffff 0x001fea00
0x00007947 0xffffffa0 0x0383ffff 0x000fea00
0x00017941 0x00000000 0x03800000 0x000fea00
0xff048424 0x00000008 0x078e00ff 0x000fe200
0x1800720c 0x000000ff 0x03f25270 0x000fe200
0x07078824 0x00000001 0x078e021a 0x000fe400
0xff068424 0x00000065 0x078e00ff 0x000fe400
0x00048625 0x00006200 0x078e0204 0x000fc800
0xff087224 0x000000ff 0x078e0015 0x000fc800
0x04008385 0x00000100 0x00114b06 0x0001e200
0xff089224 0x000000ff 0x078e001a 0x000fc600
0xff008388 0x00002807 0x00000800 0x0001e800
0xff008388 0x0000241a 0x00000800 0x0001e800
0xff009388 0x0000141a 0x00000800 0x0001e400
0x00007948 0xffffffff 0x03800000 0x000fe800
0x00007b1d 0x00000000 0x00000000 0x000fea00
0xff097984 0x00001400 0x00001800 0x000e6200
0x1400720c 0x000000ff 0x03f05270 0x000fc400
0x13137810 0x00000280 0x07ffe1ff 0x000fe200
0xff047984 0x00002000 0x00001c00 0x001e2200
0x09097207 0x000000ff 0x00000000 0x002fc600
0x07047824 0x00000001 0x078e0a13 0x101fe400
0x09087824 0x00000001 0x078e0208 0x000fe400
0x06067824 0x00000001 0x078e0a13 0x000fe200
0x0400780c 0x00000080 0x03f04270 0x000fe200
0x0d097824 0x00000001 0x078e0208 0x000fc800
0x0c0c7824 0x00000001 0x078e0209 0x000fc800
0x0b0b7824 0x00000001 0x078e020c 0x000fc800
0x0a0a7824 0x00000001 0x078e020b 0x000fe200
0x00000947 0x00000280 0x03800000 0x000fea00
0x12007816 0x00009910 0x000000ff 0x000fe400
0x0800720c 0x00000006 0x03f06270 0x080fe400
0x11047816 0x00009910 0x000000ff 0x000fe400
0x0900720c 0x00000006 0x03f26270 0x000fe400
0x0000720c 0x000000ff 0x00702670 0x000fe400
0x10007816 0x00009910 0x000000ff 0x000fc400
0x0400720c 0x000000ff 0x00f22670 0x000fe400
0x0c00720c 0x00000006 0x03f46270 0x080fe400
0x0f047816 0x00009910 0x000000ff 0x000fe400
0x0b00720c 0x00000006 0x03f66270 0x000fe400
0x0000720c 0x000000ff 0x01742670 0x000fe400
0x0400720c 0x000000ff 0x01f62670 0x000fe200
0xff048424 0x00000008 0x078e00ff 0x000fe200
0x02129810 0x00000001 0x07f9e0ff 0x000fe200
0xff009424 0x00000008 0x078e00ff 0x000fc400
0x08048625 0x00005e00 0x078e0204 0x000fc800
0x09089625 0x00005e00 0x078e0200 0x000fe200
0x0216a810 0x00000002 0x07fbe0ff 0x040fe400
0x0218b810 0x00000003 0x07fde0ff 0x000fe200
0xff0da424 0x00000008 0x078e00ff 0x000fe200
0x04008386 0x00000002 0x0010eb00 0x0001e200
0xff10b424 0x00000008 0x078e00ff 0x000fe200
0x0e007816 0x00009910 0x000000ff 0x000fe200
0xff139224 0x000000ff 0x020e0603 0x000fe200
0x0a00720c 0x00000006 0x03f06270 0x000fe200
0x0c0ca625 0x00005e00 0x078e020d 0x000fc600
0x0000720c 0x000000ff 0x00702670 0x000fe200
0xff17a224 0x000000ff 0x028e0603 0x100fe400
0x0b10b625 0x00005e00 0x078e0210 0x000fe200
0x08009386 0x00000012 0x0010eb00 0x0001e600
0xff19b224 0x000000ff 0x030e0603 0x000fe400
0x0c00a386 0x00000016 0x0010eb00 0x0001ec00
0x1000b386 0x00000018 0x0010eb00 0x0001e200
0x00000947 0x00001a70 0x03800000 0x000fea00
0x02027810 0x00000004 0x07f1e0ff 0x001fe200
0xff0b7424 0x00000008 0x078e00ff 0x000fc800
0x0a0a7625 0x00005e00 0x078e020b 0x000fc800
0xff037224 0x000000ff 0x000e0603 0x000fd000
0x0a007386 0x00000002 0x0010eb00 0x0001e200
0x00007947 0x00001a10 0x03800000 0x000fea00
0x120d7816 0x00009910 0x000000ff 0x000fe200
0x00007b1d 0x00000000 0x00000000 0x000fea00
0x11117816 0x00009910 0x000000ff 0x000fe400
0x0d00720c 0x000000ff 0x03f85270 0x000fe400
0x10107816 0x00009910 0x000000ff 0x000fe200
0xff0d7224 0x000000ff 0x078e0011 0x000fe200
0x0e117816 0x00009910 0x000000ff 0x000fc400
0x0f0f7816 0x00009910 0x000000ff 0x000fe200
0xff0e7224 0x000000ff 0x078e0010 0x000fe200
0x0d00720c 0x000000ff 0x03f65270 0x000fe200
0xff0d7224 0x000000ff 0x078e0011 0x000fe200
0x0f00720c 0x000000ff 0x03f25270 0x000fe400
0x08084824 0x00000001 0x078e0a05 0x000fe200
0x0e00720c 0x000000ff 0x03f45270 0x000fe400
0x0d00720c 0x000000ff 0x03f05270 0x000fca00
0x08004388 0x00000002 0x00008a00 0x0001e200
0x09103824 0x00000001 0x078e0a05 0x100fe200
0x020e1810 0x00000003 0x07f9e0ff 0x000fe200
0x0b0b1824 0x00000001 0x078e0a05 0x100fe400
0x0c112824 0x00000001 0x078e0a05 0x000fe200
0x020c2810 0x00000002 0x07fbe0ff 0x000fe200
0xff0f1224 0x000000ff 0x020e0603 0x000fe400
0x0a0a0824 0x00000001 0x078e0a05 0x000fe200
0x02083810 0x00000001 0x07fde0ff 0x001fe200
0xff0d2224 0x000000ff 0x028e0603 0x000fc800
0xff093224 0x000000ff 0x030e0603 0x000fce00
0x02020810 0x00000004 0x07fde0ff 0x000fe200
0x10003388 0x00000008 0x00008a00 0x000fe800
0xff030224 0x000000ff 0x030e0603 0x000fe200
0x11002388 0x0000000c 0x00008a00 0x000fe800
0x0b001388 0x0000000e 0x00008a00 0x000fe800
0x0a000388 0x00000002 0x00008a00 0x000fe800
0x00007b1d 0x00000000 0x00000000 0x000fea00
0x1400720c 0x00000004 0x03f06270 0x000fd800
0x00000947 0x000017e0 0x03800000 0x000fea00
0x07077a10 0x00006500 0x07ffe0ff 0x000fe200
0x01ff7355 0x00000000 0x00100000 0x000fe200
0x00017945 0x00000190 0x03800000 0x000fe400
0x14077810 0xfffffd7f 0x07ffe107 0x000fca00
0x00077824 0xfffffd80 0x078e0207 0x000fca00
0x07007811 0x00000001 0x078fc8ff 0x040fe400
0x0700780c 0x00000180 0x03f26070 0x000fe400
0x00087812 0x00000003 0x0780c0ff 0x000fe200
0xff007224 0x000000ff 0x078e0014 0x000fd600
0x00008947 0x00000110 0x03800000 0x000fea00
0x14027824 0x00000001 0x078e0205 0x000fe400
0xff037424 0x00000008 0x078e00ff 0x000fe400
0xff077224 0x000000ff 0x078e0008 0x000fe400
0x02027625 0x00005e00 0x078e0203 0x000fc800
0xff087224 0x000000ff 0x078e0002 0x000fe400
0xff097224 0x000000ff 0x078e0003 0x000fe400
0x140a7824 0x00000008 0x078e00ff 0x000fe400
0xff007224 0x000000ff 0x078e0014 0x000fcc00
0x0a027984 0x00000000 0x00001a00 0x00006200
0x07077810 0xffffffff 0x07ffe0ff 0x000fe400
0x00007810 0x00000080 0x07ffe0ff 0x000fe400
0x0700720c 0x000000ff 0x03f05270 0x000fc400
0x0a0a7810 0x00000400 0x07ffe0ff 0x001fe200
0x08007386 0x00000002 0x0010eb00 0x0021e400
0x08087810 0x00000400 0x07f5e0ff 0x001fca00
0xff097224 0x000000ff 0x010e0609 0x000fe400
0x00000947 0xffffff70 0x0383ffff 0x000fea00
0x00017941 0x00000000 0x03800000 0x000fea00
0x00009947 0x00001610 0x03800000 0x000fea00
0x04027824 0x00000001 0x078e0a00 0x000fe200
0x01ff7355 0x00000000 0x00100000 0x000fe200
0xff037424 0x00000008 0x078e00ff 0x000fe200
0x00017945 0x00000310 0x03800000 0x000fe200
0x0000781c 0x00000000 0x03f0f070 0x000fe400
0x0200780c 0x00000600 0x03f24270 0x000fe200
0x00027824 0x00000001 0x078e0205 0x040fe200
0x00057811 0x00000800 0x078e18ff 0x000fc600
0x02027625 0x00005e00 0x078e0203 0x000fce00
0x00009947 0x000002a0 0x03800000 0x000fea00
0x0000781c 0x00000000 0x03f0e170 0x000fe400
0x04077810 0xfffffa00 0x07ffe0ff 0x000fe400
0x05087984 0xfff80000 0x00001a00 0x000e2200
0x00007810 0x00000800 0x07ffe0ff 0x000fc600
0x050a7984 0xfffc0000 0x00001a00 0x000e6200
0x0000720c 0x00000007 0x03f26270 0x000fc600
0x050c7984 0x00000000 0x00001a00 0x000ea800
0x050e7984 0x00040000 0x00001a00 0x000ee800
0x05107984 0x00080000 0x00001a00 0x000f2800
0x05127984 0x000c0000 0x00001a00 0x000f6800
0x05167984 0x00100000 0x00001a00 0x000e2800
0x05187984 0x00140000 0x00001a00 0x000e6800
0x051a7984 0x00180000 0x00001a00 0x000ea800
0x051c7984 0x001c0000 0x00001a00 0x000ee800
0x051e7984 0x00200000 0x00001a00 0x000f2800
0x05207984 0x00240000 0x00001a00 0x000f6800
0x05227984 0x00280000 0x00001a00 0x000f6800
0x05247984 0x002c0000 0x00001a00 0x000f6800
0x05267984 0x00300000 0x00001a00 0x000f6800
0x05287984 0x00340000 0x00001a00 0x00036800
0x02007386 0x00000008 0x0010eb00 0x0011e200
0x05057810 0x00004000 0x07ffe0ff 0x002fc600
0x02007386 0x0004000a 0x0010eb00 0x000fe800
0x02007386 0x0008000c 0x0010eb00 0x004fe800
0x02007386 0x000c000e 0x0010eb00 0x008fe200
0x02087810 0x00004000 0x07f5e0ff 0x001fc600
0x02007386 0x00100010 0x0010eb00 0x010fe400
0xff097224 0x000000ff 0x010e0603 0x000fe400
0x02007386 0x00140012 0x0010eb00 0x020fe800
0x02007386 0x00180016 0x0010eb00 0x000fe800
0x02007386 0x001c0018 0x0010eb00 0x000fe800
0x02007386 0x0020001a 0x0010eb00 0x000fe800
0x02007386 0x0024001c 0x0010eb00 0x000fe800
0x02007386 0x0028001e 0x0010eb00 0x000fe800
0x02007386 0x002c0020 0x0010eb00 0x000fe800
0x02007386 0x00300022 0x0010eb00 0x000fe800
0x02007386 0x00340024 0x0010eb00 0x000fe800
0x02007386 0x00380026 0x0010eb00 0x000fe800
0x02007386 0x003c0028 0x0010eb00 0x0001e400
0xff027224 0x000000ff 0x078e0008 0x001fc400
0xff037224 0x000000ff 0x078e0009 0x000fe200
0x00009947 0xfffffd80 0x0383ffff 0x000fea00
0x00017941 0x00000000 0x03800000 0x000fea00
0x04077824 0x00000001 0x078e0a00 0x000fe200
0x01ff7355 0x00000000 0x00100000 0x000fe200
0x00017945 0x00000180 0x03800000 0x000fe600
0x0700780c 0x00000200 0x03f24270 0x000fd800
0x00009947 0x00000150 0x03800000 0x000fea00
0x05087984 0xfff80000 0x00001a00 0x000e2200
0x0000781c 0x00000000 0x03f0e170 0x000fe400
0x00007810 0x00000400 0x07ffe0ff 0x000fe200
0x050a7984 0xfffc0000 0x00001a00 0x000e6800
0x050c7984 0x00000000 0x00001a00 0x000ea800
0x050e7984 0x00040000 0x00001a00 0x000ee800
0x05107984 0x00080000 0x00001a00 0x000f2800
0x05127984 0x000c0000 0x00001a00 0x000f6800
0x05167984 0x00100000 0x00001a00 0x000f6800
0x05187984 0x00140000 0x00001a00 0x00016400
0x05057810 0x00002000 0x07ffe0ff 0x001fc400
0x02007386 0x00000008 0x0010eb00 0x000fe800
0x02007386 0x0004000a 0x0010eb00 0x002fe800
0x02007386 0x0008000c 0x0010eb00 0x004fe800
0x02007386 0x000c000e 0x0010eb00 0x008fe800
0x02007386 0x00100010 0x0010eb00 0x010fe800
0x02007386 0x00140012 0x0010eb00 0x020fe800
0x02007386 0x00180016 0x0010eb00 0x000fe800
0x02007386 0x001c0018 0x0010eb00 0x0001e400
0x02027810 0x00002000 0x07f3e0ff 0x001fca00
0xff037224 0x000000ff 0x008e0603 0x000fc600
0x00017941 0x00000000 0x03800000 0x000fea00
0x0000720c 0x00000004 0x00701670 0x000fd800
0x00008947 0x000010f0 0x03800000 0x000fea00
0x05087984 0xfff80000 0x00001a00 0x000e2800
0x050a7984 0xfffc0000 0x00001a00 0x000e6800
0x050c7984 0x00000000 0x00001a00 0x000ea800
0x05047984 0x00040000 0x00001a00 0x000ee800
0x02007386 0x00000008 0x0010eb00 0x0011e800
0x02007386 0x0004000a 0x0010eb00 0x0021e800
0x02007386 0x0008000c 0x0010eb00 0x0041e800
0x02007386 0x000c0004 0x0010eb00 0x0081e200
0x00007947 0x00001060 0x03800000 0x000fea00
0x00007b1d 0x00000000 0x00000000 0x000fea00
0x04007210 0x00000006 0x07f1e0ff 0x000fc400
0x06097810 0x00000001 0x07ffe0ff 0x040fe400
0x0600720c 0x00000013 0x03f86270 0x080fe200
0x05057824 0x00000001 0x000e0607 0x000fe200
0x00047a11 0x00005c00 0x078010ff 0x000fe400
0x0900720c 0x00000013 0x03f66270 0x000fe400
0x060a7810 0x00000003 0x07ffe0ff 0x000fe400
0x00057a11 0x00005d00 0x000f1405 0x000fc400
0x06077810 0x00000002 0x07ffe0ff 0x000fe400
0x0a00720c 0x00000013 0x03f26270 0x080fe400
0x0700720c 0x00000013 0x03f46270 0x000fe400
0x040ac381 0x00000000 0x001ee900 0x0000a800
0x0400b381 0x00000400 0x001ee900 0x0000e200
0x06067810 0x00000004 0x07ffe0ff 0x000fc600
0x04099381 0x00000c00 0x001ee900 0x00012800
0x0407a381 0x00000800 0x001ee900 0x00016200
0x0600720c 0x00000013 0x03f06270 0x000fd800
0x04058381 0x00001000 0x001ee900 0x00112200
0xff0c7424 0x00000001 0x078e00ff 0x000fe400
0xff0b7424 0x00000001 0x078e00ff 0x000fe200
0x00157919 0x00000000 0x00000000 0x000e6800
0x00007b1d 0x00000000 0x00000000 0x000fea00
0x0a00c20c 0x000000ff 0x03fc5270 0x004fc400
0x0000b20c 0x000000ff 0x03fa5270 0x008fe400
0xff00c807 0x00000001 0x07000000 0x000fe400
0xff04b807 0x00000001 0x06800000 0x001fe200
0xff0a7424 0x00000001 0x078e00ff 0x000fca00
0x0700a20c 0x000000ff 0x03fc5270 0x020fe400
0x0900920c 0x000000ff 0x03fa5270 0x010fe200
0xff097424 0x00000001 0x078e00ff 0x000fe200
0xff06a807 0x00000001 0x07000000 0x000fe400
0xff079807 0x00000001 0x06800000 0x000fe400
0x000ac816 0x00007610 0x0000000a 0x000fe400
0x0409b816 0x00007610 0x00000009 0x000fc400
0x060ca816 0x00007610 0x0000000c 0x000fe400
0x070b9816 0x00007610 0x0000000b 0x000fe400
0x0a0f7812 0x0000ffff 0x078ec0ff 0x000fe400
0x09107812 0x0000ffff 0x078ec0ff 0x000fe400
0x0c117812 0x0000ffff 0x078ec0ff 0x000fe400
0x0b127812 0x0000ffff 0x078ec0ff 0x000fc400
0x11007210 0x00000010 0x07ffe00f 0x000fe400
0x0500720c 0x000000ff 0x00705670 0x000fc600
0x12007824 0x00000001 0x078e0200 0x000fca00
0x000d7810 0x00000001 0x07ffe0ff 0x000fca00
0xff0d8224 0x000000ff 0x078e0200 0x000fd000
0x0d007989 0x04200000 0x000200ff 0x000e2400
0x00001824 0x00000001 0x078e020d 0x001fd000
0x00047989 0x04400000 0x000200ff 0x000e2400
0x00041824 0x00000001 0x078e0204 0x001fd000
0x04007989 0x04800000 0x000200ff 0x000e2400
0x04001824 0x00000001 0x078e0200 0x001fd000
0x00047989 0x05000000 0x000200ff 0x000e2400
0x00041824 0x00000001 0x078e0204 0x001fd000
0x04007989 0x06000000 0x000200ff 0x000e2200
0x1500780c 0x0000001f 0x03f45270 0x002fe200
0x04001824 0x00000001 0x078e0200 0x001fd600
0x0800a388 0x00000000 0x00004800 0x000fe800
0x00007b1d 0x00000000 0x00000000 0x000fea00
0xff047984 0x00000000 0x00001c00 0x000e2200
0x0800780c 0x00000002 0x03f25270 0x000fc400
0x0800780c 0x00000003 0x03f45270 0x000fe200
0x00007824 0x00000001 0x078e0a0d 0x000fe200
0x1500720c 0x000000ff 0x03f65270 0x000fc800
0x00007207 0x000000ff 0x01800000 0x000fe200
0x04057824 0x00000001 0x078e0205 0x001fc800
0x050e7824 0x00000001 0x078e0206 0x040fe200
0x05047207 0x00000004 0x04800000 0x000fe400
0x0800720c 0x000000ff 0x03f25270 0x000fe400
0x0e047207 0x00000004 0x05000000 0x040fe400
0x0e067210 0x00000013 0x07ffe007 0x000fe400
0x04047207 0x000000ff 0x00800000 0x000fe400
0x06067810 0xfffffd80 0x07ffe0ff 0x000fc600
0x04087824 0x00000001 0x078e0200 0x000fe200
0x0600780c 0x00000080 0x03f24270 0x000fc600
0x0f0d7824 0x00000001 0x078e0208 0x000fc800
0x10137824 0x00000001 0x078e020d 0x000fc800
0x11117824 0x00000001 0x078e0213 0x000fc800
0x12007824 0x00000001 0x078e0211 0x000fe200
0x00001947 0x00000260 0x03800000 0x000fea00
0x09057816 0x00009910 0x000000ff 0x000fe400
0x0d00720c 0x00000006 0x03f46270 0x080fe400
0x0a047816 0x00009910 0x000000ff 0x000fe400
0x0500720c 0x000000ff 0x01742670 0x000fe400
0x0800720c 0x00000006 0x03f26270 0x000fe400
0x0b057816 0x00009910 0x000000ff 0x000fc400
0x0400720c 0x000000ff 0x00f22670 0x000fe400
0x0c047816 0x00009910 0x000000ff 0x000fe400
0x1300720c 0x00000006 0x03f66270 0x080fe400
0x1100720c 0x00000006 0x03f86270 0x000fe200
0xff09a424 0x00000008 0x078e00ff 0x000fe200
0x0400720c 0x000000ff 0x01f62670 0x000fe400
0x0500720c 0x000000ff 0x02782670 0x000fc400
0x020ea810 0x00000001 0x07fde0ff 0x000fe200
0xff049424 0x00000008 0x078e00ff 0x000fe200
0x0000720c 0x00000006 0x04706670 0x000fc600
0xff0fa224 0x000000ff 0x030e0603 0x000fe400
0x08049625 0x00005e00 0x078e0204 0x000fe200
0x0210b810 0x00000002 0x07fbe0ff 0x000fc600
0xff0cc424 0x00000008 0x078e00ff 0x000fe200
0x0212c810 0x00000003 0x07fde0ff 0x000fe200
0xff0ab424 0x00000008 0x078e00ff 0x000fe400
0x0d08a625 0x00005e00 0x078e0209 0x000fe200
0x04009386 0x00000002 0x0010eb00 0x0001e600
0x110cc625 0x00005e00 0x078e020c 0x000fc800
0x130ab625 0x00005e00 0x078e020a 0x000fe200
0x0800a386 0x0000000e 0x0010eb00 0x0001e600
0xff11b224 0x000000ff 0x028e0603 0x100fe400
0xff13c224 0x000000ff 0x030e0603 0x000fcc00
0x0a00b386 0x00000010 0x0010eb00 0x0001e800
0x0c00c386 0x00000012 0x0010eb00 0x0001e200
0x00000947 0x00000960 0x03800000 0x000fea00
0x02027810 0x00000004 0x07f1e0ff 0x001fe200
0xff047424 0x00000008 0x078e00ff 0x000fc800
0x00047625 0x00005e00 0x078e0204 0x000fc800
0xff037224 0x000000ff 0x000e0603 0x000fd000
0x04007386 0x00000002 0x0010eb00 0x0001e200
0x00007947 0x00000900 0x03800000 0x000fea00
0x09057816 0x00009910 0x000000ff 0x000fe200
0x00007b1d 0x00000000 0x00000000 0x000fea00
0x0500720c 0x000000ff 0x03f25270 0x000fe400
0x0a047816 0x00009910 0x000000ff 0x000fe400
0x0c0c7816 0x00009910 0x000000ff 0x000fc400
0x0b0b7816 0x00009910 0x000000ff 0x000fe400
0x0400720c 0x000000ff 0x03fa5270 0x000fe200
0xff057224 0x000000ff 0x078e000c 0x000fe200
0x020a0810 0x00000004 0x07fde0ff 0x000fe200
0xff047224 0x000000ff 0x078e000b 0x000fc600
0x0500720c 0x000000ff 0x03f45270 0x000fe200
0xff0b0224 0x000000ff 0x030e0603 0x100fe200
0x0400720c 0x000000ff 0x03f65270 0x000fe400
0x02041810 0x00000001 0x07f9e0ff 0x000fe400
0x08005388 0x00000002 0x00008a00 0x0001e600
0xff051224 0x000000ff 0x020e0603 0x000fc600
0x02082810 0x00000002 0x07fbe0ff 0x001fca00
0x0d001388 0x00000004 0x00008a00 0x000fe200
0x02023810 0x00000003 0x07f9e0ff 0x000fe200
0xff092224 0x000000ff 0x028e0603 0x000fc800
0xff033224 0x000000ff 0x020e0603 0x000fc800
0x13002388 0x00000008 0x00008a00 0x000fe800
0x11003388 0x00000002 0x00008a00 0x000fe800
0x00000388 0x0000000a 0x00008a00 0x000fe800
0x00007b1d 0x00000000 0x00000000 0x000fea00
0x1400720c 0x00000006 0x03f06270 0x000fd800
0x00000947 0x00000750 0x03800000 0x000fea00
0x0e077a10 0x00006500 0x07ffe007 0x000fe200
0x01ff7355 0x00000000 0x00100000 0x000fe200
0x00017945 0x00000170 0x03800000 0x000fe400
0x14077810 0xfffffd7f 0x07ffe107 0x000fc800
0x07007811 0x00000001 0x078fc8ff 0x040fe400
0x0700780c 0x00000180 0x03f26070 0x000fe400
0x00047812 0x00000003 0x0780c0ff 0x000fe200
0xff007224 0x000000ff 0x078e0014 0x000fd600
0x00008947 0x00000100 0x03800000 0x000fea00
0xff027424 0x00000008 0x078e00ff 0x000fe400
0xff077224 0x000000ff 0x078e0004 0x000fe400
0x14027625 0x00005e00 0x078e0202 0x000fc800
0xff047224 0x000000ff 0x078e0002 0x000fe400
0xff057224 0x000000ff 0x078e0003 0x000fe400
0x14087824 0x00000008 0x078e00ff 0x000fe400
0xff007224 0x000000ff 0x078e0014 0x000fcc00
0x08027984 0x00000000 0x00001a00 0x00006200
0x07077810 0xffffffff 0x07ffe0ff 0x000fe400
0x00007810 0x00000080 0x07ffe0ff 0x000fe400
0x0700720c 0x000000ff 0x03f05270 0x000fc400
0x08087810 0x00000400 0x07ffe0ff 0x001fe200
0x04007386 0x00000002 0x0010eb00 0x0021e400
0x04047810 0x00000400 0x07f5e0ff 0x001fca00
0xff057224 0x000000ff 0x010e0605 0x000fe400
0x00000947 0xffffff70 0x0383ffff 0x000fea00
0x00017941 0x00000000 0x03800000 0x000fea00
0x00009947 0x000005a0 0x03800000 0x000fea00
0x06047824 0x00000001 0x078e0a00 0x000fe200
0x01ff7355 0x00000000 0x00100000 0x000fe200
0xff027424 0x00000008 0x078e00ff 0x000fe200
0x00017945 0x00000320 0x03800000 0x000fe400
0x0400780c 0x00000600 0x03f24270 0x000fe200
0x00027625 0x00005e00 0x078e0202 0x040fe200
0x00047811 0x00000800 0x078e18ff 0x000fc800
0x02027810 0x00000800 0x07f1e0ff 0x000fca00
0xff037224 0x000000ff 0x000e0603 0x000fe200
0x0000781c 0x00000000 0x03f0f070 0x000fe200
0x00009947 0x000002a0 0x03800000 0x000fec00
0x0000781c 0x00000000 0x03f0e170 0x000fe400
0x06077810 0xfffffa00 0x07ffe0ff 0x000fc600
0x04087984 0xfff80000 0x00001a00 0x000e2200
0x00007810 0x00000800 0x07ffe0ff 0x000fe400
0x02057810 0x00004000 0x07f5e0ff 0x000fe200
0x040a7984 0xfffc0000 0x00001a00 0x000e6200
0x0000720c 0x00000007 0x03f26270 0x000fc600
0x040c7984 0x00000000 0x00001a00 0x000ea800
0x040e7984 0x00040000 0x00001a00 0x000ee800
0x04107984 0x00080000 0x00001a00 0x000f2800
0x04127984 0x000c0000 0x00001a00 0x000f6800
0x04167984 0x00100000 0x00001a00 0x000e2800
0x04187984 0x00140000 0x00001a00 0x000e6800
0x041a7984 0x00180000 0x00001a00 0x000ea800
0x041c7984 0x001c0000 0x00001a00 0x000ee800
0x041e7984 0x00200000 0x00001a00 0x000f2800
0x04207984 0x00240000 0x00001a00 0x000f6800
0x04227984 0x00280000 0x00001a00 0x000f6800
0x04247984 0x002c0000 0x00001a00 0x000f6800
0x04267984 0x00300000 0x00001a00 0x000f6800
0x04287984 0x00340000 0x00001a00 0x00036800
0x02007386 0xfff80008 0x0010eb00 0x0011e200
0x04047810 0x00004000 0x07ffe0ff 0x002fc600
0x02007386 0xfffc000a 0x0010eb00 0x000fe800
0x02007386 0x0000000c 0x0010eb00 0x004fe800
0x02007386 0x0004000e 0x0010eb00 0x008fe200
0xff087224 0x000000ff 0x010e0603 0x001fc600
0x02007386 0x00080010 0x0010eb00 0x010fe800
0x02007386 0x000c0012 0x0010eb00 0x020fe800
0x02007386 0x00100016 0x0010eb00 0x000fe800
0x02007386 0x00140018 0x0010eb00 0x000fe800
0x02007386 0x0018001a 0x0010eb00 0x000fe800
0x02007386 0x001c001c 0x0010eb00 0x000fe800
0x02007386 0x0020001e 0x0010eb00 0x000fe800
0x02007386 0x00240020 0x0010eb00 0x000fe800
0x02007386 0x00280022 0x0010eb00 0x000fe800
0x02007386 0x002c0024 0x0010eb00 0x000fe800
0x02007386 0x00300026 0x0010eb00 0x000fe800
0x02007386 0x00340028 0x0010eb00 0x0001e400
0xff027224 0x000000ff 0x078e0005 0x001fc400
0xff037224 0x000000ff 0x078e0008 0x000fe200
0x00009947 0xfffffd80 0x0383ffff 0x000fea00
0x00017941 0x00000000 0x03800000 0x000fea00
0x06057824 0x00000001 0x078e0a00 0x000fe200
0x01ff7355 0x00000000 0x00100000 0x000fe200
0x00017945 0x00000180 0x03800000 0x000fe600
0x0500780c 0x00000200 0x03f24270 0x000fd800
0x00009947 0x00000150 0x03800000 0x000fea00
0x04087984 0xfff80000 0x00001a00 0x000e2200
0x0000781c 0x00000000 0x03f0e170 0x000fe400
0x00007810 0x00000400 0x07ffe0ff 0x000fe200
0x040a7984 0xfffc0000 0x00001a00 0x000e6800
0x040c7984 0x00000000 0x00001a00 0x000ea800
0x040e7984 0x00040000 0x00001a00 0x000ee800
0x04107984 0x00080000 0x00001a00 0x000f2800
0x04127984 0x000c0000 0x00001a00 0x000f6800
0x04167984 0x00100000 0x00001a00 0x000f6800
0x04187984 0x00140000 0x00001a00 0x00016400
0x04047810 0x00002000 0x07ffe0ff 0x001fc400
0x02007386 0xfff80008 0x0010eb00 0x000fe800
0x02007386 0xfffc000a 0x0010eb00 0x002fe800
0x02007386 0x0000000c 0x0010eb00 0x004fe800
0x02007386 0x0004000e 0x0010eb00 0x008fe800
0x02007386 0x00080010 0x0010eb00 0x010fe800
0x02007386 0x000c0012 0x0010eb00 0x020fe800
0x02007386 0x00100016 0x0010eb00 0x000fe800
0x02007386 0x00140018 0x0010eb00 0x0001e400
0x02027810 0x00002000 0x07f3e0ff 0x001fca00
0xff037224 0x000000ff 0x008e0603 0x000fc600
0x00017941 0x00000000 0x03800000 0x000fea00
0x0000720c 0x00000006 0x00701670 0x000fd800
0x04080984 0xfff80000 0x00001a00 0x000e2800
0x040a0984 0xfffc0000 0x00001a00 0x000e6800
0x040c0984 0x00000000 0x00001a00 0x000ea800
0x04040984 0x00040000 0x00001a00 0x000ee800
0x02000386 0xfff80008 0x0010eb00 0x0011e800
0x02000386 0xfffc000a 0x0010eb00 0x0021e800
0x02000386 0x0000000c 0x0010eb00 0x0041e800
0x02000386 0x00040004 0x0010eb00 0x0081e400
0x00007941 0x00000000 0x03800000 0x000fea00
0x1400720c 0x000000ff 0x03f05270 0x000fd800
0x0000094d 0x00000000 0x03800000 0x000fea00
0xff077819 0x0000001f 0x00011406 0x000fe200
0x00047ab9 0x00006000 0x00000a00 0x000fce00
0xff007986 0x00000006 0x0c10eb04 0x000fe200
0x0000794d 0x00000000 0x03800000 0x000fea00
0x00147919 0x00000000 0x00002100 0x000e2200
0x0000720c 0x000000ff 0x03fa5270 0x000fe400
0xff117819 0x0000001f 0x00011404 0x000fe400
0x04027a10 0x00005800 0x07f1e0ff 0x000fc800
0x11107a10 0x00005900 0x007fe4ff 0x000fe200
0x14127824 0x00000005 0x078e02ff 0x001fca00
0x12037810 0x00000001 0x07ffe0ff 0x040fe400
0x12057810 0x00000002 0x07ffe0ff 0x040fe400
0x12067810 0x00000003 0x07ffe0ff 0x040fe400
0x12077810 0x00000004 0x07ffe0ff 0x040fe400
0xff137819 0x0000001f 0x00011412 0x000fe400
0x120e7210 0x00000002 0x07f1e0ff 0x000fc400
0x030c7210 0x00000002 0x07f3e0ff 0x080fe400
0x050a7210 0x00000002 0x07f5e0ff 0x080fe200
0x130f7824 0x00000001 0x000e0610 0x000fe200
0x06087210 0x00000002 0x07f7e0ff 0x080fe400
0x07027210 0x00000002 0x07f9e0ff 0x000fe400
0x030d7211 0x00000010 0x008f0eff 0x080fe400
0x050b7211 0x00000010 0x010f0eff 0x000fc400
0x06097211 0x00000010 0x018f0eff 0x080fe400
0x07037211 0x00000010 0x020f0eff 0x000fe400
0xff107819 0x00000005 0x00011614 0x000fe200
0x0000d947 0x00001770 0x03800000 0x000fea00
0x00007b1d 0x00000000 0x00000000 0x000fea00
0x04047210 0x00000012 0x07f1e0ff 0x000fca00
0x11117824 0x00000001 0x000e0613 0x000fe200
0x04187a11 0x00005c00 0x078010ff 0x000fc800
0x04197a11 0x00005d00 0x000f1411 0x000fd000
0x18267381 0x00000000 0x001ee900 0x0000a800
0x18157381 0x00000400 0x001ee900 0x0000e800
0x18167381 0x00000800 0x001ee900 0x00012800
0x18177381 0x00000c00 0x001ee900 0x00016800
0x18187381 0x00001000 0x001ee900 0x00116800
0x00137919 0x00000000 0x00000000 0x000e6800
0x00007b1d 0x00000000 0x00000000 0x000fea00
0x2600720c 0x000000ff 0x03f05270 0x004fc400
0x1500720c 0x000000ff 0x03f25270 0x008fe400
0xff197807 0x00000001 0x04000000 0x001fe400
0x1600720c 0x000000ff 0x03f45270 0x010fe400
0xff1a7807 0x00000001 0x04800000 0x000fe400
0x1700720c 0x000000ff 0x03f65270 0x020fe400
0xff1b7807 0x00000001 0x05000000 0x000fc400
0xff1c7807 0x00000001 0x05800000 0x000fe400
0x1b047210 0x0000001a 0x07ffe019 0x000fe400
0x1300780c 0x0000001f 0x03f25270 0x002fe400
0x1800720c 0x000000ff 0x03f05270 0x000fe200
0x1c047824 0x00000001 0x078e0204 0x000fca00
0x04117810 0x00000001 0x07ffe0ff 0x000fcc00
0xff118224 0x000000ff 0x078e0204 0x000fd000
0x11047989 0x04200000 0x000000ff 0x000e2400
0x04040824 0x00000001 0x078e0211 0x001fd000
0x04057989 0x04400000 0x000000ff 0x000e2400
0x04050824 0x00000001 0x078e0205 0x001fd000
0x05047989 0x04800000 0x000000ff 0x000e2400
0x05040824 0x00000001 0x078e0204 0x001fd000
0x04057989 0x05000000 0x000000ff 0x000e2400
0x04050824 0x00000001 0x078e0205 0x001fd000
0x05127989 0x06000000 0x000000ff 0x000e2400
0x05120824 0x00000001 0x078e0212 0x001fe200
0x1000780c 0x00000002 0x03f05270 0x000fc600
0x12117824 0x00000001 0x078e0a11 0x000fc800
0x10009388 0x00000012 0x00004800 0x000fe800
0x00007b1d 0x00000000 0x00000000 0x000fea00
0xff047984 0x00000000 0x00001c00 0x000e2200
0x1300720c 0x000000ff 0x03f25270 0x000fe200
0x04057824 0x00000001 0x078e0205 0x001fc800
0x05067824 0x00000001 0x078e0206 0x040fe200
0x05047207 0x00000004 0x04000000 0x000fe400
0x1000780c 0x00000003 0x03f05270 0x000fe200
0x07077824 0x00000001 0x078e0206 0x000fe200
0x11057207 0x000000ff 0x00800000 0x000fe400
0x06047207 0x00000004 0x04000000 0x000fe400
0x1000720c 0x000000ff 0x03f05270 0x040fe400
0x1000720c 0x000000ff 0x03f25270 0x000fe200
0x04047824 0x00000001 0x078e0205 0x000fca00
0x111d7207 0x00000004 0x04800000 0x000fc800
0x00000947 0x00000950 0x03800000 0x000fea00
0x1400720c 0x000000ff 0x03f05270 0x000fd800
0xff048424 0x00000008 0x078e00ff 0x000fe200
0xff008388 0x00002c07 0x00000800 0x000fe200
0xff068424 0x00000064 0x078e00ff 0x000fe400
0x00048625 0x00006200 0x078e0204 0x000fd000
0x04008385 0x00000100 0x00114b06 0x0001e400
0xff047624 0x00000300 0x078e00ff 0x001fe200
0xff067212 0x00000014 0x078e33ff 0x000fc800
0x0400780c 0x000001f4 0x03f26070 0x000fe200
0x00067824 0x00000001 0x078e0206 0x000fd600
0x00009947 0x00000030 0x03800000 0x000fea00
0x0000795d 0x000001c2 0x03a00000 0x000fe200
0x00007946 0x00000000 0x03800000 0x000fe200
0x00007947 0x00000010 0x03800000 0x000fea00
0x00007992 0x00000000 0x00000000 0x000fea00
0xff127424 0x00000008 0x078e00ff 0x000fc800
0x06127625 0x00006200 0x078e0212 0x000fd000
0x12107980 0x00000100 0x00114b00 0x00016200
0x00ff7355 0x00000000 0x00100000 0x000fe200
0x00007945 0x00000120 0x03800000 0x000fe400
0x1000780c 0x00000063 0x03f45270 0x020fe200
0x00007947 0x000027e2 0x03800000 0x000ff600
0x00047806 0x00000000 0x050e0100 0x000fc800
0x0400720c 0x000000ff 0x03f45070 0x000fd800
0x0000a947 0x000000c0 0x03800000 0x000fea00
0x00009947 0x00000030 0x03800000 0x000fea00
0x0000795d 0x0000015e 0x03a00000 0x000fe200
0x00007946 0x00000000 0x03800000 0x000fe200
0x00007947 0x00000010 0x03800000 0x000fea00
0x00007992 0x00000000 0x00000000 0x000fea00
0x12107980 0x00000100 0x00114b00 0x00036400
0x00047806 0x00000000 0x038e0100 0x000fe200
0x00007946 0x00000000 0x03800000 0x000fe200
0x00047886 0x00000000 0x038e0100 0x000fe400
0x04ff7c12 0x00000004 0x0f840cff 0x000fd800
0x0000a947 0xffffff01 0x0383ffff 0x023fea00
0x00007947 0xffffffa0 0x0383ffff 0x000fea00
0x00007941 0x00000000 0x03800000 0x000fea00
0x001e7919 0x00000000 0x00000000 0x000e6200
0x1000780c 0x00000065 0x03f45270 0x000fe200
0x00007947 0x00002712 0x03800000 0x000ff400
0x001f7919 0x00000000 0x00003c00 0x000ea200
0x00047806 0x00000000 0x050e0100 0x000fe400
0x1e207810 0x00000002 0x07ffe0ff 0x042fe400
0x1e217810 0x00000004 0x07ffe0ff 0x040fe400
0x1e227810 0x00000008 0x07ffe0ff 0x000fe400
0x04047812 0x80000000 0x078eec1f 0x004fcc00
0x00047301 0x00000004 0x00000000 0x000e7000
0x00047300 0x00000004 0x000e0000 0x002e6400
0x04127810 0x0000001f 0x07ffe1ff 0x003fc800
0x1e00720c 0x00000012 0x03f46270 0x000fc800
0x11047989 0x08200000 0x000e0012 0x000e2400
0x04047207 0x000000ff 0x05000000 0x001fe400
0x2000720c 0x00000012 0x03f44270 0x000fc600
0x04047824 0x00000001 0x078e0211 0x000fd000
0x04057989 0x08400000 0x000e0012 0x000e2400
0x05057207 0x000000ff 0x05000000 0x001fe400
0x2100720c 0x00000012 0x03f44270 0x000fc600
0x04057824 0x00000001 0x078e0205 0x000fd000
0x05047989 0x08800000 0x000e0012 0x000e2400
0x04047207 0x000000ff 0x05000000 0x001fe400
0x2200720c 0x00000012 0x03f44270 0x000fc600
0x05047824 0x00000001 0x078e0204 0x000fd000
0x04057989 0x09000000 0x000e0012 0x000e2400
0x05057207 0x000000ff 0x05000000 0x001fca00
0x04247824 0x00000001 0x078e0205 0x000fd000
0x24257989 0x0a000000 0x000e0012 0x00006400
0x1e237810 0x00000010 0x07ffe0ff 0x000fe200
0x00ff7355 0x00000000 0x00100000 0x000fe200
0x00007945 0x00000440 0x03800000 0x000fe400
0x2300720c 0x00000012 0x03f44270 0x000fc800
0x25257207 0x000000ff 0x05000000 0x002fca00
0x25247824 0x00000001 0x078e0224 0x001fe400
0x1000780c 0x00000065 0x03f45270 0x000fe200
0x00007947 0x00002862 0x03800000 0x000ff600
0x00047806 0x00000000 0x010e0100 0x000fe200
0x00047886 0x00000000 0x038e0100 0x000fc600
0x04047c12 0x00000004 0x0f8ec0ff 0x000fc800
0x04007c0c 0x00000004 0x0bf42070 0x000fd800
0x0000a947 0x00000390 0x03800000 0x000fea00
0x06067810 0xffffffe0 0x07ffe0ff 0x000fe200
0xff127424 0x00000008 0x078e00ff 0x000fc800
0x06127625 0x00006200 0x078e0212 0x000fd000
0x12107980 0x00000100 0x00114b00 0x00016200
0x01ff7355 0x00000000 0x00100000 0x000fe200
0x00017945 0x00000120 0x03800000 0x000fe400
0x1000780c 0x00000063 0x03f45270 0x020fe200
0x00007947 0x000027f2 0x03800000 0x000ff600
0x00047806 0x00000000 0x050e0100 0x000fc800
0x0400720c 0x000000ff 0x03f45070 0x000fd800
0x0000a947 0x000000c0 0x03800000 0x000fea00
0x00009947 0x00000030 0x03800000 0x000fea00
0x0000795d 0x0000015e 0x03a00000 0x000fe200
0x00007946 0x00000000 0x03800000 0x000fe200
0x00007947 0x00000010 0x03800000 0x000fea00
0x00007992 0x00000000 0x00000000 0x000fea00
0x12107980 0x00000100 0x00114b00 0x00036400
0x00047806 0x00000000 0x038e0100 0x000fe200
0x00007946 0x00000000 0x03800000 0x000fe200
0x00047886 0x00000000 0x038e0100 0x000fe400
0x04ff7c12 0x00000004 0x0f840cff 0x000fd800
0x0000a947 0xffffff01 0x0383ffff 0x023fea00
0x00007947 0xffffffa0 0x0383ffff 0x000fea00
0x00017941 0x00000000 0x03800000 0x000fea00
0x1000780c 0x00000065 0x03f45270 0x000fe200
0x00007947 0x00002732 0x03800000 0x000ff600
0x00047806 0x00000000 0x050e0100 0x000fc800
0x04047812 0x80000000 0x078eec1f 0x000fcc00
0x00047301 0x00000004 0x00000000 0x000e7000
0x00047300 0x00000004 0x000e0000 0x002e6400
0x04127810 0x0000001f 0x07ffe1ff 0x003fc800
0x1e00720c 0x00000012 0x03f46270 0x000fc800
0x11047989 0x08200000 0x000e0012 0x000e2400
0x04047207 0x000000ff 0x05000000 0x001fe400
0x2000720c 0x00000012 0x03f44270 0x000fc600
0x04047824 0x00000001 0x078e0211 0x000fd000
0x04057989 0x08400000 0x000e0012 0x000e2400
0x05057207 0x000000ff 0x05000000 0x001fe400
0x2100720c 0x00000012 0x03f44270 0x000fc600
0x04057824 0x00000001 0x078e0205 0x000fd000
0x05047989 0x08800000 0x000e0012 0x000e2400
0x04047207 0x000000ff 0x05000000 0x001fe400
0x2200720c 0x00000012 0x03f44270 0x000fc600
0x05047824 0x00000001 0x078e0204 0x000fd000
0x04057989 0x09000000 0x000e0012 0x000e2400
0x05057207 0x000000ff 0x05000000 0x001fca00
0x04117824 0x00000001 0x078e0205 0x000fd000
0x11257989 0x0a000000 0x000e0012 0x00006400
0x2300720c 0x00000012 0x03f44270 0x000fc800
0x25257207 0x000000ff 0x05000000 0x002fc800
0x11247210 0x00000025 0x07ffe024 0x000fe400
0x00047806 0x00000000 0x038e0100 0x000fe200
0x00007946 0x00000000 0x03800000 0x000fe200
0x00047886 0x00000000 0x038e0100 0x000fe400
0x04ff7c12 0x00000004 0x0f840cff 0x000fd800
0x0000a947 0xfffffc11 0x0383ffff 0x001fea00
0x00007947 0xffffffa0 0x0383ffff 0x000fea00
0x00007941 0x00000000 0x03800000 0x000fea00
0xff048424 0x00000008 0x078e00ff 0x000fe200
0x1e00720c 0x000000ff 0x03f25270 0x000fe200
0x07078824 0x00000001 0x078e0224 0x000fe400
0xff068424 0x00000065 0x078e00ff 0x000fe400
0x00048625 0x00006200 0x078e0204 0x000fd000
0x04008385 0x00000100 0x00114b06 0x0001e800
0xff008388 0x00002807 0x00000800 0x0003e800
0xff008388 0x00002424 0x00000800 0x0003e800
0xff009388 0x00001424 0x00000800 0x0003e200
0xff047224 0x000000ff 0x078e001d 0x001fc800
0xff049224 0x000000ff 0x078e0024 0x000fc800
0x00007948 0xffffffff 0x03800000 0x000fe800
0x00007b1d 0x00000000 0x00000000 0x000fea00
0xff057984 0x00001400 0x00001800 0x000e2200
0x1400720c 0x000000ff 0x03f05270 0x000fc600
0xff007984 0x00002c00 0x00001800 0x000ea800
0xff067984 0x00002400 0x00001800 0x000ee200
0x05057207 0x000000ff 0x00000000 0x001fe400
0x0000780c 0x00000080 0x03f04270 0x004fc600
0x05047824 0x00000001 0x078e0204 0x000fc800
0x19077824 0x00000001 0x078e0204 0x002fc800
0x1a107824 0x00000001 0x078e0207 0x000fc800
0x1b127824 0x00000001 0x078e0210 0x000fc800
0x1c1c7824 0x00000001 0x078e0212 0x000fe200
0x00000947 0x00000160 0x03800000 0x000fea00
0x2600720c 0x000000ff 0x03f05270 0x008fe400
0x1500720c 0x000000ff 0x03f25270 0x000fe400
0x1600720c 0x000000ff 0x03f45270 0x000fe400
0x1700720c 0x000000ff 0x03f65270 0x000fcc00
0xff050424 0x00000008 0x078e00ff 0x000fe400
0xff061424 0x00000008 0x078e00ff 0x000fe400
0x04040625 0x00005e00 0x078e0205 0x000fc800
0xff112424 0x00000008 0x078e00ff 0x000fe400
0xff133424 0x00000008 0x078e00ff 0x000fe400
0x04000386 0x0000000e 0x0010eb00 0x0001e200
0x1800720c 0x000000ff 0x03f05270 0x000fe200
0x07061625 0x00005e00 0x078e0206 0x000fc800
0x10102625 0x00005e00 0x078e0211 0x000fc800
0x12123625 0x00005e00 0x078e0213 0x000fe200
0x06001386 0x0000000c 0x0010eb00 0x0001e800
0x10002386 0x0000000a 0x0010eb00 0x0001e800
0x12003386 0x00000008 0x0010eb00 0x0001e200
0x0000894d 0x00000000 0x03800000 0x000fea00
0xff047424 0x00000008 0x078e00ff 0x001fc800
0x1c047625 0x00005e00 0x078e0204 0x000fd000
0x04007386 0x00000002 0x0010eb00 0x000fe200
0x0000794d 0x00000000 0x03800000 0x000fea00
0x00007b1d 0x00000000 0x00000000 0x008fea00
0x2600720c 0x000000ff 0x03f05270 0x000fe400
0x1500720c 0x000000ff 0x03f25270 0x000fe400
0x1600720c 0x000000ff 0x03f45270 0x000fc400
0x1700720c 0x000000ff 0x03f65270 0x000fe400
0x1800720c 0x000000ff 0x03f85270 0x000fc800
0x04040824 0x00000001 0x078e0a06 0x100fe400
0x07051824 0x00000001 0x078e0a06 0x100fe400
0x10072824 0x00000001 0x078e0a06 0x100fe400
0x12103824 0x00000001 0x078e0a06 0x100fe400
0x04000388 0x0000000e 0x00008a00 0x000fe200
0x1400720c 0x00000000 0x03f06270 0x000fe200
0x1c114824 0x00000001 0x078e0a06 0x000fc400
0x05001388 0x0000000c 0x00008a00 0x000fe800
0x07002388 0x0000000a 0x00008a00 0x000fe800
0x10003388 0x00000008 0x00008a00 0x000fe800
0x11004388 0x00000002 0x00008a00 0x000fe800
0x00007b1d 0x00000000 0x00000000 0x000fea00
0x0000094d 0x00000000 0x03800000 0x000fea00
0xff037212 0x00000014 0x078e33ff 0x000fe200
0x00ff7355 0x00000000 0x00100000 0x000fe200
0x00007945 0x00000160 0x03800000 0x000fe600
0x03037824 0x00000001 0x078e0200 0x000fca00
0x03027811 0x00000001 0x078fc8ff 0x040fe400
0x0300780c 0x00000180 0x03f26070 0x000fe400
0x02047812 0x00000003 0x0780c0ff 0x000fd800
0x00008947 0x00000100 0x03800000 0x000fea00
0x14027824 0x00000001 0x078e0206 0x000fe400
0xff037424 0x00000008 0x078e00ff 0x000fe400
0xff077224 0x000000ff 0x078e0004 0x000fe400
0x02027625 0x00005e00 0x078e0203 0x000fc800
0xff047224 0x000000ff 0x078e0002 0x000fe400
0xff057224 0x000000ff 0x078e0003 0x000fe400
0x14087824 0x00000008 0x078e00ff 0x000fd000
0x08027984 0x00000000 0x00001a00 0x00006200
0x07077810 0xffffffff 0x07ffe0ff 0x000fe400
0x14147810 0x00000080 0x07ffe0ff 0x000fe400
0x0700720c 0x000000ff 0x03f05270 0x000fe400
0x08087810 0x00000400 0x07ffe0ff 0x001fe200
0x04007386 0x00000002 0x0010eb00 0x0021e400
0x04047810 0x00000400 0x07f5e0ff 0x001fca00
0xff057224 0x000000ff 0x010e0605 0x000fe400
0x00000947 0xffffff70 0x0383ffff 0x000fea00
0x00007941 0x00000000 0x03800000 0x000fea00
0x0000994d 0x00000000 0x03800000 0x000fea00
0x00027824 0x00000001 0x078e0a14 0x000fe200
0x00ff7355 0x00000000 0x00100000 0x000fe200
0xff037424 0x00000008 0x078e00ff 0x000fe200
0x00007945 0x00000310 0x03800000 0x000fe200
0x0000781c 0x00000000 0x03f0f070 0x000fe400
0x0200780c 0x00000600 0x03f24270 0x000fe200
0x14027824 0x00000001 0x078e0206 0x040fe200
0x14047811 0x00000800 0x078e18ff 0x000fc600
0x02027625 0x00005e00 0x078e0203 0x000fce00
0x00009947 0x000002a0 0x03800000 0x000fea00
0x0000781c 0x00000000 0x03f0e170 0x000fe400
0x00057810 0xfffffa00 0x07ffe0ff 0x000fe400
0x04067984 0xfff80000 0x00001a00 0x000e2200
0x14147810 0x00000800 0x07ffe0ff 0x000fc600
0x04087984 0xfffc0000 0x00001a00 0x000e6200
0x1400720c 0x00000005 0x03f26270 0x000fc600
0x040a7984 0x00000000 0x00001a00 0x000ea800
0x040c7984 0x00040000 0x00001a00 0x000ee800
0x040e7984 0x00080000 0x00001a00 0x000f2800
0x04107984 0x000c0000 0x00001a00 0x000f6800
0x04127984 0x00100000 0x00001a00 0x000e2800
0x04167984 0x00140000 0x00001a00 0x000e6800
0x04187984 0x00180000 0x00001a00 0x000ea800
0x041a7984 0x001c0000 0x00001a00 0x000ee800
0x041c7984 0x00200000 0x00001a00 0x000f2800
0x041e7984 0x00240000 0x00001a00 0x000f6800
0x04207984 0x00280000 0x00001a00 0x000f6800
0x04227984 0x002c0000 0x00001a00 0x000f6800
0x04247984 0x00300000 0x00001a00 0x000f6800
0x04267984 0x00340000 0x00001a00 0x00036800
0x02007386 0x00000006 0x0010eb00 0x0011e200
0x04047810 0x00004000 0x07ffe0ff 0x002fc600
0x02007386 0x00040008 0x0010eb00 0x000fe800
0x02007386 0x0008000a 0x0010eb00 0x004fe800
0x02007386 0x000c000c 0x0010eb00 0x008fe200
0x02067810 0x00004000 0x07f5e0ff 0x001fc600
0x02007386 0x0010000e 0x0010eb00 0x010fe400
0xff077224 0x000000ff 0x010e0603 0x000fe400
0x02007386 0x00140010 0x0010eb00 0x020fe800
0x02007386 0x00180012 0x0010eb00 0x000fe800
0x02007386 0x001c0016 0x0010eb00 0x000fe800
0x02007386 0x00200018 0x0010eb00 0x000fe800
0x02007386 0x0024001a 0x0010eb00 0x000fe800
0x02007386 0x0028001c 0x0010eb00 0x000fe800
0x02007386 0x002c001e 0x0010eb00 0x000fe800
0x02007386 0x00300020 0x0010eb00 0x000fe800
0x02007386 0x00340022 0x0010eb00 0x000fe800
0x02007386 0x00380024 0x0010eb00 0x000fe800
0x02007386 0x003c0026 0x0010eb00 0x0001e400
0xff027224 0x000000ff 0x078e0006 0x001fc400
0xff037224 0x000000ff 0x078e0007 0x000fe200
0x00009947 0xfffffd80 0x0383ffff 0x000fea00
0x00007941 0x00000000 0x03800000 0x000fea00
0x00057824 0x00000001 0x078e0a14 0x000fe200
0x00ff7355 0x00000000 0x00100000 0x000fe200
0x00007945 0x00000180 0x03800000 0x000fe600
0x0500780c 0x00000200 0x03f24270 0x000fd800
0x00009947 0x00000150 0x03800000 0x000fea00
0x04067984 0xfff80000 0x00001a00 0x000e2200
0x0000781c 0x00000000 0x03f0e170 0x000fe400
0x14147810 0x00000400 0x07ffe0ff 0x000fe200
0x04087984 0xfffc0000 0x00001a00 0x000e6800
0x040a7984 0x00000000 0x00001a00 0x000ea800
0x040c7984 0x00040000 0x00001a00 0x000ee800
0x040e7984 0x00080000 0x00001a00 0x000f2800
0x04107984 0x000c0000 0x00001a00 0x000f6800
0x04127984 0x00100000 0x00001a00 0x000f6800
0x04167984 0x00140000 0x00001a00 0x00016400
0x04047810 0x00002000 0x07ffe0ff 0x001fc400
0x02007386 0x00000006 0x0010eb00 0x000fe800
0x02007386 0x00040008 0x0010eb00 0x002fe800
0x02007386 0x0008000a 0x0010eb00 0x004fe800
0x02007386 0x000c000c 0x0010eb00 0x008fe800
0x02007386 0x0010000e 0x0010eb00 0x010fe800
0x02007386 0x00140010 0x0010eb00 0x020fe800
0x02007386 0x00180012 0x0010eb00 0x000fe800
0x02007386 0x001c0016 0x0010eb00 0x0001e400
0x02027810 0x00002000 0x07f3e0ff 0x001fca00
0xff037224 0x000000ff 0x008e0603 0x000fc600
0x00007941 0x00000000 0x03800000 0x000fea00
0x1400720c 0x00000000 0x00701670 0x000fd800
0x0000894d 0x00000000 0x03800000 0x000fea00
0x04067984 0xfff80000 0x00001a00 0x000e2800
0x04087984 0xfffc0000 0x00001a00 0x000e6800
0x040a7984 0x00000000 0x00001a00 0x000ea800
0x04047984 0x00040000 0x00001a00 0x000ee800
0x02007386 0x00000006 0x0010eb00 0x001fe800
0x02007386 0x00040008 0x0010eb00 0x002fe800
0x02007386 0x0008000a 0x0010eb00 0x004fe800
0x02007386 0x000c0004 0x0010eb00 0x008fe200
0x0000794d 0x00000000 0x03800000 0x000fea00
0x00007b1d 0x00000000 0x00000000 0x000fea00
0x04127210 0x00000012 0x07f1e0ff 0x000fca00
0x11117824 0x00000001 0x000e0613 0x000fe200
0x12047a11 0x00005c00 0x078010ff 0x000fc800
0x12057a11 0x00005d00 0x000f1411 0x000fd000
0x041c7381 0x00000000 0x001ee900 0x000ea800
0x04117381 0x00000400 0x001ee900 0x000ee800
0x04127381 0x00000800 0x001ee900 0x000f2800
0x04137381 0x00000c00 0x001ee900 0x000f6800
0x04007381 0x00001000 0x001ee900 0x00016800
0x001b7919 0x00000000 0x00000000 0x000e6800
0x00007b1d 0x00000000 0x00000000 0x000fea00
0x1c00720c 0x000000ff 0x03f05270 0x004fc400
0x1100720c 0x000000ff 0x03f25270 0x008fe400
0xff157807 0x00000001 0x04000000 0x000fe400
0x1200720c 0x000000ff 0x03f45270 0x010fe400
0xff167807 0x00000001 0x04800000 0x000fe400
0x1300720c 0x000000ff 0x03f65270 0x020fe400
0xff177807 0x00000001 0x05000000 0x000fc400
0xff187807 0x00000001 0x05800000 0x000fe400
0x17047210 0x00000016 0x07ffe015 0x001fe400
0x0000720c 0x000000ff 0x03f05270 0x000fe400
0x1b00780c 0x0000001f 0x03f25270 0x042fe200
0x18047824 0x00000001 0x078e0204 0x000fe200
0x1b00720c 0x000000ff 0x03f45270 0x000fc800
0x04197810 0x00000001 0x07ffe0ff 0x000fca00
0xff198224 0x000000ff 0x078e0204 0x000fd000
0x19047989 0x04200000 0x000000ff 0x000e2400
0x04040824 0x00000001 0x078e0219 0x001fd000
0x04057989 0x04400000 0x000000ff 0x000e2400
0x04050824 0x00000001 0x078e0205 0x001fd000
0x05047989 0x04800000 0x000000ff 0x000e2400
0x05040824 0x00000001 0x078e0204 0x001fd000
0x04057989 0x05000000 0x000000ff 0x000e2400
0x04050824 0x00000001 0x078e0205 0x001fd000
0x051a7989 0x06000000 0x000000ff 0x000e2400
0x051a0824 0x00000001 0x078e021a 0x001fe200
0x1000780c 0x00000002 0x03f05270 0x000fc600
0x1a197824 0x00000001 0x078e0a19 0x000fc800
0x10009388 0x0000001a 0x00004800 0x000fe800
0x00007b1d 0x00000000 0x00000000 0x000fea00
0xff047984 0x00000000 0x00001c00 0x000e2200
0x1000780c 0x00000003 0x03f25270 0x000fc400
0x19197207 0x000000ff 0x01000000 0x000fe200
0x04057824 0x00000001 0x078e0205 0x001fca00
0x05047207 0x00000004 0x04000000 0x040fe200
0x05057824 0x00000001 0x078e0206 0x000fe200
0x1000720c 0x000000ff 0x03f05270 0x000fc800
0x05047207 0x00000004 0x04800000 0x000fe200
0x07057824 0x00000001 0x078e0205 0x000fe200
0x1400720c 0x000000ff 0x03f25270 0x000fe400
0x04047207 0x000000ff 0x00000000 0x000fe400
0x0500780c 0x00000080 0x03f04270 0x000fc600
0x04197824 0x00000001 0x078e0219 0x000fc800
0x15157824 0x00000001 0x078e0219 0x000fe400
0xff069624 0x00006200 0x078e00ff 0x000fe400
0xff079624 0x00006300 0x078e00ff 0x000fe400
0xff049424 0x00000065 0x078e00ff 0x000fe400
0x16107824 0x00000001 0x078e0215 0x000fc800
0x17177824 0x00000001 0x078e0210 0x000fe400
0x06009385 0x00000100 0x00114b04 0x0001e400
0x18187824 0x00000001 0x078e0217 0x000fe200
0x00000947 0x00000160 0x03800000 0x000fea00
0x1c00720c 0x000000ff 0x03f05270 0x000fe400
0x1100720c 0x000000ff 0x03f25270 0x000fe400
0x1200720c 0x000000ff 0x03f45270 0x000fe400
0x1300720c 0x000000ff 0x03f65270 0x000fcc00
0xff040424 0x00000008 0x078e00ff 0x001fe400
0xff061424 0x00000008 0x078e00ff 0x000fe400
0x19040625 0x00005e00 0x078e0204 0x000fc800
0xff112424 0x00000008 0x078e00ff 0x000fe400
0xff123424 0x00000008 0x078e00ff 0x000fe400
0x04000386 0x0000000e 0x0010eb00 0x0001e200
0x0000720c 0x000000ff 0x03f05270 0x000fe200
0x15061625 0x00005e00 0x078e0206 0x000fc800
0x10102625 0x00005e00 0x078e0211 0x000fc800
0x17123625 0x00005e00 0x078e0212 0x000fe200
0x06001386 0x0000000c 0x0010eb00 0x0001e800
0x10002386 0x0000000a 0x0010eb00 0x0001e800
0x12003386 0x00000008 0x0010eb00 0x0001e200
0x0000894d 0x00000000 0x03800000 0x000fea00
0xff047424 0x00000008 0x078e00ff 0x001fc800
0x18047625 0x00005e00 0x078e0204 0x000fd000
0x04007386 0x00000002 0x0010eb00 0x000fe200
0x0000794d 0x00000000 0x03800000 0x000fea00
0x00007b1d 0x00000000 0x00000000 0x000fea00
0x1c00720c 0x000000ff 0x03f05270 0x000fe400
0x1100720c 0x000000ff 0x03f25270 0x000fe400
0x1200720c 0x000000ff 0x03f45270 0x000fc400
0x1300720c 0x000000ff 0x03f65270 0x000fe400
0x0000720c 0x000000ff 0x03f85270 0x000fc800
0x19000388 0x0000000e 0x00008a00 0x000fe200
0x1400720c 0x00000005 0x03f06270 0x000fc600
0x15001388 0x0000000c 0x00008a00 0x000fe800
0x10002388 0x0000000a 0x00008a00 0x000fe800
0x17003388 0x00000008 0x00008a00 0x000fe800
0x18004388 0x00000002 0x00008a00 0x000fe800
0x00007b1d 0x00000000 0x00000000 0x000fea00
0x0000094d 0x00000000 0x03800000 0x000fea00
0xff027212 0x00000014 0x078e33ff 0x000fe200
0x00ff7355 0x00000000 0x00100000 0x000fe200
0x00007945 0x00000140 0x03800000 0x000fe600
0x02027824 0x00000001 0x078e0205 0x000fca00
0x02007811 0x00000001 0x078fc8ff 0x040fe400
0x0200780c 0x00000180 0x03f26070 0x000fe400
0x00007812 0x00000003 0x0780c0ff 0x000fd800
0x00008947 0x000000e0 0x03800000 0x000fea00
0xff027424 0x00000008 0x078e00ff 0x000fe400
0x14047824 0x00000008 0x078e00ff 0x041fe400
0x14027625 0x00005e00 0x078e0202 0x000fc800
0xff067224 0x000000ff 0x078e0002 0x000fe400
0xff077224 0x000000ff 0x078e0003 0x000fe400
0x04027984 0x00000000 0x00001a00 0x00006200
0x00007810 0xffffffff 0x07ffe0ff 0x000fe400
0x14147810 0x00000080 0x07ffe0ff 0x000fe400
0x0000720c 0x000000ff 0x03f05270 0x000fe400
0x04047810 0x00000400 0x07ffe0ff 0x001fe200
0x06007386 0x00000002 0x0010eb00 0x0021e400
0x06067810 0x00000400 0x07f5e0ff 0x001fca00
0xff077224 0x000000ff 0x010e0607 0x000fe400
0x00000947 0xffffff70 0x0383ffff 0x000fea00
0x00007941 0x00000000 0x03800000 0x000fea00
0x0000994d 0x00000000 0x03800000 0x000fea00
0x05007824 0x00000001 0x078e0a14 0x000fe200
0x00ff7355 0x00000000 0x00100000 0x000fe200
0xff027424 0x00000008 0x078e00ff 0x000fe200
0x00007945 0x00000320 0x03800000 0x000fe400
0x0000780c 0x00000600 0x03f24270 0x000fe200
0x14027625 0x00005e00 0x078e0202 0x040fe200
0x14007811 0x00000800 0x078e18ff 0x000fc800
0x02027810 0x00000800 0x07f1e0ff 0x000fca00
0xff037224 0x000000ff 0x000e0603 0x000fe200
0x0000781c 0x00000000 0x03f0f070 0x000fe200
0x00009947 0x000002a0 0x03800000 0x000fec00
0x0000781c 0x00000000 0x03f0e170 0x000fe400
0x05047810 0xfffffa00 0x07ffe0ff 0x001fc600
0x00067984 0xfff80000 0x00001a00 0x000e2200
0x14147810 0x00000800 0x07ffe0ff 0x000fc600
0x00087984 0xfffc0000 0x00001a00 0x000e6200
0x1400720c 0x00000004 0x03f26270 0x000fc600
0x000a7984 0x00000000 0x00001a00 0x000ea800
0x000c7984 0x00040000 0x00001a00 0x000ee800
0x000e7984 0x00080000 0x00001a00 0x000f2800
0x00107984 0x000c0000 0x00001a00 0x000f6800
0x00127984 0x00100000 0x00001a00 0x000e2800
0x00167984 0x00140000 0x00001a00 0x000e6800
0x00187984 0x00180000 0x00001a00 0x000ea800
0x001a7984 0x001c0000 0x00001a00 0x000ee800
0x001c7984 0x00200000 0x00001a00 0x000f2800
0x001e7984 0x00240000 0x00001a00 0x000f6800
0x00207984 0x00280000 0x00001a00 0x000f6800
0x00227984 0x002c0000 0x00001a00 0x000f6800
0x00247984 0x00300000 0x00001a00 0x000f6800
0x00267984 0x00340000 0x00001a00 0x00036800
0x02007386 0xfff80006 0x0010eb00 0x0011e200
0x00007810 0x00004000 0x07ffe0ff 0x002fc600
0x02007386 0xfffc0008 0x0010eb00 0x000fe800
0x02007386 0x0000000a 0x0010eb00 0x004fe800
0x02007386 0x0004000c 0x0010eb00 0x008fe200
0x02067810 0x00004000 0x07f5e0ff 0x001fc600
0x02007386 0x0008000e 0x0010eb00 0x010fe400
0xff077224 0x000000ff 0x010e0603 0x000fe400
0x02007386 0x000c0010 0x0010eb00 0x020fe800
0x02007386 0x00100012 0x0010eb00 0x000fe800
0x02007386 0x00140016 0x0010eb00 0x000fe800
0x02007386 0x00180018 0x0010eb00 0x000fe800
0x02007386 0x001c001a 0x0010eb00 0x000fe800
0x02007386 0x0020001c 0x0010eb00 0x000fe800
0x02007386 0x0024001e 0x0010eb00 0x000fe800
0x02007386 0x00280020 0x0010eb00 0x000fe800
0x02007386 0x002c0022 0x0010eb00 0x000fe800
0x02007386 0x00300024 0x0010eb00 0x000fe800
0x02007386 0x00340026 0x0010eb00 0x0001e400
0xff027224 0x000000ff 0x078e0006 0x001fc400
0xff037224 0x000000ff 0x078e0007 0x000fe200
0x00009947 0xfffffd80 0x0383ffff 0x000fea00
0x00007941 0x00000000 0x03800000 0x000fea00
0x05047824 0x00000001 0x078e0a14 0x001fe200
0x00ff7355 0x00000000 0x00100000 0x000fe200
0x00007945 0x00000180 0x03800000 0x000fe600
0x0400780c 0x00000200 0x03f24270 0x000fd800
0x00009947 0x00000150 0x03800000 0x000fea00
0x00067984 0xfff80000 0x00001a00 0x000e2200
0x0000781c 0x00000000 0x03f0e170 0x000fe400
0x14147810 0x00000400 0x07ffe0ff 0x000fe200
0x00087984 0xfffc0000 0x00001a00 0x000e6800
0x000a7984 0x00000000 0x00001a00 0x000ea800
0x000c7984 0x00040000 0x00001a00 0x000ee800
0x000e7984 0x00080000 0x00001a00 0x000f2800
0x00107984 0x000c0000 0x00001a00 0x000f6800
0x00127984 0x00100000 0x00001a00 0x000f6800
0x00167984 0x00140000 0x00001a00 0x00016400
0x00007810 0x00002000 0x07ffe0ff 0x001fc400
0x02007386 0xfff80006 0x0010eb00 0x000fe800
0x02007386 0xfffc0008 0x0010eb00 0x002fe800
0x02007386 0x0000000a 0x0010eb00 0x004fe800
0x02007386 0x0004000c 0x0010eb00 0x008fe800
0x02007386 0x0008000e 0x0010eb00 0x010fe800
0x02007386 0x000c0010 0x0010eb00 0x020fe800
0x02007386 0x00100012 0x0010eb00 0x000fe800
0x02007386 0x00140016 0x0010eb00 0x0001e400
0x02027810 0x00002000 0x07f3e0ff 0x001fca00
0xff037224 0x000000ff 0x008e0603 0x000fc600
0x00007941 0x00000000 0x03800000 0x000fea00
0x1400720c 0x00000005 0x00701670 0x000fd800
0x0000894d 0x00000000 0x03800000 0x000fea00
0x00047984 0xfff80000 0x00001a00 0x000e2800
0x00067984 0xfffc0000 0x00001a00 0x000e6800
0x00087984 0x00000000 0x00001a00 0x000ea800
0x000a7984 0x00040000 0x00001a00 0x000ee800
0x02007386 0xfff80004 0x0010eb00 0x001fe800
0x02007386 0xfffc0006 0x0010eb00 0x002fe800
0x02007386 0x00000008 0x0010eb00 0x004fe800
0x02007386 0x0004000a 0x0010eb00 0x008fe200
0x0000794d 0x00000000 0x03800000 0x000fea00
0xff257807 0x00000001 0x01000000 0x000fe200
0xff057424 0xffffffff 0x078e00ff 0x000fe200
0x00047802 0x00005400 0x00000f00 0x000fc600
0x00007944 0x00001030 0x03c00000 0x001fea00
0x2500780c 0x00000001 0x03f42070 0x000fe200
0x00007947 0xffffb380 0x0383ffff 0x000ff600
0xff057807 0x00000001 0x01000000 0x000fe200
0xff257424 0xffffffff 0x078e00ff 0x000fe200
0x00047802 0x00005460 0x00000f00 0x000fc600
0x00007944 0x00001040 0x03c00000 0x003fea00
0x00067919 0x00000000 0x00003c00 0x000e2200
0xff287224 0x000000ff 0x078e0009 0x000fe200
0x00047802 0x00005510 0x00000f00 0x000fe200
0xff277424 0x00000001 0x078e00ff 0x000fe200
0x25257812 0x80000000 0x078eec06 0x001fcc00
0x00257301 0x00000025 0x00000000 0x000e3000
0x00257300 0x00000025 0x000e0000 0x001e2400
0x25167810 0x0000001f 0x07ffe1ff 0x001fe200
0xff257424 0xffffffff 0x078e00ff 0x000fc800
0xff057224 0x000000ff 0x078e0016 0x000fc600
0x00007944 0x00000e30 0x03c00000 0x000fea00
0x1800720c 0x00000016 0x03f46270 0x000fe200
0xff277424 0x00000002 0x078e00ff 0x000fe200
0x00047802 0x000055a0 0x00000f00 0x000fe200
0xff057224 0x000000ff 0x078e0016 0x000fe200
0x25257207 0x000000ff 0x05000000 0x002fca00
0x25097824 0x00000001 0x078e0209 0x000fe400
0xff257424 0xffffffff 0x078e00ff 0x000fe400
0xff287224 0x000000ff 0x078e0009 0x000fc600
0x00007944 0x00000da0 0x03c00000 0x000fea00
0x181b7810 0x00000002 0x07ffe0ff 0x000fe200
0xff277424 0x00000004 0x078e00ff 0x000fe200
0x00047802 0x00005640 0x00000f00 0x000fe200
0xff057224 0x000000ff 0x078e0016 0x000fe200
0x1b00720c 0x00000016 0x03f44270 0x000fc800
0x25257207 0x000000ff 0x05000000 0x002fca00
0x09097824 0x00000001 0x078e0225 0x000fe400
0xff257424 0xffffffff 0x078e00ff 0x000fe400
0xff287224 0x000000ff 0x078e0009 0x000fc600
0x00007944 0x00000d00 0x03c00000 0x000fea00
0x181c7810 0x00000004 0x07ffe0ff 0x000fe200
0xff277424 0x00000008 0x078e00ff 0x000fe200
0x00047802 0x000056e0 0x00000f00 0x000fe200
0xff057224 0x000000ff 0x078e0016 0x000fe200
0x1c00720c 0x00000016 0x03f44270 0x000fc800
0x25257207 0x000000ff 0x05000000 0x002fca00
0x09097824 0x00000001 0x078e0225 0x000fe400
0xff257424 0xffffffff 0x078e00ff 0x000fe400
0xff287224 0x000000ff 0x078e0009 0x000fc600
0x00007944 0x00000c60 0x03c00000 0x000fea00
0x181d7810 0x00000008 0x07ffe0ff 0x000fe200
0xff277424 0x00000010 0x078e00ff 0x000fe200
0x00047802 0x00005780 0x00000f00 0x000fe200
0xff057224 0x000000ff 0x078e0016 0x000fe200
0x1d00720c 0x00000016 0x03f44270 0x000fc800
0x251a7207 0x000000ff 0x05000000 0x002fe200
0xff257424 0xffffffff 0x078e00ff 0x000fc800
0x091a7824 0x00000001 0x078e021a 0x000fc800
0xff287224 0x000000ff 0x078e001a 0x000fc600
0x00007944 0x00000bc0 0x03c00000 0x000fea00
0x00007947 0xffffb2c0 0x0383ffff 0x000fea00
0xff047807 0x00000001 0x05000000 0x000fe200
0xff057424 0xffffffff 0x078e00ff 0x000fe200
0x00257802 0x000057d0 0x00000f00 0x000fc600
0x00007944 0x00000bb0 0x03c00000 0x000fea00
0x2700780c 0x00000001 0x03f42070 0x000fe200
0x00007947 0xffffb320 0x0383ffff 0x000ff600
0xff257807 0x00000001 0x01000000 0x000fe200
0xff057424 0xffffffff 0x078e00ff 0x000fe200
0x00047802 0x00005830 0x00000f00 0x000fc600
0x00007944 0x00000c00 0x03c00000 0x001fea00
0x2500780c 0x00000001 0x03f42070 0x000fe200
0x00007947 0xffffb370 0x0383ffff 0x000ff600
0xff057807 0x00000001 0x01000000 0x000fe200
0xff257424 0xffffffff 0x078e00ff 0x000fe200
0x00047802 0x00005890 0x00000f00 0x000fc600
0x00007944 0x00000c10 0x03c00000 0x001fea00
0x25257812 0x80000000 0x078eec06 0x000fe200
0xff287224 0x000000ff 0x078e0009 0x000fe200
0x00047802 0x00005930 0x00000f00 0x000fe200
0xff277424 0x00000001 0x078e00ff 0x000fc600
0x00257301 0x00000025 0x00000000 0x000e3000
0x00257300 0x00000025 0x000e0000 0x001e2400
0x25167810 0x0000001f 0x07ffe1ff 0x001fe200
0xff257424 0xffffffff 0x078e00ff 0x000fc800
0xff057224 0x000000ff 0x078e0016 0x000fc600
0x00007944 0x00000a10 0x03c00000 0x000fea00
0x1800720c 0x00000016 0x03f46270 0x000fe200
0xff277424 0x00000002 0x078e00ff 0x000fe200
0x00047802 0x000059c0 0x00000f00 0x000fe200
0xff057224 0x000000ff 0x078e0016 0x000fe200
0x25257207 0x000000ff 0x05000000 0x002fca00
0x25097824 0x00000001 0x078e0209 0x000fe400
0xff257424 0xffffffff 0x078e00ff 0x000fe400
0xff287224 0x000000ff 0x078e0009 0x000fc600
0x00007944 0x00000980 0x03c00000 0x000fea00
0x1b00720c 0x00000016 0x03f44270 0x000fe200
0xff277424 0x00000004 0x078e00ff 0x000fe200
0x00047802 0x00005a50 0x00000f00 0x000fe200
0xff057224 0x000000ff 0x078e0016 0x000fe200
0x25257207 0x000000ff 0x05000000 0x002fca00
0x09097824 0x00000001 0x078e0225 0x000fe400
0xff257424 0xffffffff 0x078e00ff 0x000fe400
0xff287224 0x000000ff 0x078e0009 0x000fc600
0x00007944 0x000008f0 0x03c00000 0x000fea00
0x1c00720c 0x00000016 0x03f44270 0x000fe200
0xff277424 0x00000008 0x078e00ff 0x000fe200
0x00047802 0x00005ae0 0x00000f00 0x000fe200
0xff057224 0x000000ff 0x078e0016 0x000fe200
0x25257207 0x000000ff 0x05000000 0x002fca00
0x09177824 0x00000001 0x078e0225 0x000fe400
