
Fatbin elf code:
================
arch = sm_75
code version = [1,7]
host = linux
compile_size = 64bit

64bit elf: type=2, abi=7, sm=75, toolkit=125, flags = 0x4b054b
Sections:
Index Offset   Size ES Align        Type        Flags Link     Info Name
    1     40     5d  0  1            STRTAB       0    0        0 .shstrtab
    2     9d     5d  0  1            STRTAB       0    0        0 .strtab
    3    100     48 18  8            SYMTAB       0    2        3 .symtab
    4    148     20  8  4    CUDA_CALLGRAPH       0    3        0 .nv.callgraph
    5    168     10  8  8    CUDA_RELOCINFO       0    0        0 .nv.rel.action

.section .strtab

.section .shstrtab

.section .symtab
 index           value           size      info    other  shndx    name  
   0               0               0        0        0      0     (null)
 0x1               0               0      0x3        0    0x4     .nv.callgraph
 0x2               0               0      0x3        0    0x5     .nv.rel.action


.nv.callgraph
 <0,-1>
 <0,-2>
 <0,-3>
 <0,-4>


.nv.rel.action
Header : Base Relocation : R_CUDA_CONST_FIELD22_37
Reloc type : Symbol Kind,Addend Shift,Source Position1,length1,Destination Position1,Source Position2,length2,Destination Position2
R_CUDA_CONST_FIELD22_37 : EIVALUE_SYM_KIND_ADDR,0,0,17,37,0,5,54

Fatbin elf code:
================
arch = sm_75
code version = [1,7]
host = linux
compile_size = 64bit

64bit elf: type=2, abi=7, sm=75, toolkit=125, flags = 0x4b054b
Sections:
Index Offset   Size ES Align        Type        Flags Link     Info Name
    1     40   8e74  0  1            STRTAB       0    0        0 .shstrtab
    2   8eb4   b377  0  1            STRTAB       0    0        0 .strtab
    3  14230   13e0 18  8            SYMTAB       0    2       af .symtab
    4  15610   2400  0  1          PROGBITS       0    0        0 .debug_frame
    5  17a10    ab0  0  4         CUDA_INFO       0    3        0 .nv.info
    6  184c0    684  0  4         CUDA_INFO      40    3       55 .nv.info._ZN3cub17CUB_200400_750_NS29DeviceRadixSortOnesweepKernelINS0_21DeviceRadixSortPolicyIiljE9Policy900ELb0EiljiiNS0_6detail21identity_decomposer_tEEEvPT5_S8_PT3_PKS9_PT1_PKSD_PT2_PKSH_T4_iiT6_
    7  18b44     a0  0  4         CUDA_INFO      40    3       56 .nv.info._ZN3cub17CUB_200400_750_NS33DeviceRadixSortExclusiveSumKernelINS0_21DeviceRadixSortPolicyIiljE9Policy900EjEEvPT0_
    8  18be4     bc  0  4         CUDA_INFO      40    3       57 .nv.info._ZN3cub17CUB_200400_750_NS30DeviceRadixSortHistogramKernelINS0_21DeviceRadixSortPolicyIiljE9Policy900ELb0EijNS0_6detail21identity_decomposer_tEEEvPT2_PKT1_S7_iiT3_
    9  18ca0    1b8  0  4         CUDA_INFO      40    3       58 .nv.info._ZN3cub17CUB_200400_750_NS30DeviceRadixSortDownsweepKernelINS0_21DeviceRadixSortPolicyIiljE9Policy900ELb1ELb0EiljNS0_6detail21identity_decomposer_tEEEvPKT2_PS7_PKT3_PSB_PT4_SF_iiNS0_13GridEvenShareISF_EET5_
    a  18e58    81c  0  4         CUDA_INFO      40    3       59 .nv.info._ZN3cub17CUB_200400_750_NS30DeviceRadixSortDownsweepKernelINS0_21DeviceRadixSortPolicyIiljE9Policy900ELb0ELb0EiljNS0_6detail21identity_decomposer_tEEEvPKT2_PS7_PKT3_PSB_PT4_SF_iiNS0_13GridEvenShareISF_EET5_
    b  19674    17c  0  4         CUDA_INFO      40    3       5a .nv.info._ZN3cub17CUB_200400_750_NS23RadixSortScanBinsKernelINS0_21DeviceRadixSortPolicyIiljE9Policy900EjEEvPT0_i
    c  197f0     b8  0  4         CUDA_INFO      40    3       5b .nv.info._ZN3cub17CUB_200400_750_NS28DeviceRadixSortUpsweepKernelINS0_21DeviceRadixSortPolicyIiljE9Policy900ELb1ELb0EijNS0_6detail21identity_decomposer_tEEEvPKT2_PT3_SA_iiNS0_13GridEvenShareISA_EET4_
    d  198a8     b8  0  4         CUDA_INFO      40    3       5c .nv.info._ZN3cub17CUB_200400_750_NS28DeviceRadixSortUpsweepKernelINS0_21DeviceRadixSortPolicyIiljE9Policy900ELb0ELb0EijNS0_6detail21identity_decomposer_tEEEvPKT2_PT3_SA_iiNS0_13GridEvenShareISA_EET4_
    e  19960     f8  0  4         CUDA_INFO      40    3       5d .nv.info._ZN3cub17CUB_200400_750_NS31DeviceRadixSortSingleTileKernelINS0_21DeviceRadixSortPolicyIiljE9Policy900ELb0EiljNS0_6detail21identity_decomposer_tEEEvPKT1_PS7_PKT2_PSB_T3_iiT4_
    f  19a58    b64  0  4         CUDA_INFO      40    3       5e .nv.info._ZN3cub17CUB_200400_750_NS29DeviceRadixSortOnesweepKernelINS0_21DeviceRadixSortPolicyIisjE9Policy900ELb0EisjiiNS0_6detail21identity_decomposer_tEEEvPT5_S8_PT3_PKS9_PT1_PKSD_PT2_PKSH_T4_iiT6_
   10  1a5bc     a0  0  4         CUDA_INFO      40    3       5f .nv.info._ZN3cub17CUB_200400_750_NS33DeviceRadixSortExclusiveSumKernelINS0_21DeviceRadixSortPolicyIisjE9Policy900EjEEvPT0_
   11  1a65c     bc  0  4         CUDA_INFO      40    3       60 .nv.info._ZN3cub17CUB_200400_750_NS30DeviceRadixSortHistogramKernelINS0_21DeviceRadixSortPolicyIisjE9Policy900ELb0EijNS0_6detail21identity_decomposer_tEEEvPT2_PKT1_S7_iiT3_
   12  1a718    1b8  0  4         CUDA_INFO      40    3       61 .nv.info._ZN3cub17CUB_200400_750_NS30DeviceRadixSortDownsweepKernelINS0_21DeviceRadixSortPolicyIisjE9Policy900ELb1ELb0EisjNS0_6detail21identity_decomposer_tEEEvPKT2_PS7_PKT3_PSB_PT4_SF_iiNS0_13GridEvenShareISF_EET5_
   13  1a8d0    edc  0  4         CUDA_INFO      40    3       62 .nv.info._ZN3cub17CUB_200400_750_NS30DeviceRadixSortDownsweepKernelINS0_21DeviceRadixSortPolicyIisjE9Policy900ELb0ELb0EisjNS0_6detail21identity_decomposer_tEEEvPKT2_PS7_PKT3_PSB_PT4_SF_iiNS0_13GridEvenShareISF_EET5_
   14  1b7ac    17c  0  4         CUDA_INFO      40    3       63 .nv.info._ZN3cub17CUB_200400_750_NS23RadixSortScanBinsKernelINS0_21DeviceRadixSortPolicyIisjE9Policy900EjEEvPT0_i
   15  1b928     b8  0  4         CUDA_INFO      40    3       64 .nv.info._ZN3cub17CUB_200400_750_NS28DeviceRadixSortUpsweepKernelINS0_21DeviceRadixSortPolicyIisjE9Policy900ELb1ELb0EijNS0_6detail21identity_decomposer_tEEEvPKT2_PT3_SA_iiNS0_13GridEvenShareISA_EET4_
   16  1b9e0     b8  0  4         CUDA_INFO      40    3       65 .nv.info._ZN3cub17CUB_200400_750_NS28DeviceRadixSortUpsweepKernelINS0_21DeviceRadixSortPolicyIisjE9Policy900ELb0ELb0EijNS0_6detail21identity_decomposer_tEEEvPKT2_PT3_SA_iiNS0_13GridEvenShareISA_EET4_
   17  1ba98     f8  0  4         CUDA_INFO      40    3       66 .nv.info._ZN3cub17CUB_200400_750_NS31DeviceRadixSortSingleTileKernelINS0_21DeviceRadixSortPolicyIisjE9Policy900ELb0EisjNS0_6detail21identity_decomposer_tEEEvPKT1_PS7_PKT2_PSB_T3_iiT4_
   18  1bb90   14bc  0  4         CUDA_INFO      40    3       67 .nv.info._ZN3cub17CUB_200400_750_NS29DeviceRadixSortOnesweepKernelINS0_21DeviceRadixSortPolicyIiijE9Policy900ELb0EiijiiNS0_6detail21identity_decomposer_tEEEvPT5_S8_PT3_PKS9_PT1_PKSD_PT2_PKSH_T4_iiT6_
   19  1d04c     a0  0  4         CUDA_INFO      40    3       68 .nv.info._ZN3cub17CUB_200400_750_NS33DeviceRadixSortExclusiveSumKernelINS0_21DeviceRadixSortPolicyIiijE9Policy900EjEEvPT0_
   1a  1d0ec     bc  0  4         CUDA_INFO      40    3       69 .nv.info._ZN3cub17CUB_200400_750_NS30DeviceRadixSortHistogramKernelINS0_21DeviceRadixSortPolicyIiijE9Policy900ELb0EijNS0_6detail21identity_decomposer_tEEEvPT2_PKT1_S7_iiT3_
   1b  1d1a8    1b8  0  4         CUDA_INFO      40    3       6a .nv.info._ZN3cub17CUB_200400_750_NS30DeviceRadixSortDownsweepKernelINS0_21DeviceRadixSortPolicyIiijE9Policy900ELb1ELb0EiijNS0_6detail21identity_decomposer_tEEEvPKT2_PS7_PKT3_PSB_PT4_SF_iiNS0_13GridEvenShareISF_EET5_
   1c  1d360    edc  0  4         CUDA_INFO      40    3       6b .nv.info._ZN3cub17CUB_200400_750_NS30DeviceRadixSortDownsweepKernelINS0_21DeviceRadixSortPolicyIiijE9Policy900ELb0ELb0EiijNS0_6detail21identity_decomposer_tEEEvPKT2_PS7_PKT3_PSB_PT4_SF_iiNS0_13GridEvenShareISF_EET5_
   1d  1e23c    17c  0  4         CUDA_INFO      40    3       6c .nv.info._ZN3cub17CUB_200400_750_NS23RadixSortScanBinsKernelINS0_21DeviceRadixSortPolicyIiijE9Policy900EjEEvPT0_i
   1e  1e3b8     b8  0  4         CUDA_INFO      40    3       6d .nv.info._ZN3cub17CUB_200400_750_NS28DeviceRadixSortUpsweepKernelINS0_21DeviceRadixSortPolicyIiijE9Policy900ELb1ELb0EijNS0_6detail21identity_decomposer_tEEEvPKT2_PT3_SA_iiNS0_13GridEvenShareISA_EET4_
   1f  1e470     b8  0  4         CUDA_INFO      40    3       6e .nv.info._ZN3cub17CUB_200400_750_NS28DeviceRadixSortUpsweepKernelINS0_21DeviceRadixSortPolicyIiijE9Policy900ELb0ELb0EijNS0_6detail21identity_decomposer_tEEEvPKT2_PT3_SA_iiNS0_13GridEvenShareISA_EET4_
   20  1e528     f8  0  4         CUDA_INFO      40    3       6f .nv.info._ZN3cub17CUB_200400_750_NS31DeviceRadixSortSingleTileKernelINS0_21DeviceRadixSortPolicyIiijE9Policy900ELb0EiijNS0_6detail21identity_decomposer_tEEEvPKT1_PS7_PKT2_PSB_T3_iiT4_
   21  1e620    b64  0  4         CUDA_INFO      40    3       70 .nv.info._ZN3cub17CUB_200400_750_NS29DeviceRadixSortOnesweepKernelINS0_21DeviceRadixSortPolicyIihjE9Policy900ELb0EihjiiNS0_6detail21identity_decomposer_tEEEvPT5_S8_PT3_PKS9_PT1_PKSD_PT2_PKSH_T4_iiT6_
   22  1f184     a0  0  4         CUDA_INFO      40    3       71 .nv.info._ZN3cub17CUB_200400_750_NS33DeviceRadixSortExclusiveSumKernelINS0_21DeviceRadixSortPolicyIihjE9Policy900EjEEvPT0_
   23  1f224     bc  0  4         CUDA_INFO      40    3       72 .nv.info._ZN3cub17CUB_200400_750_NS30DeviceRadixSortHistogramKernelINS0_21DeviceRadixSortPolicyIihjE9Policy900ELb0EijNS0_6detail21identity_decomposer_tEEEvPT2_PKT1_S7_iiT3_
   24  1f2e0    1b8  0  4         CUDA_INFO      40    3       73 .nv.info._ZN3cub17CUB_200400_750_NS30DeviceRadixSortDownsweepKernelINS0_21DeviceRadixSortPolicyIihjE9Policy900ELb1ELb0EihjNS0_6detail21identity_decomposer_tEEEvPKT2_PS7_PKT3_PSB_PT4_SF_iiNS0_13GridEvenShareISF_EET5_
   25  1f498    edc  0  4         CUDA_INFO      40    3       74 .nv.info._ZN3cub17CUB_200400_750_NS30DeviceRadixSortDownsweepKernelINS0_21DeviceRadixSortPolicyIihjE9Policy900ELb0ELb0EihjNS0_6detail21identity_decomposer_tEEEvPKT2_PS7_PKT3_PSB_PT4_SF_iiNS0_13GridEvenShareISF_EET5_
   26  20374    17c  0  4         CUDA_INFO      40    3       75 .nv.info._ZN3cub17CUB_200400_750_NS23RadixSortScanBinsKernelINS0_21DeviceRadixSortPolicyIihjE9Policy900EjEEvPT0_i
   27  204f0     b8  0  4         CUDA_INFO      40    3       76 .nv.info._ZN3cub17CUB_200400_750_NS28DeviceRadixSortUpsweepKernelINS0_21DeviceRadixSortPolicyIihjE9Policy900ELb1ELb0EijNS0_6detail21identity_decomposer_tEEEvPKT2_PT3_SA_iiNS0_13GridEvenShareISA_EET4_
   28  205a8     b8  0  4         CUDA_INFO      40    3       77 .nv.info._ZN3cub17CUB_200400_750_NS28DeviceRadixSortUpsweepKernelINS0_21DeviceRadixSortPolicyIihjE9Policy900ELb0ELb0EijNS0_6detail21identity_decomposer_tEEEvPKT2_PT3_SA_iiNS0_13GridEvenShareISA_EET4_
   29  20660     f8  0  4         CUDA_INFO      40    3       78 .nv.info._ZN3cub17CUB_200400_750_NS31DeviceRadixSortSingleTileKernelINS0_21DeviceRadixSortPolicyIihjE9Policy900ELb0EihjNS0_6detail21identity_decomposer_tEEEvPKT1_PS7_PKT2_PSB_T3_iiT4_
   2a  20758     1c  0  4         CUDA_INFO      40    3       79 .nv.info._ZN3cub17CUB_200400_750_NS11EmptyKernelIvEEvv
   2b  20774     20  8  4    CUDA_CALLGRAPH       0    3        0 .nv.callgraph
   2c  20798     10  8  8    CUDA_RELOCINFO       0    0        0 .nv.rel.action
   2d  207a8    130 10  8               REL      40    3       2f .rel.nv.constant4
   2e  208d8    750 10  8               REL      40    3        4 .rel.debug_frame
   2f  21028     98  0  8          PROGBITS       2    0        0 .nv.constant4
   30  210c0    1ad  0  4          PROGBITS      42    0       55 .nv.constant0._ZN3cub17CUB_200400_750_NS29DeviceRadixSortOnesweepKernelINS0_21DeviceRadixSortPolicyIiljE9Policy900ELb0EiljiiNS0_6detail21identity_decomposer_tEEEvPT5_S8_PT3_PKS9_PT1_PKSD_PT2_PKSH_T4_iiT6_
   31  21270    168  0  4          PROGBITS      42    0       56 .nv.constant0._ZN3cub17CUB_200400_750_NS33DeviceRadixSortExclusiveSumKernelINS0_21DeviceRadixSortPolicyIiljE9Policy900EjEEvPT0_
   32  213d8    17d  0  4          PROGBITS      42    0       57 .nv.constant0._ZN3cub17CUB_200400_750_NS30DeviceRadixSortHistogramKernelINS0_21DeviceRadixSortPolicyIiljE9Policy900ELb0EijNS0_6detail21identity_decomposer_tEEEvPT2_PKT1_S7_iiT3_
   33  21558    1bd  0  4          PROGBITS      42    0       58 .nv.constant0._ZN3cub17CUB_200400_750_NS30DeviceRadixSortDownsweepKernelINS0_21DeviceRadixSortPolicyIiljE9Policy900ELb1ELb0EiljNS0_6detail21identity_decomposer_tEEEvPKT2_PS7_PKT3_PSB_PT4_SF_iiNS0_13GridEvenShareISF_EET5_
   34  21718    1bd  0  4          PROGBITS      42    0       59 .nv.constant0._ZN3cub17CUB_200400_750_NS30DeviceRadixSortDownsweepKernelINS0_21DeviceRadixSortPolicyIiljE9Policy900ELb0ELb0EiljNS0_6detail21identity_decomposer_tEEEvPKT2_PS7_PKT3_PSB_PT4_SF_iiNS0_13GridEvenShareISF_EET5_
   35  218d8    16c  0  4          PROGBITS      42    0       5a .nv.constant0._ZN3cub17CUB_200400_750_NS23RadixSortScanBinsKernelINS0_21DeviceRadixSortPolicyIiljE9Policy900EjEEvPT0_i
   36  21a44    1a5  0  4          PROGBITS      42    0       5b .nv.constant0._ZN3cub17CUB_200400_750_NS28DeviceRadixSortUpsweepKernelINS0_21DeviceRadixSortPolicyIiljE9Policy900ELb1ELb0EijNS0_6detail21identity_decomposer_tEEEvPKT2_PT3_SA_iiNS0_13GridEvenShareISA_EET4_
   37  21bec    1a5  0  4          PROGBITS      42    0       5c .nv.constant0._ZN3cub17CUB_200400_750_NS28DeviceRadixSortUpsweepKernelINS0_21DeviceRadixSortPolicyIiljE9Policy900ELb0ELb0EijNS0_6detail21identity_decomposer_tEEEvPKT2_PT3_SA_iiNS0_13GridEvenShareISA_EET4_
   38  21d94    18d  0  4          PROGBITS      42    0       5d .nv.constant0._ZN3cub17CUB_200400_750_NS31DeviceRadixSortSingleTileKernelINS0_21DeviceRadixSortPolicyIiljE9Policy900ELb0EiljNS0_6detail21identity_decomposer_tEEEvPKT1_PS7_PKT2_PSB_T3_iiT4_
   39  21f24    1ad  0  4          PROGBITS      42    0       5e .nv.constant0._ZN3cub17CUB_200400_750_NS29DeviceRadixSortOnesweepKernelINS0_21DeviceRadixSortPolicyIisjE9Policy900ELb0EisjiiNS0_6detail21identity_decomposer_tEEEvPT5_S8_PT3_PKS9_PT1_PKSD_PT2_PKSH_T4_iiT6_
   3a  220d4    168  0  4          PROGBITS      42    0       5f .nv.constant0._ZN3cub17CUB_200400_750_NS33DeviceRadixSortExclusiveSumKernelINS0_21DeviceRadixSortPolicyIisjE9Policy900EjEEvPT0_
   3b  2223c    17d  0  4          PROGBITS      42    0       60 .nv.constant0._ZN3cub17CUB_200400_750_NS30DeviceRadixSortHistogramKernelINS0_21DeviceRadixSortPolicyIisjE9Policy900ELb0EijNS0_6detail21identity_decomposer_tEEEvPT2_PKT1_S7_iiT3_
   3c  223bc    1bd  0  4          PROGBITS      42    0       61 .nv.constant0._ZN3cub17CUB_200400_750_NS30DeviceRadixSortDownsweepKernelINS0_21DeviceRadixSortPolicyIisjE9Policy900ELb1ELb0EisjNS0_6detail21identity_decomposer_tEEEvPKT2_PS7_PKT3_PSB_PT4_SF_iiNS0_13GridEvenShareISF_EET5_
   3d  2257c    1bd  0  4          PROGBITS      42    0       62 .nv.constant0._ZN3cub17CUB_200400_750_NS30DeviceRadixSortDownsweepKernelINS0_21DeviceRadixSortPolicyIisjE9Policy900ELb0ELb0EisjNS0_6detail21identity_decomposer_tEEEvPKT2_PS7_PKT3_PSB_PT4_SF_iiNS0_13GridEvenShareISF_EET5_
   3e  2273c    16c  0  4          PROGBITS      42    0       63 .nv.constant0._ZN3cub17CUB_200400_750_NS23RadixSortScanBinsKernelINS0_21DeviceRadixSortPolicyIisjE9Policy900EjEEvPT0_i
   3f  228a8    1a5  0  4          PROGBITS      42    0       64 .nv.constant0._ZN3cub17CUB_200400_750_NS28DeviceRadixSortUpsweepKernelINS0_21DeviceRadixSortPolicyIisjE9Policy900ELb1ELb0EijNS0_6detail21identity_decomposer_tEEEvPKT2_PT3_SA_iiNS0_13GridEvenShareISA_EET4_
   40  22a50    1a5  0  4          PROGBITS      42    0       65 .nv.constant0._ZN3cub17CUB_200400_750_NS28DeviceRadixSortUpsweepKernelINS0_21DeviceRadixSortPolicyIisjE9Policy900ELb0ELb0EijNS0_6detail21identity_decomposer_tEEEvPKT2_PT3_SA_iiNS0_13GridEvenShareISA_EET4_
   41  22bf8    18d  0  4          PROGBITS      42    0       66 .nv.constant0._ZN3cub17CUB_200400_750_NS31DeviceRadixSortSingleTileKernelINS0_21DeviceRadixSortPolicyIisjE9Policy900ELb0EisjNS0_6detail21identity_decomposer_tEEEvPKT1_PS7_PKT2_PSB_T3_iiT4_
   42  22d88    1ad  0  4          PROGBITS      42    0       67 .nv.constant0._ZN3cub17CUB_200400_750_NS29DeviceRadixSortOnesweepKernelINS0_21DeviceRadixSortPolicyIiijE9Policy900ELb0EiijiiNS0_6detail21identity_decomposer_tEEEvPT5_S8_PT3_PKS9_PT1_PKSD_PT2_PKSH_T4_iiT6_
   43  22f38    168  0  4          PROGBITS      42    0       68 .nv.constant0._ZN3cub17CUB_200400_750_NS33DeviceRadixSortExclusiveSumKernelINS0_21DeviceRadixSortPolicyIiijE9Policy900EjEEvPT0_
   44  230a0    17d  0  4          PROGBITS      42    0       69 .nv.constant0._ZN3cub17CUB_200400_750_NS30DeviceRadixSortHistogramKernelINS0_21DeviceRadixSortPolicyIiijE9Policy900ELb0EijNS0_6detail21identity_decomposer_tEEEvPT2_PKT1_S7_iiT3_
   45  23220    1bd  0  4          PROGBITS      42    0       6a .nv.constant0._ZN3cub17CUB_200400_750_NS30DeviceRadixSortDownsweepKernelINS0_21DeviceRadixSortPolicyIiijE9Policy900ELb1ELb0EiijNS0_6detail21identity_decomposer_tEEEvPKT2_PS7_PKT3_PSB_PT4_SF_iiNS0_13GridEvenShareISF_EET5_
   46  233e0    1bd  0  4          PROGBITS      42    0       6b .nv.constant0._ZN3cub17CUB_200400_750_NS30DeviceRadixSortDownsweepKernelINS0_21DeviceRadixSortPolicyIiijE9Policy900ELb0ELb0EiijNS0_6detail21identity_decomposer_tEEEvPKT2_PS7_PKT3_PSB_PT4_SF_iiNS0_13GridEvenShareISF_EET5_
   47  235a0    16c  0  4          PROGBITS      42    0       6c .nv.constant0._ZN3cub17CUB_200400_750_NS23RadixSortScanBinsKernelINS0_21DeviceRadixSortPolicyIiijE9Policy900EjEEvPT0_i
   48  2370c    1a5  0  4          PROGBITS      42    0       6d .nv.constant0._ZN3cub17CUB_200400_750_NS28DeviceRadixSortUpsweepKernelINS0_21DeviceRadixSortPolicyIiijE9Policy900ELb1ELb0EijNS0_6detail21identity_decomposer_tEEEvPKT2_PT3_SA_iiNS0_13GridEvenShareISA_EET4_
   49  238b4    1a5  0  4          PROGBITS      42    0       6e .nv.constant0._ZN3cub17CUB_200400_750_NS28DeviceRadixSortUpsweepKernelINS0_21DeviceRadixSortPolicyIiijE9Policy900ELb0ELb0EijNS0_6detail21identity_decomposer_tEEEvPKT2_PT3_SA_iiNS0_13GridEvenShareISA_EET4_
   4a  23a5c    18d  0  4          PROGBITS      42    0       6f .nv.constant0._ZN3cub17CUB_200400_750_NS31DeviceRadixSortSingleTileKernelINS0_21DeviceRadixSortPolicyIiijE9Policy900ELb0EiijNS0_6detail21identity_decomposer_tEEEvPKT1_PS7_PKT2_PSB_T3_iiT4_
   4b  23bec    1ad  0  4          PROGBITS      42    0       70 .nv.constant0._ZN3cub17CUB_200400_750_NS29DeviceRadixSortOnesweepKernelINS0_21DeviceRadixSortPolicyIihjE9Policy900ELb0EihjiiNS0_6detail21identity_decomposer_tEEEvPT5_S8_PT3_PKS9_PT1_PKSD_PT2_PKSH_T4_iiT6_
   4c  23d9c    168  0  4          PROGBITS      42    0       71 .nv.constant0._ZN3cub17CUB_200400_750_NS33DeviceRadixSortExclusiveSumKernelINS0_21DeviceRadixSortPolicyIihjE9Policy900EjEEvPT0_
   4d  23f04    17d  0  4          PROGBITS      42    0       72 .nv.constant0._ZN3cub17CUB_200400_750_NS30DeviceRadixSortHistogramKernelINS0_21DeviceRadixSortPolicyIihjE9Policy900ELb0EijNS0_6detail21identity_decomposer_tEEEvPT2_PKT1_S7_iiT3_
   4e  24084    1bd  0  4          PROGBITS      42    0       73 .nv.constant0._ZN3cub17CUB_200400_750_NS30DeviceRadixSortDownsweepKernelINS0_21DeviceRadixSortPolicyIihjE9Policy900ELb1ELb0EihjNS0_6detail21identity_decomposer_tEEEvPKT2_PS7_PKT3_PSB_PT4_SF_iiNS0_13GridEvenShareISF_EET5_
   4f  24244    1bd  0  4          PROGBITS      42    0       74 .nv.constant0._ZN3cub17CUB_200400_750_NS30DeviceRadixSortDownsweepKernelINS0_21DeviceRadixSortPolicyIihjE9Policy900ELb0ELb0EihjNS0_6detail21identity_decomposer_tEEEvPKT2_PS7_PKT3_PSB_PT4_SF_iiNS0_13GridEvenShareISF_EET5_
   50  24404    16c  0  4          PROGBITS      42    0       75 .nv.constant0._ZN3cub17CUB_200400_750_NS23RadixSortScanBinsKernelINS0_21DeviceRadixSortPolicyIihjE9Policy900EjEEvPT0_i
   51  24570    1a5  0  4          PROGBITS      42    0       76 .nv.constant0._ZN3cub17CUB_200400_750_NS28DeviceRadixSortUpsweepKernelINS0_21DeviceRadixSortPolicyIihjE9Policy900ELb1ELb0EijNS0_6detail21identity_decomposer_tEEEvPKT2_PT3_SA_iiNS0_13GridEvenShareISA_EET4_
   52  24718    1a5  0  4          PROGBITS      42    0       77 .nv.constant0._ZN3cub17CUB_200400_750_NS28DeviceRadixSortUpsweepKernelINS0_21DeviceRadixSortPolicyIihjE9Policy900ELb0ELb0EijNS0_6detail21identity_decomposer_tEEEvPKT2_PT3_SA_iiNS0_13GridEvenShareISA_EET4_
   53  248c0    18d  0  4          PROGBITS      42    0       78 .nv.constant0._ZN3cub17CUB_200400_750_NS31DeviceRadixSortSingleTileKernelINS0_21DeviceRadixSortPolicyIihjE9Policy900ELb0EihjNS0_6detail21identity_decomposer_tEEEvPKT1_PS7_PKT2_PSB_T3_iiT4_
   54  24a50    160  0  4          PROGBITS      42    0       79 .nv.constant0._ZN3cub17CUB_200400_750_NS11EmptyKernelIvEEvv
   55  24c00   7580  0 80          PROGBITS  100006    3 520000af .text._ZN3cub17CUB_200400_750_NS29DeviceRadixSortOnesweepKernelINS0_21DeviceRadixSortPolicyIiljE9Policy900ELb0EiljiiNS0_6detail21identity_decomposer_tEEEvPT5_S8_PT3_PKS9_PT1_PKSD_PT2_PKSH_T4_iiT6_
   56  2c180    780  0 80          PROGBITS  100006    3 180000b0 .text._ZN3cub17CUB_200400_750_NS33DeviceRadixSortExclusiveSumKernelINS0_21DeviceRadixSortPolicyIiljE9Policy900EjEEvPT0_
   57  2c900   2880  0 80          PROGBITS  100006    3 3a0000b1 .text._ZN3cub17CUB_200400_750_NS30DeviceRadixSortHistogramKernelINS0_21DeviceRadixSortPolicyIiljE9Policy900ELb0EijNS0_6detail21identity_decomposer_tEEEvPT2_PKT1_S7_iiT3_
   58  2f180   bc00  0 80          PROGBITS  100006    3 a90000b2 .text._ZN3cub17CUB_200400_750_NS30DeviceRadixSortDownsweepKernelINS0_21DeviceRadixSortPolicyIiljE9Policy900ELb1ELb0EiljNS0_6detail21identity_decomposer_tEEEvPKT2_PS7_PKT3_PSB_PT4_SF_iiNS0_13GridEvenShareISF_EET5_
   59  3ad80   8580  0 80          PROGBITS  100006    3 720000b3 .text._ZN3cub17CUB_200400_750_NS30DeviceRadixSortDownsweepKernelINS0_21DeviceRadixSortPolicyIiljE9Policy900ELb0ELb0EiljNS0_6detail21identity_decomposer_tEEEvPKT2_PS7_PKT3_PSB_PT4_SF_iiNS0_13GridEvenShareISF_EET5_
   5a  43300   3200  0 80          PROGBITS  100006    3 4b0000b4 .text._ZN3cub17CUB_200400_750_NS23RadixSortScanBinsKernelINS0_21DeviceRadixSortPolicyIiljE9Policy900EjEEvPT0_i
   5b  46500   4a00  0 80          PROGBITS  100006    3 300000b5 .text._ZN3cub17CUB_200400_750_NS28DeviceRadixSortUpsweepKernelINS0_21DeviceRadixSortPolicyIiljE9Policy900ELb1ELb0EijNS0_6detail21identity_decomposer_tEEEvPKT2_PT3_SA_iiNS0_13GridEvenShareISA_EET4_
   5c  4af00   4900  0 80          PROGBITS  100006    3 2c0000b6 .text._ZN3cub17CUB_200400_750_NS28DeviceRadixSortUpsweepKernelINS0_21DeviceRadixSortPolicyIiljE9Policy900ELb0ELb0EijNS0_6detail21identity_decomposer_tEEEvPKT2_PT3_SA_iiNS0_13GridEvenShareISA_EET4_
   5d  4f800   2200  0 80          PROGBITS  100006    3 600000b7 .text._ZN3cub17CUB_200400_750_NS31DeviceRadixSortSingleTileKernelINS0_21DeviceRadixSortPolicyIiljE9Policy900ELb0EiljNS0_6detail21identity_decomposer_tEEEvPKT1_PS7_PKT2_PSB_T3_iiT4_
   5e  51a00   cf80  0 80          PROGBITS  100006    3 6e0000b8 .text._ZN3cub17CUB_200400_750_NS29DeviceRadixSortOnesweepKernelINS0_21DeviceRadixSortPolicyIisjE9Policy900ELb0EisjiiNS0_6detail21identity_decomposer_tEEEvPT5_S8_PT3_PKS9_PT1_PKSD_PT2_PKSH_T4_iiT6_
   5f  5e980    780  0 80          PROGBITS  100006    3 180000b9 .text._ZN3cub17CUB_200400_750_NS33DeviceRadixSortExclusiveSumKernelINS0_21DeviceRadixSortPolicyIisjE9Policy900EjEEvPT0_
   60  5f100   2880  0 80          PROGBITS  100006    3 3a0000ba .text._ZN3cub17CUB_200400_750_NS30DeviceRadixSortHistogramKernelINS0_21DeviceRadixSortPolicyIisjE9Policy900ELb0EijNS0_6detail21identity_decomposer_tEEEvPT2_PKT1_S7_iiT3_
   61  61980  16000  0 80          PROGBITS  100006    3 dd0000bb .text._ZN3cub17CUB_200400_750_NS30DeviceRadixSortDownsweepKernelINS0_21DeviceRadixSortPolicyIisjE9Policy900ELb1ELb0EisjNS0_6detail21identity_decomposer_tEEEvPKT2_PS7_PKT3_PSB_PT4_SF_iiNS0_13GridEvenShareISF_EET5_
   62  77980   ee00  0 80          PROGBITS  100006    3 800000bc .text._ZN3cub17CUB_200400_750_NS30DeviceRadixSortDownsweepKernelINS0_21DeviceRadixSortPolicyIisjE9Policy900ELb0ELb0EisjNS0_6detail21identity_decomposer_tEEEvPKT2_PS7_PKT3_PSB_PT4_SF_iiNS0_13GridEvenShareISF_EET5_
   63  86780   3200  0 80          PROGBITS  100006    3 4b0000bd .text._ZN3cub17CUB_200400_750_NS23RadixSortScanBinsKernelINS0_21DeviceRadixSortPolicyIisjE9Policy900EjEEvPT0_i
   64  89980   7200  0 80          PROGBITS  100006    3 400000be .text._ZN3cub17CUB_200400_750_NS28DeviceRadixSortUpsweepKernelINS0_21DeviceRadixSortPolicyIisjE9Policy900ELb1ELb0EijNS0_6detail21identity_decomposer_tEEEvPKT2_PT3_SA_iiNS0_13GridEvenShareISA_EET4_
   65  90b80   5c80  0 80          PROGBITS  100006    3 380000bf .text._ZN3cub17CUB_200400_750_NS28DeviceRadixSortUpsweepKernelINS0_21DeviceRadixSortPolicyIisjE9Policy900ELb0ELb0EijNS0_6detail21identity_decomposer_tEEEvPKT2_PT3_SA_iiNS0_13GridEvenShareISA_EET4_
   66  96800   3880  0 80          PROGBITS  100006    3 800000c0 .text._ZN3cub17CUB_200400_750_NS31DeviceRadixSortSingleTileKernelINS0_21DeviceRadixSortPolicyIisjE9Policy900ELb0EisjNS0_6detail21identity_decomposer_tEEEvPKT1_PS7_PKT2_PSB_T3_iiT4_
   67  9a080  16b00  0 80          PROGBITS  100006    3 c90000c1 .text._ZN3cub17CUB_200400_750_NS29DeviceRadixSortOnesweepKernelINS0_21DeviceRadixSortPolicyIiijE9Policy900ELb0EiijiiNS0_6detail21identity_decomposer_tEEEvPT5_S8_PT3_PKS9_PT1_PKSD_PT2_PKSH_T4_iiT6_
   68  b0b80    780  0 80          PROGBITS  100006    3 180000c2 .text._ZN3cub17CUB_200400_750_NS33DeviceRadixSortExclusiveSumKernelINS0_21DeviceRadixSortPolicyIiijE9Policy900EjEEvPT0_
   69  b1300   2880  0 80          PROGBITS  100006    3 3a0000c3 .text._ZN3cub17CUB_200400_750_NS30DeviceRadixSortHistogramKernelINS0_21DeviceRadixSortPolicyIiijE9Policy900ELb0EijNS0_6detail21identity_decomposer_tEEEvPT2_PKT1_S7_iiT3_
   6a  b3b80  15c80  0 80          PROGBITS  100006    3 f20000c4 .text._ZN3cub17CUB_200400_750_NS30DeviceRadixSortDownsweepKernelINS0_21DeviceRadixSortPolicyIiijE9Policy900ELb1ELb0EiijNS0_6detail21identity_decomposer_tEEEvPKT2_PS7_PKT3_PSB_PT4_SF_iiNS0_13GridEvenShareISF_EET5_
   6b  c9800   eb80  0 80          PROGBITS  100006    3 800000c5 .text._ZN3cub17CUB_200400_750_NS30DeviceRadixSortDownsweepKernelINS0_21DeviceRadixSortPolicyIiijE9Policy900ELb0ELb0EiijNS0_6detail21identity_decomposer_tEEEvPKT2_PS7_PKT3_PSB_PT4_SF_iiNS0_13GridEvenShareISF_EET5_
   6c  d8380   3200  0 80          PROGBITS  100006    3 4b0000c6 .text._ZN3cub17CUB_200400_750_NS23RadixSortScanBinsKernelINS0_21DeviceRadixSortPolicyIiijE9Policy900EjEEvPT0_i
   6d  db580   7200  0 80          PROGBITS  100006    3 400000c7 .text._ZN3cub17CUB_200400_750_NS28DeviceRadixSortUpsweepKernelINS0_21DeviceRadixSortPolicyIiijE9Policy900ELb1ELb0EijNS0_6detail21identity_decomposer_tEEEvPKT2_PT3_SA_iiNS0_13GridEvenShareISA_EET4_
   6e  e2780   5c80  0 80          PROGBITS  100006    3 380000c8 .text._ZN3cub17CUB_200400_750_NS28DeviceRadixSortUpsweepKernelINS0_21DeviceRadixSortPolicyIiijE9Policy900ELb0ELb0EijNS0_6detail21identity_decomposer_tEEEvPKT2_PT3_SA_iiNS0_13GridEvenShareISA_EET4_
   6f  e8400   3780  0 80          PROGBITS  100006    3 800000c9 .text._ZN3cub17CUB_200400_750_NS31DeviceRadixSortSingleTileKernelINS0_21DeviceRadixSortPolicyIiijE9Policy900ELb0EiijNS0_6detail21identity_decomposer_tEEEvPKT1_PS7_PKT2_PSB_T3_iiT4_
   70  ebb80   ca00  0 80          PROGBITS  100006    3 690000ca .text._ZN3cub17CUB_200400_750_NS29DeviceRadixSortOnesweepKernelINS0_21DeviceRadixSortPolicyIihjE9Policy900ELb0EihjiiNS0_6detail21identity_decomposer_tEEEvPT5_S8_PT3_PKS9_PT1_PKSD_PT2_PKSH_T4_iiT6_
   71  f8580    780  0 80          PROGBITS  100006    3 180000cb .text._ZN3cub17CUB_200400_750_NS33DeviceRadixSortExclusiveSumKernelINS0_21DeviceRadixSortPolicyIihjE9Policy900EjEEvPT0_
   72  f8d00   2880  0 80          PROGBITS  100006    3 3a0000cc .text._ZN3cub17CUB_200400_750_NS30DeviceRadixSortHistogramKernelINS0_21DeviceRadixSortPolicyIihjE9Policy900ELb0EijNS0_6detail21identity_decomposer_tEEEvPT2_PKT1_S7_iiT3_
   73  fb580  15200  0 80          PROGBITS  100006    3 f20000cd .text._ZN3cub17CUB_200400_750_NS30DeviceRadixSortDownsweepKernelINS0_21DeviceRadixSortPolicyIihjE9Policy900ELb1ELb0EihjNS0_6detail21identity_decomposer_tEEEvPKT2_PS7_PKT3_PSB_PT4_SF_iiNS0_13GridEvenShareISF_EET5_
   74 110780   e680  0 80          PROGBITS  100006    3 800000ce .text._ZN3cub17CUB_200400_750_NS30DeviceRadixSortDownsweepKernelINS0_21DeviceRadixSortPolicyIihjE9Policy900ELb0ELb0EihjNS0_6detail21identity_decomposer_tEEEvPKT2_PS7_PKT3_PSB_PT4_SF_iiNS0_13GridEvenShareISF_EET5_
   75 11ee00   3200  0 80          PROGBITS  100006    3 4b0000cf .text._ZN3cub17CUB_200400_750_NS23RadixSortScanBinsKernelINS0_21DeviceRadixSortPolicyIihjE9Policy900EjEEvPT0_i
   76 122000   7200  0 80          PROGBITS  100006    3 400000d0 .text._ZN3cub17CUB_200400_750_NS28DeviceRadixSortUpsweepKernelINS0_21DeviceRadixSortPolicyIihjE9Policy900ELb1ELb0EijNS0_6detail21identity_decomposer_tEEEvPKT2_PT3_SA_iiNS0_13GridEvenShareISA_EET4_
   77 129200   5c80  0 80          PROGBITS  100006    3 380000d1 .text._ZN3cub17CUB_200400_750_NS28DeviceRadixSortUpsweepKernelINS0_21DeviceRadixSortPolicyIihjE9Policy900ELb0ELb0EijNS0_6detail21identity_decomposer_tEEEvPKT2_PT3_SA_iiNS0_13GridEvenShareISA_EET4_
   78 12ee80   3680  0 80          PROGBITS  100006    3 800000d2 .text._ZN3cub17CUB_200400_750_NS31DeviceRadixSortSingleTileKernelINS0_21DeviceRadixSortPolicyIihjE9Policy900ELb0EihjNS0_6detail21identity_decomposer_tEEEvPKT1_PS7_PKT2_PSB_T3_iiT4_
   79 132500     80  0 80          PROGBITS       6    3  40000d3 .text._ZN3cub17CUB_200400_750_NS11EmptyKernelIvEEvv
   7a 132580   8840  0 10            NOBITS      43    0       55 .nv.shared._ZN3cub17CUB_200400_750_NS29DeviceRadixSortOnesweepKernelINS0_21DeviceRadixSortPolicyIiljE9Policy900ELb0EiljiiNS0_6detail21identity_decomposer_tEEEvPT5_S8_PT3_PKS9_PT1_PKSD_PT2_PKSH_T4_iiT6_
   7b 132580     13  0  1            NOBITS       3    0        0 .nv.global
   7c 132580    4a0  0 10            NOBITS      43    0       56 .nv.shared._ZN3cub17CUB_200400_750_NS33DeviceRadixSortExclusiveSumKernelINS0_21DeviceRadixSortPolicyIiljE9Policy900EjEEvPT0_
   7d 132580   8000  0  4            NOBITS      43    0       57 .nv.shared._ZN3cub17CUB_200400_750_NS30DeviceRadixSortHistogramKernelINS0_21DeviceRadixSortPolicyIiljE9Policy900ELb0EijNS0_6detail21identity_decomposer_tEEEvPT2_PKT1_S7_iiT3_
   7e 132580   b800  0 10            NOBITS      43    0       58 .nv.shared._ZN3cub17CUB_200400_750_NS30DeviceRadixSortDownsweepKernelINS0_21DeviceRadixSortPolicyIiljE9Policy900ELb1ELb0EiljNS0_6detail21identity_decomposer_tEEEvPKT2_PS7_PKT3_PSB_PT4_SF_iiNS0_13GridEvenShareISF_EET5_
   7f 132580   b000  0 10            NOBITS      43    0       59 .nv.shared._ZN3cub17CUB_200400_750_NS30DeviceRadixSortDownsweepKernelINS0_21DeviceRadixSortPolicyIiljE9Policy900ELb0ELb0EiljNS0_6detail21identity_decomposer_tEEEvPKT2_PS7_PKT3_PSB_PT4_SF_iiNS0_13GridEvenShareISF_EET5_
   80 132580   b810  0 10            NOBITS      43    0       5a .nv.shared._ZN3cub17CUB_200400_750_NS23RadixSortScanBinsKernelINS0_21DeviceRadixSortPolicyIiljE9Policy900EjEEvPT0_i
   81 132580   4000  0 10            NOBITS      43    0       5b .nv.shared._ZN3cub17CUB_200400_750_NS28DeviceRadixSortUpsweepKernelINS0_21DeviceRadixSortPolicyIiljE9Policy900ELb1ELb0EijNS0_6detail21identity_decomposer_tEEEvPKT2_PT3_SA_iiNS0_13GridEvenShareISA_EET4_
   82 132580   8000  0 10            NOBITS      43    0       5c .nv.shared._ZN3cub17CUB_200400_750_NS28DeviceRadixSortUpsweepKernelINS0_21DeviceRadixSortPolicyIiljE9Policy900ELb0ELb0EijNS0_6detail21identity_decomposer_tEEEvPKT2_PT3_SA_iiNS0_13GridEvenShareISA_EET4_
   83 132580   8440  0 10            NOBITS      43    0       5d .nv.shared._ZN3cub17CUB_200400_750_NS31DeviceRadixSortSingleTileKernelINS0_21DeviceRadixSortPolicyIiljE9Policy900ELb0EiljNS0_6detail21identity_decomposer_tEEEvPKT1_PS7_PKT2_PSB_T3_iiT4_
   84 132580   8840  0 10            NOBITS      43    0       5e .nv.shared._ZN3cub17CUB_200400_750_NS29DeviceRadixSortOnesweepKernelINS0_21DeviceRadixSortPolicyIisjE9Policy900ELb0EisjiiNS0_6detail21identity_decomposer_tEEEvPT5_S8_PT3_PKS9_PT1_PKSD_PT2_PKSH_T4_iiT6_
   85 132580    4a0  0 10            NOBITS      43    0       5f .nv.shared._ZN3cub17CUB_200400_750_NS33DeviceRadixSortExclusiveSumKernelINS0_21DeviceRadixSortPolicyIisjE9Policy900EjEEvPT0_
   86 132580   8000  0  4            NOBITS      43    0       60 .nv.shared._ZN3cub17CUB_200400_750_NS30DeviceRadixSortHistogramKernelINS0_21DeviceRadixSortPolicyIisjE9Policy900ELb0EijNS0_6detail21identity_decomposer_tEEEvPT2_PKT1_S7_iiT3_
   87 132580   bd00  0 10            NOBITS      43    0       61 .nv.shared._ZN3cub17CUB_200400_750_NS30DeviceRadixSortDownsweepKernelINS0_21DeviceRadixSortPolicyIisjE9Policy900ELb1ELb0EisjNS0_6detail21identity_decomposer_tEEEvPKT2_PS7_PKT3_PSB_PT4_SF_iiNS0_13GridEvenShareISF_EET5_
   88 132580   ba00  0 10            NOBITS      43    0       62 .nv.shared._ZN3cub17CUB_200400_750_NS30DeviceRadixSortDownsweepKernelINS0_21DeviceRadixSortPolicyIisjE9Policy900ELb0ELb0EisjNS0_6detail21identity_decomposer_tEEEvPKT2_PS7_PKT3_PSB_PT4_SF_iiNS0_13GridEvenShareISF_EET5_
   89 132580   b810  0 10            NOBITS      43    0       63 .nv.shared._ZN3cub17CUB_200400_750_NS23RadixSortScanBinsKernelINS0_21DeviceRadixSortPolicyIisjE9Policy900EjEEvPT0_i
   8a 132580   4000  0 10            NOBITS      43    0       64 .nv.shared._ZN3cub17CUB_200400_750_NS28DeviceRadixSortUpsweepKernelINS0_21DeviceRadixSortPolicyIisjE9Policy900ELb1ELb0EijNS0_6detail21identity_decomposer_tEEEvPKT2_PT3_SA_iiNS0_13GridEvenShareISA_EET4_
   8b 132580   8000  0 10            NOBITS      43    0       65 .nv.shared._ZN3cub17CUB_200400_750_NS28DeviceRadixSortUpsweepKernelINS0_21DeviceRadixSortPolicyIisjE9Policy900ELb0ELb0EijNS0_6detail21identity_decomposer_tEEEvPKT2_PT3_SA_iiNS0_13GridEvenShareISA_EET4_
   8c 132580   8440  0 10            NOBITS      43    0       66 .nv.shared._ZN3cub17CUB_200400_750_NS31DeviceRadixSortSingleTileKernelINS0_21DeviceRadixSortPolicyIisjE9Policy900ELb0EisjNS0_6detail21identity_decomposer_tEEEvPKT1_PS7_PKT2_PSB_T3_iiT4_
   8d 132580   bc00  0 10            NOBITS      43    0       67 .nv.shared._ZN3cub17CUB_200400_750_NS29DeviceRadixSortOnesweepKernelINS0_21DeviceRadixSortPolicyIiijE9Policy900ELb0EiijiiNS0_6detail21identity_decomposer_tEEEvPT5_S8_PT3_PKS9_PT1_PKSD_PT2_PKSH_T4_iiT6_
   8e 132580    4a0  0 10            NOBITS      43    0       68 .nv.shared._ZN3cub17CUB_200400_750_NS33DeviceRadixSortExclusiveSumKernelINS0_21DeviceRadixSortPolicyIiijE9Policy900EjEEvPT0_
   8f 132580   8000  0  4            NOBITS      43    0       69 .nv.shared._ZN3cub17CUB_200400_750_NS30DeviceRadixSortHistogramKernelINS0_21DeviceRadixSortPolicyIiijE9Policy900ELb0EijNS0_6detail21identity_decomposer_tEEEvPT2_PKT1_S7_iiT3_
   90 132580   bd00  0 10            NOBITS      43    0       6a .nv.shared._ZN3cub17CUB_200400_750_NS30DeviceRadixSortDownsweepKernelINS0_21DeviceRadixSortPolicyIiijE9Policy900ELb1ELb0EiijNS0_6detail21identity_decomposer_tEEEvPKT2_PS7_PKT3_PSB_PT4_SF_iiNS0_13GridEvenShareISF_EET5_
   91 132580   ba00  0 10            NOBITS      43    0       6b .nv.shared._ZN3cub17CUB_200400_750_NS30DeviceRadixSortDownsweepKernelINS0_21DeviceRadixSortPolicyIiijE9Policy900ELb0ELb0EiijNS0_6detail21identity_decomposer_tEEEvPKT2_PS7_PKT3_PSB_PT4_SF_iiNS0_13GridEvenShareISF_EET5_
   92 132580   b810  0 10            NOBITS      43    0       6c .nv.shared._ZN3cub17CUB_200400_750_NS23RadixSortScanBinsKernelINS0_21DeviceRadixSortPolicyIiijE9Policy900EjEEvPT0_i
   93 132580   4000  0 10            NOBITS      43    0       6d .nv.shared._ZN3cub17CUB_200400_750_NS28DeviceRadixSortUpsweepKernelINS0_21DeviceRadixSortPolicyIiijE9Policy900ELb1ELb0EijNS0_6detail21identity_decomposer_tEEEvPKT2_PT3_SA_iiNS0_13GridEvenShareISA_EET4_
   94 132580   8000  0 10            NOBITS      43    0       6e .nv.shared._ZN3cub17CUB_200400_750_NS28DeviceRadixSortUpsweepKernelINS0_21DeviceRadixSortPolicyIiijE9Policy900ELb0ELb0EijNS0_6detail21identity_decomposer_tEEEvPKT2_PT3_SA_iiNS0_13GridEvenShareISA_EET4_
   95 132580   8440  0 10            NOBITS      43    0       6f .nv.shared._ZN3cub17CUB_200400_750_NS31DeviceRadixSortSingleTileKernelINS0_21DeviceRadixSortPolicyIiijE9Policy900ELb0EiijNS0_6detail21identity_decomposer_tEEEvPKT1_PS7_PKT2_PSB_T3_iiT4_
   96 132580   8840  0 10            NOBITS      43    0       70 .nv.shared._ZN3cub17CUB_200400_750_NS29DeviceRadixSortOnesweepKernelINS0_21DeviceRadixSortPolicyIihjE9Policy900ELb0EihjiiNS0_6detail21identity_decomposer_tEEEvPT5_S8_PT3_PKS9_PT1_PKSD_PT2_PKSH_T4_iiT6_
   97 132580    4a0  0 10            NOBITS      43    0       71 .nv.shared._ZN3cub17CUB_200400_750_NS33DeviceRadixSortExclusiveSumKernelINS0_21DeviceRadixSortPolicyIihjE9Policy900EjEEvPT0_
   98 132580   8000  0  4            NOBITS      43    0       72 .nv.shared._ZN3cub17CUB_200400_750_NS30DeviceRadixSortHistogramKernelINS0_21DeviceRadixSortPolicyIihjE9Policy900ELb0EijNS0_6detail21identity_decomposer_tEEEvPT2_PKT1_S7_iiT3_
   99 132580   bd00  0 10            NOBITS      43    0       73 .nv.shared._ZN3cub17CUB_200400_750_NS30DeviceRadixSortDownsweepKernelINS0_21DeviceRadixSortPolicyIihjE9Policy900ELb1ELb0EihjNS0_6detail21identity_decomposer_tEEEvPKT2_PS7_PKT3_PSB_PT4_SF_iiNS0_13GridEvenShareISF_EET5_
   9a 132580   ba00  0 10            NOBITS      43    0       74 .nv.shared._ZN3cub17CUB_200400_750_NS30DeviceRadixSortDownsweepKernelINS0_21DeviceRadixSortPolicyIihjE9Policy900ELb0ELb0EihjNS0_6detail21identity_decomposer_tEEEvPKT2_PS7_PKT3_PSB_PT4_SF_iiNS0_13GridEvenShareISF_EET5_
   9b 132580   b810  0 10            NOBITS      43    0       75 .nv.shared._ZN3cub17CUB_200400_750_NS23RadixSortScanBinsKernelINS0_21DeviceRadixSortPolicyIihjE9Policy900EjEEvPT0_i
   9c 132580   4000  0 10            NOBITS      43    0       76 .nv.shared._ZN3cub17CUB_200400_750_NS28DeviceRadixSortUpsweepKernelINS0_21DeviceRadixSortPolicyIihjE9Policy900ELb1ELb0EijNS0_6detail21identity_decomposer_tEEEvPKT2_PT3_SA_iiNS0_13GridEvenShareISA_EET4_
   9d 132580   8000  0 10            NOBITS      43    0       77 .nv.shared._ZN3cub17CUB_200400_750_NS28DeviceRadixSortUpsweepKernelINS0_21DeviceRadixSortPolicyIihjE9Policy900ELb0ELb0EijNS0_6detail21identity_decomposer_tEEEvPKT2_PT3_SA_iiNS0_13GridEvenShareISA_EET4_
   9e 132580   8440  0 10            NOBITS      43    0       78 .nv.shared._ZN3cub17CUB_200400_750_NS31DeviceRadixSortSingleTileKernelINS0_21DeviceRadixSortPolicyIihjE9Policy900ELb0EihjNS0_6detail21identity_decomposer_tEEEvPKT1_PS7_PKT2_PSB_T3_iiT4_

.section .strtab

.section .shstrtab

.section .symtab
 index           value           size      info    other  shndx    name  
   0               0               0        0        0      0     (null)
 0x1               0               0      0x3        0   0x55     .text._ZN3cub17CUB_200400_750_NS29DeviceRadixSortOnesweepKernelINS0_21DeviceRadixSortPolicyIiljE9Policy900ELb0EiljiiNS0_6detail21identity_decomposer_tEEEvPT5_S8_PT3_PKS9_PT1_PKSD_PT2_PKSH_T4_iiT6_
 0x2               0               0      0x3        0   0x7a     .nv.shared._ZN3cub17CUB_200400_750_NS29DeviceRadixSortOnesweepKernelINS0_21DeviceRadixSortPolicyIiljE9Policy900ELb0EiljiiNS0_6detail21identity_decomposer_tEEEvPT5_S8_PT3_PKS9_PT1_PKSD_PT2_PKSH_T4_iiT6_
 0x3               0               0      0x3        0   0x7b     .nv.global
 0x4             0x5             0x1      0x1        0   0x7b     _ZN33_INTERNAL_0834b31b_7_main_cu_main4cuda3std3__435_GLOBAL__N__0834b31b_7_main_cu_main6ignoreE
 0x5               0               0      0x3        0   0x2f     .nv.constant4
 0x6             0xa             0x1      0x1        0   0x7b     _ZN33_INTERNAL_0834b31b_7_main_cu_main4cuda3std3__48in_placeE
 0x7               0             0x1      0x1        0   0x7b     _ZN33_INTERNAL_0834b31b_7_main_cu_main4cuda3std6ranges3__45__cpo4swapE
 0x8            0x10             0x1      0x1        0   0x7b     _ZN33_INTERNAL_0834b31b_7_main_cu_main6thrust20THRUST_200400_750_NS6system6detail10sequential3seqE
 0x9             0x9             0x1      0x1        0   0x7b     _ZN33_INTERNAL_0834b31b_7_main_cu_main6thrust20THRUST_200400_750_NS6system3cpp3parE
 0xa             0xe             0x1      0x1        0   0x7b     _ZN33_INTERNAL_0834b31b_7_main_cu_main6thrust20THRUST_200400_750_NS8cuda_cub3parE
 0xb             0x4             0x1      0x1        0   0x7b     _ZN33_INTERNAL_0834b31b_7_main_cu_main6thrust20THRUST_200400_750_NS8cuda_cub10par_nosyncE
 0xc            0x12             0x1      0x1        0   0x7b     _ZN33_INTERNAL_0834b31b_7_main_cu_main6thrust20THRUST_200400_750_NS12placeholders2_1E
 0xd             0x7             0x1      0x1        0   0x7b     _ZN33_INTERNAL_0834b31b_7_main_cu_main6thrust20THRUST_200400_750_NS12placeholders2_2E
 0xe             0xc             0x1      0x1        0   0x7b     _ZN33_INTERNAL_0834b31b_7_main_cu_main6thrust20THRUST_200400_750_NS12placeholders2_3E
 0xf             0x2             0x1      0x1        0   0x7b     _ZN33_INTERNAL_0834b31b_7_main_cu_main6thrust20THRUST_200400_750_NS12placeholders2_4E
 0x10             0xf             0x1      0x1        0   0x7b     _ZN33_INTERNAL_0834b31b_7_main_cu_main6thrust20THRUST_200400_750_NS12placeholders2_5E
 0x11             0x8             0x1      0x1        0   0x7b     _ZN33_INTERNAL_0834b31b_7_main_cu_main6thrust20THRUST_200400_750_NS12placeholders2_6E
 0x12             0xd             0x1      0x1        0   0x7b     _ZN33_INTERNAL_0834b31b_7_main_cu_main6thrust20THRUST_200400_750_NS12placeholders2_7E
 0x13             0x3             0x1      0x1        0   0x7b     _ZN33_INTERNAL_0834b31b_7_main_cu_main6thrust20THRUST_200400_750_NS12placeholders2_8E
 0x14            0x11             0x1      0x1        0   0x7b     _ZN33_INTERNAL_0834b31b_7_main_cu_main6thrust20THRUST_200400_750_NS12placeholders2_9E
 0x15             0x6             0x1      0x1        0   0x7b     _ZN33_INTERNAL_0834b31b_7_main_cu_main6thrust20THRUST_200400_750_NS12placeholders3_10E
 0x16             0xb             0x1      0x1        0   0x7b     _ZN33_INTERNAL_0834b31b_7_main_cu_main6thrust20THRUST_200400_750_NS3seqE
 0x17             0x1             0x1      0x1        0   0x7b     _ZN33_INTERNAL_0834b31b_7_main_cu_main6thrust20THRUST_200400_750_NS6deviceE
 0x18          0x74a0            0x50     0x22        0   0x55     $__internal_0_$__cuda_sm70_shflsync_up_p
 0x19          0x74f0            0x90     0x22        0   0x55     $__internal_1_$__cuda_sm70_votesync_ballot
 0x1a               0               0      0x3        0   0x30     .nv.constant0._ZN3cub17CUB_200400_750_NS29DeviceRadixSortOnesweepKernelINS0_21DeviceRadixSortPolicyIiljE9Policy900ELb0EiljiiNS0_6detail21identity_decomposer_tEEEvPT5_S8_PT3_PKS9_PT1_PKSD_PT2_PKSH_T4_iiT6_
 0x1b               0               0      0x3        0   0x56     .text._ZN3cub17CUB_200400_750_NS33DeviceRadixSortExclusiveSumKernelINS0_21DeviceRadixSortPolicyIiljE9Policy900EjEEvPT0_
 0x1c               0               0      0x3        0   0x7c     .nv.shared._ZN3cub17CUB_200400_750_NS33DeviceRadixSortExclusiveSumKernelINS0_21DeviceRadixSortPolicyIiljE9Policy900EjEEvPT0_
 0x1d           0x6e0            0xa0     0x22        0   0x56     $__internal_2_$__cuda_sm70_shflsync_up_p
 0x1e               0               0      0x3        0   0x31     .nv.constant0._ZN3cub17CUB_200400_750_NS33DeviceRadixSortExclusiveSumKernelINS0_21DeviceRadixSortPolicyIiljE9Policy900EjEEvPT0_
 0x1f               0               0      0x3        0   0x57     .text._ZN3cub17CUB_200400_750_NS30DeviceRadixSortHistogramKernelINS0_21DeviceRadixSortPolicyIiljE9Policy900ELb0EijNS0_6detail21identity_decomposer_tEEEvPT2_PKT1_S7_iiT3_
 0x20               0               0      0x3        0   0x7d     .nv.shared._ZN3cub17CUB_200400_750_NS30DeviceRadixSortHistogramKernelINS0_21DeviceRadixSortPolicyIiljE9Policy900ELb0EijNS0_6detail21identity_decomposer_tEEEvPT2_PKT1_S7_iiT3_
 0x21               0               0      0x3        0   0x32     .nv.constant0._ZN3cub17CUB_200400_750_NS30DeviceRadixSortHistogramKernelINS0_21DeviceRadixSortPolicyIiljE9Policy900ELb0EijNS0_6detail21identity_decomposer_tEEEvPT2_PKT1_S7_iiT3_
 0x22               0               0      0x3        0   0x58     .text._ZN3cub17CUB_200400_750_NS30DeviceRadixSortDownsweepKernelINS0_21DeviceRadixSortPolicyIiljE9Policy900ELb1ELb0EiljNS0_6detail21identity_decomposer_tEEEvPKT2_PS7_PKT3_PSB_PT4_SF_iiNS0_13GridEvenShareISF_EET5_
 0x23               0               0      0x3        0   0x7e     .nv.shared._ZN3cub17CUB_200400_750_NS30DeviceRadixSortDownsweepKernelINS0_21DeviceRadixSortPolicyIiljE9Policy900ELb1ELb0EiljNS0_6detail21identity_decomposer_tEEEvPKT2_PS7_PKT3_PSB_PT4_SF_iiNS0_13GridEvenShareISF_EET5_
 0x24          0xbb00            0x40     0x22        0   0x58     $__internal_3_$__cuda_sm70_shflsync_idx
 0x25          0xbb40            0xc0     0x22        0   0x58     $__internal_4_$__cuda_sm70_shflsync_up_p
 0x26               0               0      0x3        0   0x33     .nv.constant0._ZN3cub17CUB_200400_750_NS30DeviceRadixSortDownsweepKernelINS0_21DeviceRadixSortPolicyIiljE9Policy900ELb1ELb0EiljNS0_6detail21identity_decomposer_tEEEvPKT2_PS7_PKT3_PSB_PT4_SF_iiNS0_13GridEvenShareISF_EET5_
 0x27               0               0      0x3        0   0x59     .text._ZN3cub17CUB_200400_750_NS30DeviceRadixSortDownsweepKernelINS0_21DeviceRadixSortPolicyIiljE9Policy900ELb0ELb0EiljNS0_6detail21identity_decomposer_tEEEvPKT2_PS7_PKT3_PSB_PT4_SF_iiNS0_13GridEvenShareISF_EET5_
 0x28               0               0      0x3        0   0x7f     .nv.shared._ZN3cub17CUB_200400_750_NS30DeviceRadixSortDownsweepKernelINS0_21DeviceRadixSortPolicyIiljE9Policy900ELb0ELb0EiljNS0_6detail21identity_decomposer_tEEEvPKT2_PS7_PKT3_PSB_PT4_SF_iiNS0_13GridEvenShareISF_EET5_
 0x29          0x84c0            0x40     0x22        0   0x59     $__internal_5_$__cuda_sm70_shflsync_idx
 0x2a          0x8500            0x80     0x22        0   0x59     $__internal_6_$__cuda_sm70_votesync_ballot
 0x2b               0               0      0x3        0   0x34     .nv.constant0._ZN3cub17CUB_200400_750_NS30DeviceRadixSortDownsweepKernelINS0_21DeviceRadixSortPolicyIiljE9Policy900ELb0ELb0EiljNS0_6detail21identity_decomposer_tEEEvPKT2_PS7_PKT3_PSB_PT4_SF_iiNS0_13GridEvenShareISF_EET5_
 0x2c               0               0      0x3        0   0x5a     .text._ZN3cub17CUB_200400_750_NS23RadixSortScanBinsKernelINS0_21DeviceRadixSortPolicyIiljE9Policy900EjEEvPT0_i
 0x2d               0               0      0x3        0   0x80     .nv.shared._ZN3cub17CUB_200400_750_NS23RadixSortScanBinsKernelINS0_21DeviceRadixSortPolicyIiljE9Policy900EjEEvPT0_i
 0x2e          0x3120            0x50     0x22        0   0x5a     $__internal_7_$__cuda_sm70_shflsync_idx
 0x2f          0x3170            0x50     0x22        0   0x5a     $__internal_8_$__cuda_sm70_shflsync_up_p
 0x30          0x31c0            0x40     0x22        0   0x5a     $__internal_9_$__cuda_sm70_warpsync
 0x31               0               0      0x3        0   0x35     .nv.constant0._ZN3cub17CUB_200400_750_NS23RadixSortScanBinsKernelINS0_21DeviceRadixSortPolicyIiljE9Policy900EjEEvPT0_i
 0x32               0               0      0x3        0   0x5b     .text._ZN3cub17CUB_200400_750_NS28DeviceRadixSortUpsweepKernelINS0_21DeviceRadixSortPolicyIiljE9Policy900ELb1ELb0EijNS0_6detail21identity_decomposer_tEEEvPKT2_PT3_SA_iiNS0_13GridEvenShareISA_EET4_
 0x33               0               0      0x3        0   0x81     .nv.shared._ZN3cub17CUB_200400_750_NS28DeviceRadixSortUpsweepKernelINS0_21DeviceRadixSortPolicyIiljE9Policy900ELb1ELb0EijNS0_6detail21identity_decomposer_tEEEvPKT2_PT3_SA_iiNS0_13GridEvenShareISA_EET4_
 0x34               0               0      0x3        0   0x36     .nv.constant0._ZN3cub17CUB_200400_750_NS28DeviceRadixSortUpsweepKernelINS0_21DeviceRadixSortPolicyIiljE9Policy900ELb1ELb0EijNS0_6detail21identity_decomposer_tEEEvPKT2_PT3_SA_iiNS0_13GridEvenShareISA_EET4_
 0x35               0               0      0x3        0   0x5c     .text._ZN3cub17CUB_200400_750_NS28DeviceRadixSortUpsweepKernelINS0_21DeviceRadixSortPolicyIiljE9Policy900ELb0ELb0EijNS0_6detail21identity_decomposer_tEEEvPKT2_PT3_SA_iiNS0_13GridEvenShareISA_EET4_
 0x36               0               0      0x3        0   0x82     .nv.shared._ZN3cub17CUB_200400_750_NS28DeviceRadixSortUpsweepKernelINS0_21DeviceRadixSortPolicyIiljE9Policy900ELb0ELb0EijNS0_6detail21identity_decomposer_tEEEvPKT2_PT3_SA_iiNS0_13GridEvenShareISA_EET4_
 0x37               0               0      0x3        0   0x37     .nv.constant0._ZN3cub17CUB_200400_750_NS28DeviceRadixSortUpsweepKernelINS0_21DeviceRadixSortPolicyIiljE9Policy900ELb0ELb0EijNS0_6detail21identity_decomposer_tEEEvPKT2_PT3_SA_iiNS0_13GridEvenShareISA_EET4_
 0x38               0               0      0x3        0   0x5d     .text._ZN3cub17CUB_200400_750_NS31DeviceRadixSortSingleTileKernelINS0_21DeviceRadixSortPolicyIiljE9Policy900ELb0EiljNS0_6detail21identity_decomposer_tEEEvPKT1_PS7_PKT2_PSB_T3_iiT4_
 0x39               0               0      0x3        0   0x83     .nv.shared._ZN3cub17CUB_200400_750_NS31DeviceRadixSortSingleTileKernelINS0_21DeviceRadixSortPolicyIiljE9Policy900ELb0EiljNS0_6detail21identity_decomposer_tEEEvPKT1_PS7_PKT2_PSB_T3_iiT4_
 0x3a               0               0      0x3        0   0x38     .nv.constant0._ZN3cub17CUB_200400_750_NS31DeviceRadixSortSingleTileKernelINS0_21DeviceRadixSortPolicyIiljE9Policy900ELb0EiljNS0_6detail21identity_decomposer_tEEEvPKT1_PS7_PKT2_PSB_T3_iiT4_
 0x3b               0               0      0x3        0   0x5e     .text._ZN3cub17CUB_200400_750_NS29DeviceRadixSortOnesweepKernelINS0_21DeviceRadixSortPolicyIisjE9Policy900ELb0EisjiiNS0_6detail21identity_decomposer_tEEEvPT5_S8_PT3_PKS9_PT1_PKSD_PT2_PKSH_T4_iiT6_
 0x3c               0               0      0x3        0   0x84     .nv.shared._ZN3cub17CUB_200400_750_NS29DeviceRadixSortOnesweepKernelINS0_21DeviceRadixSortPolicyIisjE9Policy900ELb0EisjiiNS0_6detail21identity_decomposer_tEEEvPT5_S8_PT3_PKS9_PT1_PKSD_PT2_PKSH_T4_iiT6_
 0x3d          0xce80            0x50     0x22        0   0x5e     $__internal_10_$__cuda_sm70_shflsync_up_p
 0x3e          0xced0            0xb0     0x22        0   0x5e     $__internal_11_$__cuda_sm70_votesync_ballot
 0x3f               0               0      0x3        0   0x39     .nv.constant0._ZN3cub17CUB_200400_750_NS29DeviceRadixSortOnesweepKernelINS0_21DeviceRadixSortPolicyIisjE9Policy900ELb0EisjiiNS0_6detail21identity_decomposer_tEEEvPT5_S8_PT3_PKS9_PT1_PKSD_PT2_PKSH_T4_iiT6_
 0x40               0               0      0x3        0   0x5f     .text._ZN3cub17CUB_200400_750_NS33DeviceRadixSortExclusiveSumKernelINS0_21DeviceRadixSortPolicyIisjE9Policy900EjEEvPT0_
 0x41               0               0      0x3        0   0x85     .nv.shared._ZN3cub17CUB_200400_750_NS33DeviceRadixSortExclusiveSumKernelINS0_21DeviceRadixSortPolicyIisjE9Policy900EjEEvPT0_
 0x42           0x6e0            0xa0     0x22        0   0x5f     $__internal_12_$__cuda_sm70_shflsync_up_p
 0x43               0               0      0x3        0   0x3a     .nv.constant0._ZN3cub17CUB_200400_750_NS33DeviceRadixSortExclusiveSumKernelINS0_21DeviceRadixSortPolicyIisjE9Policy900EjEEvPT0_
 0x44               0               0      0x3        0   0x60     .text._ZN3cub17CUB_200400_750_NS30DeviceRadixSortHistogramKernelINS0_21DeviceRadixSortPolicyIisjE9Policy900ELb0EijNS0_6detail21identity_decomposer_tEEEvPT2_PKT1_S7_iiT3_
 0x45               0               0      0x3        0   0x86     .nv.shared._ZN3cub17CUB_200400_750_NS30DeviceRadixSortHistogramKernelINS0_21DeviceRadixSortPolicyIisjE9Policy900ELb0EijNS0_6detail21identity_decomposer_tEEEvPT2_PKT1_S7_iiT3_
 0x46               0               0      0x3        0   0x3b     .nv.constant0._ZN3cub17CUB_200400_750_NS30DeviceRadixSortHistogramKernelINS0_21DeviceRadixSortPolicyIisjE9Policy900ELb0EijNS0_6detail21identity_decomposer_tEEEvPT2_PKT1_S7_iiT3_
 0x47               0               0      0x3        0   0x61     .text._ZN3cub17CUB_200400_750_NS30DeviceRadixSortDownsweepKernelINS0_21DeviceRadixSortPolicyIisjE9Policy900ELb1ELb0EisjNS0_6detail21identity_decomposer_tEEEvPKT2_PS7_PKT3_PSB_PT4_SF_iiNS0_13GridEvenShareISF_EET5_
 0x48               0               0      0x3        0   0x87     .nv.shared._ZN3cub17CUB_200400_750_NS30DeviceRadixSortDownsweepKernelINS0_21DeviceRadixSortPolicyIisjE9Policy900ELb1ELb0EisjNS0_6detail21identity_decomposer_tEEEvPKT2_PS7_PKT3_PSB_PT4_SF_iiNS0_13GridEvenShareISF_EET5_
 0x49         0x15f50            0x50     0x22        0   0x61     $__internal_13_$__cuda_sm70_shflsync_idx
 0x4a         0x15fa0            0x60     0x22        0   0x61     $__internal_14_$__cuda_sm70_shflsync_up_p
 0x4b               0               0      0x3        0   0x3c     .nv.constant0._ZN3cub17CUB_200400_750_NS30DeviceRadixSortDownsweepKernelINS0_21DeviceRadixSortPolicyIisjE9Policy900ELb1ELb0EisjNS0_6detail21identity_decomposer_tEEEvPKT2_PS7_PKT3_PSB_PT4_SF_iiNS0_13GridEvenShareISF_EET5_
 0x4c               0               0      0x3        0   0x62     .text._ZN3cub17CUB_200400_750_NS30DeviceRadixSortDownsweepKernelINS0_21DeviceRadixSortPolicyIisjE9Policy900ELb0ELb0EisjNS0_6detail21identity_decomposer_tEEEvPKT2_PS7_PKT3_PSB_PT4_SF_iiNS0_13GridEvenShareISF_EET5_
 0x4d               0               0      0x3        0   0x88     .nv.shared._ZN3cub17CUB_200400_750_NS30DeviceRadixSortDownsweepKernelINS0_21DeviceRadixSortPolicyIisjE9Policy900ELb0ELb0EisjNS0_6detail21identity_decomposer_tEEEvPKT2_PS7_PKT3_PSB_PT4_SF_iiNS0_13GridEvenShareISF_EET5_
 0x4e          0xed10            0x40     0x22        0   0x62     $__internal_15_$__cuda_sm70_shflsync_idx
 0x4f          0xed50            0xb0     0x22        0   0x62     $__internal_16_$__cuda_sm70_votesync_ballot
 0x50               0               0      0x3        0   0x3d     .nv.constant0._ZN3cub17CUB_200400_750_NS30DeviceRadixSortDownsweepKernelINS0_21DeviceRadixSortPolicyIisjE9Policy900ELb0ELb0EisjNS0_6detail21identity_decomposer_tEEEvPKT2_PS7_PKT3_PSB_PT4_SF_iiNS0_13GridEvenShareISF_EET5_
 0x51               0               0      0x3        0   0x63     .text._ZN3cub17CUB_200400_750_NS23RadixSortScanBinsKernelINS0_21DeviceRadixSortPolicyIisjE9Policy900EjEEvPT0_i
 0x52               0               0      0x3        0   0x89     .nv.shared._ZN3cub17CUB_200400_750_NS23RadixSortScanBinsKernelINS0_21DeviceRadixSortPolicyIisjE9Policy900EjEEvPT0_i
 0x53          0x3120            0x50     0x22        0   0x63     $__internal_17_$__cuda_sm70_shflsync_idx
 0x54          0x3170            0x50     0x22        0   0x63     $__internal_18_$__cuda_sm70_shflsync_up_p
 0x55          0x31c0            0x40     0x22        0   0x63     $__internal_19_$__cuda_sm70_warpsync
 0x56               0               0      0x3        0   0x3e     .nv.constant0._ZN3cub17CUB_200400_750_NS23RadixSortScanBinsKernelINS0_21DeviceRadixSortPolicyIisjE9Policy900EjEEvPT0_i
 0x57               0               0      0x3        0   0x64     .text._ZN3cub17CUB_200400_750_NS28DeviceRadixSortUpsweepKernelINS0_21DeviceRadixSortPolicyIisjE9Policy900ELb1ELb0EijNS0_6detail21identity_decomposer_tEEEvPKT2_PT3_SA_iiNS0_13GridEvenShareISA_EET4_
 0x58               0               0      0x3        0   0x8a     .nv.shared._ZN3cub17CUB_200400_750_NS28DeviceRadixSortUpsweepKernelINS0_21DeviceRadixSortPolicyIisjE9Policy900ELb1ELb0EijNS0_6detail21identity_decomposer_tEEEvPKT2_PT3_SA_iiNS0_13GridEvenShareISA_EET4_
 0x59               0               0      0x3        0   0x3f     .nv.constant0._ZN3cub17CUB_200400_750_NS28DeviceRadixSortUpsweepKernelINS0_21DeviceRadixSortPolicyIisjE9Policy900ELb1ELb0EijNS0_6detail21identity_decomposer_tEEEvPKT2_PT3_SA_iiNS0_13GridEvenShareISA_EET4_
 0x5a               0               0      0x3        0   0x65     .text._ZN3cub17CUB_200400_750_NS28DeviceRadixSortUpsweepKernelINS0_21DeviceRadixSortPolicyIisjE9Policy900ELb0ELb0EijNS0_6detail21identity_decomposer_tEEEvPKT2_PT3_SA_iiNS0_13GridEvenShareISA_EET4_
 0x5b               0               0      0x3        0   0x8b     .nv.shared._ZN3cub17CUB_200400_750_NS28DeviceRadixSortUpsweepKernelINS0_21DeviceRadixSortPolicyIisjE9Policy900ELb0ELb0EijNS0_6detail21identity_decomposer_tEEEvPKT2_PT3_SA_iiNS0_13GridEvenShareISA_EET4_
 0x5c               0               0      0x3        0   0x40     .nv.constant0._ZN3cub17CUB_200400_750_NS28DeviceRadixSortUpsweepKernelINS0_21DeviceRadixSortPolicyIisjE9Policy900ELb0ELb0EijNS0_6detail21identity_decomposer_tEEEvPKT2_PT3_SA_iiNS0_13GridEvenShareISA_EET4_
 0x5d               0               0      0x3        0   0x66     .text._ZN3cub17CUB_200400_750_NS31DeviceRadixSortSingleTileKernelINS0_21DeviceRadixSortPolicyIisjE9Policy900ELb0EisjNS0_6detail21identity_decomposer_tEEEvPKT1_PS7_PKT2_PSB_T3_iiT4_
 0x5e               0               0      0x3        0   0x8c     .nv.shared._ZN3cub17CUB_200400_750_NS31DeviceRadixSortSingleTileKernelINS0_21DeviceRadixSortPolicyIisjE9Policy900ELb0EisjNS0_6detail21identity_decomposer_tEEEvPKT1_PS7_PKT2_PSB_T3_iiT4_
 0x5f               0               0      0x3        0   0x41     .nv.constant0._ZN3cub17CUB_200400_750_NS31DeviceRadixSortSingleTileKernelINS0_21DeviceRadixSortPolicyIisjE9Policy900ELb0EisjNS0_6detail21identity_decomposer_tEEEvPKT1_PS7_PKT2_PSB_T3_iiT4_
 0x60               0               0      0x3        0   0x67     .text._ZN3cub17CUB_200400_750_NS29DeviceRadixSortOnesweepKernelINS0_21DeviceRadixSortPolicyIiijE9Policy900ELb0EiijiiNS0_6detail21identity_decomposer_tEEEvPT5_S8_PT3_PKS9_PT1_PKSD_PT2_PKSH_T4_iiT6_
 0x61               0               0      0x3        0   0x8d     .nv.shared._ZN3cub17CUB_200400_750_NS29DeviceRadixSortOnesweepKernelINS0_21DeviceRadixSortPolicyIiijE9Policy900ELb0EiijiiNS0_6detail21identity_decomposer_tEEEvPT5_S8_PT3_PKS9_PT1_PKSD_PT2_PKSH_T4_iiT6_
 0x62         0x16a30            0x50     0x22        0   0x67     $__internal_20_$__cuda_sm70_shflsync_up_p
 0x63         0x16a80            0x80     0x22        0   0x67     $__internal_21_$__cuda_sm70_votesync_ballot
 0x64               0               0      0x3        0   0x42     .nv.constant0._ZN3cub17CUB_200400_750_NS29DeviceRadixSortOnesweepKernelINS0_21DeviceRadixSortPolicyIiijE9Policy900ELb0EiijiiNS0_6detail21identity_decomposer_tEEEvPT5_S8_PT3_PKS9_PT1_PKSD_PT2_PKSH_T4_iiT6_
 0x65               0               0      0x3        0   0x68     .text._ZN3cub17CUB_200400_750_NS33DeviceRadixSortExclusiveSumKernelINS0_21DeviceRadixSortPolicyIiijE9Policy900EjEEvPT0_
 0x66               0               0      0x3        0   0x8e     .nv.shared._ZN3cub17CUB_200400_750_NS33DeviceRadixSortExclusiveSumKernelINS0_21DeviceRadixSortPolicyIiijE9Policy900EjEEvPT0_
 0x67           0x6e0            0xa0     0x22        0   0x68     $__internal_22_$__cuda_sm70_shflsync_up_p
 0x68               0               0      0x3        0   0x43     .nv.constant0._ZN3cub17CUB_200400_750_NS33DeviceRadixSortExclusiveSumKernelINS0_21DeviceRadixSortPolicyIiijE9Policy900EjEEvPT0_
 0x69               0               0      0x3        0   0x69     .text._ZN3cub17CUB_200400_750_NS30DeviceRadixSortHistogramKernelINS0_21DeviceRadixSortPolicyIiijE9Policy900ELb0EijNS0_6detail21identity_decomposer_tEEEvPT2_PKT1_S7_iiT3_
 0x6a               0               0      0x3        0   0x8f     .nv.shared._ZN3cub17CUB_200400_750_NS30DeviceRadixSortHistogramKernelINS0_21DeviceRadixSortPolicyIiijE9Policy900ELb0EijNS0_6detail21identity_decomposer_tEEEvPT2_PKT1_S7_iiT3_
 0x6b               0               0      0x3        0   0x44     .nv.constant0._ZN3cub17CUB_200400_750_NS30DeviceRadixSortHistogramKernelINS0_21DeviceRadixSortPolicyIiijE9Policy900ELb0EijNS0_6detail21identity_decomposer_tEEEvPT2_PKT1_S7_iiT3_
 0x6c               0               0      0x3        0   0x6a     .text._ZN3cub17CUB_200400_750_NS30DeviceRadixSortDownsweepKernelINS0_21DeviceRadixSortPolicyIiijE9Policy900ELb1ELb0EiijNS0_6detail21identity_decomposer_tEEEvPKT2_PS7_PKT3_PSB_PT4_SF_iiNS0_13GridEvenShareISF_EET5_
 0x6d               0               0      0x3        0   0x90     .nv.shared._ZN3cub17CUB_200400_750_NS30DeviceRadixSortDownsweepKernelINS0_21DeviceRadixSortPolicyIiijE9Policy900ELb1ELb0EiijNS0_6detail21identity_decomposer_tEEEvPKT2_PS7_PKT3_PSB_PT4_SF_iiNS0_13GridEvenShareISF_EET5_
 0x6e         0x15b90            0x50     0x22        0   0x6a     $__internal_23_$__cuda_sm70_shflsync_idx
 0x6f         0x15be0            0xa0     0x22        0   0x6a     $__internal_24_$__cuda_sm70_shflsync_up_p
 0x70               0               0      0x3        0   0x45     .nv.constant0._ZN3cub17CUB_200400_750_NS30DeviceRadixSortDownsweepKernelINS0_21DeviceRadixSortPolicyIiijE9Policy900ELb1ELb0EiijNS0_6detail21identity_decomposer_tEEEvPKT2_PS7_PKT3_PSB_PT4_SF_iiNS0_13GridEvenShareISF_EET5_
 0x71               0               0      0x3        0   0x6b     .text._ZN3cub17CUB_200400_750_NS30DeviceRadixSortDownsweepKernelINS0_21DeviceRadixSortPolicyIiijE9Policy900ELb0ELb0EiijNS0_6detail21identity_decomposer_tEEEvPKT2_PS7_PKT3_PSB_PT4_SF_iiNS0_13GridEvenShareISF_EET5_
 0x72               0               0      0x3        0   0x91     .nv.shared._ZN3cub17CUB_200400_750_NS30DeviceRadixSortDownsweepKernelINS0_21DeviceRadixSortPolicyIiijE9Policy900ELb0ELb0EiijNS0_6detail21identity_decomposer_tEEEvPKT2_PS7_PKT3_PSB_PT4_SF_iiNS0_13GridEvenShareISF_EET5_
 0x73          0xea90            0x40     0x22        0   0x6b     $__internal_25_$__cuda_sm70_shflsync_idx
 0x74          0xead0            0xb0     0x22        0   0x6b     $__internal_26_$__cuda_sm70_votesync_ballot
 0x75               0               0      0x3        0   0x46     .nv.constant0._ZN3cub17CUB_200400_750_NS30DeviceRadixSortDownsweepKernelINS0_21DeviceRadixSortPolicyIiijE9Policy900ELb0ELb0EiijNS0_6detail21identity_decomposer_tEEEvPKT2_PS7_PKT3_PSB_PT4_SF_iiNS0_13GridEvenShareISF_EET5_
 0x76               0               0      0x3        0   0x6c     .text._ZN3cub17CUB_200400_750_NS23RadixSortScanBinsKernelINS0_21DeviceRadixSortPolicyIiijE9Policy900EjEEvPT0_i
 0x77               0               0      0x3        0   0x92     .nv.shared._ZN3cub17CUB_200400_750_NS23RadixSortScanBinsKernelINS0_21DeviceRadixSortPolicyIiijE9Policy900EjEEvPT0_i
 0x78          0x3120            0x50     0x22        0   0x6c     $__internal_27_$__cuda_sm70_shflsync_idx
 0x79          0x3170            0x50     0x22        0   0x6c     $__internal_28_$__cuda_sm70_shflsync_up_p
 0x7a          0x31c0            0x40     0x22        0   0x6c     $__internal_29_$__cuda_sm70_warpsync
 0x7b               0               0      0x3        0   0x47     .nv.constant0._ZN3cub17CUB_200400_750_NS23RadixSortScanBinsKernelINS0_21DeviceRadixSortPolicyIiijE9Policy900EjEEvPT0_i
 0x7c               0               0      0x3        0   0x6d     .text._ZN3cub17CUB_200400_750_NS28DeviceRadixSortUpsweepKernelINS0_21DeviceRadixSortPolicyIiijE9Policy900ELb1ELb0EijNS0_6detail21identity_decomposer_tEEEvPKT2_PT3_SA_iiNS0_13GridEvenShareISA_EET4_
 0x7d               0               0      0x3        0   0x93     .nv.shared._ZN3cub17CUB_200400_750_NS28DeviceRadixSortUpsweepKernelINS0_21DeviceRadixSortPolicyIiijE9Policy900ELb1ELb0EijNS0_6detail21identity_decomposer_tEEEvPKT2_PT3_SA_iiNS0_13GridEvenShareISA_EET4_
 0x7e               0               0      0x3        0   0x48     .nv.constant0._ZN3cub17CUB_200400_750_NS28DeviceRadixSortUpsweepKernelINS0_21DeviceRadixSortPolicyIiijE9Policy900ELb1ELb0EijNS0_6detail21identity_decomposer_tEEEvPKT2_PT3_SA_iiNS0_13GridEvenShareISA_EET4_
 0x7f               0               0      0x3        0   0x6e     .text._ZN3cub17CUB_200400_750_NS28DeviceRadixSortUpsweepKernelINS0_21DeviceRadixSortPolicyIiijE9Policy900ELb0ELb0EijNS0_6detail21identity_decomposer_tEEEvPKT2_PT3_SA_iiNS0_13GridEvenShareISA_EET4_
 0x80               0               0      0x3        0   0x94     .nv.shared._ZN3cub17CUB_200400_750_NS28DeviceRadixSortUpsweepKernelINS0_21DeviceRadixSortPolicyIiijE9Policy900ELb0ELb0EijNS0_6detail21identity_decomposer_tEEEvPKT2_PT3_SA_iiNS0_13GridEvenShareISA_EET4_
 0x81               0               0      0x3        0   0x49     .nv.constant0._ZN3cub17CUB_200400_750_NS28DeviceRadixSortUpsweepKernelINS0_21DeviceRadixSortPolicyIiijE9Policy900ELb0ELb0EijNS0_6detail21identity_decomposer_tEEEvPKT2_PT3_SA_iiNS0_13GridEvenShareISA_EET4_
 0x82               0               0      0x3        0   0x6f     .text._ZN3cub17CUB_200400_750_NS31DeviceRadixSortSingleTileKernelINS0_21DeviceRadixSortPolicyIiijE9Policy900ELb0EiijNS0_6detail21identity_decomposer_tEEEvPKT1_PS7_PKT2_PSB_T3_iiT4_
 0x83               0               0      0x3        0   0x95     .nv.shared._ZN3cub17CUB_200400_750_NS31DeviceRadixSortSingleTileKernelINS0_21DeviceRadixSortPolicyIiijE9Policy900ELb0EiijNS0_6detail21identity_decomposer_tEEEvPKT1_PS7_PKT2_PSB_T3_iiT4_
 0x84               0               0      0x3        0   0x4a     .nv.constant0._ZN3cub17CUB_200400_750_NS31DeviceRadixSortSingleTileKernelINS0_21DeviceRadixSortPolicyIiijE9Policy900ELb0EiijNS0_6detail21identity_decomposer_tEEEvPKT1_PS7_PKT2_PSB_T3_iiT4_
 0x85               0               0      0x3        0   0x70     .text._ZN3cub17CUB_200400_750_NS29DeviceRadixSortOnesweepKernelINS0_21DeviceRadixSortPolicyIihjE9Policy900ELb0EihjiiNS0_6detail21identity_decomposer_tEEEvPT5_S8_PT3_PKS9_PT1_PKSD_PT2_PKSH_T4_iiT6_
 0x86               0               0      0x3        0   0x96     .nv.shared._ZN3cub17CUB_200400_750_NS29DeviceRadixSortOnesweepKernelINS0_21DeviceRadixSortPolicyIihjE9Policy900ELb0EihjiiNS0_6detail21identity_decomposer_tEEEvPT5_S8_PT3_PKS9_PT1_PKSD_PT2_PKSH_T4_iiT6_
 0x87          0xc920            0x50     0x22        0   0x70     $__internal_30_$__cuda_sm70_shflsync_up_p
 0x88          0xc970            0x90     0x22        0   0x70     $__internal_31_$__cuda_sm70_votesync_ballot
 0x89               0               0      0x3        0   0x4b     .nv.constant0._ZN3cub17CUB_200400_750_NS29DeviceRadixSortOnesweepKernelINS0_21DeviceRadixSortPolicyIihjE9Policy900ELb0EihjiiNS0_6detail21identity_decomposer_tEEEvPT5_S8_PT3_PKS9_PT1_PKSD_PT2_PKSH_T4_iiT6_
 0x8a               0               0      0x3        0   0x71     .text._ZN3cub17CUB_200400_750_NS33DeviceRadixSortExclusiveSumKernelINS0_21DeviceRadixSortPolicyIihjE9Policy900EjEEvPT0_
 0x8b               0               0      0x3        0   0x97     .nv.shared._ZN3cub17CUB_200400_750_NS33DeviceRadixSortExclusiveSumKernelINS0_21DeviceRadixSortPolicyIihjE9Policy900EjEEvPT0_
 0x8c           0x6e0            0xa0     0x22        0   0x71     $__internal_32_$__cuda_sm70_shflsync_up_p
 0x8d               0               0      0x3        0   0x4c     .nv.constant0._ZN3cub17CUB_200400_750_NS33DeviceRadixSortExclusiveSumKernelINS0_21DeviceRadixSortPolicyIihjE9Policy900EjEEvPT0_
 0x8e               0               0      0x3        0   0x72     .text._ZN3cub17CUB_200400_750_NS30DeviceRadixSortHistogramKernelINS0_21DeviceRadixSortPolicyIihjE9Policy900ELb0EijNS0_6detail21identity_decomposer_tEEEvPT2_PKT1_S7_iiT3_
 0x8f               0               0      0x3        0   0x98     .nv.shared._ZN3cub17CUB_200400_750_NS30DeviceRadixSortHistogramKernelINS0_21DeviceRadixSortPolicyIihjE9Policy900ELb0EijNS0_6detail21identity_decomposer_tEEEvPT2_PKT1_S7_iiT3_
 0x90               0               0      0x3        0   0x4d     .nv.constant0._ZN3cub17CUB_200400_750_NS30DeviceRadixSortHistogramKernelINS0_21DeviceRadixSortPolicyIihjE9Policy900ELb0EijNS0_6detail21identity_decomposer_tEEEvPT2_PKT1_S7_iiT3_
 0x91               0               0      0x3        0   0x73     .text._ZN3cub17CUB_200400_750_NS30DeviceRadixSortDownsweepKernelINS0_21DeviceRadixSortPolicyIihjE9Policy900ELb1ELb0EihjNS0_6detail21identity_decomposer_tEEEvPKT2_PS7_PKT3_PSB_PT4_SF_iiNS0_13GridEvenShareISF_EET5_
 0x92               0               0      0x3        0   0x99     .nv.shared._ZN3cub17CUB_200400_750_NS30DeviceRadixSortDownsweepKernelINS0_21DeviceRadixSortPolicyIihjE9Policy900ELb1ELb0EihjNS0_6detail21identity_decomposer_tEEEvPKT2_PS7_PKT3_PSB_PT4_SF_iiNS0_13GridEvenShareISF_EET5_
 0x93         0x15110            0x50     0x22        0   0x73     $__internal_33_$__cuda_sm70_shflsync_idx
 0x94         0x15160            0xa0     0x22        0   0x73     $__internal_34_$__cuda_sm70_shflsync_up_p
 0x95               0               0      0x3        0   0x4e     .nv.constant0._ZN3cub17CUB_200400_750_NS30DeviceRadixSortDownsweepKernelINS0_21DeviceRadixSortPolicyIihjE9Policy900ELb1ELb0EihjNS0_6detail21identity_decomposer_tEEEvPKT2_PS7_PKT3_PSB_PT4_SF_iiNS0_13GridEvenShareISF_EET5_
 0x96               0               0      0x3        0   0x74     .text._ZN3cub17CUB_200400_750_NS30DeviceRadixSortDownsweepKernelINS0_21DeviceRadixSortPolicyIihjE9Policy900ELb0ELb0EihjNS0_6detail21identity_decomposer_tEEEvPKT2_PS7_PKT3_PSB_PT4_SF_iiNS0_13GridEvenShareISF_EET5_
 0x97               0               0      0x3        0   0x9a     .nv.shared._ZN3cub17CUB_200400_750_NS30DeviceRadixSortDownsweepKernelINS0_21DeviceRadixSortPolicyIihjE9Policy900ELb0ELb0EihjNS0_6detail21identity_decomposer_tEEEvPKT2_PS7_PKT3_PSB_PT4_SF_iiNS0_13GridEvenShareISF_EET5_
 0x98          0xe570            0x40     0x22        0   0x74     $__internal_35_$__cuda_sm70_shflsync_idx
 0x99          0xe5b0            0xd0     0x22        0   0x74     $__internal_36_$__cuda_sm70_votesync_ballot
 0x9a               0               0      0x3        0   0x4f     .nv.constant0._ZN3cub17CUB_200400_750_NS30DeviceRadixSortDownsweepKernelINS0_21DeviceRadixSortPolicyIihjE9Policy900ELb0ELb0EihjNS0_6detail21identity_decomposer_tEEEvPKT2_PS7_PKT3_PSB_PT4_SF_iiNS0_13GridEvenShareISF_EET5_
 0x9b               0               0      0x3        0   0x75     .text._ZN3cub17CUB_200400_750_NS23RadixSortScanBinsKernelINS0_21DeviceRadixSortPolicyIihjE9Policy900EjEEvPT0_i
 0x9c               0               0      0x3        0   0x9b     .nv.shared._ZN3cub17CUB_200400_750_NS23RadixSortScanBinsKernelINS0_21DeviceRadixSortPolicyIihjE9Policy900EjEEvPT0_i
 0x9d          0x3120            0x50     0x22        0   0x75     $__internal_37_$__cuda_sm70_shflsync_idx
 0x9e          0x3170            0x50     0x22        0   0x75     $__internal_38_$__cuda_sm70_shflsync_up_p
 0x9f          0x31c0            0x40     0x22        0   0x75     $__internal_39_$__cuda_sm70_warpsync
 0xa0               0               0      0x3        0   0x50     .nv.constant0._ZN3cub17CUB_200400_750_NS23RadixSortScanBinsKernelINS0_21DeviceRadixSortPolicyIihjE9Policy900EjEEvPT0_i
 0xa1               0               0      0x3        0   0x76     .text._ZN3cub17CUB_200400_750_NS28DeviceRadixSortUpsweepKernelINS0_21DeviceRadixSortPolicyIihjE9Policy900ELb1ELb0EijNS0_6detail21identity_decomposer_tEEEvPKT2_PT3_SA_iiNS0_13GridEvenShareISA_EET4_
 0xa2               0               0      0x3        0   0x9c     .nv.shared._ZN3cub17CUB_200400_750_NS28DeviceRadixSortUpsweepKernelINS0_21DeviceRadixSortPolicyIihjE9Policy900ELb1ELb0EijNS0_6detail21identity_decomposer_tEEEvPKT2_PT3_SA_iiNS0_13GridEvenShareISA_EET4_
 0xa3               0               0      0x3        0   0x51     .nv.constant0._ZN3cub17CUB_200400_750_NS28DeviceRadixSortUpsweepKernelINS0_21DeviceRadixSortPolicyIihjE9Policy900ELb1ELb0EijNS0_6detail21identity_decomposer_tEEEvPKT2_PT3_SA_iiNS0_13GridEvenShareISA_EET4_
 0xa4               0               0      0x3        0   0x77     .text._ZN3cub17CUB_200400_750_NS28DeviceRadixSortUpsweepKernelINS0_21DeviceRadixSortPolicyIihjE9Policy900ELb0ELb0EijNS0_6detail21identity_decomposer_tEEEvPKT2_PT3_SA_iiNS0_13GridEvenShareISA_EET4_
 0xa5               0               0      0x3        0   0x9d     .nv.shared._ZN3cub17CUB_200400_750_NS28DeviceRadixSortUpsweepKernelINS0_21DeviceRadixSortPolicyIihjE9Policy900ELb0ELb0EijNS0_6detail21identity_decomposer_tEEEvPKT2_PT3_SA_iiNS0_13GridEvenShareISA_EET4_
 0xa6               0               0      0x3        0   0x52     .nv.constant0._ZN3cub17CUB_200400_750_NS28DeviceRadixSortUpsweepKernelINS0_21DeviceRadixSortPolicyIihjE9Policy900ELb0ELb0EijNS0_6detail21identity_decomposer_tEEEvPKT2_PT3_SA_iiNS0_13GridEvenShareISA_EET4_
 0xa7               0               0      0x3        0   0x78     .text._ZN3cub17CUB_200400_750_NS31DeviceRadixSortSingleTileKernelINS0_21DeviceRadixSortPolicyIihjE9Policy900ELb0EihjNS0_6detail21identity_decomposer_tEEEvPKT1_PS7_PKT2_PSB_T3_iiT4_
 0xa8               0               0      0x3        0   0x9e     .nv.shared._ZN3cub17CUB_200400_750_NS31DeviceRadixSortSingleTileKernelINS0_21DeviceRadixSortPolicyIihjE9Policy900ELb0EihjNS0_6detail21identity_decomposer_tEEEvPKT1_PS7_PKT2_PSB_T3_iiT4_
 0xa9               0               0      0x3        0   0x53     .nv.constant0._ZN3cub17CUB_200400_750_NS31DeviceRadixSortSingleTileKernelINS0_21DeviceRadixSortPolicyIihjE9Policy900ELb0EihjNS0_6detail21identity_decomposer_tEEEvPKT1_PS7_PKT2_PSB_T3_iiT4_
 0xaa               0               0      0x3        0   0x79     .text._ZN3cub17CUB_200400_750_NS11EmptyKernelIvEEvv
 0xab               0               0      0x3        0   0x54     .nv.constant0._ZN3cub17CUB_200400_750_NS11EmptyKernelIvEEvv
 0xac               0               0      0x3        0    0x4     .debug_frame
 0xad               0               0      0x3        0   0x2b     .nv.callgraph
 0xae               0               0      0x3        0   0x2c     .nv.rel.action
 0xaf               0          0x7580     0x12     0x10   0x55     _ZN3cub17CUB_200400_750_NS29DeviceRadixSortOnesweepKernelINS0_21DeviceRadixSortPolicyIiljE9Policy900ELb0EiljiiNS0_6detail21identity_decomposer_tEEEvPT5_S8_PT3_PKS9_PT1_PKSD_PT2_PKSH_T4_iiT6_
 0xb0               0           0x780     0x12     0x10   0x56     _ZN3cub17CUB_200400_750_NS33DeviceRadixSortExclusiveSumKernelINS0_21DeviceRadixSortPolicyIiljE9Policy900EjEEvPT0_
 0xb1               0          0x2880     0x12     0x10   0x57     _ZN3cub17CUB_200400_750_NS30DeviceRadixSortHistogramKernelINS0_21DeviceRadixSortPolicyIiljE9Policy900ELb0EijNS0_6detail21identity_decomposer_tEEEvPT2_PKT1_S7_iiT3_
 0xb2               0          0xbc00     0x12     0x10   0x58     _ZN3cub17CUB_200400_750_NS30DeviceRadixSortDownsweepKernelINS0_21DeviceRadixSortPolicyIiljE9Policy900ELb1ELb0EiljNS0_6detail21identity_decomposer_tEEEvPKT2_PS7_PKT3_PSB_PT4_SF_iiNS0_13GridEvenShareISF_EET5_
 0xb3               0          0x8580     0x12     0x10   0x59     _ZN3cub17CUB_200400_750_NS30DeviceRadixSortDownsweepKernelINS0_21DeviceRadixSortPolicyIiljE9Policy900ELb0ELb0EiljNS0_6detail21identity_decomposer_tEEEvPKT2_PS7_PKT3_PSB_PT4_SF_iiNS0_13GridEvenShareISF_EET5_
 0xb4               0          0x3200     0x12     0x10   0x5a     _ZN3cub17CUB_200400_750_NS23RadixSortScanBinsKernelINS0_21DeviceRadixSortPolicyIiljE9Policy900EjEEvPT0_i
 0xb5               0          0x4a00     0x12     0x10   0x5b     _ZN3cub17CUB_200400_750_NS28DeviceRadixSortUpsweepKernelINS0_21DeviceRadixSortPolicyIiljE9Policy900ELb1ELb0EijNS0_6detail21identity_decomposer_tEEEvPKT2_PT3_SA_iiNS0_13GridEvenShareISA_EET4_
 0xb6               0          0x4900     0x12     0x10   0x5c     _ZN3cub17CUB_200400_750_NS28DeviceRadixSortUpsweepKernelINS0_21DeviceRadixSortPolicyIiljE9Policy900ELb0ELb0EijNS0_6detail21identity_decomposer_tEEEvPKT2_PT3_SA_iiNS0_13GridEvenShareISA_EET4_
 0xb7               0          0x2200     0x12     0x10   0x5d     _ZN3cub17CUB_200400_750_NS31DeviceRadixSortSingleTileKernelINS0_21DeviceRadixSortPolicyIiljE9Policy900ELb0EiljNS0_6detail21identity_decomposer_tEEEvPKT1_PS7_PKT2_PSB_T3_iiT4_
 0xb8               0          0xcf80     0x12     0x10   0x5e     _ZN3cub17CUB_200400_750_NS29DeviceRadixSortOnesweepKernelINS0_21DeviceRadixSortPolicyIisjE9Policy900ELb0EisjiiNS0_6detail21identity_decomposer_tEEEvPT5_S8_PT3_PKS9_PT1_PKSD_PT2_PKSH_T4_iiT6_
 0xb9               0           0x780     0x12     0x10   0x5f     _ZN3cub17CUB_200400_750_NS33DeviceRadixSortExclusiveSumKernelINS0_21DeviceRadixSortPolicyIisjE9Policy900EjEEvPT0_
 0xba               0          0x2880     0x12     0x10   0x60     _ZN3cub17CUB_200400_750_NS30DeviceRadixSortHistogramKernelINS0_21DeviceRadixSortPolicyIisjE9Policy900ELb0EijNS0_6detail21identity_decomposer_tEEEvPT2_PKT1_S7_iiT3_
 0xbb               0         0x16000     0x12     0x10   0x61     _ZN3cub17CUB_200400_750_NS30DeviceRadixSortDownsweepKernelINS0_21DeviceRadixSortPolicyIisjE9Policy900ELb1ELb0EisjNS0_6detail21identity_decomposer_tEEEvPKT2_PS7_PKT3_PSB_PT4_SF_iiNS0_13GridEvenShareISF_EET5_
 0xbc               0          0xee00     0x12     0x10   0x62     _ZN3cub17CUB_200400_750_NS30DeviceRadixSortDownsweepKernelINS0_21DeviceRadixSortPolicyIisjE9Policy900ELb0ELb0EisjNS0_6detail21identity_decomposer_tEEEvPKT2_PS7_PKT3_PSB_PT4_SF_iiNS0_13GridEvenShareISF_EET5_
 0xbd               0          0x3200     0x12     0x10   0x63     _ZN3cub17CUB_200400_750_NS23RadixSortScanBinsKernelINS0_21DeviceRadixSortPolicyIisjE9Policy900EjEEvPT0_i
 0xbe               0          0x7200     0x12     0x10   0x64     _ZN3cub17CUB_200400_750_NS28DeviceRadixSortUpsweepKernelINS0_21DeviceRadixSortPolicyIisjE9Policy900ELb1ELb0EijNS0_6detail21identity_decomposer_tEEEvPKT2_PT3_SA_iiNS0_13GridEvenShareISA_EET4_
 0xbf               0          0x5c80     0x12     0x10   0x65     _ZN3cub17CUB_200400_750_NS28DeviceRadixSortUpsweepKernelINS0_21DeviceRadixSortPolicyIisjE9Policy900ELb0ELb0EijNS0_6detail21identity_decomposer_tEEEvPKT2_PT3_SA_iiNS0_13GridEvenShareISA_EET4_
 0xc0               0          0x3880     0x12     0x10   0x66     _ZN3cub17CUB_200400_750_NS31DeviceRadixSortSingleTileKernelINS0_21DeviceRadixSortPolicyIisjE9Policy900ELb0EisjNS0_6detail21identity_decomposer_tEEEvPKT1_PS7_PKT2_PSB_T3_iiT4_
 0xc1               0         0x16b00     0x12     0x10   0x67     _ZN3cub17CUB_200400_750_NS29DeviceRadixSortOnesweepKernelINS0_21DeviceRadixSortPolicyIiijE9Policy900ELb0EiijiiNS0_6detail21identity_decomposer_tEEEvPT5_S8_PT3_PKS9_PT1_PKSD_PT2_PKSH_T4_iiT6_
 0xc2               0           0x780     0x12     0x10   0x68     _ZN3cub17CUB_200400_750_NS33DeviceRadixSortExclusiveSumKernelINS0_21DeviceRadixSortPolicyIiijE9Policy900EjEEvPT0_
 0xc3               0          0x2880     0x12     0x10   0x69     _ZN3cub17CUB_200400_750_NS30DeviceRadixSortHistogramKernelINS0_21DeviceRadixSortPolicyIiijE9Policy900ELb0EijNS0_6detail21identity_decomposer_tEEEvPT2_PKT1_S7_iiT3_
 0xc4               0         0x15c80     0x12     0x10   0x6a     _ZN3cub17CUB_200400_750_NS30DeviceRadixSortDownsweepKernelINS0_21DeviceRadixSortPolicyIiijE9Policy900ELb1ELb0EiijNS0_6detail21identity_decomposer_tEEEvPKT2_PS7_PKT3_PSB_PT4_SF_iiNS0_13GridEvenShareISF_EET5_
 0xc5               0          0xeb80     0x12     0x10   0x6b     _ZN3cub17CUB_200400_750_NS30DeviceRadixSortDownsweepKernelINS0_21DeviceRadixSortPolicyIiijE9Policy900ELb0ELb0EiijNS0_6detail21identity_decomposer_tEEEvPKT2_PS7_PKT3_PSB_PT4_SF_iiNS0_13GridEvenShareISF_EET5_
 0xc6               0          0x3200     0x12     0x10   0x6c     _ZN3cub17CUB_200400_750_NS23RadixSortScanBinsKernelINS0_21DeviceRadixSortPolicyIiijE9Policy900EjEEvPT0_i
 0xc7               0          0x7200     0x12     0x10   0x6d     _ZN3cub17CUB_200400_750_NS28DeviceRadixSortUpsweepKernelINS0_21DeviceRadixSortPolicyIiijE9Policy900ELb1ELb0EijNS0_6detail21identity_decomposer_tEEEvPKT2_PT3_SA_iiNS0_13GridEvenShareISA_EET4_
 0xc8               0          0x5c80     0x12     0x10   0x6e     _ZN3cub17CUB_200400_750_NS28DeviceRadixSortUpsweepKernelINS0_21DeviceRadixSortPolicyIiijE9Policy900ELb0ELb0EijNS0_6detail21identity_decomposer_tEEEvPKT2_PT3_SA_iiNS0_13GridEvenShareISA_EET4_
 0xc9               0          0x3780     0x12     0x10   0x6f     _ZN3cub17CUB_200400_750_NS31DeviceRadixSortSingleTileKernelINS0_21DeviceRadixSortPolicyIiijE9Policy900ELb0EiijNS0_6detail21identity_decomposer_tEEEvPKT1_PS7_PKT2_PSB_T3_iiT4_
 0xca               0          0xca00     0x12     0x10   0x70     _ZN3cub17CUB_200400_750_NS29DeviceRadixSortOnesweepKernelINS0_21DeviceRadixSortPolicyIihjE9Policy900ELb0EihjiiNS0_6detail21identity_decomposer_tEEEvPT5_S8_PT3_PKS9_PT1_PKSD_PT2_PKSH_T4_iiT6_
 0xcb               0           0x780     0x12     0x10   0x71     _ZN3cub17CUB_200400_750_NS33DeviceRadixSortExclusiveSumKernelINS0_21DeviceRadixSortPolicyIihjE9Policy900EjEEvPT0_
 0xcc               0          0x2880     0x12     0x10   0x72     _ZN3cub17CUB_200400_750_NS30DeviceRadixSortHistogramKernelINS0_21DeviceRadixSortPolicyIihjE9Policy900ELb0EijNS0_6detail21identity_decomposer_tEEEvPT2_PKT1_S7_iiT3_
 0xcd               0         0x15200     0x12     0x10   0x73     _ZN3cub17CUB_200400_750_NS30DeviceRadixSortDownsweepKernelINS0_21DeviceRadixSortPolicyIihjE9Policy900ELb1ELb0EihjNS0_6detail21identity_decomposer_tEEEvPKT2_PS7_PKT3_PSB_PT4_SF_iiNS0_13GridEvenShareISF_EET5_
 0xce               0          0xe680     0x12     0x10   0x74     _ZN3cub17CUB_200400_750_NS30DeviceRadixSortDownsweepKernelINS0_21DeviceRadixSortPolicyIihjE9Policy900ELb0ELb0EihjNS0_6detail21identity_decomposer_tEEEvPKT2_PS7_PKT3_PSB_PT4_SF_iiNS0_13GridEvenShareISF_EET5_
 0xcf               0          0x3200     0x12     0x10   0x75     _ZN3cub17CUB_200400_750_NS23RadixSortScanBinsKernelINS0_21DeviceRadixSortPolicyIihjE9Policy900EjEEvPT0_i
 0xd0               0          0x7200     0x12     0x10   0x76     _ZN3cub17CUB_200400_750_NS28DeviceRadixSortUpsweepKernelINS0_21DeviceRadixSortPolicyIihjE9Policy900ELb1ELb0EijNS0_6detail21identity_decomposer_tEEEvPKT2_PT3_SA_iiNS0_13GridEvenShareISA_EET4_
 0xd1               0          0x5c80     0x12     0x10   0x77     _ZN3cub17CUB_200400_750_NS28DeviceRadixSortUpsweepKernelINS0_21DeviceRadixSortPolicyIihjE9Policy900ELb0ELb0EijNS0_6detail21identity_decomposer_tEEEvPKT2_PT3_SA_iiNS0_13GridEvenShareISA_EET4_
 0xd2               0          0x3680     0x12     0x10   0x78     _ZN3cub17CUB_200400_750_NS31DeviceRadixSortSingleTileKernelINS0_21DeviceRadixSortPolicyIihjE9Policy900ELb0EihjNS0_6detail21identity_decomposer_tEEEvPKT1_PS7_PKT2_PSB_T3_iiT4_
 0xd3               0            0x80     0x12     0x10   0x79     _ZN3cub17CUB_200400_750_NS11EmptyKernelIvEEvv


.nv.constant4
0x00000000 0x00000000 0x00000000 0x00000000
0x00000000 0x00000000 0x00000000 0x00000000
0x00000000 0x00000000 0x00000000 0x00000000
0x00000000 0x00000000 0x00000000 0x00000000
0x00000000 0x00000000 0x00000000 0x00000000
0x00000000 0x00000000 0x00000000 0x00000000
0x00000000 0x00000000 0x00000000 0x00000000
0x00000000 0x00000000 0x00000000 0x00000000
0x00000000 0x00000000 0x00000000 0x00000000
0x00000000 0x00000000 

.section .rel.nv.constant4	REL
0x90    _ZN33_INTERNAL_0834b31b_7_main_cu_main6thrust20THRUST_200400_750_NS6deviceE    R_CUDA_64
0x88    _ZN33_INTERNAL_0834b31b_7_main_cu_main6thrust20THRUST_200400_750_NS3seqE    R_CUDA_64
0x80    _ZN33_INTERNAL_0834b31b_7_main_cu_main6thrust20THRUST_200400_750_NS12placeholders3_10E    R_CUDA_64
0x78    _ZN33_INTERNAL_0834b31b_7_main_cu_main6thrust20THRUST_200400_750_NS12placeholders2_9E    R_CUDA_64
0x70    _ZN33_INTERNAL_0834b31b_7_main_cu_main6thrust20THRUST_200400_750_NS12placeholders2_8E    R_CUDA_64
0x68    _ZN33_INTERNAL_0834b31b_7_main_cu_main6thrust20THRUST_200400_750_NS12placeholders2_7E    R_CUDA_64
0x60    _ZN33_INTERNAL_0834b31b_7_main_cu_main6thrust20THRUST_200400_750_NS12placeholders2_6E    R_CUDA_64
0x58    _ZN33_INTERNAL_0834b31b_7_main_cu_main6thrust20THRUST_200400_750_NS12placeholders2_5E    R_CUDA_64
0x50    _ZN33_INTERNAL_0834b31b_7_main_cu_main6thrust20THRUST_200400_750_NS12placeholders2_4E    R_CUDA_64
0x48    _ZN33_INTERNAL_0834b31b_7_main_cu_main6thrust20THRUST_200400_750_NS12placeholders2_3E    R_CUDA_64
0x40    _ZN33_INTERNAL_0834b31b_7_main_cu_main6thrust20THRUST_200400_750_NS12placeholders2_2E    R_CUDA_64
0x38    _ZN33_INTERNAL_0834b31b_7_main_cu_main6thrust20THRUST_200400_750_NS12placeholders2_1E    R_CUDA_64
0x30    _ZN33_INTERNAL_0834b31b_7_main_cu_main6thrust20THRUST_200400_750_NS8cuda_cub10par_nosyncE    R_CUDA_64
0x28    _ZN33_INTERNAL_0834b31b_7_main_cu_main6thrust20THRUST_200400_750_NS8cuda_cub3parE    R_CUDA_64
0x20    _ZN33_INTERNAL_0834b31b_7_main_cu_main6thrust20THRUST_200400_750_NS6system3cpp3parE    R_CUDA_64
0x18    _ZN33_INTERNAL_0834b31b_7_main_cu_main6thrust20THRUST_200400_750_NS6system6detail10sequential3seqE    R_CUDA_64
0x10    _ZN33_INTERNAL_0834b31b_7_main_cu_main4cuda3std6ranges3__45__cpo4swapE    R_CUDA_64
0x8    _ZN33_INTERNAL_0834b31b_7_main_cu_main4cuda3std3__48in_placeE    R_CUDA_64
0x0    _ZN33_INTERNAL_0834b31b_7_main_cu_main4cuda3std3__435_GLOBAL__N__0834b31b_7_main_cu_main6ignoreE    R_CUDA_64


.nv.constant0._ZN3cub17CUB_200400_750_NS29DeviceRadixSortOnesweepKernelINS0_21DeviceRadixSortPolicyIiljE9Policy900ELb0EiljiiNS0_6detail21identity_decomposer_tEEEvPT5_S8_PT3_PKS9_PT1_PKSD_PT2_PKSH_T4_iiT6_
0x00000000 0x00000000 0x00000000 0x00000000
0x00000000 0x00000000 0x00000000 0x00000000
0x00000000 0x00000000 0x00000000 0x00000000
0x00000000 0x00000000 0x00000000 0x00000000
0x00000000 0x00000000 0x00000000 0x00000000
0x00000000 0x00000000 0x00000000 0x00000000
0x00000000 0x00000000 0x00000000 0x00000000
0x00000000 0x00000000 0x00000000 0x00000000
0x00000000 0x00000000 0x00000000 0x00000000
0x00000000 0x00000000 0x00000000 0x00000000
0x00000000 0x00000000 0x00000000 0x00000000
0x00000000 0x00000000 0x00000000 0x00000000
0x00000000 0x00000000 0x00000000 0x00000000
0x00000000 0x00000000 0x00000000 0x00000000
0x00000000 0x00000000 0x00000000 0x00000000
0x00000000 0x00000000 0x00000000 0x00000000
0x00000000 0x00000000 0x00000000 0x00000000
0x00000000 0x00000000 0x00000000 0x00000000
0x00000000 0x00000000 0x00000000 0x00000000
0x00000000 0x00000000 0x00000000 0x00000000
0x00000000 0x00000000 0x00000000 0x00000000
0x00000000 0x00000000 0x00000000 0x00000000
0x00000000 0x00000000 0x00000000 0x00000000
0x00000000 0x00000000 0x00000000 0x00000000
0x00000000 0x00000000 0x00000000 0x00000000
0x00000000 0x00000000 0x00000000 0x00000000
0x00000000 0x00000000 0x00000000 0x00 


.nv.constant0._ZN3cub17CUB_200400_750_NS33DeviceRadixSortExclusiveSumKernelINS0_21DeviceRadixSortPolicyIiljE9Policy900EjEEvPT0_
0x00000000 0x00000000 0x00000000 0x00000000
0x00000000 0x00000000 0x00000000 0x00000000
0x00000000 0x00000000 0x00000000 0x00000000
0x00000000 0x00000000 0x00000000 0x00000000
0x00000000 0x00000000 0x00000000 0x00000000
0x00000000 0x00000000 0x00000000 0x00000000
0x00000000 0x00000000 0x00000000 0x00000000
0x00000000 0x00000000 0x00000000 0x00000000
0x00000000 0x00000000 0x00000000 0x00000000
0x00000000 0x00000000 0x00000000 0x00000000
0x00000000 0x00000000 0x00000000 0x00000000
0x00000000 0x00000000 0x00000000 0x00000000
0x00000000 0x00000000 0x00000000 0x00000000
0x00000000 0x00000000 0x00000000 0x00000000
0x00000000 0x00000000 0x00000000 0x00000000
0x00000000 0x00000000 0x00000000 0x00000000
0x00000000 0x00000000 0x00000000 0x00000000
0x00000000 0x00000000 0x00000000 0x00000000
0x00000000 0x00000000 0x00000000 0x00000000
0x00000000 0x00000000 0x00000000 0x00000000
0x00000000 0x00000000 0x00000000 0x00000000
0x00000000 0x00000000 0x00000000 0x00000000
0x00000000 0x00000000 


.nv.constant0._ZN3cub17CUB_200400_750_NS30DeviceRadixSortHistogramKernelINS0_21DeviceRadixSortPolicyIiljE9Policy900ELb0EijNS0_6detail21identity_decomposer_tEEEvPT2_PKT1_S7_iiT3_
0x00000000 0x00000000 0x00000000 0x00000000
0x00000000 0x00000000 0x00000000 0x00000000
0x00000000 0x00000000 0x00000000 0x00000000
0x00000000 0x00000000 0x00000000 0x00000000
0x00000000 0x00000000 0x00000000 0x00000000
0x00000000 0x00000000 0x00000000 0x00000000
0x00000000 0x00000000 0x00000000 0x00000000
0x00000000 0x00000000 0x00000000 0x00000000
0x00000000 0x00000000 0x00000000 0x00000000
0x00000000 0x00000000 0x00000000 0x00000000
0x00000000 0x00000000 0x00000000 0x00000000
0x00000000 0x00000000 0x00000000 0x00000000
0x00000000 0x00000000 0x00000000 0x00000000
0x00000000 0x00000000 0x00000000 0x00000000
0x00000000 0x00000000 0x00000000 0x00000000
0x00000000 0x00000000 0x00000000 0x00000000
0x00000000 0x00000000 0x00000000 0x00000000
0x00000000 0x00000000 0x00000000 0x00000000
0x00000000 0x00000000 0x00000000 0x00000000
0x00000000 0x00000000 0x00000000 0x00000000
0x00000000 0x00000000 0x00000000 0x00000000
0x00000000 0x00000000 0x00000000 0x00000000
0x00000000 0x00000000 0x00000000 0x00000000
0x00000000 0x00000000 0x00000000 0x00 


.nv.constant0._ZN3cub17CUB_200400_750_NS30DeviceRadixSortDownsweepKernelINS0_21DeviceRadixSortPolicyIiljE9Policy900ELb1ELb0EiljNS0_6detail21identity_decomposer_tEEEvPKT2_PS7_PKT3_PSB_PT4_SF_iiNS0_13GridEvenShareISF_EET5_
0x00000000 0x00000000 0x00000000 0x00000000
0x00000000 0x00000000 0x00000000 0x00000000
0x00000000 0x00000000 0x00000000 0x00000000
0x00000000 0x00000000 0x00000000 0x00000000
0x00000000 0x00000000 0x00000000 0x00000000
0x00000000 0x00000000 0x00000000 0x00000000
0x00000000 0x00000000 0x00000000 0x00000000
0x00000000 0x00000000 0x00000000 0x00000000
0x00000000 0x00000000 0x00000000 0x00000000
0x00000000 0x00000000 0x00000000 0x00000000
0x00000000 0x00000000 0x00000000 0x00000000
0x00000000 0x00000000 0x00000000 0x00000000
0x00000000 0x00000000 0x00000000 0x00000000
0x00000000 0x00000000 0x00000000 0x00000000
0x00000000 0x00000000 0x00000000 0x00000000
0x00000000 0x00000000 0x00000000 0x00000000
0x00000000 0x00000000 0x00000000 0x00000000
0x00000000 0x00000000 0x00000000 0x00000000
0x00000000 0x00000000 0x00000000 0x00000000
0x00000000 0x00000000 0x00000000 0x00000000
0x00000000 0x00000000 0x00000000 0x00000000
0x00000000 0x00000000 0x00000000 0x00000000
0x00000000 0x00000000 0x00000000 0x00000000
0x00000000 0x00000000 0x00000000 0x00000000
0x00000000 0x00000000 0x00000000 0x00000000
0x00000000 0x00000000 0x00000000 0x00000000
0x00000000 0x00000000 0x00000000 0x00000000
0x00000000 0x00000000 0x00000000 0x00 


.nv.constant0._ZN3cub17CUB_200400_750_NS30DeviceRadixSortDownsweepKernelINS0_21DeviceRadixSortPolicyIiljE9Policy900ELb0ELb0EiljNS0_6detail21identity_decomposer_tEEEvPKT2_PS7_PKT3_PSB_PT4_SF_iiNS0_13GridEvenShareISF_EET5_
0x00000000 0x00000000 0x00000000 0x00000000
0x00000000 0x00000000 0x00000000 0x00000000
0x00000000 0x00000000 0x00000000 0x00000000
0x00000000 0x00000000 0x00000000 0x00000000
0x00000000 0x00000000 0x00000000 0x00000000
0x00000000 0x00000000 0x00000000 0x00000000
0x00000000 0x00000000 0x00000000 0x00000000
0x00000000 0x00000000 0x00000000 0x00000000
0x00000000 0x00000000 0x00000000 0x00000000
0x00000000 0x00000000 0x00000000 0x00000000
0x00000000 0x00000000 0x00000000 0x00000000
0x00000000 0x00000000 0x00000000 0x00000000
0x00000000 0x00000000 0x00000000 0x00000000
0x00000000 0x00000000 0x00000000 0x00000000
0x00000000 0x00000000 0x00000000 0x00000000
0x00000000 0x00000000 0x00000000 0x00000000
0x00000000 0x00000000 0x00000000 0x00000000
0x00000000 0x00000000 0x00000000 0x00000000
0x00000000 0x00000000 0x00000000 0x00000000
0x00000000 0x00000000 0x00000000 0x00000000
0x00000000 0x00000000 0x00000000 0x00000000
0x00000000 0x00000000 0x00000000 0x00000000
0x00000000 0x00000000 0x00000000 0x00000000
0x00000000 0x00000000 0x00000000 0x00000000
0x00000000 0x00000000 0x00000000 0x00000000
0x00000000 0x00000000 0x00000000 0x00000000
0x00000000 0x00000000 0x00000000 0x00000000
0x00000000 0x00000000 0x00000000 0x00 


.nv.constant0._ZN3cub17CUB_200400_750_NS23RadixSortScanBinsKernelINS0_21DeviceRadixSortPolicyIiljE9Policy900EjEEvPT0_i
0x00000000 0x00000000 0x00000000 0x00000000
0x00000000 0x00000000 0x00000000 0x00000000
0x00000000 0x00000000 0x00000000 0x00000000
0x00000000 0x00000000 0x00000000 0x00000000
0x00000000 0x00000000 0x00000000 0x00000000
0x00000000 0x00000000 0x00000000 0x00000000
0x00000000 0x00000000 0x00000000 0x00000000
0x00000000 0x00000000 0x00000000 0x00000000
0x00000000 0x00000000 0x00000000 0x00000000
0x00000000 0x00000000 0x00000000 0x00000000
0x00000000 0x00000000 0x00000000 0x00000000
0x00000000 0x00000000 0x00000000 0x00000000
0x00000000 0x00000000 0x00000000 0x00000000
0x00000000 0x00000000 0x00000000 0x00000000
0x00000000 0x00000000 0x00000000 0x00000000
0x00000000 0x00000000 0x00000000 0x00000000
0x00000000 0x00000000 0x00000000 0x00000000
0x00000000 0x00000000 0x00000000 0x00000000
0x00000000 0x00000000 0x00000000 0x00000000
0x00000000 0x00000000 0x00000000 0x00000000
0x00000000 0x00000000 0x00000000 0x00000000
0x00000000 0x00000000 0x00000000 0x00000000
0x00000000 0x00000000 0x00000000 


.nv.constant0._ZN3cub17CUB_200400_750_NS28DeviceRadixSortUpsweepKernelINS0_21DeviceRadixSortPolicyIiljE9Policy900ELb1ELb0EijNS0_6detail21identity_decomposer_tEEEvPKT2_PT3_SA_iiNS0_13GridEvenShareISA_EET4_
0x00000000 0x00000000 0x00000000 0x00000000
0x00000000 0x00000000 0x00000000 0x00000000
0x00000000 0x00000000 0x00000000 0x00000000
0x00000000 0x00000000 0x00000000 0x00000000
0x00000000 0x00000000 0x00000000 0x00000000
0x00000000 0x00000000 0x00000000 0x00000000
0x00000000 0x00000000 0x00000000 0x00000000
0x00000000 0x00000000 0x00000000 0x00000000
0x00000000 0x00000000 0x00000000 0x00000000
0x00000000 0x00000000 0x00000000 0x00000000
0x00000000 0x00000000 0x00000000 0x00000000
0x00000000 0x00000000 0x00000000 0x00000000
0x00000000 0x00000000 0x00000000 0x00000000
0x00000000 0x00000000 0x00000000 0x00000000
0x00000000 0x00000000 0x00000000 0x00000000
0x00000000 0x00000000 0x00000000 0x00000000
0x00000000 0x00000000 0x00000000 0x00000000
0x00000000 0x00000000 0x00000000 0x00000000
0x00000000 0x00000000 0x00000000 0x00000000
0x00000000 0x00000000 0x00000000 0x00000000
0x00000000 0x00000000 0x00000000 0x00000000
0x00000000 0x00000000 0x00000000 0x00000000
0x00000000 0x00000000 0x00000000 0x00000000
0x00000000 0x00000000 0x00000000 0x00000000
0x00000000 0x00000000 0x00000000 0x00000000
0x00000000 0x00000000 0x00000000 0x00000000
0x00000000 0x00 


.nv.constant0._ZN3cub17CUB_200400_750_NS28DeviceRadixSortUpsweepKernelINS0_21DeviceRadixSortPolicyIiljE9Policy900ELb0ELb0EijNS0_6detail21identity_decomposer_tEEEvPKT2_PT3_SA_iiNS0_13GridEvenShareISA_EET4_
0x00000000 0x00000000 0x00000000 0x00000000
0x00000000 0x00000000 0x00000000 0x00000000
0x00000000 0x00000000 0x00000000 0x00000000
0x00000000 0x00000000 0x00000000 0x00000000
0x00000000 0x00000000 0x00000000 0x00000000
0x00000000 0x00000000 0x00000000 0x00000000
0x00000000 0x00000000 0x00000000 0x00000000
0x00000000 0x00000000 0x00000000 0x00000000
0x00000000 0x00000000 0x00000000 0x00000000
0x00000000 0x00000000 0x00000000 0x00000000
0x00000000 0x00000000 0x00000000 0x00000000
0x00000000 0x00000000 0x00000000 0x00000000
0x00000000 0x00000000 0x00000000 0x00000000
0x00000000 0x00000000 0x00000000 0x00000000
0x00000000 0x00000000 0x00000000 0x00000000
0x00000000 0x00000000 0x00000000 0x00000000
0x00000000 0x00000000 0x00000000 0x00000000
0x00000000 0x00000000 0x00000000 0x00000000
0x00000000 0x00000000 0x00000000 0x00000000
0x00000000 0x00000000 0x00000000 0x00000000
0x00000000 0x00000000 0x00000000 0x00000000
0x00000000 0x00000000 0x00000000 0x00000000
0x00000000 0x00000000 0x00000000 0x00000000
0x00000000 0x00000000 0x00000000 0x00000000
0x00000000 0x00000000 0x00000000 0x00000000
0x00000000 0x00000000 0x00000000 0x00000000
0x00000000 0x00 


.nv.constant0._ZN3cub17CUB_200400_750_NS31DeviceRadixSortSingleTileKernelINS0_21DeviceRadixSortPolicyIiljE9Policy900ELb0EiljNS0_6detail21identity_decomposer_tEEEvPKT1_PS7_PKT2_PSB_T3_iiT4_
0x00000000 0x00000000 0x00000000 0x00000000
0x00000000 0x00000000 0x00000000 0x00000000
0x00000000 0x00000000 0x00000000 0x00000000
0x00000000 0x00000000 0x00000000 0x00000000
0x00000000 0x00000000 0x00000000 0x00000000
0x00000000 0x00000000 0x00000000 0x00000000
0x00000000 0x00000000 0x00000000 0x00000000
0x00000000 0x00000000 0x00000000 0x00000000
0x00000000 0x00000000 0x00000000 0x00000000
0x00000000 0x00000000 0x00000000 0x00000000
0x00000000 0x00000000 0x00000000 0x00000000
0x00000000 0x00000000 0x00000000 0x00000000
0x00000000 0x00000000 0x00000000 0x00000000
0x00000000 0x00000000 0x00000000 0x00000000
0x00000000 0x00000000 0x00000000 0x00000000
0x00000000 0x00000000 0x00000000 0x00000000
0x00000000 0x00000000 0x00000000 0x00000000
0x00000000 0x00000000 0x00000000 0x00000000
0x00000000 0x00000000 0x00000000 0x00000000
0x00000000 0x00000000 0x00000000 0x00000000
0x00000000 0x00000000 0x00000000 0x00000000
0x00000000 0x00000000 0x00000000 0x00000000
0x00000000 0x00000000 0x00000000 0x00000000
0x00000000 0x00000000 0x00000000 0x00000000
0x00000000 0x00000000 0x00000000 0x00 


.nv.constant0._ZN3cub17CUB_200400_750_NS29DeviceRadixSortOnesweepKernelINS0_21DeviceRadixSortPolicyIisjE9Policy900ELb0EisjiiNS0_6detail21identity_decomposer_tEEEvPT5_S8_PT3_PKS9_PT1_PKSD_PT2_PKSH_T4_iiT6_
0x00000000 0x00000000 0x00000000 0x00000000
0x00000000 0x00000000 0x00000000 0x00000000
0x00000000 0x00000000 0x00000000 0x00000000
0x00000000 0x00000000 0x00000000 0x00000000
0x00000000 0x00000000 0x00000000 0x00000000
0x00000000 0x00000000 0x00000000 0x00000000
0x00000000 0x00000000 0x00000000 0x00000000
0x00000000 0x00000000 0x00000000 0x00000000
0x00000000 0x00000000 0x00000000 0x00000000
0x00000000 0x00000000 0x00000000 0x00000000
0x00000000 0x00000000 0x00000000 0x00000000
0x00000000 0x00000000 0x00000000 0x00000000
0x00000000 0x00000000 0x00000000 0x00000000
0x00000000 0x00000000 0x00000000 0x00000000
0x00000000 0x00000000 0x00000000 0x00000000
0x00000000 0x00000000 0x00000000 0x00000000
0x00000000 0x00000000 0x00000000 0x00000000
0x00000000 0x00000000 0x00000000 0x00000000
0x00000000 0x00000000 0x00000000 0x00000000
0x00000000 0x00000000 0x00000000 0x00000000
0x00000000 0x00000000 0x00000000 0x00000000
0x00000000 0x00000000 0x00000000 0x00000000
0x00000000 0x00000000 0x00000000 0x00000000
0x00000000 0x00000000 0x00000000 0x00000000
0x00000000 0x00000000 0x00000000 0x00000000
0x00000000 0x00000000 0x00000000 0x00000000
0x00000000 0x00000000 0x00000000 0x00 


.nv.constant0._ZN3cub17CUB_200400_750_NS33DeviceRadixSortExclusiveSumKernelINS0_21DeviceRadixSortPolicyIisjE9Policy900EjEEvPT0_
0x00000000 0x00000000 0x00000000 0x00000000
0x00000000 0x00000000 0x00000000 0x00000000
0x00000000 0x00000000 0x00000000 0x00000000
0x00000000 0x00000000 0x00000000 0x00000000
0x00000000 0x00000000 0x00000000 0x00000000
0x00000000 0x00000000 0x00000000 0x00000000
0x00000000 0x00000000 0x00000000 0x00000000
0x00000000 0x00000000 0x00000000 0x00000000
0x00000000 0x00000000 0x00000000 0x00000000
0x00000000 0x00000000 0x00000000 0x00000000
0x00000000 0x00000000 0x00000000 0x00000000
0x00000000 0x00000000 0x00000000 0x00000000
0x00000000 0x00000000 0x00000000 0x00000000
0x00000000 0x00000000 0x00000000 0x00000000
0x00000000 0x00000000 0x00000000 0x00000000
0x00000000 0x00000000 0x00000000 0x00000000
0x00000000 0x00000000 0x00000000 0x00000000
0x00000000 0x00000000 0x00000000 0x00000000
0x00000000 0x00000000 0x00000000 0x00000000
0x00000000 0x00000000 0x00000000 0x00000000
0x00000000 0x00000000 0x00000000 0x00000000
0x00000000 0x00000000 0x00000000 0x00000000
0x00000000 0x00000000 


.nv.constant0._ZN3cub17CUB_200400_750_NS30DeviceRadixSortHistogramKernelINS0_21DeviceRadixSortPolicyIisjE9Policy900ELb0EijNS0_6detail21identity_decomposer_tEEEvPT2_PKT1_S7_iiT3_
0x00000000 0x00000000 0x00000000 0x00000000
0x00000000 0x00000000 0x00000000 0x00000000
0x00000000 0x00000000 0x00000000 0x00000000
0x00000000 0x00000000 0x00000000 0x00000000
0x00000000 0x00000000 0x00000000 0x00000000
0x00000000 0x00000000 0x00000000 0x00000000
0x00000000 0x00000000 0x00000000 0x00000000
0x00000000 0x00000000 0x00000000 0x00000000
0x00000000 0x00000000 0x00000000 0x00000000
0x00000000 0x00000000 0x00000000 0x00000000
0x00000000 0x00000000 0x00000000 0x00000000
0x00000000 0x00000000 0x00000000 0x00000000
0x00000000 0x00000000 0x00000000 0x00000000
0x00000000 0x00000000 0x00000000 0x00000000
0x00000000 0x00000000 0x00000000 0x00000000
0x00000000 0x00000000 0x00000000 0x00000000
0x00000000 0x00000000 0x00000000 0x00000000
0x00000000 0x00000000 0x00000000 0x00000000
0x00000000 0x00000000 0x00000000 0x00000000
0x00000000 0x00000000 0x00000000 0x00000000
0x00000000 0x00000000 0x00000000 0x00000000
0x00000000 0x00000000 0x00000000 0x00000000
0x00000000 0x00000000 0x00000000 0x00000000
0x00000000 0x00000000 0x00000000 0x00 


.nv.constant0._ZN3cub17CUB_200400_750_NS30DeviceRadixSortDownsweepKernelINS0_21DeviceRadixSortPolicyIisjE9Policy900ELb1ELb0EisjNS0_6detail21identity_decomposer_tEEEvPKT2_PS7_PKT3_PSB_PT4_SF_iiNS0_13GridEvenShareISF_EET5_
0x00000000 0x00000000 0x00000000 0x00000000
0x00000000 0x00000000 0x00000000 0x00000000
0x00000000 0x00000000 0x00000000 0x00000000
0x00000000 0x00000000 0x00000000 0x00000000
0x00000000 0x00000000 0x00000000 0x00000000
0x00000000 0x00000000 0x00000000 0x00000000
0x00000000 0x00000000 0x00000000 0x00000000
0x00000000 0x00000000 0x00000000 0x00000000
0x00000000 0x00000000 0x00000000 0x00000000
0x00000000 0x00000000 0x00000000 0x00000000
0x00000000 0x00000000 0x00000000 0x00000000
0x00000000 0x00000000 0x00000000 0x00000000
0x00000000 0x00000000 0x00000000 0x00000000
0x00000000 0x00000000 0x00000000 0x00000000
0x00000000 0x00000000 0x00000000 0x00000000
0x00000000 0x00000000 0x00000000 0x00000000
0x00000000 0x00000000 0x00000000 0x00000000
0x00000000 0x00000000 0x00000000 0x00000000
0x00000000 0x00000000 0x00000000 0x00000000
0x00000000 0x00000000 0x00000000 0x00000000
0x00000000 0x00000000 0x00000000 0x00000000
0x00000000 0x00000000 0x00000000 0x00000000
0x00000000 0x00000000 0x00000000 0x00000000
0x00000000 0x00000000 0x00000000 0x00000000
0x00000000 0x00000000 0x00000000 0x00000000
0x00000000 0x00000000 0x00000000 0x00000000
0x00000000 0x00000000 0x00000000 0x00000000
0x00000000 0x00000000 0x00000000 0x00 


.nv.constant0._ZN3cub17CUB_200400_750_NS30DeviceRadixSortDownsweepKernelINS0_21DeviceRadixSortPolicyIisjE9Policy900ELb0ELb0EisjNS0_6detail21identity_decomposer_tEEEvPKT2_PS7_PKT3_PSB_PT4_SF_iiNS0_13GridEvenShareISF_EET5_
0x00000000 0x00000000 0x00000000 0x00000000
0x00000000 0x00000000 0x00000000 0x00000000
0x00000000 0x00000000 0x00000000 0x00000000
0x00000000 0x00000000 0x00000000 0x00000000
0x00000000 0x00000000 0x00000000 0x00000000
0x00000000 0x00000000 0x00000000 0x00000000
0x00000000 0x00000000 0x00000000 0x00000000
0x00000000 0x00000000 0x00000000 0x00000000
0x00000000 0x00000000 0x00000000 0x00000000
0x00000000 0x00000000 0x00000000 0x00000000
0x00000000 0x00000000 0x00000000 0x00000000
0x00000000 0x00000000 0x00000000 0x00000000
0x00000000 0x00000000 0x00000000 0x00000000
0x00000000 0x00000000 0x00000000 0x00000000
0x00000000 0x00000000 0x00000000 0x00000000
0x00000000 0x00000000 0x00000000 0x00000000
0x00000000 0x00000000 0x00000000 0x00000000
0x00000000 0x00000000 0x00000000 0x00000000
0x00000000 0x00000000 0x00000000 0x00000000
0x00000000 0x00000000 0x00000000 0x00000000
0x00000000 0x00000000 0x00000000 0x00000000
0x00000000 0x00000000 0x00000000 0x00000000
0x00000000 0x00000000 0x00000000 0x00000000
0x00000000 0x00000000 0x00000000 0x00000000
0x00000000 0x00000000 0x00000000 0x00000000
0x00000000 0x00000000 0x00000000 0x00000000
0x00000000 0x00000000 0x00000000 0x00000000
0x00000000 0x00000000 0x00000000 0x00 


.nv.constant0._ZN3cub17CUB_200400_750_NS23RadixSortScanBinsKernelINS0_21DeviceRadixSortPolicyIisjE9Policy900EjEEvPT0_i
0x00000000 0x00000000 0x00000000 0x00000000
0x00000000 0x00000000 0x00000000 0x00000000
0x00000000 0x00000000 0x00000000 0x00000000
0x00000000 0x00000000 0x00000000 0x00000000
0x00000000 0x00000000 0x00000000 0x00000000
0x00000000 0x00000000 0x00000000 0x00000000
0x00000000 0x00000000 0x00000000 0x00000000
0x00000000 0x00000000 0x00000000 0x00000000
0x00000000 0x00000000 0x00000000 0x00000000
0x00000000 0x00000000 0x00000000 0x00000000
0x00000000 0x00000000 0x00000000 0x00000000
0x00000000 0x00000000 0x00000000 0x00000000
0x00000000 0x00000000 0x00000000 0x00000000
0x00000000 0x00000000 0x00000000 0x00000000
0x00000000 0x00000000 0x00000000 0x00000000
0x00000000 0x00000000 0x00000000 0x00000000
0x00000000 0x00000000 0x00000000 0x00000000
0x00000000 0x00000000 0x00000000 0x00000000
0x00000000 0x00000000 0x00000000 0x00000000
0x00000000 0x00000000 0x00000000 0x00000000
0x00000000 0x00000000 0x00000000 0x00000000
0x00000000 0x00000000 0x00000000 0x00000000
0x00000000 0x00000000 0x00000000 


.nv.constant0._ZN3cub17CUB_200400_750_NS28DeviceRadixSortUpsweepKernelINS0_21DeviceRadixSortPolicyIisjE9Policy900ELb1ELb0EijNS0_6detail21identity_decomposer_tEEEvPKT2_PT3_SA_iiNS0_13GridEvenShareISA_EET4_
0x00000000 0x00000000 0x00000000 0x00000000
0x00000000 0x00000000 0x00000000 0x00000000
0x00000000 0x00000000 0x00000000 0x00000000
0x00000000 0x00000000 0x00000000 0x00000000
0x00000000 0x00000000 0x00000000 0x00000000
0x00000000 0x00000000 0x00000000 0x00000000
0x00000000 0x00000000 0x00000000 0x00000000
0x00000000 0x00000000 0x00000000 0x00000000
0x00000000 0x00000000 0x00000000 0x00000000
0x00000000 0x00000000 0x00000000 0x00000000
0x00000000 0x00000000 0x00000000 0x00000000
0x00000000 0x00000000 0x00000000 0x00000000
0x00000000 0x00000000 0x00000000 0x00000000
0x00000000 0x00000000 0x00000000 0x00000000
0x00000000 0x00000000 0x00000000 0x00000000
0x00000000 0x00000000 0x00000000 0x00000000
0x00000000 0x00000000 0x00000000 0x00000000
0x00000000 0x00000000 0x00000000 0x00000000
0x00000000 0x00000000 0x00000000 0x00000000
0x00000000 0x00000000 0x00000000 0x00000000
0x00000000 0x00000000 0x00000000 0x00000000
0x00000000 0x00000000 0x00000000 0x00000000
0x00000000 0x00000000 0x00000000 0x00000000
0x00000000 0x00000000 0x00000000 0x00000000
0x00000000 0x00000000 0x00000000 0x00000000
0x00000000 0x00000000 0x00000000 0x00000000
0x00000000 0x00 


.nv.constant0._ZN3cub17CUB_200400_750_NS28DeviceRadixSortUpsweepKernelINS0_21DeviceRadixSortPolicyIisjE9Policy900ELb0ELb0EijNS0_6detail21identity_decomposer_tEEEvPKT2_PT3_SA_iiNS0_13GridEvenShareISA_EET4_
0x00000000 0x00000000 0x00000000 0x00000000
0x00000000 0x00000000 0x00000000 0x00000000
0x00000000 0x00000000 0x00000000 0x00000000
0x00000000 0x00000000 0x00000000 0x00000000
0x00000000 0x00000000 0x00000000 0x00000000
0x00000000 0x00000000 0x00000000 0x00000000
0x00000000 0x00000000 0x00000000 0x00000000
0x00000000 0x00000000 0x00000000 0x00000000
0x00000000 0x00000000 0x00000000 0x00000000
0x00000000 0x00000000 0x00000000 0x00000000
0x00000000 0x00000000 0x00000000 0x00000000
0x00000000 0x00000000 0x00000000 0x00000000
0x00000000 0x00000000 0x00000000 0x00000000
0x00000000 0x00000000 0x00000000 0x00000000
0x00000000 0x00000000 0x00000000 0x00000000
0x00000000 0x00000000 0x00000000 0x00000000
0x00000000 0x00000000 0x00000000 0x00000000
0x00000000 0x00000000 0x00000000 0x00000000
0x00000000 0x00000000 0x00000000 0x00000000
0x00000000 0x00000000 0x00000000 0x00000000
0x00000000 0x00000000 0x00000000 0x00000000
0x00000000 0x00000000 0x00000000 0x00000000
0x00000000 0x00000000 0x00000000 0x00000000
0x00000000 0x00000000 0x00000000 0x00000000
0x00000000 0x00000000 0x00000000 0x00000000
0x00000000 0x00000000 0x00000000 0x00000000
0x00000000 0x00 


.nv.constant0._ZN3cub17CUB_200400_750_NS31DeviceRadixSortSingleTileKernelINS0_21DeviceRadixSortPolicyIisjE9Policy900ELb0EisjNS0_6detail21identity_decomposer_tEEEvPKT1_PS7_PKT2_PSB_T3_iiT4_
0x00000000 0x00000000 0x00000000 0x00000000
0x00000000 0x00000000 0x00000000 0x00000000
0x00000000 0x00000000 0x00000000 0x00000000
0x00000000 0x00000000 0x00000000 0x00000000
0x00000000 0x00000000 0x00000000 0x00000000
0x00000000 0x00000000 0x00000000 0x00000000
0x00000000 0x00000000 0x00000000 0x00000000
0x00000000 0x00000000 0x00000000 0x00000000
0x00000000 0x00000000 0x00000000 0x00000000
0x00000000 0x00000000 0x00000000 0x00000000
0x00000000 0x00000000 0x00000000 0x00000000
0x00000000 0x00000000 0x00000000 0x00000000
0x00000000 0x00000000 0x00000000 0x00000000
0x00000000 0x00000000 0x00000000 0x00000000
0x00000000 0x00000000 0x00000000 0x00000000
0x00000000 0x00000000 0x00000000 0x00000000
0x00000000 0x00000000 0x00000000 0x00000000
0x00000000 0x00000000 0x00000000 0x00000000
0x00000000 0x00000000 0x00000000 0x00000000
0x00000000 0x00000000 0x00000000 0x00000000
0x00000000 0x00000000 0x00000000 0x00000000
0x00000000 0x00000000 0x00000000 0x00000000
0x00000000 0x00000000 0x00000000 0x00000000
0x00000000 0x00000000 0x00000000 0x00000000
0x00000000 0x00000000 0x00000000 0x00 


.nv.constant0._ZN3cub17CUB_200400_750_NS29DeviceRadixSortOnesweepKernelINS0_21DeviceRadixSortPolicyIiijE9Policy900ELb0EiijiiNS0_6detail21identity_decomposer_tEEEvPT5_S8_PT3_PKS9_PT1_PKSD_PT2_PKSH_T4_iiT6_
0x00000000 0x00000000 0x00000000 0x00000000
0x00000000 0x00000000 0x00000000 0x00000000
0x00000000 0x00000000 0x00000000 0x00000000
0x00000000 0x00000000 0x00000000 0x00000000
0x00000000 0x00000000 0x00000000 0x00000000
0x00000000 0x00000000 0x00000000 0x00000000
0x00000000 0x00000000 0x00000000 0x00000000
0x00000000 0x00000000 0x00000000 0x00000000
0x00000000 0x00000000 0x00000000 0x00000000
0x00000000 0x00000000 0x00000000 0x00000000
0x00000000 0x00000000 0x00000000 0x00000000
0x00000000 0x00000000 0x00000000 0x00000000
0x00000000 0x00000000 0x00000000 0x00000000
0x00000000 0x00000000 0x00000000 0x00000000
0x00000000 0x00000000 0x00000000 0x00000000
0x00000000 0x00000000 0x00000000 0x00000000
0x00000000 0x00000000 0x00000000 0x00000000
0x00000000 0x00000000 0x00000000 0x00000000
0x00000000 0x00000000 0x00000000 0x00000000
0x00000000 0x00000000 0x00000000 0x00000000
0x00000000 0x00000000 0x00000000 0x00000000
0x00000000 0x00000000 0x00000000 0x00000000
0x00000000 0x00000000 0x00000000 0x00000000
0x00000000 0x00000000 0x00000000 0x00000000
0x00000000 0x00000000 0x00000000 0x00000000
0x00000000 0x00000000 0x00000000 0x00000000
0x00000000 0x00000000 0x00000000 0x00 


.nv.constant0._ZN3cub17CUB_200400_750_NS33DeviceRadixSortExclusiveSumKernelINS0_21DeviceRadixSortPolicyIiijE9Policy900EjEEvPT0_
0x00000000 0x00000000 0x00000000 0x00000000
0x00000000 0x00000000 0x00000000 0x00000000
0x00000000 0x00000000 0x00000000 0x00000000
0x00000000 0x00000000 0x00000000 0x00000000
0x00000000 0x00000000 0x00000000 0x00000000
0x00000000 0x00000000 0x00000000 0x00000000
0x00000000 0x00000000 0x00000000 0x00000000
0x00000000 0x00000000 0x00000000 0x00000000
0x00000000 0x00000000 0x00000000 0x00000000
0x00000000 0x00000000 0x00000000 0x00000000
0x00000000 0x00000000 0x00000000 0x00000000
0x00000000 0x00000000 0x00000000 0x00000000
0x00000000 0x00000000 0x00000000 0x00000000
0x00000000 0x00000000 0x00000000 0x00000000
0x00000000 0x00000000 0x00000000 0x00000000
0x00000000 0x00000000 0x00000000 0x00000000
0x00000000 0x00000000 0x00000000 0x00000000
0x00000000 0x00000000 0x00000000 0x00000000
0x00000000 0x00000000 0x00000000 0x00000000
0x00000000 0x00000000 0x00000000 0x00000000
0x00000000 0x00000000 0x00000000 0x00000000
0x00000000 0x00000000 0x00000000 0x00000000
0x00000000 0x00000000 


.nv.constant0._ZN3cub17CUB_200400_750_NS30DeviceRadixSortHistogramKernelINS0_21DeviceRadixSortPolicyIiijE9Policy900ELb0EijNS0_6detail21identity_decomposer_tEEEvPT2_PKT1_S7_iiT3_
0x00000000 0x00000000 0x00000000 0x00000000
0x00000000 0x00000000 0x00000000 0x00000000
0x00000000 0x00000000 0x00000000 0x00000000
0x00000000 0x00000000 0x00000000 0x00000000
0x00000000 0x00000000 0x00000000 0x00000000
0x00000000 0x00000000 0x00000000 0x00000000
0x00000000 0x00000000 0x00000000 0x00000000
0x00000000 0x00000000 0x00000000 0x00000000
0x00000000 0x00000000 0x00000000 0x00000000
0x00000000 0x00000000 0x00000000 0x00000000
0x00000000 0x00000000 0x00000000 0x00000000
0x00000000 0x00000000 0x00000000 0x00000000
0x00000000 0x00000000 0x00000000 0x00000000
0x00000000 0x00000000 0x00000000 0x00000000
0x00000000 0x00000000 0x00000000 0x00000000
0x00000000 0x00000000 0x00000000 0x00000000
0x00000000 0x00000000 0x00000000 0x00000000
0x00000000 0x00000000 0x00000000 0x00000000
0x00000000 0x00000000 0x00000000 0x00000000
0x00000000 0x00000000 0x00000000 0x00000000
0x00000000 0x00000000 0x00000000 0x00000000
0x00000000 0x00000000 0x00000000 0x00000000
0x00000000 0x00000000 0x00000000 0x00000000
0x00000000 0x00000000 0x00000000 0x00 


.nv.constant0._ZN3cub17CUB_200400_750_NS30DeviceRadixSortDownsweepKernelINS0_21DeviceRadixSortPolicyIiijE9Policy900ELb1ELb0EiijNS0_6detail21identity_decomposer_tEEEvPKT2_PS7_PKT3_PSB_PT4_SF_iiNS0_13GridEvenShareISF_EET5_
0x00000000 0x00000000 0x00000000 0x00000000
0x00000000 0x00000000 0x00000000 0x00000000
0x00000000 0x00000000 0x00000000 0x00000000
0x00000000 0x00000000 0x00000000 0x00000000
0x00000000 0x00000000 0x00000000 0x00000000
0x00000000 0x00000000 0x00000000 0x00000000
0x00000000 0x00000000 0x00000000 0x00000000
0x00000000 0x00000000 0x00000000 0x00000000
0x00000000 0x00000000 0x00000000 0x00000000
0x00000000 0x00000000 0x00000000 0x00000000
0x00000000 0x00000000 0x00000000 0x00000000
0x00000000 0x00000000 0x00000000 0x00000000
0x00000000 0x00000000 0x00000000 0x00000000
0x00000000 0x00000000 0x00000000 0x00000000
0x00000000 0x00000000 0x00000000 0x00000000
0x00000000 0x00000000 0x00000000 0x00000000
0x00000000 0x00000000 0x00000000 0x00000000
0x00000000 0x00000000 0x00000000 0x00000000
0x00000000 0x00000000 0x00000000 0x00000000
0x00000000 0x00000000 0x00000000 0x00000000
0x00000000 0x00000000 0x00000000 0x00000000
0x00000000 0x00000000 0x00000000 0x00000000
0x00000000 0x00000000 0x00000000 0x00000000
0x00000000 0x00000000 0x00000000 0x00000000
0x00000000 0x00000000 0x00000000 0x00000000
0x00000000 0x00000000 0x00000000 0x00000000
0x00000000 0x00000000 0x00000000 0x00000000
0x00000000 0x00000000 0x00000000 0x00 


.nv.constant0._ZN3cub17CUB_200400_750_NS30DeviceRadixSortDownsweepKernelINS0_21DeviceRadixSortPolicyIiijE9Policy900ELb0ELb0EiijNS0_6detail21identity_decomposer_tEEEvPKT2_PS7_PKT3_PSB_PT4_SF_iiNS0_13GridEvenShareISF_EET5_
0x00000000 0x00000000 0x00000000 0x00000000
0x00000000 0x00000000 0x00000000 0x00000000
0x00000000 0x00000000 0x00000000 0x00000000
0x00000000 0x00000000 0x00000000 0x00000000
0x00000000 0x00000000 0x00000000 0x00000000
0x00000000 0x00000000 0x00000000 0x00000000
0x00000000 0x00000000 0x00000000 0x00000000
0x00000000 0x00000000 0x00000000 0x00000000
0x00000000 0x00000000 0x00000000 0x00000000
0x00000000 0x00000000 0x00000000 0x00000000
0x00000000 0x00000000 0x00000000 0x00000000
0x00000000 0x00000000 0x00000000 0x00000000
0x00000000 0x00000000 0x00000000 0x00000000
0x00000000 0x00000000 0x00000000 0x00000000
0x00000000 0x00000000 0x00000000 0x00000000
0x00000000 0x00000000 0x00000000 0x00000000
0x00000000 0x00000000 0x00000000 0x00000000
0x00000000 0x00000000 0x00000000 0x00000000
0x00000000 0x00000000 0x00000000 0x00000000
0x00000000 0x00000000 0x00000000 0x00000000
0x00000000 0x00000000 0x00000000 0x00000000
0x00000000 0x00000000 0x00000000 0x00000000
0x00000000 0x00000000 0x00000000 0x00000000
0x00000000 0x00000000 0x00000000 0x00000000
0x00000000 0x00000000 0x00000000 0x00000000
0x00000000 0x00000000 0x00000000 0x00000000
0x00000000 0x00000000 0x00000000 0x00000000
0x00000000 0x00000000 0x00000000 0x00 


.nv.constant0._ZN3cub17CUB_200400_750_NS23RadixSortScanBinsKernelINS0_21DeviceRadixSortPolicyIiijE9Policy900EjEEvPT0_i
0x00000000 0x00000000 0x00000000 0x00000000
0x00000000 0x00000000 0x00000000 0x00000000
0x00000000 0x00000000 0x00000000 0x00000000
0x00000000 0x00000000 0x00000000 0x00000000
0x00000000 0x00000000 0x00000000 0x00000000
0x00000000 0x00000000 0x00000000 0x00000000
0x00000000 0x00000000 0x00000000 0x00000000
0x00000000 0x00000000 0x00000000 0x00000000
0x00000000 0x00000000 0x00000000 0x00000000
0x00000000 0x00000000 0x00000000 0x00000000
0x00000000 0x00000000 0x00000000 0x00000000
0x00000000 0x00000000 0x00000000 0x00000000
0x00000000 0x00000000 0x00000000 0x00000000
0x00000000 0x00000000 0x00000000 0x00000000
0x00000000 0x00000000 0x00000000 0x00000000
0x00000000 0x00000000 0x00000000 0x00000000
0x00000000 0x00000000 0x00000000 0x00000000
0x00000000 0x00000000 0x00000000 0x00000000
0x00000000 0x00000000 0x00000000 0x00000000
0x00000000 0x00000000 0x00000000 0x00000000
0x00000000 0x00000000 0x00000000 0x00000000
0x00000000 0x00000000 0x00000000 0x00000000
0x00000000 0x00000000 0x00000000 


.nv.constant0._ZN3cub17CUB_200400_750_NS28DeviceRadixSortUpsweepKernelINS0_21DeviceRadixSortPolicyIiijE9Policy900ELb1ELb0EijNS0_6detail21identity_decomposer_tEEEvPKT2_PT3_SA_iiNS0_13GridEvenShareISA_EET4_
0x00000000 0x00000000 0x00000000 0x00000000
0x00000000 0x00000000 0x00000000 0x00000000
0x00000000 0x00000000 0x00000000 0x00000000
0x00000000 0x00000000 0x00000000 0x00000000
0x00000000 0x00000000 0x00000000 0x00000000
0x00000000 0x00000000 0x00000000 0x00000000
0x00000000 0x00000000 0x00000000 0x00000000
0x00000000 0x00000000 0x00000000 0x00000000
0x00000000 0x00000000 0x00000000 0x00000000
0x00000000 0x00000000 0x00000000 0x00000000
0x00000000 0x00000000 0x00000000 0x00000000
0x00000000 0x00000000 0x00000000 0x00000000
0x00000000 0x00000000 0x00000000 0x00000000
0x00000000 0x00000000 0x00000000 0x00000000
0x00000000 0x00000000 0x00000000 0x00000000
0x00000000 0x00000000 0x00000000 0x00000000
0x00000000 0x00000000 0x00000000 0x00000000
0x00000000 0x00000000 0x00000000 0x00000000
0x00000000 0x00000000 0x00000000 0x00000000
0x00000000 0x00000000 0x00000000 0x00000000
0x00000000 0x00000000 0x00000000 0x00000000
0x00000000 0x00000000 0x00000000 0x00000000
0x00000000 0x00000000 0x00000000 0x00000000
0x00000000 0x00000000 0x00000000 0x00000000
0x00000000 0x00000000 0x00000000 0x00000000
0x00000000 0x00000000 0x00000000 0x00000000
0x00000000 0x00 


.nv.constant0._ZN3cub17CUB_200400_750_NS28DeviceRadixSortUpsweepKernelINS0_21DeviceRadixSortPolicyIiijE9Policy900ELb0ELb0EijNS0_6detail21identity_decomposer_tEEEvPKT2_PT3_SA_iiNS0_13GridEvenShareISA_EET4_
0x00000000 0x00000000 0x00000000 0x00000000
0x00000000 0x00000000 0x00000000 0x00000000
0x00000000 0x00000000 0x00000000 0x00000000
0x00000000 0x00000000 0x00000000 0x00000000
0x00000000 0x00000000 0x00000000 0x00000000
0x00000000 0x00000000 0x00000000 0x00000000
0x00000000 0x00000000 0x00000000 0x00000000
0x00000000 0x00000000 0x00000000 0x00000000
0x00000000 0x00000000 0x00000000 0x00000000
0x00000000 0x00000000 0x00000000 0x00000000
0x00000000 0x00000000 0x00000000 0x00000000
0x00000000 0x00000000 0x00000000 0x00000000
0x00000000 0x00000000 0x00000000 0x00000000
0x00000000 0x00000000 0x00000000 0x00000000
0x00000000 0x00000000 0x00000000 0x00000000
0x00000000 0x00000000 0x00000000 0x00000000
0x00000000 0x00000000 0x00000000 0x00000000
0x00000000 0x00000000 0x00000000 0x00000000
0x00000000 0x00000000 0x00000000 0x00000000
0x00000000 0x00000000 0x00000000 0x00000000
0x00000000 0x00000000 0x00000000 0x00000000
0x00000000 0x00000000 0x00000000 0x00000000
0x00000000 0x00000000 0x00000000 0x00000000
0x00000000 0x00000000 0x00000000 0x00000000
0x00000000 0x00000000 0x00000000 0x00000000
0x00000000 0x00000000 0x00000000 0x00000000
0x00000000 0x00 


.nv.constant0._ZN3cub17CUB_200400_750_NS31DeviceRadixSortSingleTileKernelINS0_21DeviceRadixSortPolicyIiijE9Policy900ELb0EiijNS0_6detail21identity_decomposer_tEEEvPKT1_PS7_PKT2_PSB_T3_iiT4_
0x00000000 0x00000000 0x00000000 0x00000000
0x00000000 0x00000000 0x00000000 0x00000000
0x00000000 0x00000000 0x00000000 0x00000000
0x00000000 0x00000000 0x00000000 0x00000000
0x00000000 0x00000000 0x00000000 0x00000000
0x00000000 0x00000000 0x00000000 0x00000000
0x00000000 0x00000000 0x00000000 0x00000000
0x00000000 0x00000000 0x00000000 0x00000000
0x00000000 0x00000000 0x00000000 0x00000000
0x00000000 0x00000000 0x00000000 0x00000000
0x00000000 0x00000000 0x00000000 0x00000000
0x00000000 0x00000000 0x00000000 0x00000000
0x00000000 0x00000000 0x00000000 0x00000000
0x00000000 0x00000000 0x00000000 0x00000000
0x00000000 0x00000000 0x00000000 0x00000000
0x00000000 0x00000000 0x00000000 0x00000000
0x00000000 0x00000000 0x00000000 0x00000000
0x00000000 0x00000000 0x00000000 0x00000000
0x00000000 0x00000000 0x00000000 0x00000000
0x00000000 0x00000000 0x00000000 0x00000000
0x00000000 0x00000000 0x00000000 0x00000000
0x00000000 0x00000000 0x00000000 0x00000000
0x00000000 0x00000000 0x00000000 0x00000000
0x00000000 0x00000000 0x00000000 0x00000000
0x00000000 0x00000000 0x00000000 0x00 


.nv.constant0._ZN3cub17CUB_200400_750_NS29DeviceRadixSortOnesweepKernelINS0_21DeviceRadixSortPolicyIihjE9Policy900ELb0EihjiiNS0_6detail21identity_decomposer_tEEEvPT5_S8_PT3_PKS9_PT1_PKSD_PT2_PKSH_T4_iiT6_
0x00000000 0x00000000 0x00000000 0x00000000
0x00000000 0x00000000 0x00000000 0x00000000
0x00000000 0x00000000 0x00000000 0x00000000
0x00000000 0x00000000 0x00000000 0x00000000
0x00000000 0x00000000 0x00000000 0x00000000
0x00000000 0x00000000 0x00000000 0x00000000
0x00000000 0x00000000 0x00000000 0x00000000
0x00000000 0x00000000 0x00000000 0x00000000
0x00000000 0x00000000 0x00000000 0x00000000
0x00000000 0x00000000 0x00000000 0x00000000
0x00000000 0x00000000 0x00000000 0x00000000
0x00000000 0x00000000 0x00000000 0x00000000
0x00000000 0x00000000 0x00000000 0x00000000
0x00000000 0x00000000 0x00000000 0x00000000
0x00000000 0x00000000 0x00000000 0x00000000
0x00000000 0x00000000 0x00000000 0x00000000
0x00000000 0x00000000 0x00000000 0x00000000
0x00000000 0x00000000 0x00000000 0x00000000
0x00000000 0x00000000 0x00000000 0x00000000
0x00000000 0x00000000 0x00000000 0x00000000
0x00000000 0x00000000 0x00000000 0x00000000
0x00000000 0x00000000 0x00000000 0x00000000
0x00000000 0x00000000 0x00000000 0x00000000
0x00000000 0x00000000 0x00000000 0x00000000
0x00000000 0x00000000 0x00000000 0x00000000
0x00000000 0x00000000 0x00000000 0x00000000
0x00000000 0x00000000 0x00000000 0x00 


.nv.constant0._ZN3cub17CUB_200400_750_NS33DeviceRadixSortExclusiveSumKernelINS0_21DeviceRadixSortPolicyIihjE9Policy900EjEEvPT0_
0x00000000 0x00000000 0x00000000 0x00000000
0x00000000 0x00000000 0x00000000 0x00000000
0x00000000 0x00000000 0x00000000 0x00000000
0x00000000 0x00000000 0x00000000 0x00000000
0x00000000 0x00000000 0x00000000 0x00000000
0x00000000 0x00000000 0x00000000 0x00000000
0x00000000 0x00000000 0x00000000 0x00000000
0x00000000 0x00000000 0x00000000 0x00000000
0x00000000 0x00000000 0x00000000 0x00000000
0x00000000 0x00000000 0x00000000 0x00000000
0x00000000 0x00000000 0x00000000 0x00000000
0x00000000 0x00000000 0x00000000 0x00000000
0x00000000 0x00000000 0x00000000 0x00000000
0x00000000 0x00000000 0x00000000 0x00000000
0x00000000 0x00000000 0x00000000 0x00000000
0x00000000 0x00000000 0x00000000 0x00000000
0x00000000 0x00000000 0x00000000 0x00000000
0x00000000 0x00000000 0x00000000 0x00000000
0x00000000 0x00000000 0x00000000 0x00000000
0x00000000 0x00000000 0x00000000 0x00000000
0x00000000 0x00000000 0x00000000 0x00000000
0x00000000 0x00000000 0x00000000 0x00000000
0x00000000 0x00000000 


.nv.constant0._ZN3cub17CUB_200400_750_NS30DeviceRadixSortHistogramKernelINS0_21DeviceRadixSortPolicyIihjE9Policy900ELb0EijNS0_6detail21identity_decomposer_tEEEvPT2_PKT1_S7_iiT3_
0x00000000 0x00000000 0x00000000 0x00000000
0x00000000 0x00000000 0x00000000 0x00000000
0x00000000 0x00000000 0x00000000 0x00000000
0x00000000 0x00000000 0x00000000 0x00000000
0x00000000 0x00000000 0x00000000 0x00000000
0x00000000 0x00000000 0x00000000 0x00000000
0x00000000 0x00000000 0x00000000 0x00000000
0x00000000 0x00000000 0x00000000 0x00000000
0x00000000 0x00000000 0x00000000 0x00000000
0x00000000 0x00000000 0x00000000 0x00000000
0x00000000 0x00000000 0x00000000 0x00000000
0x00000000 0x00000000 0x00000000 0x00000000
0x00000000 0x00000000 0x00000000 0x00000000
0x00000000 0x00000000 0x00000000 0x00000000
0x00000000 0x00000000 0x00000000 0x00000000
0x00000000 0x00000000 0x00000000 0x00000000
0x00000000 0x00000000 0x00000000 0x00000000
0x00000000 0x00000000 0x00000000 0x00000000
0x00000000 0x00000000 0x00000000 0x00000000
0x00000000 0x00000000 0x00000000 0x00000000
0x00000000 0x00000000 0x00000000 0x00000000
0x00000000 0x00000000 0x00000000 0x00000000
0x00000000 0x00000000 0x00000000 0x00000000
0x00000000 0x00000000 0x00000000 0x00 


.nv.constant0._ZN3cub17CUB_200400_750_NS30DeviceRadixSortDownsweepKernelINS0_21DeviceRadixSortPolicyIihjE9Policy900ELb1ELb0EihjNS0_6detail21identity_decomposer_tEEEvPKT2_PS7_PKT3_PSB_PT4_SF_iiNS0_13GridEvenShareISF_EET5_
0x00000000 0x00000000 0x00000000 0x00000000
0x00000000 0x00000000 0x00000000 0x00000000
0x00000000 0x00000000 0x00000000 0x00000000
0x00000000 0x00000000 0x00000000 0x00000000
0x00000000 0x00000000 0x00000000 0x00000000
0x00000000 0x00000000 0x00000000 0x00000000
0x00000000 0x00000000 0x00000000 0x00000000
0x00000000 0x00000000 0x00000000 0x00000000
0x00000000 0x00000000 0x00000000 0x00000000
0x00000000 0x00000000 0x00000000 0x00000000
0x00000000 0x00000000 0x00000000 0x00000000
0x00000000 0x00000000 0x00000000 0x00000000
0x00000000 0x00000000 0x00000000 0x00000000
0x00000000 0x00000000 0x00000000 0x00000000
0x00000000 0x00000000 0x00000000 0x00000000
0x00000000 0x00000000 0x00000000 0x00000000
0x00000000 0x00000000 0x00000000 0x00000000
0x00000000 0x00000000 0x00000000 0x00000000
0x00000000 0x00000000 0x00000000 0x00000000
0x00000000 0x00000000 0x00000000 0x00000000
0x00000000 0x00000000 0x00000000 0x00000000
0x00000000 0x00000000 0x00000000 0x00000000
0x00000000 0x00000000 0x00000000 0x00000000
0x00000000 0x00000000 0x00000000 0x00000000
0x00000000 0x00000000 0x00000000 0x00000000
0x00000000 0x00000000 0x00000000 0x00000000
0x00000000 0x00000000 0x00000000 0x00000000
0x00000000 0x00000000 0x00000000 0x00 


.nv.constant0._ZN3cub17CUB_200400_750_NS30DeviceRadixSortDownsweepKernelINS0_21DeviceRadixSortPolicyIihjE9Policy900ELb0ELb0EihjNS0_6detail21identity_decomposer_tEEEvPKT2_PS7_PKT3_PSB_PT4_SF_iiNS0_13GridEvenShareISF_EET5_
0x00000000 0x00000000 0x00000000 0x00000000
0x00000000 0x00000000 0x00000000 0x00000000
0x00000000 0x00000000 0x00000000 0x00000000
0x00000000 0x00000000 0x00000000 0x00000000
0x00000000 0x00000000 0x00000000 0x00000000
0x00000000 0x00000000 0x00000000 0x00000000
0x00000000 0x00000000 0x00000000 0x00000000
0x00000000 0x00000000 0x00000000 0x00000000
0x00000000 0x00000000 0x00000000 0x00000000
0x00000000 0x00000000 0x00000000 0x00000000
0x00000000 0x00000000 0x00000000 0x00000000
0x00000000 0x00000000 0x00000000 0x00000000
0x00000000 0x00000000 0x00000000 0x00000000
0x00000000 0x00000000 0x00000000 0x00000000
0x00000000 0x00000000 0x00000000 0x00000000
0x00000000 0x00000000 0x00000000 0x00000000
0x00000000 0x00000000 0x00000000 0x00000000
0x00000000 0x00000000 0x00000000 0x00000000
0x00000000 0x00000000 0x00000000 0x00000000
0x00000000 0x00000000 0x00000000 0x00000000
0x00000000 0x00000000 0x00000000 0x00000000
0x00000000 0x00000000 0x00000000 0x00000000
0x00000000 0x00000000 0x00000000 0x00000000
0x00000000 0x00000000 0x00000000 0x00000000
0x00000000 0x00000000 0x00000000 0x00000000
0x00000000 0x00000000 0x00000000 0x00000000
0x00000000 0x00000000 0x00000000 0x00000000
0x00000000 0x00000000 0x00000000 0x00 


.nv.constant0._ZN3cub17CUB_200400_750_NS23RadixSortScanBinsKernelINS0_21DeviceRadixSortPolicyIihjE9Policy900EjEEvPT0_i
0x00000000 0x00000000 0x00000000 0x00000000
0x00000000 0x00000000 0x00000000 0x00000000
0x00000000 0x00000000 0x00000000 0x00000000
0x00000000 0x00000000 0x00000000 0x00000000
0x00000000 0x00000000 0x00000000 0x00000000
0x00000000 0x00000000 0x00000000 0x00000000
0x00000000 0x00000000 0x00000000 0x00000000
0x00000000 0x00000000 0x00000000 0x00000000
0x00000000 0x00000000 0x00000000 0x00000000
0x00000000 0x00000000 0x00000000 0x00000000
0x00000000 0x00000000 0x00000000 0x00000000
0x00000000 0x00000000 0x00000000 0x00000000
0x00000000 0x00000000 0x00000000 0x00000000
0x00000000 0x00000000 0x00000000 0x00000000
0x00000000 0x00000000 0x00000000 0x00000000
0x00000000 0x00000000 0x00000000 0x00000000
0x00000000 0x00000000 0x00000000 0x00000000
0x00000000 0x00000000 0x00000000 0x00000000
0x00000000 0x00000000 0x00000000 0x00000000
0x00000000 0x00000000 0x00000000 0x00000000
0x00000000 0x00000000 0x00000000 0x00000000
0x00000000 0x00000000 0x00000000 0x00000000
0x00000000 0x00000000 0x00000000 


.nv.constant0._ZN3cub17CUB_200400_750_NS28DeviceRadixSortUpsweepKernelINS0_21DeviceRadixSortPolicyIihjE9Policy900ELb1ELb0EijNS0_6detail21identity_decomposer_tEEEvPKT2_PT3_SA_iiNS0_13GridEvenShareISA_EET4_
0x00000000 0x00000000 0x00000000 0x00000000
0x00000000 0x00000000 0x00000000 0x00000000
0x00000000 0x00000000 0x00000000 0x00000000
0x00000000 0x00000000 0x00000000 0x00000000
0x00000000 0x00000000 0x00000000 0x00000000
0x00000000 0x00000000 0x00000000 0x00000000
0x00000000 0x00000000 0x00000000 0x00000000
0x00000000 0x00000000 0x00000000 0x00000000
0x00000000 0x00000000 0x00000000 0x00000000
0x00000000 0x00000000 0x00000000 0x00000000
0x00000000 0x00000000 0x00000000 0x00000000
0x00000000 0x00000000 0x00000000 0x00000000
0x00000000 0x00000000 0x00000000 0x00000000
0x00000000 0x00000000 0x00000000 0x00000000
0x00000000 0x00000000 0x00000000 0x00000000
0x00000000 0x00000000 0x00000000 0x00000000
0x00000000 0x00000000 0x00000000 0x00000000
0x00000000 0x00000000 0x00000000 0x00000000
0x00000000 0x00000000 0x00000000 0x00000000
0x00000000 0x00000000 0x00000000 0x00000000
0x00000000 0x00000000 0x00000000 0x00000000
0x00000000 0x00000000 0x00000000 0x00000000
0x00000000 0x00000000 0x00000000 0x00000000
0x00000000 0x00000000 0x00000000 0x00000000
0x00000000 0x00000000 0x00000000 0x00000000
0x00000000 0x00000000 0x00000000 0x00000000
0x00000000 0x00 


.nv.constant0._ZN3cub17CUB_200400_750_NS28DeviceRadixSortUpsweepKernelINS0_21DeviceRadixSortPolicyIihjE9Policy900ELb0ELb0EijNS0_6detail21identity_decomposer_tEEEvPKT2_PT3_SA_iiNS0_13GridEvenShareISA_EET4_
0x00000000 0x00000000 0x00000000 0x00000000
0x00000000 0x00000000 0x00000000 0x00000000
0x00000000 0x00000000 0x00000000 0x00000000
0x00000000 0x00000000 0x00000000 0x00000000
0x00000000 0x00000000 0x00000000 0x00000000
0x00000000 0x00000000 0x00000000 0x00000000
0x00000000 0x00000000 0x00000000 0x00000000
0x00000000 0x00000000 0x00000000 0x00000000
0x00000000 0x00000000 0x00000000 0x00000000
0x00000000 0x00000000 0x00000000 0x00000000
0x00000000 0x00000000 0x00000000 0x00000000
0x00000000 0x00000000 0x00000000 0x00000000
0x00000000 0x00000000 0x00000000 0x00000000
0x00000000 0x00000000 0x00000000 0x00000000
0x00000000 0x00000000 0x00000000 0x00000000
0x00000000 0x00000000 0x00000000 0x00000000
0x00000000 0x00000000 0x00000000 0x00000000
0x00000000 0x00000000 0x00000000 0x00000000
0x00000000 0x00000000 0x00000000 0x00000000
0x00000000 0x00000000 0x00000000 0x00000000
0x00000000 0x00000000 0x00000000 0x00000000
0x00000000 0x00000000 0x00000000 0x00000000
0x00000000 0x00000000 0x00000000 0x00000000
0x00000000 0x00000000 0x00000000 0x00000000
0x00000000 0x00000000 0x00000000 0x00000000
0x00000000 0x00000000 0x00000000 0x00000000
0x00000000 0x00 


.nv.constant0._ZN3cub17CUB_200400_750_NS31DeviceRadixSortSingleTileKernelINS0_21DeviceRadixSortPolicyIihjE9Policy900ELb0EihjNS0_6detail21identity_decomposer_tEEEvPKT1_PS7_PKT2_PSB_T3_iiT4_
0x00000000 0x00000000 0x00000000 0x00000000
0x00000000 0x00000000 0x00000000 0x00000000
0x00000000 0x00000000 0x00000000 0x00000000
0x00000000 0x00000000 0x00000000 0x00000000
0x00000000 0x00000000 0x00000000 0x00000000
0x00000000 0x00000000 0x00000000 0x00000000
0x00000000 0x00000000 0x00000000 0x00000000
0x00000000 0x00000000 0x00000000 0x00000000
0x00000000 0x00000000 0x00000000 0x00000000
0x00000000 0x00000000 0x00000000 0x00000000
0x00000000 0x00000000 0x00000000 0x00000000
0x00000000 0x00000000 0x00000000 0x00000000
0x00000000 0x00000000 0x00000000 0x00000000
0x00000000 0x00000000 0x00000000 0x00000000
0x00000000 0x00000000 0x00000000 0x00000000
0x00000000 0x00000000 0x00000000 0x00000000
0x00000000 0x00000000 0x00000000 0x00000000
0x00000000 0x00000000 0x00000000 0x00000000
0x00000000 0x00000000 0x00000000 0x00000000
0x00000000 0x00000000 0x00000000 0x00000000
0x00000000 0x00000000 0x00000000 0x00000000
0x00000000 0x00000000 0x00000000 0x00000000
0x00000000 0x00000000 0x00000000 0x00000000
0x00000000 0x00000000 0x00000000 0x00000000
0x00000000 0x00000000 0x00000000 0x00 


.nv.constant0._ZN3cub17CUB_200400_750_NS11EmptyKernelIvEEvv
0x00000000 0x00000000 0x00000000 0x00000000
0x00000000 0x00000000 0x00000000 0x00000000
0x00000000 0x00000000 0x00000000 0x00000000
0x00000000 0x00000000 0x00000000 0x00000000
0x00000000 0x00000000 0x00000000 0x00000000
0x00000000 0x00000000 0x00000000 0x00000000
0x00000000 0x00000000 0x00000000 0x00000000
0x00000000 0x00000000 0x00000000 0x00000000
0x00000000 0x00000000 0x00000000 0x00000000
0x00000000 0x00000000 0x00000000 0x00000000
0x00000000 0x00000000 0x00000000 0x00000000
0x00000000 0x00000000 0x00000000 0x00000000
0x00000000 0x00000000 0x00000000 0x00000000
0x00000000 0x00000000 0x00000000 0x00000000
0x00000000 0x00000000 0x00000000 0x00000000
0x00000000 0x00000000 0x00000000 0x00000000
0x00000000 0x00000000 0x00000000 0x00000000
0x00000000 0x00000000 0x00000000 0x00000000
0x00000000 0x00000000 0x00000000 0x00000000
0x00000000 0x00000000 0x00000000 0x00000000
0x00000000 0x00000000 0x00000000 0x00000000
0x00000000 0x00000000 0x00000000 0x00000000



.nv.shared._ZN3cub17CUB_200400_750_NS29DeviceRadixSortOnesweepKernelINS0_21DeviceRadixSortPolicyIiljE9Policy900ELb0EiljiiNS0_6detail21identity_decomposer_tEEEvPT5_S8_PT3_PKS9_PT1_PKSD_PT2_PKSH_T4_iiT6_
   No data to be dumped. 


.nv.shared._ZN3cub17CUB_200400_750_NS33DeviceRadixSortExclusiveSumKernelINS0_21DeviceRadixSortPolicyIiljE9Policy900EjEEvPT0_
   No data to be dumped. 


.nv.shared._ZN3cub17CUB_200400_750_NS30DeviceRadixSortHistogramKernelINS0_21DeviceRadixSortPolicyIiljE9Policy900ELb0EijNS0_6detail21identity_decomposer_tEEEvPT2_PKT1_S7_iiT3_
   No data to be dumped. 


.nv.shared._ZN3cub17CUB_200400_750_NS30DeviceRadixSortDownsweepKernelINS0_21DeviceRadixSortPolicyIiljE9Policy900ELb1ELb0EiljNS0_6detail21identity_decomposer_tEEEvPKT2_PS7_PKT3_PSB_PT4_SF_iiNS0_13GridEvenShareISF_EET5_
   No data to be dumped. 


.nv.shared._ZN3cub17CUB_200400_750_NS30DeviceRadixSortDownsweepKernelINS0_21DeviceRadixSortPolicyIiljE9Policy900ELb0ELb0EiljNS0_6detail21identity_decomposer_tEEEvPKT2_PS7_PKT3_PSB_PT4_SF_iiNS0_13GridEvenShareISF_EET5_
   No data to be dumped. 


.nv.shared._ZN3cub17CUB_200400_750_NS23RadixSortScanBinsKernelINS0_21DeviceRadixSortPolicyIiljE9Policy900EjEEvPT0_i
   No data to be dumped. 


.nv.shared._ZN3cub17CUB_200400_750_NS28DeviceRadixSortUpsweepKernelINS0_21DeviceRadixSortPolicyIiljE9Policy900ELb1ELb0EijNS0_6detail21identity_decomposer_tEEEvPKT2_PT3_SA_iiNS0_13GridEvenShareISA_EET4_
   No data to be dumped. 


.nv.shared._ZN3cub17CUB_200400_750_NS28DeviceRadixSortUpsweepKernelINS0_21DeviceRadixSortPolicyIiljE9Policy900ELb0ELb0EijNS0_6detail21identity_decomposer_tEEEvPKT2_PT3_SA_iiNS0_13GridEvenShareISA_EET4_
   No data to be dumped. 


.nv.shared._ZN3cub17CUB_200400_750_NS31DeviceRadixSortSingleTileKernelINS0_21DeviceRadixSortPolicyIiljE9Policy900ELb0EiljNS0_6detail21identity_decomposer_tEEEvPKT1_PS7_PKT2_PSB_T3_iiT4_
   No data to be dumped. 


.nv.shared._ZN3cub17CUB_200400_750_NS29DeviceRadixSortOnesweepKernelINS0_21DeviceRadixSortPolicyIisjE9Policy900ELb0EisjiiNS0_6detail21identity_decomposer_tEEEvPT5_S8_PT3_PKS9_PT1_PKSD_PT2_PKSH_T4_iiT6_
   No data to be dumped. 


.nv.shared._ZN3cub17CUB_200400_750_NS33DeviceRadixSortExclusiveSumKernelINS0_21DeviceRadixSortPolicyIisjE9Policy900EjEEvPT0_
   No data to be dumped. 


.nv.shared._ZN3cub17CUB_200400_750_NS30DeviceRadixSortHistogramKernelINS0_21DeviceRadixSortPolicyIisjE9Policy900ELb0EijNS0_6detail21identity_decomposer_tEEEvPT2_PKT1_S7_iiT3_
   No data to be dumped. 


.nv.shared._ZN3cub17CUB_200400_750_NS30DeviceRadixSortDownsweepKernelINS0_21DeviceRadixSortPolicyIisjE9Policy900ELb1ELb0EisjNS0_6detail21identity_decomposer_tEEEvPKT2_PS7_PKT3_PSB_PT4_SF_iiNS0_13GridEvenShareISF_EET5_
   No data to be dumped. 


.nv.shared._ZN3cub17CUB_200400_750_NS30DeviceRadixSortDownsweepKernelINS0_21DeviceRadixSortPolicyIisjE9Policy900ELb0ELb0EisjNS0_6detail21identity_decomposer_tEEEvPKT2_PS7_PKT3_PSB_PT4_SF_iiNS0_13GridEvenShareISF_EET5_
   No data to be dumped. 


.nv.shared._ZN3cub17CUB_200400_750_NS23RadixSortScanBinsKernelINS0_21DeviceRadixSortPolicyIisjE9Policy900EjEEvPT0_i
   No data to be dumped. 


.nv.shared._ZN3cub17CUB_200400_750_NS28DeviceRadixSortUpsweepKernelINS0_21DeviceRadixSortPolicyIisjE9Policy900ELb1ELb0EijNS0_6detail21identity_decomposer_tEEEvPKT2_PT3_SA_iiNS0_13GridEvenShareISA_EET4_
   No data to be dumped. 


.nv.shared._ZN3cub17CUB_200400_750_NS28DeviceRadixSortUpsweepKernelINS0_21DeviceRadixSortPolicyIisjE9Policy900ELb0ELb0EijNS0_6detail21identity_decomposer_tEEEvPKT2_PT3_SA_iiNS0_13GridEvenShareISA_EET4_
   No data to be dumped. 


.nv.shared._ZN3cub17CUB_200400_750_NS31DeviceRadixSortSingleTileKernelINS0_21DeviceRadixSortPolicyIisjE9Policy900ELb0EisjNS0_6detail21identity_decomposer_tEEEvPKT1_PS7_PKT2_PSB_T3_iiT4_
   No data to be dumped. 


.nv.shared._ZN3cub17CUB_200400_750_NS29DeviceRadixSortOnesweepKernelINS0_21DeviceRadixSortPolicyIiijE9Policy900ELb0EiijiiNS0_6detail21identity_decomposer_tEEEvPT5_S8_PT3_PKS9_PT1_PKSD_PT2_PKSH_T4_iiT6_
   No data to be dumped. 


.nv.shared._ZN3cub17CUB_200400_750_NS33DeviceRadixSortExclusiveSumKernelINS0_21DeviceRadixSortPolicyIiijE9Policy900EjEEvPT0_
   No data to be dumped. 


.nv.shared._ZN3cub17CUB_200400_750_NS30DeviceRadixSortHistogramKernelINS0_21DeviceRadixSortPolicyIiijE9Policy900ELb0EijNS0_6detail21identity_decomposer_tEEEvPT2_PKT1_S7_iiT3_
   No data to be dumped. 


.nv.shared._ZN3cub17CUB_200400_750_NS30DeviceRadixSortDownsweepKernelINS0_21DeviceRadixSortPolicyIiijE9Policy900ELb1ELb0EiijNS0_6detail21identity_decomposer_tEEEvPKT2_PS7_PKT3_PSB_PT4_SF_iiNS0_13GridEvenShareISF_EET5_
   No data to be dumped. 


.nv.shared._ZN3cub17CUB_200400_750_NS30DeviceRadixSortDownsweepKernelINS0_21DeviceRadixSortPolicyIiijE9Policy900ELb0ELb0EiijNS0_6detail21identity_decomposer_tEEEvPKT2_PS7_PKT3_PSB_PT4_SF_iiNS0_13GridEvenShareISF_EET5_
   No data to be dumped. 


.nv.shared._ZN3cub17CUB_200400_750_NS23RadixSortScanBinsKernelINS0_21DeviceRadixSortPolicyIiijE9Policy900EjEEvPT0_i
   No data to be dumped. 


.nv.shared._ZN3cub17CUB_200400_750_NS28DeviceRadixSortUpsweepKernelINS0_21DeviceRadixSortPolicyIiijE9Policy900ELb1ELb0EijNS0_6detail21identity_decomposer_tEEEvPKT2_PT3_SA_iiNS0_13GridEvenShareISA_EET4_
   No data to be dumped. 


.nv.shared._ZN3cub17CUB_200400_750_NS28DeviceRadixSortUpsweepKernelINS0_21DeviceRadixSortPolicyIiijE9Policy900ELb0ELb0EijNS0_6detail21identity_decomposer_tEEEvPKT2_PT3_SA_iiNS0_13GridEvenShareISA_EET4_
   No data to be dumped. 


.nv.shared._ZN3cub17CUB_200400_750_NS31DeviceRadixSortSingleTileKernelINS0_21DeviceRadixSortPolicyIiijE9Policy900ELb0EiijNS0_6detail21identity_decomposer_tEEEvPKT1_PS7_PKT2_PSB_T3_iiT4_
   No data to be dumped. 


.nv.shared._ZN3cub17CUB_200400_750_NS29DeviceRadixSortOnesweepKernelINS0_21DeviceRadixSortPolicyIihjE9Policy900ELb0EihjiiNS0_6detail21identity_decomposer_tEEEvPT5_S8_PT3_PKS9_PT1_PKSD_PT2_PKSH_T4_iiT6_
   No data to be dumped. 


.nv.shared._ZN3cub17CUB_200400_750_NS33DeviceRadixSortExclusiveSumKernelINS0_21DeviceRadixSortPolicyIihjE9Policy900EjEEvPT0_
   No data to be dumped. 


.nv.shared._ZN3cub17CUB_200400_750_NS30DeviceRadixSortHistogramKernelINS0_21DeviceRadixSortPolicyIihjE9Policy900ELb0EijNS0_6detail21identity_decomposer_tEEEvPT2_PKT1_S7_iiT3_
   No data to be dumped. 


.nv.shared._ZN3cub17CUB_200400_750_NS30DeviceRadixSortDownsweepKernelINS0_21DeviceRadixSortPolicyIihjE9Policy900ELb1ELb0EihjNS0_6detail21identity_decomposer_tEEEvPKT2_PS7_PKT3_PSB_PT4_SF_iiNS0_13GridEvenShareISF_EET5_
   No data to be dumped. 


.nv.shared._ZN3cub17CUB_200400_750_NS30DeviceRadixSortDownsweepKernelINS0_21DeviceRadixSortPolicyIihjE9Policy900ELb0ELb0EihjNS0_6detail21identity_decomposer_tEEEvPKT2_PS7_PKT3_PSB_PT4_SF_iiNS0_13GridEvenShareISF_EET5_
   No data to be dumped. 


.nv.shared._ZN3cub17CUB_200400_750_NS23RadixSortScanBinsKernelINS0_21DeviceRadixSortPolicyIihjE9Policy900EjEEvPT0_i
   No data to be dumped. 


.nv.shared._ZN3cub17CUB_200400_750_NS28DeviceRadixSortUpsweepKernelINS0_21DeviceRadixSortPolicyIihjE9Policy900ELb1ELb0EijNS0_6detail21identity_decomposer_tEEEvPKT2_PT3_SA_iiNS0_13GridEvenShareISA_EET4_
   No data to be dumped. 


.nv.shared._ZN3cub17CUB_200400_750_NS28DeviceRadixSortUpsweepKernelINS0_21DeviceRadixSortPolicyIihjE9Policy900ELb0ELb0EijNS0_6detail21identity_decomposer_tEEEvPKT2_PT3_SA_iiNS0_13GridEvenShareISA_EET4_
   No data to be dumped. 


.nv.shared._ZN3cub17CUB_200400_750_NS31DeviceRadixSortSingleTileKernelINS0_21DeviceRadixSortPolicyIihjE9Policy900ELb0EihjNS0_6detail21identity_decomposer_tEEEvPKT1_PS7_PKT2_PSB_T3_iiT4_
   No data to be dumped. 


.nv.info
	<0x1>
	Attribute:	EIATTR_REGCOUNT
	Format:	EIFMT_SVAL
	Value:	function: _ZN3cub17CUB_200400_750_NS11EmptyKernelIvEEvv(0xd3)	register count: 4
	<0x2>
	Attribute:	EIATTR_MIN_STACK_SIZE
	Format:	EIFMT_SVAL
	Value:	function: _ZN3cub17CUB_200400_750_NS11EmptyKernelIvEEvv(0xd3)	min stack size: 0x0
	<0x3>
	Attribute:	EIATTR_FRAME_SIZE
	Format:	EIFMT_SVAL
	Value:	function: _ZN3cub17CUB_200400_750_NS11EmptyKernelIvEEvv(0xd3)	frame size: 0x0
	<0x4>
	Attribute:	EIATTR_REGCOUNT
	Format:	EIFMT_SVAL
	Value:	function: _ZN3cub17CUB_200400_750_NS31DeviceRadixSortSingleTileKernelINS0_21DeviceRadixSortPolicyIihjE9Policy900ELb0EihjNS0_6detail21identity_decomposer_tEEEvPKT1_PS7_PKT2_PSB_T3_iiT4_(0xd2)	register count: 128
	<0x5>
	Attribute:	EIATTR_MIN_STACK_SIZE
	Format:	EIFMT_SVAL
	Value:	function: _ZN3cub17CUB_200400_750_NS31DeviceRadixSortSingleTileKernelINS0_21DeviceRadixSortPolicyIihjE9Policy900ELb0EihjNS0_6detail21identity_decomposer_tEEEvPKT1_PS7_PKT2_PSB_T3_iiT4_(0xd2)	min stack size: 0x0
	<0x6>
	Attribute:	EIATTR_FRAME_SIZE
	Format:	EIFMT_SVAL
	Value:	function: _ZN3cub17CUB_200400_750_NS31DeviceRadixSortSingleTileKernelINS0_21DeviceRadixSortPolicyIihjE9Policy900ELb0EihjNS0_6detail21identity_decomposer_tEEEvPKT1_PS7_PKT2_PSB_T3_iiT4_(0xd2)	frame size: 0x0
	<0x7>
	Attribute:	EIATTR_REGCOUNT
	Format:	EIFMT_SVAL
	Value:	function: _ZN3cub17CUB_200400_750_NS28DeviceRadixSortUpsweepKernelINS0_21DeviceRadixSortPolicyIihjE9Policy900ELb0ELb0EijNS0_6detail21identity_decomposer_tEEEvPKT2_PT3_SA_iiNS0_13GridEvenShareISA_EET4_(0xd1)	register count: 56
	<0x8>
	Attribute:	EIATTR_MIN_STACK_SIZE
	Format:	EIFMT_SVAL
	Value:	function: _ZN3cub17CUB_200400_750_NS28DeviceRadixSortUpsweepKernelINS0_21DeviceRadixSortPolicyIihjE9Policy900ELb0ELb0EijNS0_6detail21identity_decomposer_tEEEvPKT2_PT3_SA_iiNS0_13GridEvenShareISA_EET4_(0xd1)	min stack size: 0x0
	<0x9>
	Attribute:	EIATTR_FRAME_SIZE
	Format:	EIFMT_SVAL
	Value:	function: _ZN3cub17CUB_200400_750_NS28DeviceRadixSortUpsweepKernelINS0_21DeviceRadixSortPolicyIihjE9Policy900ELb0ELb0EijNS0_6detail21identity_decomposer_tEEEvPKT2_PT3_SA_iiNS0_13GridEvenShareISA_EET4_(0xd1)	frame size: 0x0
	<0x10>
	Attribute:	EIATTR_REGCOUNT
	Format:	EIFMT_SVAL
	Value:	function: _ZN3cub17CUB_200400_750_NS28DeviceRadixSortUpsweepKernelINS0_21DeviceRadixSortPolicyIihjE9Policy900ELb1ELb0EijNS0_6detail21identity_decomposer_tEEEvPKT2_PT3_SA_iiNS0_13GridEvenShareISA_EET4_(0xd0)	register count: 64
	<0x11>
	Attribute:	EIATTR_MIN_STACK_SIZE
	Format:	EIFMT_SVAL
	Value:	function: _ZN3cub17CUB_200400_750_NS28DeviceRadixSortUpsweepKernelINS0_21DeviceRadixSortPolicyIihjE9Policy900ELb1ELb0EijNS0_6detail21identity_decomposer_tEEEvPKT2_PT3_SA_iiNS0_13GridEvenShareISA_EET4_(0xd0)	min stack size: 0x0
	<0x12>
	Attribute:	EIATTR_FRAME_SIZE
	Format:	EIFMT_SVAL
	Value:	function: _ZN3cub17CUB_200400_750_NS28DeviceRadixSortUpsweepKernelINS0_21DeviceRadixSortPolicyIihjE9Policy900ELb1ELb0EijNS0_6detail21identity_decomposer_tEEEvPKT2_PT3_SA_iiNS0_13GridEvenShareISA_EET4_(0xd0)	frame size: 0x0
	<0x13>
	Attribute:	EIATTR_REGCOUNT
	Format:	EIFMT_SVAL
	Value:	function: _ZN3cub17CUB_200400_750_NS23RadixSortScanBinsKernelINS0_21DeviceRadixSortPolicyIihjE9Policy900EjEEvPT0_i(0xcf)	register count: 75
	<0x14>
	Attribute:	EIATTR_MIN_STACK_SIZE
	Format:	EIFMT_SVAL
	Value:	function: $__internal_39_$__cuda_sm70_warpsync(0x9f)	min stack size: 0x0
	<0x15>
	Attribute:	EIATTR_FRAME_SIZE
	Format:	EIFMT_SVAL
	Value:	function: $__internal_39_$__cuda_sm70_warpsync(0x9f)	frame size: 0x0
	<0x16>
	Attribute:	EIATTR_MIN_STACK_SIZE
	Format:	EIFMT_SVAL
	Value:	function: $__internal_38_$__cuda_sm70_shflsync_up_p(0x9e)	min stack size: 0x0
	<0x17>
	Attribute:	EIATTR_FRAME_SIZE
	Format:	EIFMT_SVAL
	Value:	function: $__internal_38_$__cuda_sm70_shflsync_up_p(0x9e)	frame size: 0x0
	<0x18>
	Attribute:	EIATTR_MIN_STACK_SIZE
	Format:	EIFMT_SVAL
	Value:	function: $__internal_37_$__cuda_sm70_shflsync_idx(0x9d)	min stack size: 0x0
	<0x19>
	Attribute:	EIATTR_FRAME_SIZE
	Format:	EIFMT_SVAL
	Value:	function: $__internal_37_$__cuda_sm70_shflsync_idx(0x9d)	frame size: 0x0
	<0x20>
	Attribute:	EIATTR_MIN_STACK_SIZE
	Format:	EIFMT_SVAL
	Value:	function: _ZN3cub17CUB_200400_750_NS23RadixSortScanBinsKernelINS0_21DeviceRadixSortPolicyIihjE9Policy900EjEEvPT0_i(0xcf)	min stack size: 0x0
	<0x21>
	Attribute:	EIATTR_FRAME_SIZE
	Format:	EIFMT_SVAL
	Value:	function: _ZN3cub17CUB_200400_750_NS23RadixSortScanBinsKernelINS0_21DeviceRadixSortPolicyIihjE9Policy900EjEEvPT0_i(0xcf)	frame size: 0x0
	<0x22>
	Attribute:	EIATTR_REGCOUNT
	Format:	EIFMT_SVAL
	Value:	function: _ZN3cub17CUB_200400_750_NS30DeviceRadixSortDownsweepKernelINS0_21DeviceRadixSortPolicyIihjE9Policy900ELb0ELb0EihjNS0_6detail21identity_decomposer_tEEEvPKT2_PS7_PKT3_PSB_PT4_SF_iiNS0_13GridEvenShareISF_EET5_(0xce)	register count: 128
	<0x23>
	Attribute:	EIATTR_MIN_STACK_SIZE
	Format:	EIFMT_SVAL
	Value:	function: $__internal_36_$__cuda_sm70_votesync_ballot(0x99)	min stack size: 0x0
	<0x24>
	Attribute:	EIATTR_FRAME_SIZE
	Format:	EIFMT_SVAL
	Value:	function: $__internal_36_$__cuda_sm70_votesync_ballot(0x99)	frame size: 0x0
	<0x25>
	Attribute:	EIATTR_MIN_STACK_SIZE
	Format:	EIFMT_SVAL
	Value:	function: $__internal_35_$__cuda_sm70_shflsync_idx(0x98)	min stack size: 0x0
	<0x26>
	Attribute:	EIATTR_FRAME_SIZE
	Format:	EIFMT_SVAL
	Value:	function: $__internal_35_$__cuda_sm70_shflsync_idx(0x98)	frame size: 0x0
	<0x27>
	Attribute:	EIATTR_MIN_STACK_SIZE
	Format:	EIFMT_SVAL
	Value:	function: _ZN3cub17CUB_200400_750_NS30DeviceRadixSortDownsweepKernelINS0_21DeviceRadixSortPolicyIihjE9Policy900ELb0ELb0EihjNS0_6detail21identity_decomposer_tEEEvPKT2_PS7_PKT3_PSB_PT4_SF_iiNS0_13GridEvenShareISF_EET5_(0xce)	min stack size: 0x28
	<0x28>
	Attribute:	EIATTR_FRAME_SIZE
	Format:	EIFMT_SVAL
	Value:	function: _ZN3cub17CUB_200400_750_NS30DeviceRadixSortDownsweepKernelINS0_21DeviceRadixSortPolicyIihjE9Policy900ELb0ELb0EihjNS0_6detail21identity_decomposer_tEEEvPKT2_PS7_PKT3_PSB_PT4_SF_iiNS0_13GridEvenShareISF_EET5_(0xce)	frame size: 0x28
	<0x29>
	Attribute:	EIATTR_REGCOUNT
	Format:	EIFMT_SVAL
	Value:	function: _ZN3cub17CUB_200400_750_NS30DeviceRadixSortDownsweepKernelINS0_21DeviceRadixSortPolicyIihjE9Policy900ELb1ELb0EihjNS0_6detail21identity_decomposer_tEEEvPKT2_PS7_PKT3_PSB_PT4_SF_iiNS0_13GridEvenShareISF_EET5_(0xcd)	register count: 242
	<0x30>
	Attribute:	EIATTR_MIN_STACK_SIZE
	Format:	EIFMT_SVAL
	Value:	function: $__internal_34_$__cuda_sm70_shflsync_up_p(0x94)	min stack size: 0x0
	<0x31>
	Attribute:	EIATTR_FRAME_SIZE
	Format:	EIFMT_SVAL
	Value:	function: $__internal_34_$__cuda_sm70_shflsync_up_p(0x94)	frame size: 0x0
	<0x32>
	Attribute:	EIATTR_MIN_STACK_SIZE
	Format:	EIFMT_SVAL
	Value:	function: $__internal_33_$__cuda_sm70_shflsync_idx(0x93)	min stack size: 0x0
	<0x33>
	Attribute:	EIATTR_FRAME_SIZE
	Format:	EIFMT_SVAL
	Value:	function: $__internal_33_$__cuda_sm70_shflsync_idx(0x93)	frame size: 0x0
	<0x34>
	Attribute:	EIATTR_MIN_STACK_SIZE
	Format:	EIFMT_SVAL
	Value:	function: _ZN3cub17CUB_200400_750_NS30DeviceRadixSortDownsweepKernelINS0_21DeviceRadixSortPolicyIihjE9Policy900ELb1ELb0EihjNS0_6detail21identity_decomposer_tEEEvPKT2_PS7_PKT3_PSB_PT4_SF_iiNS0_13GridEvenShareISF_EET5_(0xcd)	min stack size: 0x0
	<0x35>
	Attribute:	EIATTR_FRAME_SIZE
	Format:	EIFMT_SVAL
	Value:	function: _ZN3cub17CUB_200400_750_NS30DeviceRadixSortDownsweepKernelINS0_21DeviceRadixSortPolicyIihjE9Policy900ELb1ELb0EihjNS0_6detail21identity_decomposer_tEEEvPKT2_PS7_PKT3_PSB_PT4_SF_iiNS0_13GridEvenShareISF_EET5_(0xcd)	frame size: 0x0
	<0x36>
	Attribute:	EIATTR_REGCOUNT
	Format:	EIFMT_SVAL
	Value:	function: _ZN3cub17CUB_200400_750_NS30DeviceRadixSortHistogramKernelINS0_21DeviceRadixSortPolicyIihjE9Policy900ELb0EijNS0_6detail21identity_decomposer_tEEEvPT2_PKT1_S7_iiT3_(0xcc)	register count: 58
	<0x37>
	Attribute:	EIATTR_MIN_STACK_SIZE
	Format:	EIFMT_SVAL
	Value:	function: _ZN3cub17CUB_200400_750_NS30DeviceRadixSortHistogramKernelINS0_21DeviceRadixSortPolicyIihjE9Policy900ELb0EijNS0_6detail21identity_decomposer_tEEEvPT2_PKT1_S7_iiT3_(0xcc)	min stack size: 0x0
	<0x38>
	Attribute:	EIATTR_FRAME_SIZE
	Format:	EIFMT_SVAL
	Value:	function: _ZN3cub17CUB_200400_750_NS30DeviceRadixSortHistogramKernelINS0_21DeviceRadixSortPolicyIihjE9Policy900ELb0EijNS0_6detail21identity_decomposer_tEEEvPT2_PKT1_S7_iiT3_(0xcc)	frame size: 0x0
	<0x39>
	Attribute:	EIATTR_REGCOUNT
	Format:	EIFMT_SVAL
	Value:	function: _ZN3cub17CUB_200400_750_NS33DeviceRadixSortExclusiveSumKernelINS0_21DeviceRadixSortPolicyIihjE9Policy900EjEEvPT0_(0xcb)	register count: 24
	<0x40>
	Attribute:	EIATTR_MIN_STACK_SIZE
	Format:	EIFMT_SVAL
	Value:	function: $__internal_32_$__cuda_sm70_shflsync_up_p(0x8c)	min stack size: 0x0
	<0x41>
	Attribute:	EIATTR_FRAME_SIZE
	Format:	EIFMT_SVAL
	Value:	function: $__internal_32_$__cuda_sm70_shflsync_up_p(0x8c)	frame size: 0x0
	<0x42>
	Attribute:	EIATTR_MIN_STACK_SIZE
	Format:	EIFMT_SVAL
	Value:	function: _ZN3cub17CUB_200400_750_NS33DeviceRadixSortExclusiveSumKernelINS0_21DeviceRadixSortPolicyIihjE9Policy900EjEEvPT0_(0xcb)	min stack size: 0x0
	<0x43>
	Attribute:	EIATTR_FRAME_SIZE
	Format:	EIFMT_SVAL
	Value:	function: _ZN3cub17CUB_200400_750_NS33DeviceRadixSortExclusiveSumKernelINS0_21DeviceRadixSortPolicyIihjE9Policy900EjEEvPT0_(0xcb)	frame size: 0x0
	<0x44>
	Attribute:	EIATTR_REGCOUNT
	Format:	EIFMT_SVAL
	Value:	function: _ZN3cub17CUB_200400_750_NS29DeviceRadixSortOnesweepKernelINS0_21DeviceRadixSortPolicyIihjE9Policy900ELb0EihjiiNS0_6detail21identity_decomposer_tEEEvPT5_S8_PT3_PKS9_PT1_PKSD_PT2_PKSH_T4_iiT6_(0xca)	register count: 105
	<0x45>
	Attribute:	EIATTR_MIN_STACK_SIZE
	Format:	EIFMT_SVAL
	Value:	function: $__internal_31_$__cuda_sm70_votesync_ballot(0x88)	min stack size: 0x0
	<0x46>
	Attribute:	EIATTR_FRAME_SIZE
	Format:	EIFMT_SVAL
	Value:	function: $__internal_31_$__cuda_sm70_votesync_ballot(0x88)	frame size: 0x0
	<0x47>
	Attribute:	EIATTR_MIN_STACK_SIZE
	Format:	EIFMT_SVAL
	Value:	function: $__internal_30_$__cuda_sm70_shflsync_up_p(0x87)	min stack size: 0x0
	<0x48>
	Attribute:	EIATTR_FRAME_SIZE
	Format:	EIFMT_SVAL
	Value:	function: $__internal_30_$__cuda_sm70_shflsync_up_p(0x87)	frame size: 0x0
	<0x49>
	Attribute:	EIATTR_MIN_STACK_SIZE
	Format:	EIFMT_SVAL
	Value:	function: _ZN3cub17CUB_200400_750_NS29DeviceRadixSortOnesweepKernelINS0_21DeviceRadixSortPolicyIihjE9Policy900ELb0EihjiiNS0_6detail21identity_decomposer_tEEEvPT5_S8_PT3_PKS9_PT1_PKSD_PT2_PKSH_T4_iiT6_(0xca)	min stack size: 0x0
	<0x50>
	Attribute:	EIATTR_FRAME_SIZE
	Format:	EIFMT_SVAL
	Value:	function: _ZN3cub17CUB_200400_750_NS29DeviceRadixSortOnesweepKernelINS0_21DeviceRadixSortPolicyIihjE9Policy900ELb0EihjiiNS0_6detail21identity_decomposer_tEEEvPT5_S8_PT3_PKS9_PT1_PKSD_PT2_PKSH_T4_iiT6_(0xca)	frame size: 0x0
	<0x51>
	Attribute:	EIATTR_REGCOUNT
	Format:	EIFMT_SVAL
	Value:	function: _ZN3cub17CUB_200400_750_NS31DeviceRadixSortSingleTileKernelINS0_21DeviceRadixSortPolicyIiijE9Policy900ELb0EiijNS0_6detail21identity_decomposer_tEEEvPKT1_PS7_PKT2_PSB_T3_iiT4_(0xc9)	register count: 128
	<0x52>
	Attribute:	EIATTR_MIN_STACK_SIZE
	Format:	EIFMT_SVAL
	Value:	function: _ZN3cub17CUB_200400_750_NS31DeviceRadixSortSingleTileKernelINS0_21DeviceRadixSortPolicyIiijE9Policy900ELb0EiijNS0_6detail21identity_decomposer_tEEEvPKT1_PS7_PKT2_PSB_T3_iiT4_(0xc9)	min stack size: 0x0
	<0x53>
	Attribute:	EIATTR_FRAME_SIZE
	Format:	EIFMT_SVAL
	Value:	function: _ZN3cub17CUB_200400_750_NS31DeviceRadixSortSingleTileKernelINS0_21DeviceRadixSortPolicyIiijE9Policy900ELb0EiijNS0_6detail21identity_decomposer_tEEEvPKT1_PS7_PKT2_PSB_T3_iiT4_(0xc9)	frame size: 0x0
	<0x54>
	Attribute:	EIATTR_REGCOUNT
	Format:	EIFMT_SVAL
	Value:	function: _ZN3cub17CUB_200400_750_NS28DeviceRadixSortUpsweepKernelINS0_21DeviceRadixSortPolicyIiijE9Policy900ELb0ELb0EijNS0_6detail21identity_decomposer_tEEEvPKT2_PT3_SA_iiNS0_13GridEvenShareISA_EET4_(0xc8)	register count: 56
	<0x55>
	Attribute:	EIATTR_MIN_STACK_SIZE
	Format:	EIFMT_SVAL
	Value:	function: _ZN3cub17CUB_200400_750_NS28DeviceRadixSortUpsweepKernelINS0_21DeviceRadixSortPolicyIiijE9Policy900ELb0ELb0EijNS0_6detail21identity_decomposer_tEEEvPKT2_PT3_SA_iiNS0_13GridEvenShareISA_EET4_(0xc8)	min stack size: 0x0
	<0x56>
	Attribute:	EIATTR_FRAME_SIZE
	Format:	EIFMT_SVAL
	Value:	function: _ZN3cub17CUB_200400_750_NS28DeviceRadixSortUpsweepKernelINS0_21DeviceRadixSortPolicyIiijE9Policy900ELb0ELb0EijNS0_6detail21identity_decomposer_tEEEvPKT2_PT3_SA_iiNS0_13GridEvenShareISA_EET4_(0xc8)	frame size: 0x0
	<0x57>
	Attribute:	EIATTR_REGCOUNT
	Format:	EIFMT_SVAL
	Value:	function: _ZN3cub17CUB_200400_750_NS28DeviceRadixSortUpsweepKernelINS0_21DeviceRadixSortPolicyIiijE9Policy900ELb1ELb0EijNS0_6detail21identity_decomposer_tEEEvPKT2_PT3_SA_iiNS0_13GridEvenShareISA_EET4_(0xc7)	register count: 64
	<0x58>
	Attribute:	EIATTR_MIN_STACK_SIZE
	Format:	EIFMT_SVAL
	Value:	function: _ZN3cub17CUB_200400_750_NS28DeviceRadixSortUpsweepKernelINS0_21DeviceRadixSortPolicyIiijE9Policy900ELb1ELb0EijNS0_6detail21identity_decomposer_tEEEvPKT2_PT3_SA_iiNS0_13GridEvenShareISA_EET4_(0xc7)	min stack size: 0x0
	<0x59>
	Attribute:	EIATTR_FRAME_SIZE
	Format:	EIFMT_SVAL
	Value:	function: _ZN3cub17CUB_200400_750_NS28DeviceRadixSortUpsweepKernelINS0_21DeviceRadixSortPolicyIiijE9Policy900ELb1ELb0EijNS0_6detail21identity_decomposer_tEEEvPKT2_PT3_SA_iiNS0_13GridEvenShareISA_EET4_(0xc7)	frame size: 0x0
	<0x60>
	Attribute:	EIATTR_REGCOUNT
	Format:	EIFMT_SVAL
	Value:	function: _ZN3cub17CUB_200400_750_NS23RadixSortScanBinsKernelINS0_21DeviceRadixSortPolicyIiijE9Policy900EjEEvPT0_i(0xc6)	register count: 75
	<0x61>
	Attribute:	EIATTR_MIN_STACK_SIZE
	Format:	EIFMT_SVAL
	Value:	function: $__internal_29_$__cuda_sm70_warpsync(0x7a)	min stack size: 0x0
	<0x62>
	Attribute:	EIATTR_FRAME_SIZE
	Format:	EIFMT_SVAL
	Value:	function: $__internal_29_$__cuda_sm70_warpsync(0x7a)	frame size: 0x0
	<0x63>
	Attribute:	EIATTR_MIN_STACK_SIZE
	Format:	EIFMT_SVAL
	Value:	function: $__internal_28_$__cuda_sm70_shflsync_up_p(0x79)	min stack size: 0x0
	<0x64>
	Attribute:	EIATTR_FRAME_SIZE
	Format:	EIFMT_SVAL
	Value:	function: $__internal_28_$__cuda_sm70_shflsync_up_p(0x79)	frame size: 0x0
	<0x65>
	Attribute:	EIATTR_MIN_STACK_SIZE
	Format:	EIFMT_SVAL
	Value:	function: $__internal_27_$__cuda_sm70_shflsync_idx(0x78)	min stack size: 0x0
	<0x66>
	Attribute:	EIATTR_FRAME_SIZE
	Format:	EIFMT_SVAL
	Value:	function: $__internal_27_$__cuda_sm70_shflsync_idx(0x78)	frame size: 0x0
	<0x67>
	Attribute:	EIATTR_MIN_STACK_SIZE
	Format:	EIFMT_SVAL
	Value:	function: _ZN3cub17CUB_200400_750_NS23RadixSortScanBinsKernelINS0_21DeviceRadixSortPolicyIiijE9Policy900EjEEvPT0_i(0xc6)	min stack size: 0x0
	<0x68>
	Attribute:	EIATTR_FRAME_SIZE
	Format:	EIFMT_SVAL
	Value:	function: _ZN3cub17CUB_200400_750_NS23RadixSortScanBinsKernelINS0_21DeviceRadixSortPolicyIiijE9Policy900EjEEvPT0_i(0xc6)	frame size: 0x0
	<0x69>
	Attribute:	EIATTR_REGCOUNT
	Format:	EIFMT_SVAL
	Value:	function: _ZN3cub17CUB_200400_750_NS30DeviceRadixSortDownsweepKernelINS0_21DeviceRadixSortPolicyIiijE9Policy900ELb0ELb0EiijNS0_6detail21identity_decomposer_tEEEvPKT2_PS7_PKT3_PSB_PT4_SF_iiNS0_13GridEvenShareISF_EET5_(0xc5)	register count: 128
	<0x70>
	Attribute:	EIATTR_MIN_STACK_SIZE
	Format:	EIFMT_SVAL
	Value:	function: $__internal_26_$__cuda_sm70_votesync_ballot(0x74)	min stack size: 0x0
	<0x71>
	Attribute:	EIATTR_FRAME_SIZE
	Format:	EIFMT_SVAL
	Value:	function: $__internal_26_$__cuda_sm70_votesync_ballot(0x74)	frame size: 0x0
	<0x72>
	Attribute:	EIATTR_MIN_STACK_SIZE
	Format:	EIFMT_SVAL
	Value:	function: $__internal_25_$__cuda_sm70_shflsync_idx(0x73)	min stack size: 0x0
	<0x73>
	Attribute:	EIATTR_FRAME_SIZE
	Format:	EIFMT_SVAL
	Value:	function: $__internal_25_$__cuda_sm70_shflsync_idx(0x73)	frame size: 0x0
	<0x74>
	Attribute:	EIATTR_MIN_STACK_SIZE
	Format:	EIFMT_SVAL
	Value:	function: _ZN3cub17CUB_200400_750_NS30DeviceRadixSortDownsweepKernelINS0_21DeviceRadixSortPolicyIiijE9Policy900ELb0ELb0EiijNS0_6detail21identity_decomposer_tEEEvPKT2_PS7_PKT3_PSB_PT4_SF_iiNS0_13GridEvenShareISF_EET5_(0xc5)	min stack size: 0x28
	<0x75>
	Attribute:	EIATTR_FRAME_SIZE
	Format:	EIFMT_SVAL
	Value:	function: _ZN3cub17CUB_200400_750_NS30DeviceRadixSortDownsweepKernelINS0_21DeviceRadixSortPolicyIiijE9Policy900ELb0ELb0EiijNS0_6detail21identity_decomposer_tEEEvPKT2_PS7_PKT3_PSB_PT4_SF_iiNS0_13GridEvenShareISF_EET5_(0xc5)	frame size: 0x28
	<0x76>
	Attribute:	EIATTR_REGCOUNT
	Format:	EIFMT_SVAL
	Value:	function: _ZN3cub17CUB_200400_750_NS30DeviceRadixSortDownsweepKernelINS0_21DeviceRadixSortPolicyIiijE9Policy900ELb1ELb0EiijNS0_6detail21identity_decomposer_tEEEvPKT2_PS7_PKT3_PSB_PT4_SF_iiNS0_13GridEvenShareISF_EET5_(0xc4)	register count: 242
	<0x77>
	Attribute:	EIATTR_MIN_STACK_SIZE
	Format:	EIFMT_SVAL
	Value:	function: $__internal_24_$__cuda_sm70_shflsync_up_p(0x6f)	min stack size: 0x0
	<0x78>
	Attribute:	EIATTR_FRAME_SIZE
	Format:	EIFMT_SVAL
	Value:	function: $__internal_24_$__cuda_sm70_shflsync_up_p(0x6f)	frame size: 0x0
	<0x79>
	Attribute:	EIATTR_MIN_STACK_SIZE
	Format:	EIFMT_SVAL
	Value:	function: $__internal_23_$__cuda_sm70_shflsync_idx(0x6e)	min stack size: 0x0
	<0x80>
	Attribute:	EIATTR_FRAME_SIZE
	Format:	EIFMT_SVAL
	Value:	function: $__internal_23_$__cuda_sm70_shflsync_idx(0x6e)	frame size: 0x0
	<0x81>
	Attribute:	EIATTR_MIN_STACK_SIZE
	Format:	EIFMT_SVAL
	Value:	function: _ZN3cub17CUB_200400_750_NS30DeviceRadixSortDownsweepKernelINS0_21DeviceRadixSortPolicyIiijE9Policy900ELb1ELb0EiijNS0_6detail21identity_decomposer_tEEEvPKT2_PS7_PKT3_PSB_PT4_SF_iiNS0_13GridEvenShareISF_EET5_(0xc4)	min stack size: 0x0
	<0x82>
	Attribute:	EIATTR_FRAME_SIZE
	Format:	EIFMT_SVAL
	Value:	function: _ZN3cub17CUB_200400_750_NS30DeviceRadixSortDownsweepKernelINS0_21DeviceRadixSortPolicyIiijE9Policy900ELb1ELb0EiijNS0_6detail21identity_decomposer_tEEEvPKT2_PS7_PKT3_PSB_PT4_SF_iiNS0_13GridEvenShareISF_EET5_(0xc4)	frame size: 0x0
	<0x83>
	Attribute:	EIATTR_REGCOUNT
	Format:	EIFMT_SVAL
	Value:	function: _ZN3cub17CUB_200400_750_NS30DeviceRadixSortHistogramKernelINS0_21DeviceRadixSortPolicyIiijE9Policy900ELb0EijNS0_6detail21identity_decomposer_tEEEvPT2_PKT1_S7_iiT3_(0xc3)	register count: 58
	<0x84>
	Attribute:	EIATTR_MIN_STACK_SIZE
	Format:	EIFMT_SVAL
	Value:	function: _ZN3cub17CUB_200400_750_NS30DeviceRadixSortHistogramKernelINS0_21DeviceRadixSortPolicyIiijE9Policy900ELb0EijNS0_6detail21identity_decomposer_tEEEvPT2_PKT1_S7_iiT3_(0xc3)	min stack size: 0x0
	<0x85>
	Attribute:	EIATTR_FRAME_SIZE
	Format:	EIFMT_SVAL
	Value:	function: _ZN3cub17CUB_200400_750_NS30DeviceRadixSortHistogramKernelINS0_21DeviceRadixSortPolicyIiijE9Policy900ELb0EijNS0_6detail21identity_decomposer_tEEEvPT2_PKT1_S7_iiT3_(0xc3)	frame size: 0x0
	<0x86>
	Attribute:	EIATTR_REGCOUNT
	Format:	EIFMT_SVAL
	Value:	function: _ZN3cub17CUB_200400_750_NS33DeviceRadixSortExclusiveSumKernelINS0_21DeviceRadixSortPolicyIiijE9Policy900EjEEvPT0_(0xc2)	register count: 24
	<0x87>
	Attribute:	EIATTR_MIN_STACK_SIZE
	Format:	EIFMT_SVAL
	Value:	function: $__internal_22_$__cuda_sm70_shflsync_up_p(0x67)	min stack size: 0x0
	<0x88>
	Attribute:	EIATTR_FRAME_SIZE
	Format:	EIFMT_SVAL
	Value:	function: $__internal_22_$__cuda_sm70_shflsync_up_p(0x67)	frame size: 0x0
	<0x89>
	Attribute:	EIATTR_MIN_STACK_SIZE
	Format:	EIFMT_SVAL
	Value:	function: _ZN3cub17CUB_200400_750_NS33DeviceRadixSortExclusiveSumKernelINS0_21DeviceRadixSortPolicyIiijE9Policy900EjEEvPT0_(0xc2)	min stack size: 0x0
	<0x90>
	Attribute:	EIATTR_FRAME_SIZE
	Format:	EIFMT_SVAL
	Value:	function: _ZN3cub17CUB_200400_750_NS33DeviceRadixSortExclusiveSumKernelINS0_21DeviceRadixSortPolicyIiijE9Policy900EjEEvPT0_(0xc2)	frame size: 0x0
	<0x91>
	Attribute:	EIATTR_REGCOUNT
	Format:	EIFMT_SVAL
	Value:	function: _ZN3cub17CUB_200400_750_NS29DeviceRadixSortOnesweepKernelINS0_21DeviceRadixSortPolicyIiijE9Policy900ELb0EiijiiNS0_6detail21identity_decomposer_tEEEvPT5_S8_PT3_PKS9_PT1_PKSD_PT2_PKSH_T4_iiT6_(0xc1)	register count: 201
	<0x92>
	Attribute:	EIATTR_MIN_STACK_SIZE
	Format:	EIFMT_SVAL
	Value:	function: $__internal_21_$__cuda_sm70_votesync_ballot(0x63)	min stack size: 0x0
	<0x93>
	Attribute:	EIATTR_FRAME_SIZE
	Format:	EIFMT_SVAL
	Value:	function: $__internal_21_$__cuda_sm70_votesync_ballot(0x63)	frame size: 0x0
	<0x94>
	Attribute:	EIATTR_MIN_STACK_SIZE
	Format:	EIFMT_SVAL
	Value:	function: $__internal_20_$__cuda_sm70_shflsync_up_p(0x62)	min stack size: 0x0
	<0x95>
	Attribute:	EIATTR_FRAME_SIZE
	Format:	EIFMT_SVAL
	Value:	function: $__internal_20_$__cuda_sm70_shflsync_up_p(0x62)	frame size: 0x0
	<0x96>
	Attribute:	EIATTR_MIN_STACK_SIZE
	Format:	EIFMT_SVAL
	Value:	function: _ZN3cub17CUB_200400_750_NS29DeviceRadixSortOnesweepKernelINS0_21DeviceRadixSortPolicyIiijE9Policy900ELb0EiijiiNS0_6detail21identity_decomposer_tEEEvPT5_S8_PT3_PKS9_PT1_PKSD_PT2_PKSH_T4_iiT6_(0xc1)	min stack size: 0x0
	<0x97>
	Attribute:	EIATTR_FRAME_SIZE
	Format:	EIFMT_SVAL
	Value:	function: _ZN3cub17CUB_200400_750_NS29DeviceRadixSortOnesweepKernelINS0_21DeviceRadixSortPolicyIiijE9Policy900ELb0EiijiiNS0_6detail21identity_decomposer_tEEEvPT5_S8_PT3_PKS9_PT1_PKSD_PT2_PKSH_T4_iiT6_(0xc1)	frame size: 0x0
	<0x98>
	Attribute:	EIATTR_REGCOUNT
	Format:	EIFMT_SVAL
	Value:	function: _ZN3cub17CUB_200400_750_NS31DeviceRadixSortSingleTileKernelINS0_21DeviceRadixSortPolicyIisjE9Policy900ELb0EisjNS0_6detail21identity_decomposer_tEEEvPKT1_PS7_PKT2_PSB_T3_iiT4_(0xc0)	register count: 128
	<0x99>
	Attribute:	EIATTR_MIN_STACK_SIZE
	Format:	EIFMT_SVAL
	Value:	function: _ZN3cub17CUB_200400_750_NS31DeviceRadixSortSingleTileKernelINS0_21DeviceRadixSortPolicyIisjE9Policy900ELb0EisjNS0_6detail21identity_decomposer_tEEEvPKT1_PS7_PKT2_PSB_T3_iiT4_(0xc0)	min stack size: 0x0
	<0x100>
	Attribute:	EIATTR_FRAME_SIZE
	Format:	EIFMT_SVAL
	Value:	function: _ZN3cub17CUB_200400_750_NS31DeviceRadixSortSingleTileKernelINS0_21DeviceRadixSortPolicyIisjE9Policy900ELb0EisjNS0_6detail21identity_decomposer_tEEEvPKT1_PS7_PKT2_PSB_T3_iiT4_(0xc0)	frame size: 0x0
	<0x101>
	Attribute:	EIATTR_REGCOUNT
	Format:	EIFMT_SVAL
	Value:	function: _ZN3cub17CUB_200400_750_NS28DeviceRadixSortUpsweepKernelINS0_21DeviceRadixSortPolicyIisjE9Policy900ELb0ELb0EijNS0_6detail21identity_decomposer_tEEEvPKT2_PT3_SA_iiNS0_13GridEvenShareISA_EET4_(0xbf)	register count: 56
	<0x102>
	Attribute:	EIATTR_MIN_STACK_SIZE
	Format:	EIFMT_SVAL
	Value:	function: _ZN3cub17CUB_200400_750_NS28DeviceRadixSortUpsweepKernelINS0_21DeviceRadixSortPolicyIisjE9Policy900ELb0ELb0EijNS0_6detail21identity_decomposer_tEEEvPKT2_PT3_SA_iiNS0_13GridEvenShareISA_EET4_(0xbf)	min stack size: 0x0
	<0x103>
	Attribute:	EIATTR_FRAME_SIZE
	Format:	EIFMT_SVAL
	Value:	function: _ZN3cub17CUB_200400_750_NS28DeviceRadixSortUpsweepKernelINS0_21DeviceRadixSortPolicyIisjE9Policy900ELb0ELb0EijNS0_6detail21identity_decomposer_tEEEvPKT2_PT3_SA_iiNS0_13GridEvenShareISA_EET4_(0xbf)	frame size: 0x0
	<0x104>
	Attribute:	EIATTR_REGCOUNT
	Format:	EIFMT_SVAL
	Value:	function: _ZN3cub17CUB_200400_750_NS28DeviceRadixSortUpsweepKernelINS0_21DeviceRadixSortPolicyIisjE9Policy900ELb1ELb0EijNS0_6detail21identity_decomposer_tEEEvPKT2_PT3_SA_iiNS0_13GridEvenShareISA_EET4_(0xbe)	register count: 64
	<0x105>
	Attribute:	EIATTR_MIN_STACK_SIZE
	Format:	EIFMT_SVAL
	Value:	function: _ZN3cub17CUB_200400_750_NS28DeviceRadixSortUpsweepKernelINS0_21DeviceRadixSortPolicyIisjE9Policy900ELb1ELb0EijNS0_6detail21identity_decomposer_tEEEvPKT2_PT3_SA_iiNS0_13GridEvenShareISA_EET4_(0xbe)	min stack size: 0x0
	<0x106>
	Attribute:	EIATTR_FRAME_SIZE
	Format:	EIFMT_SVAL
	Value:	function: _ZN3cub17CUB_200400_750_NS28DeviceRadixSortUpsweepKernelINS0_21DeviceRadixSortPolicyIisjE9Policy900ELb1ELb0EijNS0_6detail21identity_decomposer_tEEEvPKT2_PT3_SA_iiNS0_13GridEvenShareISA_EET4_(0xbe)	frame size: 0x0
	<0x107>
	Attribute:	EIATTR_REGCOUNT
	Format:	EIFMT_SVAL
	Value:	function: _ZN3cub17CUB_200400_750_NS23RadixSortScanBinsKernelINS0_21DeviceRadixSortPolicyIisjE9Policy900EjEEvPT0_i(0xbd)	register count: 75
	<0x108>
	Attribute:	EIATTR_MIN_STACK_SIZE
	Format:	EIFMT_SVAL
	Value:	function: $__internal_19_$__cuda_sm70_warpsync(0x55)	min stack size: 0x0
	<0x109>
	Attribute:	EIATTR_FRAME_SIZE
	Format:	EIFMT_SVAL
	Value:	function: $__internal_19_$__cuda_sm70_warpsync(0x55)	frame size: 0x0
	<0x110>
	Attribute:	EIATTR_MIN_STACK_SIZE
	Format:	EIFMT_SVAL
	Value:	function: $__internal_18_$__cuda_sm70_shflsync_up_p(0x54)	min stack size: 0x0
	<0x111>
	Attribute:	EIATTR_FRAME_SIZE
	Format:	EIFMT_SVAL
	Value:	function: $__internal_18_$__cuda_sm70_shflsync_up_p(0x54)	frame size: 0x0
	<0x112>
	Attribute:	EIATTR_MIN_STACK_SIZE
	Format:	EIFMT_SVAL
	Value:	function: $__internal_17_$__cuda_sm70_shflsync_idx(0x53)	min stack size: 0x0
	<0x113>
	Attribute:	EIATTR_FRAME_SIZE
	Format:	EIFMT_SVAL
	Value:	function: $__internal_17_$__cuda_sm70_shflsync_idx(0x53)	frame size: 0x0
	<0x114>
	Attribute:	EIATTR_MIN_STACK_SIZE
	Format:	EIFMT_SVAL
	Value:	function: _ZN3cub17CUB_200400_750_NS23RadixSortScanBinsKernelINS0_21DeviceRadixSortPolicyIisjE9Policy900EjEEvPT0_i(0xbd)	min stack size: 0x0
	<0x115>
	Attribute:	EIATTR_FRAME_SIZE
	Format:	EIFMT_SVAL
	Value:	function: _ZN3cub17CUB_200400_750_NS23RadixSortScanBinsKernelINS0_21DeviceRadixSortPolicyIisjE9Policy900EjEEvPT0_i(0xbd)	frame size: 0x0
	<0x116>
	Attribute:	EIATTR_REGCOUNT
	Format:	EIFMT_SVAL
	Value:	function: _ZN3cub17CUB_200400_750_NS30DeviceRadixSortDownsweepKernelINS0_21DeviceRadixSortPolicyIisjE9Policy900ELb0ELb0EisjNS0_6detail21identity_decomposer_tEEEvPKT2_PS7_PKT3_PSB_PT4_SF_iiNS0_13GridEvenShareISF_EET5_(0xbc)	register count: 128
	<0x117>
	Attribute:	EIATTR_MIN_STACK_SIZE
	Format:	EIFMT_SVAL
	Value:	function: $__internal_16_$__cuda_sm70_votesync_ballot(0x4f)	min stack size: 0x0
	<0x118>
	Attribute:	EIATTR_FRAME_SIZE
	Format:	EIFMT_SVAL
	Value:	function: $__internal_16_$__cuda_sm70_votesync_ballot(0x4f)	frame size: 0x0
	<0x119>
	Attribute:	EIATTR_MIN_STACK_SIZE
	Format:	EIFMT_SVAL
	Value:	function: $__internal_15_$__cuda_sm70_shflsync_idx(0x4e)	min stack size: 0x0
	<0x120>
	Attribute:	EIATTR_FRAME_SIZE
	Format:	EIFMT_SVAL
	Value:	function: $__internal_15_$__cuda_sm70_shflsync_idx(0x4e)	frame size: 0x0
	<0x121>
	Attribute:	EIATTR_MIN_STACK_SIZE
	Format:	EIFMT_SVAL
	Value:	function: _ZN3cub17CUB_200400_750_NS30DeviceRadixSortDownsweepKernelINS0_21DeviceRadixSortPolicyIisjE9Policy900ELb0ELb0EisjNS0_6detail21identity_decomposer_tEEEvPKT2_PS7_PKT3_PSB_PT4_SF_iiNS0_13GridEvenShareISF_EET5_(0xbc)	min stack size: 0x28
	<0x122>
	Attribute:	EIATTR_FRAME_SIZE
	Format:	EIFMT_SVAL
	Value:	function: _ZN3cub17CUB_200400_750_NS30DeviceRadixSortDownsweepKernelINS0_21DeviceRadixSortPolicyIisjE9Policy900ELb0ELb0EisjNS0_6detail21identity_decomposer_tEEEvPKT2_PS7_PKT3_PSB_PT4_SF_iiNS0_13GridEvenShareISF_EET5_(0xbc)	frame size: 0x28
	<0x123>
	Attribute:	EIATTR_REGCOUNT
	Format:	EIFMT_SVAL
	Value:	function: _ZN3cub17CUB_200400_750_NS30DeviceRadixSortDownsweepKernelINS0_21DeviceRadixSortPolicyIisjE9Policy900ELb1ELb0EisjNS0_6detail21identity_decomposer_tEEEvPKT2_PS7_PKT3_PSB_PT4_SF_iiNS0_13GridEvenShareISF_EET5_(0xbb)	register count: 221
	<0x124>
	Attribute:	EIATTR_MIN_STACK_SIZE
	Format:	EIFMT_SVAL
	Value:	function: $__internal_14_$__cuda_sm70_shflsync_up_p(0x4a)	min stack size: 0x0
	<0x125>
	Attribute:	EIATTR_FRAME_SIZE
	Format:	EIFMT_SVAL
	Value:	function: $__internal_14_$__cuda_sm70_shflsync_up_p(0x4a)	frame size: 0x0
	<0x126>
	Attribute:	EIATTR_MIN_STACK_SIZE
	Format:	EIFMT_SVAL
	Value:	function: $__internal_13_$__cuda_sm70_shflsync_idx(0x49)	min stack size: 0x0
	<0x127>
	Attribute:	EIATTR_FRAME_SIZE
	Format:	EIFMT_SVAL
	Value:	function: $__internal_13_$__cuda_sm70_shflsync_idx(0x49)	frame size: 0x0
	<0x128>
	Attribute:	EIATTR_MIN_STACK_SIZE
	Format:	EIFMT_SVAL
	Value:	function: _ZN3cub17CUB_200400_750_NS30DeviceRadixSortDownsweepKernelINS0_21DeviceRadixSortPolicyIisjE9Policy900ELb1ELb0EisjNS0_6detail21identity_decomposer_tEEEvPKT2_PS7_PKT3_PSB_PT4_SF_iiNS0_13GridEvenShareISF_EET5_(0xbb)	min stack size: 0x0
	<0x129>
	Attribute:	EIATTR_FRAME_SIZE
	Format:	EIFMT_SVAL
	Value:	function: _ZN3cub17CUB_200400_750_NS30DeviceRadixSortDownsweepKernelINS0_21DeviceRadixSortPolicyIisjE9Policy900ELb1ELb0EisjNS0_6detail21identity_decomposer_tEEEvPKT2_PS7_PKT3_PSB_PT4_SF_iiNS0_13GridEvenShareISF_EET5_(0xbb)	frame size: 0x0
	<0x130>
	Attribute:	EIATTR_REGCOUNT
	Format:	EIFMT_SVAL
	Value:	function: _ZN3cub17CUB_200400_750_NS30DeviceRadixSortHistogramKernelINS0_21DeviceRadixSortPolicyIisjE9Policy900ELb0EijNS0_6detail21identity_decomposer_tEEEvPT2_PKT1_S7_iiT3_(0xba)	register count: 58
	<0x131>
	Attribute:	EIATTR_MIN_STACK_SIZE
	Format:	EIFMT_SVAL
	Value:	function: _ZN3cub17CUB_200400_750_NS30DeviceRadixSortHistogramKernelINS0_21DeviceRadixSortPolicyIisjE9Policy900ELb0EijNS0_6detail21identity_decomposer_tEEEvPT2_PKT1_S7_iiT3_(0xba)	min stack size: 0x0
	<0x132>
	Attribute:	EIATTR_FRAME_SIZE
	Format:	EIFMT_SVAL
	Value:	function: _ZN3cub17CUB_200400_750_NS30DeviceRadixSortHistogramKernelINS0_21DeviceRadixSortPolicyIisjE9Policy900ELb0EijNS0_6detail21identity_decomposer_tEEEvPT2_PKT1_S7_iiT3_(0xba)	frame size: 0x0
	<0x133>
	Attribute:	EIATTR_REGCOUNT
	Format:	EIFMT_SVAL
	Value:	function: _ZN3cub17CUB_200400_750_NS33DeviceRadixSortExclusiveSumKernelINS0_21DeviceRadixSortPolicyIisjE9Policy900EjEEvPT0_(0xb9)	register count: 24
	<0x134>
	Attribute:	EIATTR_MIN_STACK_SIZE
	Format:	EIFMT_SVAL
	Value:	function: $__internal_12_$__cuda_sm70_shflsync_up_p(0x42)	min stack size: 0x0
	<0x135>
	Attribute:	EIATTR_FRAME_SIZE
	Format:	EIFMT_SVAL
	Value:	function: $__internal_12_$__cuda_sm70_shflsync_up_p(0x42)	frame size: 0x0
	<0x136>
	Attribute:	EIATTR_MIN_STACK_SIZE
	Format:	EIFMT_SVAL
	Value:	function: _ZN3cub17CUB_200400_750_NS33DeviceRadixSortExclusiveSumKernelINS0_21DeviceRadixSortPolicyIisjE9Policy900EjEEvPT0_(0xb9)	min stack size: 0x0
	<0x137>
	Attribute:	EIATTR_FRAME_SIZE
	Format:	EIFMT_SVAL
	Value:	function: _ZN3cub17CUB_200400_750_NS33DeviceRadixSortExclusiveSumKernelINS0_21DeviceRadixSortPolicyIisjE9Policy900EjEEvPT0_(0xb9)	frame size: 0x0
	<0x138>
	Attribute:	EIATTR_REGCOUNT
	Format:	EIFMT_SVAL
	Value:	function: _ZN3cub17CUB_200400_750_NS29DeviceRadixSortOnesweepKernelINS0_21DeviceRadixSortPolicyIisjE9Policy900ELb0EisjiiNS0_6detail21identity_decomposer_tEEEvPT5_S8_PT3_PKS9_PT1_PKSD_PT2_PKSH_T4_iiT6_(0xb8)	register count: 110
	<0x139>
	Attribute:	EIATTR_MIN_STACK_SIZE
	Format:	EIFMT_SVAL
	Value:	function: $__internal_11_$__cuda_sm70_votesync_ballot(0x3e)	min stack size: 0x0
	<0x140>
	Attribute:	EIATTR_FRAME_SIZE
	Format:	EIFMT_SVAL
	Value:	function: $__internal_11_$__cuda_sm70_votesync_ballot(0x3e)	frame size: 0x0
	<0x141>
	Attribute:	EIATTR_MIN_STACK_SIZE
	Format:	EIFMT_SVAL
	Value:	function: $__internal_10_$__cuda_sm70_shflsync_up_p(0x3d)	min stack size: 0x0
	<0x142>
	Attribute:	EIATTR_FRAME_SIZE
	Format:	EIFMT_SVAL
	Value:	function: $__internal_10_$__cuda_sm70_shflsync_up_p(0x3d)	frame size: 0x0
	<0x143>
	Attribute:	EIATTR_MIN_STACK_SIZE
	Format:	EIFMT_SVAL
	Value:	function: _ZN3cub17CUB_200400_750_NS29DeviceRadixSortOnesweepKernelINS0_21DeviceRadixSortPolicyIisjE9Policy900ELb0EisjiiNS0_6detail21identity_decomposer_tEEEvPT5_S8_PT3_PKS9_PT1_PKSD_PT2_PKSH_T4_iiT6_(0xb8)	min stack size: 0x0
	<0x144>
	Attribute:	EIATTR_FRAME_SIZE
	Format:	EIFMT_SVAL
	Value:	function: _ZN3cub17CUB_200400_750_NS29DeviceRadixSortOnesweepKernelINS0_21DeviceRadixSortPolicyIisjE9Policy900ELb0EisjiiNS0_6detail21identity_decomposer_tEEEvPT5_S8_PT3_PKS9_PT1_PKSD_PT2_PKSH_T4_iiT6_(0xb8)	frame size: 0x0
	<0x145>
	Attribute:	EIATTR_REGCOUNT
	Format:	EIFMT_SVAL
	Value:	function: _ZN3cub17CUB_200400_750_NS31DeviceRadixSortSingleTileKernelINS0_21DeviceRadixSortPolicyIiljE9Policy900ELb0EiljNS0_6detail21identity_decomposer_tEEEvPKT1_PS7_PKT2_PSB_T3_iiT4_(0xb7)	register count: 96
	<0x146>
	Attribute:	EIATTR_MIN_STACK_SIZE
	Format:	EIFMT_SVAL
	Value:	function: _ZN3cub17CUB_200400_750_NS31DeviceRadixSortSingleTileKernelINS0_21DeviceRadixSortPolicyIiljE9Policy900ELb0EiljNS0_6detail21identity_decomposer_tEEEvPKT1_PS7_PKT2_PSB_T3_iiT4_(0xb7)	min stack size: 0x0
	<0x147>
	Attribute:	EIATTR_FRAME_SIZE
	Format:	EIFMT_SVAL
	Value:	function: _ZN3cub17CUB_200400_750_NS31DeviceRadixSortSingleTileKernelINS0_21DeviceRadixSortPolicyIiljE9Policy900ELb0EiljNS0_6detail21identity_decomposer_tEEEvPKT1_PS7_PKT2_PSB_T3_iiT4_(0xb7)	frame size: 0x0
	<0x148>
	Attribute:	EIATTR_REGCOUNT
	Format:	EIFMT_SVAL
	Value:	function: _ZN3cub17CUB_200400_750_NS28DeviceRadixSortUpsweepKernelINS0_21DeviceRadixSortPolicyIiljE9Policy900ELb0ELb0EijNS0_6detail21identity_decomposer_tEEEvPKT2_PT3_SA_iiNS0_13GridEvenShareISA_EET4_(0xb6)	register count: 44
	<0x149>
	Attribute:	EIATTR_MIN_STACK_SIZE
	Format:	EIFMT_SVAL
	Value:	function: _ZN3cub17CUB_200400_750_NS28DeviceRadixSortUpsweepKernelINS0_21DeviceRadixSortPolicyIiljE9Policy900ELb0ELb0EijNS0_6detail21identity_decomposer_tEEEvPKT2_PT3_SA_iiNS0_13GridEvenShareISA_EET4_(0xb6)	min stack size: 0x0
	<0x150>
	Attribute:	EIATTR_FRAME_SIZE
	Format:	EIFMT_SVAL
	Value:	function: _ZN3cub17CUB_200400_750_NS28DeviceRadixSortUpsweepKernelINS0_21DeviceRadixSortPolicyIiljE9Policy900ELb0ELb0EijNS0_6detail21identity_decomposer_tEEEvPKT2_PT3_SA_iiNS0_13GridEvenShareISA_EET4_(0xb6)	frame size: 0x0
	<0x151>
	Attribute:	EIATTR_REGCOUNT
	Format:	EIFMT_SVAL
	Value:	function: _ZN3cub17CUB_200400_750_NS28DeviceRadixSortUpsweepKernelINS0_21DeviceRadixSortPolicyIiljE9Policy900ELb1ELb0EijNS0_6detail21identity_decomposer_tEEEvPKT2_PT3_SA_iiNS0_13GridEvenShareISA_EET4_(0xb5)	register count: 48
	<0x152>
	Attribute:	EIATTR_MIN_STACK_SIZE
	Format:	EIFMT_SVAL
	Value:	function: _ZN3cub17CUB_200400_750_NS28DeviceRadixSortUpsweepKernelINS0_21DeviceRadixSortPolicyIiljE9Policy900ELb1ELb0EijNS0_6detail21identity_decomposer_tEEEvPKT2_PT3_SA_iiNS0_13GridEvenShareISA_EET4_(0xb5)	min stack size: 0x0
	<0x153>
	Attribute:	EIATTR_FRAME_SIZE
	Format:	EIFMT_SVAL
	Value:	function: _ZN3cub17CUB_200400_750_NS28DeviceRadixSortUpsweepKernelINS0_21DeviceRadixSortPolicyIiljE9Policy900ELb1ELb0EijNS0_6detail21identity_decomposer_tEEEvPKT2_PT3_SA_iiNS0_13GridEvenShareISA_EET4_(0xb5)	frame size: 0x0
	<0x154>
	Attribute:	EIATTR_REGCOUNT
	Format:	EIFMT_SVAL
	Value:	function: _ZN3cub17CUB_200400_750_NS23RadixSortScanBinsKernelINS0_21DeviceRadixSortPolicyIiljE9Policy900EjEEvPT0_i(0xb4)	register count: 75
	<0x155>
	Attribute:	EIATTR_MIN_STACK_SIZE
	Format:	EIFMT_SVAL
	Value:	function: $__internal_9_$__cuda_sm70_warpsync(0x30)	min stack size: 0x0
	<0x156>
	Attribute:	EIATTR_FRAME_SIZE
	Format:	EIFMT_SVAL
	Value:	function: $__internal_9_$__cuda_sm70_warpsync(0x30)	frame size: 0x0
	<0x157>
	Attribute:	EIATTR_MIN_STACK_SIZE
	Format:	EIFMT_SVAL
	Value:	function: $__internal_8_$__cuda_sm70_shflsync_up_p(0x2f)	min stack size: 0x0
	<0x158>
	Attribute:	EIATTR_FRAME_SIZE
	Format:	EIFMT_SVAL
	Value:	function: $__internal_8_$__cuda_sm70_shflsync_up_p(0x2f)	frame size: 0x0
	<0x159>
	Attribute:	EIATTR_MIN_STACK_SIZE
	Format:	EIFMT_SVAL
	Value:	function: $__internal_7_$__cuda_sm70_shflsync_idx(0x2e)	min stack size: 0x0
	<0x160>
	Attribute:	EIATTR_FRAME_SIZE
	Format:	EIFMT_SVAL
	Value:	function: $__internal_7_$__cuda_sm70_shflsync_idx(0x2e)	frame size: 0x0
	<0x161>
	Attribute:	EIATTR_MIN_STACK_SIZE
	Format:	EIFMT_SVAL
	Value:	function: _ZN3cub17CUB_200400_750_NS23RadixSortScanBinsKernelINS0_21DeviceRadixSortPolicyIiljE9Policy900EjEEvPT0_i(0xb4)	min stack size: 0x0
	<0x162>
	Attribute:	EIATTR_FRAME_SIZE
	Format:	EIFMT_SVAL
	Value:	function: _ZN3cub17CUB_200400_750_NS23RadixSortScanBinsKernelINS0_21DeviceRadixSortPolicyIiljE9Policy900EjEEvPT0_i(0xb4)	frame size: 0x0
	<0x163>
	Attribute:	EIATTR_REGCOUNT
	Format:	EIFMT_SVAL
	Value:	function: _ZN3cub17CUB_200400_750_NS30DeviceRadixSortDownsweepKernelINS0_21DeviceRadixSortPolicyIiljE9Policy900ELb0ELb0EiljNS0_6detail21identity_decomposer_tEEEvPKT2_PS7_PKT3_PSB_PT4_SF_iiNS0_13GridEvenShareISF_EET5_(0xb3)	register count: 114
	<0x164>
	Attribute:	EIATTR_MIN_STACK_SIZE
	Format:	EIFMT_SVAL
	Value:	function: $__internal_6_$__cuda_sm70_votesync_ballot(0x2a)	min stack size: 0x0
	<0x165>
	Attribute:	EIATTR_FRAME_SIZE
	Format:	EIFMT_SVAL
	Value:	function: $__internal_6_$__cuda_sm70_votesync_ballot(0x2a)	frame size: 0x0
	<0x166>
	Attribute:	EIATTR_MIN_STACK_SIZE
	Format:	EIFMT_SVAL
	Value:	function: $__internal_5_$__cuda_sm70_shflsync_idx(0x29)	min stack size: 0x0
	<0x167>
	Attribute:	EIATTR_FRAME_SIZE
	Format:	EIFMT_SVAL
	Value:	function: $__internal_5_$__cuda_sm70_shflsync_idx(0x29)	frame size: 0x0
	<0x168>
	Attribute:	EIATTR_MIN_STACK_SIZE
	Format:	EIFMT_SVAL
	Value:	function: _ZN3cub17CUB_200400_750_NS30DeviceRadixSortDownsweepKernelINS0_21DeviceRadixSortPolicyIiljE9Policy900ELb0ELb0EiljNS0_6detail21identity_decomposer_tEEEvPKT2_PS7_PKT3_PSB_PT4_SF_iiNS0_13GridEvenShareISF_EET5_(0xb3)	min stack size: 0x0
	<0x169>
	Attribute:	EIATTR_FRAME_SIZE
	Format:	EIFMT_SVAL
	Value:	function: _ZN3cub17CUB_200400_750_NS30DeviceRadixSortDownsweepKernelINS0_21DeviceRadixSortPolicyIiljE9Policy900ELb0ELb0EiljNS0_6detail21identity_decomposer_tEEEvPKT2_PS7_PKT3_PSB_PT4_SF_iiNS0_13GridEvenShareISF_EET5_(0xb3)	frame size: 0x0
	<0x170>
	Attribute:	EIATTR_REGCOUNT
	Format:	EIFMT_SVAL
	Value:	function: _ZN3cub17CUB_200400_750_NS30DeviceRadixSortDownsweepKernelINS0_21DeviceRadixSortPolicyIiljE9Policy900ELb1ELb0EiljNS0_6detail21identity_decomposer_tEEEvPKT2_PS7_PKT3_PSB_PT4_SF_iiNS0_13GridEvenShareISF_EET5_(0xb2)	register count: 169
	<0x171>
	Attribute:	EIATTR_MIN_STACK_SIZE
	Format:	EIFMT_SVAL
	Value:	function: $__internal_4_$__cuda_sm70_shflsync_up_p(0x25)	min stack size: 0x0
	<0x172>
	Attribute:	EIATTR_FRAME_SIZE
	Format:	EIFMT_SVAL
	Value:	function: $__internal_4_$__cuda_sm70_shflsync_up_p(0x25)	frame size: 0x0
	<0x173>
	Attribute:	EIATTR_MIN_STACK_SIZE
	Format:	EIFMT_SVAL
	Value:	function: $__internal_3_$__cuda_sm70_shflsync_idx(0x24)	min stack size: 0x0
	<0x174>
	Attribute:	EIATTR_FRAME_SIZE
	Format:	EIFMT_SVAL
	Value:	function: $__internal_3_$__cuda_sm70_shflsync_idx(0x24)	frame size: 0x0
	<0x175>
	Attribute:	EIATTR_MIN_STACK_SIZE
	Format:	EIFMT_SVAL
	Value:	function: _ZN3cub17CUB_200400_750_NS30DeviceRadixSortDownsweepKernelINS0_21DeviceRadixSortPolicyIiljE9Policy900ELb1ELb0EiljNS0_6detail21identity_decomposer_tEEEvPKT2_PS7_PKT3_PSB_PT4_SF_iiNS0_13GridEvenShareISF_EET5_(0xb2)	min stack size: 0x0
	<0x176>
	Attribute:	EIATTR_FRAME_SIZE
	Format:	EIFMT_SVAL
	Value:	function: _ZN3cub17CUB_200400_750_NS30DeviceRadixSortDownsweepKernelINS0_21DeviceRadixSortPolicyIiljE9Policy900ELb1ELb0EiljNS0_6detail21identity_decomposer_tEEEvPKT2_PS7_PKT3_PSB_PT4_SF_iiNS0_13GridEvenShareISF_EET5_(0xb2)	frame size: 0x0
	<0x177>
	Attribute:	EIATTR_REGCOUNT
	Format:	EIFMT_SVAL
	Value:	function: _ZN3cub17CUB_200400_750_NS30DeviceRadixSortHistogramKernelINS0_21DeviceRadixSortPolicyIiljE9Policy900ELb0EijNS0_6detail21identity_decomposer_tEEEvPT2_PKT1_S7_iiT3_(0xb1)	register count: 58
	<0x178>
	Attribute:	EIATTR_MIN_STACK_SIZE
	Format:	EIFMT_SVAL
	Value:	function: _ZN3cub17CUB_200400_750_NS30DeviceRadixSortHistogramKernelINS0_21DeviceRadixSortPolicyIiljE9Policy900ELb0EijNS0_6detail21identity_decomposer_tEEEvPT2_PKT1_S7_iiT3_(0xb1)	min stack size: 0x0
	<0x179>
	Attribute:	EIATTR_FRAME_SIZE
	Format:	EIFMT_SVAL
	Value:	function: _ZN3cub17CUB_200400_750_NS30DeviceRadixSortHistogramKernelINS0_21DeviceRadixSortPolicyIiljE9Policy900ELb0EijNS0_6detail21identity_decomposer_tEEEvPT2_PKT1_S7_iiT3_(0xb1)	frame size: 0x0
	<0x180>
	Attribute:	EIATTR_REGCOUNT
	Format:	EIFMT_SVAL
	Value:	function: _ZN3cub17CUB_200400_750_NS33DeviceRadixSortExclusiveSumKernelINS0_21DeviceRadixSortPolicyIiljE9Policy900EjEEvPT0_(0xb0)	register count: 24
	<0x181>
	Attribute:	EIATTR_MIN_STACK_SIZE
	Format:	EIFMT_SVAL
	Value:	function: $__internal_2_$__cuda_sm70_shflsync_up_p(0x1d)	min stack size: 0x0
	<0x182>
	Attribute:	EIATTR_FRAME_SIZE
	Format:	EIFMT_SVAL
	Value:	function: $__internal_2_$__cuda_sm70_shflsync_up_p(0x1d)	frame size: 0x0
	<0x183>
	Attribute:	EIATTR_MIN_STACK_SIZE
	Format:	EIFMT_SVAL
	Value:	function: _ZN3cub17CUB_200400_750_NS33DeviceRadixSortExclusiveSumKernelINS0_21DeviceRadixSortPolicyIiljE9Policy900EjEEvPT0_(0xb0)	min stack size: 0x0
	<0x184>
	Attribute:	EIATTR_FRAME_SIZE
	Format:	EIFMT_SVAL
	Value:	function: _ZN3cub17CUB_200400_750_NS33DeviceRadixSortExclusiveSumKernelINS0_21DeviceRadixSortPolicyIiljE9Policy900EjEEvPT0_(0xb0)	frame size: 0x0
	<0x185>
	Attribute:	EIATTR_REGCOUNT
	Format:	EIFMT_SVAL
	Value:	function: _ZN3cub17CUB_200400_750_NS29DeviceRadixSortOnesweepKernelINS0_21DeviceRadixSortPolicyIiljE9Policy900ELb0EiljiiNS0_6detail21identity_decomposer_tEEEvPT5_S8_PT3_PKS9_PT1_PKSD_PT2_PKSH_T4_iiT6_(0xaf)	register count: 82
	<0x186>
	Attribute:	EIATTR_MIN_STACK_SIZE
	Format:	EIFMT_SVAL
	Value:	function: $__internal_1_$__cuda_sm70_votesync_ballot(0x19)	min stack size: 0x0
	<0x187>
	Attribute:	EIATTR_FRAME_SIZE
	Format:	EIFMT_SVAL
	Value:	function: $__internal_1_$__cuda_sm70_votesync_ballot(0x19)	frame size: 0x0
	<0x188>
	Attribute:	EIATTR_MIN_STACK_SIZE
	Format:	EIFMT_SVAL
	Value:	function: $__internal_0_$__cuda_sm70_shflsync_up_p(0x18)	min stack size: 0x0
	<0x189>
	Attribute:	EIATTR_FRAME_SIZE
	Format:	EIFMT_SVAL
	Value:	function: $__internal_0_$__cuda_sm70_shflsync_up_p(0x18)	frame size: 0x0
	<0x190>
	Attribute:	EIATTR_MIN_STACK_SIZE
	Format:	EIFMT_SVAL
	Value:	function: _ZN3cub17CUB_200400_750_NS29DeviceRadixSortOnesweepKernelINS0_21DeviceRadixSortPolicyIiljE9Policy900ELb0EiljiiNS0_6detail21identity_decomposer_tEEEvPT5_S8_PT3_PKS9_PT1_PKSD_PT2_PKSH_T4_iiT6_(0xaf)	min stack size: 0x0
	<0x191>
	Attribute:	EIATTR_FRAME_SIZE
	Format:	EIFMT_SVAL
	Value:	function: _ZN3cub17CUB_200400_750_NS29DeviceRadixSortOnesweepKernelINS0_21DeviceRadixSortPolicyIiljE9Policy900ELb0EiljiiNS0_6detail21identity_decomposer_tEEEvPT5_S8_PT3_PKS9_PT1_PKSD_PT2_PKSH_T4_iiT6_(0xaf)	frame size: 0x0
	<0x192>
	Attribute:	EIATTR_MIN_STACK_SIZE
	Format:	EIFMT_SVAL
	Value:	function: _ZN3cub17CUB_200400_750_NS29DeviceRadixSortOnesweepKernelINS0_21DeviceRadixSortPolicyIiljE9Policy900ELb0EiljiiNS0_6detail21identity_decomposer_tEEEvPT5_S8_PT3_PKS9_PT1_PKSD_PT2_PKSH_T4_iiT6_(0xaf)	min stack size: 0x0
	<0x193>
	Attribute:	EIATTR_MIN_STACK_SIZE
	Format:	EIFMT_SVAL
	Value:	function: _ZN3cub17CUB_200400_750_NS33DeviceRadixSortExclusiveSumKernelINS0_21DeviceRadixSortPolicyIiljE9Policy900EjEEvPT0_(0xb0)	min stack size: 0x0
	<0x194>
	Attribute:	EIATTR_MIN_STACK_SIZE
	Format:	EIFMT_SVAL
	Value:	function: _ZN3cub17CUB_200400_750_NS30DeviceRadixSortHistogramKernelINS0_21DeviceRadixSortPolicyIiljE9Policy900ELb0EijNS0_6detail21identity_decomposer_tEEEvPT2_PKT1_S7_iiT3_(0xb1)	min stack size: 0x0
	<0x195>
	Attribute:	EIATTR_MIN_STACK_SIZE
	Format:	EIFMT_SVAL
	Value:	function: _ZN3cub17CUB_200400_750_NS30DeviceRadixSortDownsweepKernelINS0_21DeviceRadixSortPolicyIiljE9Policy900ELb1ELb0EiljNS0_6detail21identity_decomposer_tEEEvPKT2_PS7_PKT3_PSB_PT4_SF_iiNS0_13GridEvenShareISF_EET5_(0xb2)	min stack size: 0x0
	<0x196>
	Attribute:	EIATTR_MIN_STACK_SIZE
	Format:	EIFMT_SVAL
	Value:	function: _ZN3cub17CUB_200400_750_NS30DeviceRadixSortDownsweepKernelINS0_21DeviceRadixSortPolicyIiljE9Policy900ELb0ELb0EiljNS0_6detail21identity_decomposer_tEEEvPKT2_PS7_PKT3_PSB_PT4_SF_iiNS0_13GridEvenShareISF_EET5_(0xb3)	min stack size: 0x0
	<0x197>
	Attribute:	EIATTR_MIN_STACK_SIZE
	Format:	EIFMT_SVAL
	Value:	function: _ZN3cub17CUB_200400_750_NS23RadixSortScanBinsKernelINS0_21DeviceRadixSortPolicyIiljE9Policy900EjEEvPT0_i(0xb4)	min stack size: 0x0
	<0x198>
	Attribute:	EIATTR_MIN_STACK_SIZE
	Format:	EIFMT_SVAL
	Value:	function: _ZN3cub17CUB_200400_750_NS28DeviceRadixSortUpsweepKernelINS0_21DeviceRadixSortPolicyIiljE9Policy900ELb1ELb0EijNS0_6detail21identity_decomposer_tEEEvPKT2_PT3_SA_iiNS0_13GridEvenShareISA_EET4_(0xb5)	min stack size: 0x0
	<0x199>
	Attribute:	EIATTR_MIN_STACK_SIZE
	Format:	EIFMT_SVAL
	Value:	function: _ZN3cub17CUB_200400_750_NS28DeviceRadixSortUpsweepKernelINS0_21DeviceRadixSortPolicyIiljE9Policy900ELb0ELb0EijNS0_6detail21identity_decomposer_tEEEvPKT2_PT3_SA_iiNS0_13GridEvenShareISA_EET4_(0xb6)	min stack size: 0x0
	<0x200>
	Attribute:	EIATTR_MIN_STACK_SIZE
	Format:	EIFMT_SVAL
	Value:	function: _ZN3cub17CUB_200400_750_NS31DeviceRadixSortSingleTileKernelINS0_21DeviceRadixSortPolicyIiljE9Policy900ELb0EiljNS0_6detail21identity_decomposer_tEEEvPKT1_PS7_PKT2_PSB_T3_iiT4_(0xb7)	min stack size: 0x0
	<0x201>
	Attribute:	EIATTR_MIN_STACK_SIZE
	Format:	EIFMT_SVAL
	Value:	function: _ZN3cub17CUB_200400_750_NS29DeviceRadixSortOnesweepKernelINS0_21DeviceRadixSortPolicyIisjE9Policy900ELb0EisjiiNS0_6detail21identity_decomposer_tEEEvPT5_S8_PT3_PKS9_PT1_PKSD_PT2_PKSH_T4_iiT6_(0xb8)	min stack size: 0x0
	<0x202>
	Attribute:	EIATTR_MIN_STACK_SIZE
	Format:	EIFMT_SVAL
	Value:	function: _ZN3cub17CUB_200400_750_NS33DeviceRadixSortExclusiveSumKernelINS0_21DeviceRadixSortPolicyIisjE9Policy900EjEEvPT0_(0xb9)	min stack size: 0x0
	<0x203>
	Attribute:	EIATTR_MIN_STACK_SIZE
	Format:	EIFMT_SVAL
	Value:	function: _ZN3cub17CUB_200400_750_NS30DeviceRadixSortHistogramKernelINS0_21DeviceRadixSortPolicyIisjE9Policy900ELb0EijNS0_6detail21identity_decomposer_tEEEvPT2_PKT1_S7_iiT3_(0xba)	min stack size: 0x0
	<0x204>
	Attribute:	EIATTR_MIN_STACK_SIZE
	Format:	EIFMT_SVAL
	Value:	function: _ZN3cub17CUB_200400_750_NS30DeviceRadixSortDownsweepKernelINS0_21DeviceRadixSortPolicyIisjE9Policy900ELb1ELb0EisjNS0_6detail21identity_decomposer_tEEEvPKT2_PS7_PKT3_PSB_PT4_SF_iiNS0_13GridEvenShareISF_EET5_(0xbb)	min stack size: 0x0
	<0x205>
	Attribute:	EIATTR_MIN_STACK_SIZE
	Format:	EIFMT_SVAL
	Value:	function: _ZN3cub17CUB_200400_750_NS30DeviceRadixSortDownsweepKernelINS0_21DeviceRadixSortPolicyIisjE9Policy900ELb0ELb0EisjNS0_6detail21identity_decomposer_tEEEvPKT2_PS7_PKT3_PSB_PT4_SF_iiNS0_13GridEvenShareISF_EET5_(0xbc)	min stack size: 0x28
	<0x206>
	Attribute:	EIATTR_MIN_STACK_SIZE
	Format:	EIFMT_SVAL
	Value:	function: _ZN3cub17CUB_200400_750_NS23RadixSortScanBinsKernelINS0_21DeviceRadixSortPolicyIisjE9Policy900EjEEvPT0_i(0xbd)	min stack size: 0x0
	<0x207>
	Attribute:	EIATTR_MIN_STACK_SIZE
	Format:	EIFMT_SVAL
	Value:	function: _ZN3cub17CUB_200400_750_NS28DeviceRadixSortUpsweepKernelINS0_21DeviceRadixSortPolicyIisjE9Policy900ELb1ELb0EijNS0_6detail21identity_decomposer_tEEEvPKT2_PT3_SA_iiNS0_13GridEvenShareISA_EET4_(0xbe)	min stack size: 0x0
	<0x208>
	Attribute:	EIATTR_MIN_STACK_SIZE
	Format:	EIFMT_SVAL
	Value:	function: _ZN3cub17CUB_200400_750_NS28DeviceRadixSortUpsweepKernelINS0_21DeviceRadixSortPolicyIisjE9Policy900ELb0ELb0EijNS0_6detail21identity_decomposer_tEEEvPKT2_PT3_SA_iiNS0_13GridEvenShareISA_EET4_(0xbf)	min stack size: 0x0
	<0x209>
	Attribute:	EIATTR_MIN_STACK_SIZE
	Format:	EIFMT_SVAL
	Value:	function: _ZN3cub17CUB_200400_750_NS31DeviceRadixSortSingleTileKernelINS0_21DeviceRadixSortPolicyIisjE9Policy900ELb0EisjNS0_6detail21identity_decomposer_tEEEvPKT1_PS7_PKT2_PSB_T3_iiT4_(0xc0)	min stack size: 0x0
	<0x210>
	Attribute:	EIATTR_MIN_STACK_SIZE
	Format:	EIFMT_SVAL
	Value:	function: _ZN3cub17CUB_200400_750_NS29DeviceRadixSortOnesweepKernelINS0_21DeviceRadixSortPolicyIiijE9Policy900ELb0EiijiiNS0_6detail21identity_decomposer_tEEEvPT5_S8_PT3_PKS9_PT1_PKSD_PT2_PKSH_T4_iiT6_(0xc1)	min stack size: 0x0
	<0x211>
	Attribute:	EIATTR_MIN_STACK_SIZE
	Format:	EIFMT_SVAL
	Value:	function: _ZN3cub17CUB_200400_750_NS33DeviceRadixSortExclusiveSumKernelINS0_21DeviceRadixSortPolicyIiijE9Policy900EjEEvPT0_(0xc2)	min stack size: 0x0
	<0x212>
	Attribute:	EIATTR_MIN_STACK_SIZE
	Format:	EIFMT_SVAL
	Value:	function: _ZN3cub17CUB_200400_750_NS30DeviceRadixSortHistogramKernelINS0_21DeviceRadixSortPolicyIiijE9Policy900ELb0EijNS0_6detail21identity_decomposer_tEEEvPT2_PKT1_S7_iiT3_(0xc3)	min stack size: 0x0
	<0x213>
	Attribute:	EIATTR_MIN_STACK_SIZE
	Format:	EIFMT_SVAL
	Value:	function: _ZN3cub17CUB_200400_750_NS30DeviceRadixSortDownsweepKernelINS0_21DeviceRadixSortPolicyIiijE9Policy900ELb1ELb0EiijNS0_6detail21identity_decomposer_tEEEvPKT2_PS7_PKT3_PSB_PT4_SF_iiNS0_13GridEvenShareISF_EET5_(0xc4)	min stack size: 0x0
	<0x214>
	Attribute:	EIATTR_MIN_STACK_SIZE
	Format:	EIFMT_SVAL
	Value:	function: _ZN3cub17CUB_200400_750_NS30DeviceRadixSortDownsweepKernelINS0_21DeviceRadixSortPolicyIiijE9Policy900ELb0ELb0EiijNS0_6detail21identity_decomposer_tEEEvPKT2_PS7_PKT3_PSB_PT4_SF_iiNS0_13GridEvenShareISF_EET5_(0xc5)	min stack size: 0x28
	<0x215>
	Attribute:	EIATTR_MIN_STACK_SIZE
	Format:	EIFMT_SVAL
	Value:	function: _ZN3cub17CUB_200400_750_NS23RadixSortScanBinsKernelINS0_21DeviceRadixSortPolicyIiijE9Policy900EjEEvPT0_i(0xc6)	min stack size: 0x0
	<0x216>
	Attribute:	EIATTR_MIN_STACK_SIZE
	Format:	EIFMT_SVAL
	Value:	function: _ZN3cub17CUB_200400_750_NS28DeviceRadixSortUpsweepKernelINS0_21DeviceRadixSortPolicyIiijE9Policy900ELb1ELb0EijNS0_6detail21identity_decomposer_tEEEvPKT2_PT3_SA_iiNS0_13GridEvenShareISA_EET4_(0xc7)	min stack size: 0x0
	<0x217>
	Attribute:	EIATTR_MIN_STACK_SIZE
	Format:	EIFMT_SVAL
	Value:	function: _ZN3cub17CUB_200400_750_NS28DeviceRadixSortUpsweepKernelINS0_21DeviceRadixSortPolicyIiijE9Policy900ELb0ELb0EijNS0_6detail21identity_decomposer_tEEEvPKT2_PT3_SA_iiNS0_13GridEvenShareISA_EET4_(0xc8)	min stack size: 0x0
	<0x218>
	Attribute:	EIATTR_MIN_STACK_SIZE
	Format:	EIFMT_SVAL
	Value:	function: _ZN3cub17CUB_200400_750_NS31DeviceRadixSortSingleTileKernelINS0_21DeviceRadixSortPolicyIiijE9Policy900ELb0EiijNS0_6detail21identity_decomposer_tEEEvPKT1_PS7_PKT2_PSB_T3_iiT4_(0xc9)	min stack size: 0x0
	<0x219>
	Attribute:	EIATTR_MIN_STACK_SIZE
	Format:	EIFMT_SVAL
	Value:	function: _ZN3cub17CUB_200400_750_NS29DeviceRadixSortOnesweepKernelINS0_21DeviceRadixSortPolicyIihjE9Policy900ELb0EihjiiNS0_6detail21identity_decomposer_tEEEvPT5_S8_PT3_PKS9_PT1_PKSD_PT2_PKSH_T4_iiT6_(0xca)	min stack size: 0x0
	<0x220>
	Attribute:	EIATTR_MIN_STACK_SIZE
	Format:	EIFMT_SVAL
	Value:	function: _ZN3cub17CUB_200400_750_NS33DeviceRadixSortExclusiveSumKernelINS0_21DeviceRadixSortPolicyIihjE9Policy900EjEEvPT0_(0xcb)	min stack size: 0x0
	<0x221>
	Attribute:	EIATTR_MIN_STACK_SIZE
	Format:	EIFMT_SVAL
	Value:	function: _ZN3cub17CUB_200400_750_NS30DeviceRadixSortHistogramKernelINS0_21DeviceRadixSortPolicyIihjE9Policy900ELb0EijNS0_6detail21identity_decomposer_tEEEvPT2_PKT1_S7_iiT3_(0xcc)	min stack size: 0x0
	<0x222>
	Attribute:	EIATTR_MIN_STACK_SIZE
	Format:	EIFMT_SVAL
	Value:	function: _ZN3cub17CUB_200400_750_NS30DeviceRadixSortDownsweepKernelINS0_21DeviceRadixSortPolicyIihjE9Policy900ELb1ELb0EihjNS0_6detail21identity_decomposer_tEEEvPKT2_PS7_PKT3_PSB_PT4_SF_iiNS0_13GridEvenShareISF_EET5_(0xcd)	min stack size: 0x0
	<0x223>
	Attribute:	EIATTR_MIN_STACK_SIZE
	Format:	EIFMT_SVAL
	Value:	function: _ZN3cub17CUB_200400_750_NS30DeviceRadixSortDownsweepKernelINS0_21DeviceRadixSortPolicyIihjE9Policy900ELb0ELb0EihjNS0_6detail21identity_decomposer_tEEEvPKT2_PS7_PKT3_PSB_PT4_SF_iiNS0_13GridEvenShareISF_EET5_(0xce)	min stack size: 0x28
	<0x224>
	Attribute:	EIATTR_MIN_STACK_SIZE
	Format:	EIFMT_SVAL
	Value:	function: _ZN3cub17CUB_200400_750_NS23RadixSortScanBinsKernelINS0_21DeviceRadixSortPolicyIihjE9Policy900EjEEvPT0_i(0xcf)	min stack size: 0x0
	<0x225>
	Attribute:	EIATTR_MIN_STACK_SIZE
	Format:	EIFMT_SVAL
	Value:	function: _ZN3cub17CUB_200400_750_NS28DeviceRadixSortUpsweepKernelINS0_21DeviceRadixSortPolicyIihjE9Policy900ELb1ELb0EijNS0_6detail21identity_decomposer_tEEEvPKT2_PT3_SA_iiNS0_13GridEvenShareISA_EET4_(0xd0)	min stack size: 0x0
	<0x226>
	Attribute:	EIATTR_MIN_STACK_SIZE
	Format:	EIFMT_SVAL
	Value:	function: _ZN3cub17CUB_200400_750_NS28DeviceRadixSortUpsweepKernelINS0_21DeviceRadixSortPolicyIihjE9Policy900ELb0ELb0EijNS0_6detail21identity_decomposer_tEEEvPKT2_PT3_SA_iiNS0_13GridEvenShareISA_EET4_(0xd1)	min stack size: 0x0
	<0x227>
	Attribute:	EIATTR_MIN_STACK_SIZE
	Format:	EIFMT_SVAL
	Value:	function: _ZN3cub17CUB_200400_750_NS31DeviceRadixSortSingleTileKernelINS0_21DeviceRadixSortPolicyIihjE9Policy900ELb0EihjNS0_6detail21identity_decomposer_tEEEvPKT1_PS7_PKT2_PSB_T3_iiT4_(0xd2)	min stack size: 0x0
	<0x228>
	Attribute:	EIATTR_MIN_STACK_SIZE
	Format:	EIFMT_SVAL
	Value:	function: _ZN3cub17CUB_200400_750_NS11EmptyKernelIvEEvv(0xd3)	min stack size: 0x0


.nv.info._ZN3cub17CUB_200400_750_NS29DeviceRadixSortOnesweepKernelINS0_21DeviceRadixSortPolicyIiljE9Policy900ELb0EiljiiNS0_6detail21identity_decomposer_tEEEvPT5_S8_PT3_PKS9_PT1_PKSD_PT2_PKSH_T4_iiT6_
	<0x1>
	Attribute:	EIATTR_SW_WAR
	Format:	EIFMT_SVAL
	Value:	0x1 
	<0x2>
	Attribute:	EIATTR_CUDA_API_VERSION
	Format:	EIFMT_SVAL
	Value:	0x7d 
	<0x3>
	Attribute:	EIATTR_PARAM_CBANK
	Format:	EIFMT_SVAL
	Value:	0x1a 0x4d0160 
	<0x4>
	Attribute:	EIATTR_CBANK_PARAM_SIZE
	Format:	EIFMT_HVAL
	Value:	0x4d
	<0x5>
	Attribute:	EIATTR_KPARAM_INFO
	Format:	EIFMT_SVAL
	Value:	Index : 0x0	Ordinal : 0xb	Offset  : 0x4c	Size    : 0x1
		Pointee's logAlignment : 0x0	Space : 0x0	cbank : 0x1f	Parameter Space : CBANK	
	<0x6>
	Attribute:	EIATTR_KPARAM_INFO
	Format:	EIFMT_SVAL
	Value:	Index : 0x0	Ordinal : 0xa	Offset  : 0x48	Size    : 0x4
		Pointee's logAlignment : 0x0	Space : 0x0	cbank : 0x1f	Parameter Space : CBANK	
	<0x7>
	Attribute:	EIATTR_KPARAM_INFO
	Format:	EIFMT_SVAL
	Value:	Index : 0x0	Ordinal : 0x9	Offset  : 0x44	Size    : 0x4
		Pointee's logAlignment : 0x0	Space : 0x0	cbank : 0x1f	Parameter Space : CBANK	
	<0x8>
	Attribute:	EIATTR_KPARAM_INFO
	Format:	EIFMT_SVAL
	Value:	Index : 0x0	Ordinal : 0x8	Offset  : 0x40	Size    : 0x4
		Pointee's logAlignment : 0x0	Space : 0x0	cbank : 0x1f	Parameter Space : CBANK	
	<0x9>
	Attribute:	EIATTR_KPARAM_INFO
	Format:	EIFMT_SVAL
	Value:	Index : 0x0	Ordinal : 0x7	Offset  : 0x38	Size    : 0x8
		Pointee's logAlignment : 0x0	Space : 0x0	cbank : 0x1f	Parameter Space : CBANK	
	<0x10>
	Attribute:	EIATTR_KPARAM_INFO
	Format:	EIFMT_SVAL
	Value:	Index : 0x0	Ordinal : 0x6	Offset  : 0x30	Size    : 0x8
		Pointee's logAlignment : 0x0	Space : 0x0	cbank : 0x1f	Parameter Space : CBANK	
	<0x11>
	Attribute:	EIATTR_KPARAM_INFO
	Format:	EIFMT_SVAL
	Value:	Index : 0x0	Ordinal : 0x5	Offset  : 0x28	Size    : 0x8
		Pointee's logAlignment : 0x0	Space : 0x0	cbank : 0x1f	Parameter Space : CBANK	
	<0x12>
	Attribute:	EIATTR_KPARAM_INFO
	Format:	EIFMT_SVAL
	Value:	Index : 0x0	Ordinal : 0x4	Offset  : 0x20	Size    : 0x8
		Pointee's logAlignment : 0x0	Space : 0x0	cbank : 0x1f	Parameter Space : CBANK	
	<0x13>
	Attribute:	EIATTR_KPARAM_INFO
	Format:	EIFMT_SVAL
	Value:	Index : 0x0	Ordinal : 0x3	Offset  : 0x18	Size    : 0x8
		Pointee's logAlignment : 0x0	Space : 0x0	cbank : 0x1f	Parameter Space : CBANK	
	<0x14>
	Attribute:	EIATTR_KPARAM_INFO
	Format:	EIFMT_SVAL
	Value:	Index : 0x0	Ordinal : 0x2	Offset  : 0x10	Size    : 0x8
		Pointee's logAlignment : 0x0	Space : 0x0	cbank : 0x1f	Parameter Space : CBANK	
	<0x15>
	Attribute:	EIATTR_KPARAM_INFO
	Format:	EIFMT_SVAL
	Value:	Index : 0x0	Ordinal : 0x1	Offset  : 0x8	Size    : 0x8
		Pointee's logAlignment : 0x0	Space : 0x0	cbank : 0x1f	Parameter Space : CBANK	
	<0x16>
	Attribute:	EIATTR_KPARAM_INFO
	Format:	EIFMT_SVAL
	Value:	Index : 0x0	Ordinal : 0x0	Offset  : 0x0	Size    : 0x8
		Pointee's logAlignment : 0x0	Space : 0x0	cbank : 0x1f	Parameter Space : CBANK	
	<0x17>
	Attribute:	EIATTR_MAXREG_COUNT
	Format:	EIFMT_HVAL
	Value:	0xff
	<0x18>
	Attribute:	EIATTR_UNUSED_LOAD_BYTE_OFFSET
	Format:	EIFMT_SVAL
	Value:	0x1fe0 0xfff 
	<0x19>
	Attribute:	EIATTR_INT_WARP_WIDE_INSTR_OFFSETS
	Format:	EIFMT_SVAL
	Value:	0x1220 0x1240 0x1340 0x1360 0x44e0 0x4500 0x4600 0x4620 
	<0x20>
	Attribute:	EIATTR_COOP_GROUP_MASK_REGIDS
	Format:	EIFMT_SVAL
	Value:	0xffffffff 0xffffffff 0x500000a 0xffffffff 0xffffffff 0xffffffff 0xffffffff 0xffffffff 0xffffffff 0xffffffff 0xffffffff 0xffffffff 0xffffffff 0xffffffff 0xffffffff 0xffffffff 0xffffffff 0xffffffff 0xffffffff 0xffffffff 0xffffffff 0xffffffff 0xffffffff 0xffffffff 0xffffffff 0xffffffff 0xffffffff 0xffffffff 0xffffffff 0xffffffff 0xffffffff 0xffffffff 0xffffffff 0xffffffff 0xffffffff 0xffffffff 0xffffffff 0xffffffff 0xffffffff 0xffffffff 0xffffffff 0xffffffff 0xffffffff 0xffffffff 0xffffffff 0xffffffff 0xffffffff 0xffffffff 0xffffffff 0xffffffff 0xffffffff 0xffffffff 0xffffffff 0xffffffff 0xffffffff 0xffffffff 0xffffffff 0xffffffff 0xffffffff 0xffffffff 0xffffffff 0xffffffff 0xffffffff 0xffffffff 0xffffffff 0xffffffff 0xffffffff 0xffffffff 0xffffffff 0xffffffff 0xffffffff 0xffffffff 0xffffffff 0xffffffff 0xffffffff 0xffffffff 0xffffffff 0xffffffff 0xffffffff 0xffffffff 0xffffffff 0xffffffff 0xffffffff 0xffffffff 0xffffffff 0xffffffff 0xffffffff 0xffffffff 0xffffffff 0xffffffff 0xffffffff 0xffffffff 0xffffffff 0xffffffff 0xffffffff 0xffffffff 0xffffffff 0xffffffff 0xffffffff 0xffffffff 0xffffffff 0xffffffff 0xffffffff 0xffffffff 0xffffffff 0xffffffff 0xffffffff 0x500000a 0xffffffff 0xffffffff 0xffffffff 0xffffffff 0xffffffff 0xffffffff 0xffffffff 0xffffffff 0xffffffff 0xffffffff 0xffffffff 0xffffffff 0xffffffff 0xffffffff 0xffffffff 0xffffffff 0xffffffff 0xffffffff 0xffffffff 0xffffffff 0xffffffff 0xffffffff 0xffffffff 0xffffffff 0xffffffff 0xffffffff 0xffffffff 0xffffffff 0xffffffff 0xffffffff 0xffffffff 0xffffffff 0xffffffff 0xffffffff 0xffffffff 0xffffffff 0xffffffff 0xffffffff 0xffffffff 0xffffffff 0xffffffff 0xffffffff 0xffffffff 0xffffffff 0xffffffff 0xffffffff 0xffffffff 0xffffffff 0xffffffff 0xffffffff 0xffffffff 0xffffffff 0xffffffff 0xffffffff 0xffffffff 0xffffffff 0xffffffff 0xffffffff 0xffffffff 
	<0x21>
	Attribute:	EIATTR_COOP_GROUP_INSTR_OFFSETS
	Format:	EIFMT_SVAL
	Value:	0x830 0xc60 0x12d0 0x1e90 0x1eb0 0x1ed0 0x1ef0 0x1f10 0x2340 0x2370 0x2380 0x23a0 0x23d0 0x2420 0x2440 0x2480 0x2610 0x2620 0x2630 0x2680 0x26a0 0x26f0 0x2710 0x2730 0x27d0 0x2890 0x28a0 0x28b0 0x28c0 0x2910 0x2930 0x2980 0x29a0 0x29c0 0x2b20 0x2b60 0x2b70 0x2ba0 0x2bd0 0x2c00 0x2c30 0x2c70 0x2c80 0x2df0 0x2e20 0x2e30 0x2e40 0x2e90 0x2eb0 0x2f00 0x2f20 0x2f40 0x30d0 0x30e0 0x3110 0x3140 0x3170 0x31a0 0x31e0 0x31f0 0x3260 0x33a0 0x33e0 0x33f0 0x3400 0x3450 0x3470 0x34d0 0x34f0 0x3510 0x36d0 0x3700 0x3710 0x3720 0x3770 0x3790 0x37e0 0x3800 0x3820 0x39b0 0x39c0 0x39d0 0x3a20 0x3a40 0x3a90 0x3ab0 0x3af0 0x3b10 0x3c90 0x3cd0 0x3ce0 0x3cf0 0x3d40 0x3d60 0x3db0 0x3dd0 0x3e20 0x3f60 0x3fa0 0x3fb0 0x3fc0 0x4010 0x4030 0x4080 0x40a0 0x40c0 0x4240 0x4590 0x4930 0x4a30 0x4b50 0x4c90 0x4e60 0x4f70 0x5080 0x5190 0x52a0 0x53b0 0x54b0 0x5580 0x5610 0x56a0 0x5730 0x57c0 0x5850 0x58e0 0x5970 0x5a00 0x5a90 0x5b20 0x63d0 0x6450 0x64c0 0x6550 0x65e0 0x6670 0x6700 0x6790 0x6820 0x68b0 0x6930 0x69b0 0x6a10 0x6a70 0x6ad0 0x6b30 0x6b90 0x6bf0 0x6c50 0x6cb0 0x6d10 0x6d70 0x6dc0 0x6e40 0x6ec0 0x6f40 0x6fc0 0x7040 0x70a0 0x7110 0x7190 0x7210 0x7290 0x7310 0x7390 0x7410 0x7470 
	<0x22>
	Attribute:	EIATTR_EXIT_INSTR_OFFSETS
	Format:	EIFMT_SVAL
	Value:	0x1d90 0x1db0 0x1e70 0x6940 0x6d80 
	<0x23>
	Attribute:	EIATTR_MAX_THREADS
	Format:	EIFMT_SVAL
	Value:	0x100 0x1 0x1 
	<0x24>
	Attribute:	EIATTR_CRS_STACK_SIZE
	Format:	EIFMT_SVAL
	Value:	0x0 


.nv.info._ZN3cub17CUB_200400_750_NS33DeviceRadixSortExclusiveSumKernelINS0_21DeviceRadixSortPolicyIiljE9Policy900EjEEvPT0_
	<0x1>
	Attribute:	EIATTR_SW_WAR
	Format:	EIFMT_SVAL
	Value:	0x1 
	<0x2>
	Attribute:	EIATTR_CUDA_API_VERSION
	Format:	EIFMT_SVAL
	Value:	0x7d 
	<0x3>
	Attribute:	EIATTR_PARAM_CBANK
	Format:	EIFMT_SVAL
	Value:	0x1e 0x80160 
	<0x4>
	Attribute:	EIATTR_CBANK_PARAM_SIZE
	Format:	EIFMT_HVAL
	Value:	0x8
	<0x5>
	Attribute:	EIATTR_KPARAM_INFO
	Format:	EIFMT_SVAL
	Value:	Index : 0x0	Ordinal : 0x0	Offset  : 0x0	Size    : 0x8
		Pointee's logAlignment : 0x0	Space : 0x0	cbank : 0x1f	Parameter Space : CBANK	
	<0x6>
	Attribute:	EIATTR_MAXREG_COUNT
	Format:	EIFMT_HVAL
	Value:	0xff
	<0x7>
	Attribute:	EIATTR_COOP_GROUP_MASK_REGIDS
	Format:	EIFMT_SVAL
	Value:	0xffffffff 0xffffffff 0xffffffff 0xffffffff 0xffffffff 0xffffffff 0xffffffff 0xffffffff 0xffffffff 0xffffffff 
	<0x8>
	Attribute:	EIATTR_COOP_GROUP_INSTR_OFFSETS
	Format:	EIFMT_SVAL
	Value:	0x1f0 0x210 0x230 0x250 0x270 0x4b0 0x530 0x5b0 0x630 0x6b0 
	<0x9>
	Attribute:	EIATTR_EXIT_INSTR_OFFSETS
	Format:	EIFMT_SVAL
	Value:	0x420 0x450 
	<0x10>
	Attribute:	EIATTR_CRS_STACK_SIZE
	Format:	EIFMT_SVAL
	Value:	0x0 


.nv.info._ZN3cub17CUB_200400_750_NS30DeviceRadixSortHistogramKernelINS0_21DeviceRadixSortPolicyIiljE9Policy900ELb0EijNS0_6detail21identity_decomposer_tEEEvPT2_PKT1_S7_iiT3_
	<0x1>
	Attribute:	EIATTR_SW_WAR
	Format:	EIFMT_SVAL
	Value:	0x1 
	<0x2>
	Attribute:	EIATTR_CUDA_API_VERSION
	Format:	EIFMT_SVAL
	Value:	0x7d 
	<0x3>
	Attribute:	EIATTR_PARAM_CBANK
	Format:	EIFMT_SVAL
	Value:	0x21 0x1d0160 
	<0x4>
	Attribute:	EIATTR_CBANK_PARAM_SIZE
	Format:	EIFMT_HVAL
	Value:	0x1d
	<0x5>
	Attribute:	EIATTR_KPARAM_INFO
	Format:	EIFMT_SVAL
	Value:	Index : 0x0	Ordinal : 0x5	Offset  : 0x1c	Size    : 0x1
		Pointee's logAlignment : 0x0	Space : 0x0	cbank : 0x1f	Parameter Space : CBANK	
	<0x6>
	Attribute:	EIATTR_KPARAM_INFO
	Format:	EIFMT_SVAL
	Value:	Index : 0x0	Ordinal : 0x4	Offset  : 0x18	Size    : 0x4
		Pointee's logAlignment : 0x0	Space : 0x0	cbank : 0x1f	Parameter Space : CBANK	
	<0x7>
	Attribute:	EIATTR_KPARAM_INFO
	Format:	EIFMT_SVAL
	Value:	Index : 0x0	Ordinal : 0x3	Offset  : 0x14	Size    : 0x4
		Pointee's logAlignment : 0x0	Space : 0x0	cbank : 0x1f	Parameter Space : CBANK	
	<0x8>
	Attribute:	EIATTR_KPARAM_INFO
	Format:	EIFMT_SVAL
	Value:	Index : 0x0	Ordinal : 0x2	Offset  : 0x10	Size    : 0x4
		Pointee's logAlignment : 0x0	Space : 0x0	cbank : 0x1f	Parameter Space : CBANK	
	<0x9>
	Attribute:	EIATTR_KPARAM_INFO
	Format:	EIFMT_SVAL
	Value:	Index : 0x0	Ordinal : 0x1	Offset  : 0x8	Size    : 0x8
		Pointee's logAlignment : 0x0	Space : 0x0	cbank : 0x1f	Parameter Space : CBANK	
	<0x10>
	Attribute:	EIATTR_KPARAM_INFO
	Format:	EIFMT_SVAL
	Value:	Index : 0x0	Ordinal : 0x0	Offset  : 0x0	Size    : 0x8
		Pointee's logAlignment : 0x0	Space : 0x0	cbank : 0x1f	Parameter Space : CBANK	
	<0x11>
	Attribute:	EIATTR_MAXREG_COUNT
	Format:	EIFMT_HVAL
	Value:	0xff
	<0x12>
	Attribute:	EIATTR_INT_WARP_WIDE_INSTR_OFFSETS
	Format:	EIFMT_SVAL
	Value:	0x23a0 0x23c0 0x2770 0x2790 
	<0x13>
	Attribute:	EIATTR_EXIT_INSTR_OFFSETS
	Format:	EIFMT_SVAL
	Value:	0x70 0x2810 
	<0x14>
	Attribute:	EIATTR_MAX_THREADS
	Format:	EIFMT_SVAL
	Value:	0x100 0x1 0x1 
	<0x15>
	Attribute:	EIATTR_CRS_STACK_SIZE
	Format:	EIFMT_SVAL
	Value:	0x0 


.nv.info._ZN3cub17CUB_200400_750_NS30DeviceRadixSortDownsweepKernelINS0_21DeviceRadixSortPolicyIiljE9Policy900ELb1ELb0EiljNS0_6detail21identity_decomposer_tEEEvPKT2_PS7_PKT3_PSB_PT4_SF_iiNS0_13GridEvenShareISF_EET5_
	<0x1>
	Attribute:	EIATTR_SW_WAR
	Format:	EIFMT_SVAL
	Value:	0x1 
	<0x2>
	Attribute:	EIATTR_CUDA_API_VERSION
	Format:	EIFMT_SVAL
	Value:	0x7d 
	<0x3>
	Attribute:	EIATTR_PARAM_CBANK
	Format:	EIFMT_SVAL
	Value:	0x26 0x5d0160 
	<0x4>
	Attribute:	EIATTR_CBANK_PARAM_SIZE
	Format:	EIFMT_HVAL
	Value:	0x5d
	<0x5>
	Attribute:	EIATTR_KPARAM_INFO
	Format:	EIFMT_SVAL
	Value:	Index : 0x0	Ordinal : 0x9	Offset  : 0x5c	Size    : 0x1
		Pointee's logAlignment : 0x0	Space : 0x0	cbank : 0x1f	Parameter Space : CBANK	
	<0x6>
	Attribute:	EIATTR_KPARAM_INFO
	Format:	EIFMT_SVAL
	Value:	Index : 0x0	Ordinal : 0x8	Offset  : 0x34	Size    : 0x28
		Pointee's logAlignment : 0x0	Space : 0x0	cbank : 0x1f	Parameter Space : CBANK	
	<0x7>
	Attribute:	EIATTR_KPARAM_INFO
	Format:	EIFMT_SVAL
	Value:	Index : 0x0	Ordinal : 0x7	Offset  : 0x30	Size    : 0x4
		Pointee's logAlignment : 0x0	Space : 0x0	cbank : 0x1f	Parameter Space : CBANK	
	<0x8>
	Attribute:	EIATTR_KPARAM_INFO
	Format:	EIFMT_SVAL
	Value:	Index : 0x0	Ordinal : 0x6	Offset  : 0x2c	Size    : 0x4
		Pointee's logAlignment : 0x0	Space : 0x0	cbank : 0x1f	Parameter Space : CBANK	
	<0x9>
	Attribute:	EIATTR_KPARAM_INFO
	Format:	EIFMT_SVAL
	Value:	Index : 0x0	Ordinal : 0x5	Offset  : 0x28	Size    : 0x4
		Pointee's logAlignment : 0x0	Space : 0x0	cbank : 0x1f	Parameter Space : CBANK	
	<0x10>
	Attribute:	EIATTR_KPARAM_INFO
	Format:	EIFMT_SVAL
	Value:	Index : 0x0	Ordinal : 0x4	Offset  : 0x20	Size    : 0x8
		Pointee's logAlignment : 0x0	Space : 0x0	cbank : 0x1f	Parameter Space : CBANK	
	<0x11>
	Attribute:	EIATTR_KPARAM_INFO
	Format:	EIFMT_SVAL
	Value:	Index : 0x0	Ordinal : 0x3	Offset  : 0x18	Size    : 0x8
		Pointee's logAlignment : 0x0	Space : 0x0	cbank : 0x1f	Parameter Space : CBANK	
	<0x12>
	Attribute:	EIATTR_KPARAM_INFO
	Format:	EIFMT_SVAL
	Value:	Index : 0x0	Ordinal : 0x2	Offset  : 0x10	Size    : 0x8
		Pointee's logAlignment : 0x0	Space : 0x0	cbank : 0x1f	Parameter Space : CBANK	
	<0x13>
	Attribute:	EIATTR_KPARAM_INFO
	Format:	EIFMT_SVAL
	Value:	Index : 0x0	Ordinal : 0x1	Offset  : 0x8	Size    : 0x8
		Pointee's logAlignment : 0x0	Space : 0x0	cbank : 0x1f	Parameter Space : CBANK	
	<0x14>
	Attribute:	EIATTR_KPARAM_INFO
	Format:	EIFMT_SVAL
	Value:	Index : 0x0	Ordinal : 0x0	Offset  : 0x0	Size    : 0x8
		Pointee's logAlignment : 0x0	Space : 0x0	cbank : 0x1f	Parameter Space : CBANK	
	<0x15>
	Attribute:	EIATTR_MAXREG_COUNT
	Format:	EIFMT_HVAL
	Value:	0xff
	<0x16>
	Attribute:	EIATTR_COOP_GROUP_MASK_REGIDS
	Format:	EIFMT_SVAL
	Value:	0xffffffff 0xffffffff 0xffffffff 0xffffffff 0xffffffff 0xffffffff 0xffffffff 0xffffffff 0xffffffff 0xffffffff 0xffffffff 0xffffffff 0xffffffff 0xffffffff 0xffffffff 0xffffffff 0xffffffff 0xffffffff 0xffffffff 0xffffffff 0xffffffff 0xffffffff 0xffffffff 
	<0x17>
	Attribute:	EIATTR_COOP_GROUP_INSTR_OFFSETS
	Format:	EIFMT_SVAL
	Value:	0x3bf0 0x3c10 0x3c30 0x3c50 0x3c80 0x62e0 0x8450 0x8470 0x8490 0x84b0 0x84e0 0x9690 0xb610 0xb690 0xb710 0xb790 0xb810 0xb860 0xb8d0 0xb950 0xb9d0 0xba50 0xbad0 
	<0x18>
	Attribute:	EIATTR_EXIT_INSTR_OFFSETS
	Format:	EIFMT_SVAL
	Value:	0x1430 0x1e70 0x1e90 0x62b0 0xb550 0xb5b0 
	<0x19>
	Attribute:	EIATTR_MAX_THREADS
	Format:	EIFMT_SVAL
	Value:	0x100 0x1 0x1 
	<0x20>
	Attribute:	EIATTR_CRS_STACK_SIZE
	Format:	EIFMT_SVAL
	Value:	0x0 


.nv.info._ZN3cub17CUB_200400_750_NS30DeviceRadixSortDownsweepKernelINS0_21DeviceRadixSortPolicyIiljE9Policy900ELb0ELb0EiljNS0_6detail21identity_decomposer_tEEEvPKT2_PS7_PKT3_PSB_PT4_SF_iiNS0_13GridEvenShareISF_EET5_
	<0x1>
	Attribute:	EIATTR_SW_WAR
	Format:	EIFMT_SVAL
	Value:	0x1 
	<0x2>
	Attribute:	EIATTR_CUDA_API_VERSION
	Format:	EIFMT_SVAL
	Value:	0x7d 
	<0x3>
	Attribute:	EIATTR_PARAM_CBANK
	Format:	EIFMT_SVAL
	Value:	0x2b 0x5d0160 
	<0x4>
	Attribute:	EIATTR_CBANK_PARAM_SIZE
	Format:	EIFMT_HVAL
	Value:	0x5d
	<0x5>
	Attribute:	EIATTR_KPARAM_INFO
	Format:	EIFMT_SVAL
	Value:	Index : 0x0	Ordinal : 0x9	Offset  : 0x5c	Size    : 0x1
		Pointee's logAlignment : 0x0	Space : 0x0	cbank : 0x1f	Parameter Space : CBANK	
	<0x6>
	Attribute:	EIATTR_KPARAM_INFO
	Format:	EIFMT_SVAL
	Value:	Index : 0x0	Ordinal : 0x8	Offset  : 0x34	Size    : 0x28
		Pointee's logAlignment : 0x0	Space : 0x0	cbank : 0x1f	Parameter Space : CBANK	
	<0x7>
	Attribute:	EIATTR_KPARAM_INFO
	Format:	EIFMT_SVAL
	Value:	Index : 0x0	Ordinal : 0x7	Offset  : 0x30	Size    : 0x4
		Pointee's logAlignment : 0x0	Space : 0x0	cbank : 0x1f	Parameter Space : CBANK	
	<0x8>
	Attribute:	EIATTR_KPARAM_INFO
	Format:	EIFMT_SVAL
	Value:	Index : 0x0	Ordinal : 0x6	Offset  : 0x2c	Size    : 0x4
		Pointee's logAlignment : 0x0	Space : 0x0	cbank : 0x1f	Parameter Space : CBANK	
	<0x9>
	Attribute:	EIATTR_KPARAM_INFO
	Format:	EIFMT_SVAL
	Value:	Index : 0x0	Ordinal : 0x5	Offset  : 0x28	Size    : 0x4
		Pointee's logAlignment : 0x0	Space : 0x0	cbank : 0x1f	Parameter Space : CBANK	
	<0x10>
	Attribute:	EIATTR_KPARAM_INFO
	Format:	EIFMT_SVAL
	Value:	Index : 0x0	Ordinal : 0x4	Offset  : 0x20	Size    : 0x8
		Pointee's logAlignment : 0x0	Space : 0x0	cbank : 0x1f	Parameter Space : CBANK	
	<0x11>
	Attribute:	EIATTR_KPARAM_INFO
	Format:	EIFMT_SVAL
	Value:	Index : 0x0	Ordinal : 0x3	Offset  : 0x18	Size    : 0x8
		Pointee's logAlignment : 0x0	Space : 0x0	cbank : 0x1f	Parameter Space : CBANK	
	<0x12>
	Attribute:	EIATTR_KPARAM_INFO
	Format:	EIFMT_SVAL
	Value:	Index : 0x0	Ordinal : 0x2	Offset  : 0x10	Size    : 0x8
		Pointee's logAlignment : 0x0	Space : 0x0	cbank : 0x1f	Parameter Space : CBANK	
	<0x13>
	Attribute:	EIATTR_KPARAM_INFO
	Format:	EIFMT_SVAL
	Value:	Index : 0x0	Ordinal : 0x1	Offset  : 0x8	Size    : 0x8
		Pointee's logAlignment : 0x0	Space : 0x0	cbank : 0x1f	Parameter Space : CBANK	
	<0x14>
	Attribute:	EIATTR_KPARAM_INFO
	Format:	EIFMT_SVAL
	Value:	Index : 0x0	Ordinal : 0x0	Offset  : 0x0	Size    : 0x8
		Pointee's logAlignment : 0x0	Space : 0x0	cbank : 0x1f	Parameter Space : CBANK	
	<0x15>
	Attribute:	EIATTR_MAXREG_COUNT
	Format:	EIFMT_HVAL
	Value:	0x80
	<0x16>
	Attribute:	EIATTR_UNUSED_LOAD_BYTE_OFFSET
	Format:	EIFMT_SVAL
	Value:	0x3620 0xfff 0x6750 0xfff 
	<0x17>
	Attribute:	EIATTR_COOP_GROUP_MASK_REGIDS
	Format:	EIFMT_SVAL
	Value:	0xffffffff 0xffffffff 0xffffffff 0xffffffff 0xffffffff 0xffffffff 0xffffffff 0xffffffff 0xffffffff 0xffffffff 0xffffffff 0xffffffff 0xffffffff 0xffffffff 0xffffffff 0xffffffff 0xffffffff 0xffffffff 0xffffffff 0xffffffff 0xffffffff 0xffffffff 0xffffffff 0xffffffff 0xffffffff 0xffffffff 0xffffffff 0xffffffff 0xffffffff 0xffffffff 0xffffffff 0xffffffff 0xffffffff 0xffffffff 0xffffffff 0xffffffff 0xffffffff 0xffffffff 0xffffffff 0xffffffff 0xffffffff 0xffffffff 0xffffffff 0xffffffff 0xffffffff 0xffffffff 0xffffffff 0xffffffff 0xffffffff 0xffffffff 0xffffffff 0xffffffff 0xffffffff 0xffffffff 0xffffffff 0xffffffff 0xffffffff 0xffffffff 0xffffffff 0xffffffff 0xffffffff 0xffffffff 0xffffffff 0xffffffff 0xffffffff 0xffffffff 0xffffffff 0xffffffff 0xffffffff 0xffffffff 0xffffffff 0xffffffff 0xffffffff 0xffffffff 0xffffffff 0xffffffff 0xffffffff 0xffffffff 0xffffffff 0xffffffff 0xffffffff 0xffffffff 0xffffffff 0xffffffff 0xffffffff 0xffffffff 0xffffffff 0xffffffff 0xffffffff 0xffffffff 0xffffffff 0xffffffff 0xffffffff 0xffffffff 0xffffffff 0xffffffff 0xffffffff 0xffffffff 0xffffffff 0xffffffff 0xffffffff 0xffffffff 0xffffffff 0xffffffff 0xffffffff 0xffffffff 0xffffffff 0xffffffff 0xffffffff 0xffffffff 0xffffffff 0xffffffff 0xffffffff 0xffffffff 0xffffffff 0xffffffff 0xffffffff 0xffffffff 0xffffffff 0xffffffff 0xffffffff 0xffffffff 0xffffffff 0xffffffff 0xffffffff 0xffffffff 0xffffffff 0xffffffff 0xffffffff 0xffffffff 0xffffffff 0xffffffff 0xffffffff 0xffffffff 0xffffffff 0xffffffff 0xffffffff 0xffffffff 0xffffffff 0xffffffff 0xffffffff 0xffffffff 0xffffffff 0xffffffff 0xffffffff 0xffffffff 0xffffffff 0xffffffff 0xffffffff 0xffffffff 0xffffffff 0xffffffff 0xffffffff 0xffffffff 0xffffffff 0xffffffff 0xffffffff 0xffffffff 0xffffffff 0xffffffff 0xffffffff 0xffffffff 0xffffffff 0xffffffff 0xffffffff 0xffffffff 0xffffffff 0xffffffff 0xffffffff 0xffffffff 0xffffffff 0xffffffff 0xffffffff 0xffffffff 0xffffffff 0xffffffff 0xffffffff 0xffffffff 0xffffffff 0xffffffff 0xffffffff 0xffffffff 0xffffffff 0xffffffff 0xffffffff 0xffffffff 0xffffffff 0xffffffff 0xffffffff 0xffffffff 0xffffffff 0xffffffff 0xffffffff 0xffffffff 0xffffffff 0xffffffff 0xffffffff 0xffffffff 0xffffffff 0xffffffff 0xffffffff 0xffffffff 0xffffffff 0xffffffff 0xffffffff 0xffffffff 0xffffffff 0xffffffff 0xffffffff 0xffffffff 0xffffffff 0xffffffff 0xffffffff 0xffffffff 0xffffffff 0xffffffff 0xffffffff 0xffffffff 0xffffffff 0xffffffff 0xffffffff 0xffffffff 0xffffffff 0xffffffff 0xffffffff 
	<0x18>
	Attribute:	EIATTR_COOP_GROUP_INSTR_OFFSETS
	Format:	EIFMT_SVAL
	Value:	0x1bf0 0x1c20 0x1c30 0x1c80 0x1cc0 0x1ce0 0x1d20 0x1e50 0x1e60 0x1e70 0x1e80 0x1e90 0x1ea0 0x1eb0 0x1f90 0x1fa0 0x1fb0 0x1fc0 0x1fd0 0x1fe0 0x1ff0 0x2100 0x2110 0x2130 0x2140 0x2150 0x2160 0x2170 0x2260 0x2270 0x22a0 0x22b0 0x22c0 0x22e0 0x22f0 0x23c0 0x2400 0x2450 0x2460 0x2490 0x24a0 0x24b0 0x24d0 0x25d0 0x25e0 0x2600 0x2690 0x26a0 0x26d0 0x26e0 0x26f0 0x2710 0x2800 0x2810 0x2880 0x28b0 0x28c0 0x28f0 0x2900 0x2910 0x2930 0x2a30 0x2a40 0x2a80 0x2ad0 0x2ae0 0x2b10 0x2b20 0x2b30 0x2b50 0x2b60 0x2c30 0x2cd0 0x2ce0 0x2d40 0x2d70 0x2d80 0x2d90 0x2da0 0x2dc0 0x2e70 0x2eb0 0x2f20 0x2f70 0x3010 0x3050 0x3090 0x30c0 0x3120 0x3140 0x31a0 0x31c0 0x31f0 0x3260 0x3280 0x32e0 0x3300 0x3360 0x3380 0x3410 0x3430 0x3450 0x3470 0x34a0 0x4710 0x4c40 0x4c70 0x4c80 0x4cd0 0x4d10 0x4d30 0x4d70 0x4f50 0x4f90 0x4fe0 0x4ff0 0x5000 0x5010 0x5020 0x5030 0x5040 0x5120 0x5130 0x5140 0x5150 0x5160 0x5170 0x5180 0x5260 0x5270 0x5280 0x5290 0x52a0 0x52b0 0x52c0 0x53c0 0x53e0 0x5420 0x5430 0x5440 0x5460 0x5470 0x5550 0x5580 0x5600 0x5610 0x5640 0x5650 0x5660 0x5680 0x5730 0x5780 0x57b0 0x5870 0x5880 0x58c0 0x58d0 0x58e0 0x5900 0x5910 0x59e0 0x5a20 0x5a70 0x5a80 0x5a90 0x5aa0 0x5ab0 0x5ac0 0x5ad0 0x5be0 0x5bf0 0x5c20 0x5c30 0x5c40 0x5d40 0x5d90 0x5dc0 0x5dd0 0x5e90 0x5ea0 0x5ed0 0x5ee0 0x5ef0 0x5f10 0x5fb0 0x6000 0x6030 0x60b0 0x60f0 0x6100 0x6150 0x61b0 0x61e0 0x6260 0x6280 0x62e0 0x6300 0x6330 0x6380 0x63d0 0x6420 0x6440 0x64a0 0x64c0 0x6550 0x6570 0x6590 0x65b0 0x65d0 0x6b60 0x7e40 0x7eb0 0x7f30 0x7fb0 0x8030 0x80b0 0x8130 0x8160 0x81b0 0x8220 0x82a0 0x8320 0x83a0 0x8420 0x84a0 
	<0x19>
	Attribute:	EIATTR_EXIT_INSTR_OFFSETS
	Format:	EIFMT_SVAL
	Value:	0x1410 0x1840 0x1860 0x46f0 0x7da0 0x7e00 
	<0x20>
	Attribute:	EIATTR_MAX_THREADS
	Format:	EIFMT_SVAL
	Value:	0x200 0x1 0x1 
	<0x21>
	Attribute:	EIATTR_CRS_STACK_SIZE
	Format:	EIFMT_SVAL
	Value:	0x0 


.nv.info._ZN3cub17CUB_200400_750_NS23RadixSortScanBinsKernelINS0_21DeviceRadixSortPolicyIiljE9Policy900EjEEvPT0_i
	<0x1>
	Attribute:	EIATTR_SW_WAR
	Format:	EIFMT_SVAL
	Value:	0x1 
	<0x2>
	Attribute:	EIATTR_CUDA_API_VERSION
	Format:	EIFMT_SVAL
	Value:	0x7d 
	<0x3>
	Attribute:	EIATTR_PARAM_CBANK
	Format:	EIFMT_SVAL
	Value:	0x31 0xc0160 
	<0x4>
	Attribute:	EIATTR_CBANK_PARAM_SIZE
	Format:	EIFMT_HVAL
	Value:	0xc
	<0x5>
	Attribute:	EIATTR_KPARAM_INFO
	Format:	EIFMT_SVAL
	Value:	Index : 0x0	Ordinal : 0x1	Offset  : 0x8	Size    : 0x4
		Pointee's logAlignment : 0x0	Space : 0x0	cbank : 0x1f	Parameter Space : CBANK	
	<0x6>
	Attribute:	EIATTR_KPARAM_INFO
	Format:	EIFMT_SVAL
	Value:	Index : 0x0	Ordinal : 0x0	Offset  : 0x0	Size    : 0x8
		Pointee's logAlignment : 0x0	Space : 0x0	cbank : 0x1f	Parameter Space : CBANK	
	<0x7>
	Attribute:	EIATTR_MAXREG_COUNT
	Format:	EIFMT_HVAL
	Value:	0x80
	<0x8>
	Attribute:	EIATTR_COOP_GROUP_MASK_REGIDS
	Format:	EIFMT_SVAL
	Value:	0xffffffff 0xffffffff 0xffffffff 0xffffffff 0xffffffff 0xffffffff 0xffffffff 0xffffffff 0xffffffff 0xffffffff 0xffffffff 0xffffffff 0xffffffff 0xffffffff 0xffffffff 0xffffffff 0xffffffff 0xffffffff 0xffffffff 0xffffffff 0xffffffff 0xffffffff 0xffffffff 0xffffffff 0xffffffff 0xffffffff 0xffffffff 0xffffffff 0xffffffff 0xffffffff 0xffffffff 0xffffffff 0xffffffff 
	<0x9>
	Attribute:	EIATTR_COOP_GROUP_INSTR_OFFSETS
	Format:	EIFMT_SVAL
	Value:	0x470 0x890 0x8b0 0x8d0 0x8f0 0x910 0x930 0x950 0xeb0 0xec0 0x1a00 0x1e20 0x1e40 0x1e60 0x1e80 0x1eb0 0x1f30 0x1f60 0x2520 0x2550 0x2aa0 0x2b30 0x2bc0 0x2c50 0x2ce0 0x2d70 0x2df0 0x2e70 0x2ef0 0x2f70 0x2ff0 0x3070 0x30f0 
	<0x10>
	Attribute:	EIATTR_EXIT_INSTR_OFFSETS
	Format:	EIFMT_SVAL
	Value:	0x11f0 0x2a20 0x2a40 
	<0x11>
	Attribute:	EIATTR_MAX_THREADS
	Format:	EIFMT_SVAL
	Value:	0x200 0x1 0x1 
	<0x12>
	Attribute:	EIATTR_CRS_STACK_SIZE
	Format:	EIFMT_SVAL
	Value:	0x0 


.nv.info._ZN3cub17CUB_200400_750_NS28DeviceRadixSortUpsweepKernelINS0_21DeviceRadixSortPolicyIiljE9Policy900ELb1ELb0EijNS0_6detail21identity_decomposer_tEEEvPKT2_PT3_SA_iiNS0_13GridEvenShareISA_EET4_
	<0x1>
	Attribute:	EIATTR_SW_WAR
	Format:	EIFMT_SVAL
	Value:	0x1 
	<0x2>
	Attribute:	EIATTR_CUDA_API_VERSION
	Format:	EIFMT_SVAL
	Value:	0x7d 
	<0x3>
	Attribute:	EIATTR_PARAM_CBANK
	Format:	EIFMT_SVAL
	Value:	0x34 0x450160 
	<0x4>
	Attribute:	EIATTR_CBANK_PARAM_SIZE
	Format:	EIFMT_HVAL
	Value:	0x45
	<0x5>
	Attribute:	EIATTR_KPARAM_INFO
	Format:	EIFMT_SVAL
	Value:	Index : 0x0	Ordinal : 0x6	Offset  : 0x44	Size    : 0x1
		Pointee's logAlignment : 0x0	Space : 0x0	cbank : 0x1f	Parameter Space : CBANK	
	<0x6>
	Attribute:	EIATTR_KPARAM_INFO
	Format:	EIFMT_SVAL
	Value:	Index : 0x0	Ordinal : 0x5	Offset  : 0x1c	Size    : 0x28
		Pointee's logAlignment : 0x0	Space : 0x0	cbank : 0x1f	Parameter Space : CBANK	
	<0x7>
	Attribute:	EIATTR_KPARAM_INFO
	Format:	EIFMT_SVAL
	Value:	Index : 0x0	Ordinal : 0x4	Offset  : 0x18	Size    : 0x4
		Pointee's logAlignment : 0x0	Space : 0x0	cbank : 0x1f	Parameter Space : CBANK	
	<0x8>
	Attribute:	EIATTR_KPARAM_INFO
	Format:	EIFMT_SVAL
	Value:	Index : 0x0	Ordinal : 0x3	Offset  : 0x14	Size    : 0x4
		Pointee's logAlignment : 0x0	Space : 0x0	cbank : 0x1f	Parameter Space : CBANK	
	<0x9>
	Attribute:	EIATTR_KPARAM_INFO
	Format:	EIFMT_SVAL
	Value:	Index : 0x0	Ordinal : 0x2	Offset  : 0x10	Size    : 0x4
		Pointee's logAlignment : 0x0	Space : 0x0	cbank : 0x1f	Parameter Space : CBANK	
	<0x10>
	Attribute:	EIATTR_KPARAM_INFO
	Format:	EIFMT_SVAL
	Value:	Index : 0x0	Ordinal : 0x1	Offset  : 0x8	Size    : 0x8
		Pointee's logAlignment : 0x0	Space : 0x0	cbank : 0x1f	Parameter Space : CBANK	
	<0x11>
	Attribute:	EIATTR_KPARAM_INFO
	Format:	EIFMT_SVAL
	Value:	Index : 0x0	Ordinal : 0x0	Offset  : 0x0	Size    : 0x8
		Pointee's logAlignment : 0x0	Space : 0x0	cbank : 0x1f	Parameter Space : CBANK	
	<0x12>
	Attribute:	EIATTR_MAXREG_COUNT
	Format:	EIFMT_HVAL
	Value:	0xff
	<0x13>
	Attribute:	EIATTR_EXIT_INSTR_OFFSETS
	Format:	EIFMT_SVAL
	Value:	0x4690 0x49e0 
	<0x14>
	Attribute:	EIATTR_MAX_THREADS
	Format:	EIFMT_SVAL
	Value:	0x100 0x1 0x1 
	<0x15>
	Attribute:	EIATTR_CRS_STACK_SIZE
	Format:	EIFMT_SVAL
	Value:	0x0 


.nv.info._ZN3cub17CUB_200400_750_NS28DeviceRadixSortUpsweepKernelINS0_21DeviceRadixSortPolicyIiljE9Policy900ELb0ELb0EijNS0_6detail21identity_decomposer_tEEEvPKT2_PT3_SA_iiNS0_13GridEvenShareISA_EET4_
	<0x1>
	Attribute:	EIATTR_SW_WAR
	Format:	EIFMT_SVAL
	Value:	0x1 
	<0x2>
	Attribute:	EIATTR_CUDA_API_VERSION
	Format:	EIFMT_SVAL
	Value:	0x7d 
	<0x3>
	Attribute:	EIATTR_PARAM_CBANK
	Format:	EIFMT_SVAL
	Value:	0x37 0x450160 
	<0x4>
	Attribute:	EIATTR_CBANK_PARAM_SIZE
	Format:	EIFMT_HVAL
	Value:	0x45
	<0x5>
	Attribute:	EIATTR_KPARAM_INFO
	Format:	EIFMT_SVAL
	Value:	Index : 0x0	Ordinal : 0x6	Offset  : 0x44	Size    : 0x1
		Pointee's logAlignment : 0x0	Space : 0x0	cbank : 0x1f	Parameter Space : CBANK	
	<0x6>
	Attribute:	EIATTR_KPARAM_INFO
	Format:	EIFMT_SVAL
	Value:	Index : 0x0	Ordinal : 0x5	Offset  : 0x1c	Size    : 0x28
		Pointee's logAlignment : 0x0	Space : 0x0	cbank : 0x1f	Parameter Space : CBANK	
	<0x7>
	Attribute:	EIATTR_KPARAM_INFO
	Format:	EIFMT_SVAL
	Value:	Index : 0x0	Ordinal : 0x4	Offset  : 0x18	Size    : 0x4
		Pointee's logAlignment : 0x0	Space : 0x0	cbank : 0x1f	Parameter Space : CBANK	
	<0x8>
	Attribute:	EIATTR_KPARAM_INFO
	Format:	EIFMT_SVAL
	Value:	Index : 0x0	Ordinal : 0x3	Offset  : 0x14	Size    : 0x4
		Pointee's logAlignment : 0x0	Space : 0x0	cbank : 0x1f	Parameter Space : CBANK	
	<0x9>
	Attribute:	EIATTR_KPARAM_INFO
	Format:	EIFMT_SVAL
	Value:	Index : 0x0	Ordinal : 0x2	Offset  : 0x10	Size    : 0x4
		Pointee's logAlignment : 0x0	Space : 0x0	cbank : 0x1f	Parameter Space : CBANK	
	<0x10>
	Attribute:	EIATTR_KPARAM_INFO
	Format:	EIFMT_SVAL
	Value:	Index : 0x0	Ordinal : 0x1	Offset  : 0x8	Size    : 0x8
		Pointee's logAlignment : 0x0	Space : 0x0	cbank : 0x1f	Parameter Space : CBANK	
	<0x11>
	Attribute:	EIATTR_KPARAM_INFO
	Format:	EIFMT_SVAL
	Value:	Index : 0x0	Ordinal : 0x0	Offset  : 0x0	Size    : 0x8
		Pointee's logAlignment : 0x0	Space : 0x0	cbank : 0x1f	Parameter Space : CBANK	
	<0x12>
	Attribute:	EIATTR_MAXREG_COUNT
	Format:	EIFMT_HVAL
	Value:	0xff
	<0x13>
	Attribute:	EIATTR_EXIT_INSTR_OFFSETS
	Format:	EIFMT_SVAL
	Value:	0x4560 0x48b0 
	<0x14>
	Attribute:	EIATTR_MAX_THREADS
	Format:	EIFMT_SVAL
	Value:	0x100 0x1 0x1 
	<0x15>
	Attribute:	EIATTR_CRS_STACK_SIZE
	Format:	EIFMT_SVAL
	Value:	0x0 


.nv.info._ZN3cub17CUB_200400_750_NS31DeviceRadixSortSingleTileKernelINS0_21DeviceRadixSortPolicyIiljE9Policy900ELb0EiljNS0_6detail21identity_decomposer_tEEEvPKT1_PS7_PKT2_PSB_T3_iiT4_
	<0x1>
	Attribute:	EIATTR_SW_WAR
	Format:	EIFMT_SVAL
	Value:	0x1 
	<0x2>
	Attribute:	EIATTR_CUDA_API_VERSION
	Format:	EIFMT_SVAL
	Value:	0x7d 
	<0x3>
	Attribute:	EIATTR_PARAM_CBANK
	Format:	EIFMT_SVAL
	Value:	0x3a 0x2d0160 
	<0x4>
	Attribute:	EIATTR_CBANK_PARAM_SIZE
	Format:	EIFMT_HVAL
	Value:	0x2d
	<0x5>
	Attribute:	EIATTR_KPARAM_INFO
	Format:	EIFMT_SVAL
	Value:	Index : 0x0	Ordinal : 0x7	Offset  : 0x2c	Size    : 0x1
		Pointee's logAlignment : 0x0	Space : 0x0	cbank : 0x1f	Parameter Space : CBANK	
	<0x6>
	Attribute:	EIATTR_KPARAM_INFO
	Format:	EIFMT_SVAL
	Value:	Index : 0x0	Ordinal : 0x6	Offset  : 0x28	Size    : 0x4
		Pointee's logAlignment : 0x0	Space : 0x0	cbank : 0x1f	Parameter Space : CBANK	
	<0x7>
	Attribute:	EIATTR_KPARAM_INFO
	Format:	EIFMT_SVAL
	Value:	Index : 0x0	Ordinal : 0x5	Offset  : 0x24	Size    : 0x4
		Pointee's logAlignment : 0x0	Space : 0x0	cbank : 0x1f	Parameter Space : CBANK	
	<0x8>
	Attribute:	EIATTR_KPARAM_INFO
	Format:	EIFMT_SVAL
	Value:	Index : 0x0	Ordinal : 0x4	Offset  : 0x20	Size    : 0x4
		Pointee's logAlignment : 0x0	Space : 0x0	cbank : 0x1f	Parameter Space : CBANK	
	<0x9>
	Attribute:	EIATTR_KPARAM_INFO
	Format:	EIFMT_SVAL
	Value:	Index : 0x0	Ordinal : 0x3	Offset  : 0x18	Size    : 0x8
		Pointee's logAlignment : 0x0	Space : 0x0	cbank : 0x1f	Parameter Space : CBANK	
	<0x10>
	Attribute:	EIATTR_KPARAM_INFO
	Format:	EIFMT_SVAL
	Value:	Index : 0x0	Ordinal : 0x2	Offset  : 0x10	Size    : 0x8
		Pointee's logAlignment : 0x0	Space : 0x0	cbank : 0x1f	Parameter Space : CBANK	
	<0x11>
	Attribute:	EIATTR_KPARAM_INFO
	Format:	EIFMT_SVAL
	Value:	Index : 0x0	Ordinal : 0x1	Offset  : 0x8	Size    : 0x8
		Pointee's logAlignment : 0x0	Space : 0x0	cbank : 0x1f	Parameter Space : CBANK	
	<0x12>
	Attribute:	EIATTR_KPARAM_INFO
	Format:	EIFMT_SVAL
	Value:	Index : 0x0	Ordinal : 0x0	Offset  : 0x0	Size    : 0x8
		Pointee's logAlignment : 0x0	Space : 0x0	cbank : 0x1f	Parameter Space : CBANK	
	<0x13>
	Attribute:	EIATTR_MAXREG_COUNT
	Format:	EIFMT_HVAL
	Value:	0xff
	<0x14>
	Attribute:	EIATTR_COOP_GROUP_MASK_REGIDS
	Format:	EIFMT_SVAL
	Value:	0xffffffff 0xffffffff 0xffffffff 0xffffffff 0xffffffff 
	<0x15>
	Attribute:	EIATTR_COOP_GROUP_INSTR_OFFSETS
	Format:	EIFMT_SVAL
	Value:	0x10d0 0x10f0 0x1110 0x1130 0x1180 
	<0x16>
	Attribute:	EIATTR_EXIT_INSTR_OFFSETS
	Format:	EIFMT_SVAL
	Value:	0x2170 0x21c0 
	<0x17>
	Attribute:	EIATTR_MAX_THREADS
	Format:	EIFMT_SVAL
	Value:	0x100 0x1 0x1 
	<0x18>
	Attribute:	EIATTR_CRS_STACK_SIZE
	Format:	EIFMT_SVAL
	Value:	0x0 


.nv.info._ZN3cub17CUB_200400_750_NS29DeviceRadixSortOnesweepKernelINS0_21DeviceRadixSortPolicyIisjE9Policy900ELb0EisjiiNS0_6detail21identity_decomposer_tEEEvPT5_S8_PT3_PKS9_PT1_PKSD_PT2_PKSH_T4_iiT6_
	<0x1>
	Attribute:	EIATTR_SW_WAR
	Format:	EIFMT_SVAL
	Value:	0x1 
	<0x2>
	Attribute:	EIATTR_CUDA_API_VERSION
	Format:	EIFMT_SVAL
	Value:	0x7d 
	<0x3>
	Attribute:	EIATTR_PARAM_CBANK
	Format:	EIFMT_SVAL
	Value:	0x3f 0x4d0160 
	<0x4>
	Attribute:	EIATTR_CBANK_PARAM_SIZE
	Format:	EIFMT_HVAL
	Value:	0x4d
	<0x5>
	Attribute:	EIATTR_KPARAM_INFO
	Format:	EIFMT_SVAL
	Value:	Index : 0x0	Ordinal : 0xb	Offset  : 0x4c	Size    : 0x1
		Pointee's logAlignment : 0x0	Space : 0x0	cbank : 0x1f	Parameter Space : CBANK	
	<0x6>
	Attribute:	EIATTR_KPARAM_INFO
	Format:	EIFMT_SVAL
	Value:	Index : 0x0	Ordinal : 0xa	Offset  : 0x48	Size    : 0x4
		Pointee's logAlignment : 0x0	Space : 0x0	cbank : 0x1f	Parameter Space : CBANK	
	<0x7>
	Attribute:	EIATTR_KPARAM_INFO
	Format:	EIFMT_SVAL
	Value:	Index : 0x0	Ordinal : 0x9	Offset  : 0x44	Size    : 0x4
		Pointee's logAlignment : 0x0	Space : 0x0	cbank : 0x1f	Parameter Space : CBANK	
	<0x8>
	Attribute:	EIATTR_KPARAM_INFO
	Format:	EIFMT_SVAL
	Value:	Index : 0x0	Ordinal : 0x8	Offset  : 0x40	Size    : 0x4
		Pointee's logAlignment : 0x0	Space : 0x0	cbank : 0x1f	Parameter Space : CBANK	
	<0x9>
	Attribute:	EIATTR_KPARAM_INFO
	Format:	EIFMT_SVAL
	Value:	Index : 0x0	Ordinal : 0x7	Offset  : 0x38	Size    : 0x8
		Pointee's logAlignment : 0x0	Space : 0x0	cbank : 0x1f	Parameter Space : CBANK	
	<0x10>
	Attribute:	EIATTR_KPARAM_INFO
	Format:	EIFMT_SVAL
	Value:	Index : 0x0	Ordinal : 0x6	Offset  : 0x30	Size    : 0x8
		Pointee's logAlignment : 0x0	Space : 0x0	cbank : 0x1f	Parameter Space : CBANK	
	<0x11>
	Attribute:	EIATTR_KPARAM_INFO
	Format:	EIFMT_SVAL
	Value:	Index : 0x0	Ordinal : 0x5	Offset  : 0x28	Size    : 0x8
		Pointee's logAlignment : 0x0	Space : 0x0	cbank : 0x1f	Parameter Space : CBANK	
	<0x12>
	Attribute:	EIATTR_KPARAM_INFO
	Format:	EIFMT_SVAL
	Value:	Index : 0x0	Ordinal : 0x4	Offset  : 0x20	Size    : 0x8
		Pointee's logAlignment : 0x0	Space : 0x0	cbank : 0x1f	Parameter Space : CBANK	
	<0x13>
	Attribute:	EIATTR_KPARAM_INFO
	Format:	EIFMT_SVAL
	Value:	Index : 0x0	Ordinal : 0x3	Offset  : 0x18	Size    : 0x8
		Pointee's logAlignment : 0x0	Space : 0x0	cbank : 0x1f	Parameter Space : CBANK	
	<0x14>
	Attribute:	EIATTR_KPARAM_INFO
	Format:	EIFMT_SVAL
	Value:	Index : 0x0	Ordinal : 0x2	Offset  : 0x10	Size    : 0x8
		Pointee's logAlignment : 0x0	Space : 0x0	cbank : 0x1f	Parameter Space : CBANK	
	<0x15>
	Attribute:	EIATTR_KPARAM_INFO
	Format:	EIFMT_SVAL
	Value:	Index : 0x0	Ordinal : 0x1	Offset  : 0x8	Size    : 0x8
		Pointee's logAlignment : 0x0	Space : 0x0	cbank : 0x1f	Parameter Space : CBANK	
	<0x16>
	Attribute:	EIATTR_KPARAM_INFO
	Format:	EIFMT_SVAL
	Value:	Index : 0x0	Ordinal : 0x0	Offset  : 0x0	Size    : 0x8
		Pointee's logAlignment : 0x0	Space : 0x0	cbank : 0x1f	Parameter Space : CBANK	
	<0x17>
	Attribute:	EIATTR_MAXREG_COUNT
	Format:	EIFMT_HVAL
	Value:	0xff
	<0x18>
	Attribute:	EIATTR_UNUSED_LOAD_BYTE_OFFSET
	Format:	EIFMT_SVAL
	Value:	0x3150 0xfff 
	<0x19>
	Attribute:	EIATTR_INT_WARP_WIDE_INSTR_OFFSETS
	Format:	EIFMT_SVAL
	Value:	0x1a80 0x1aa0 0x1ba0 0x1bc0 0x78a0 0x78c0 0x79c0 0x79e0 
	<0x20>
	Attribute:	EIATTR_COOP_GROUP_MASK_REGIDS
	Format:	EIFMT_SVAL
	Value:	0xffffffff 0xffffffff 0x5000005 0xffffffff 0xffffffff 0xffffffff 0xffffffff 0xffffffff 0xffffffff 0xffffffff 0xffffffff 0xffffffff 0xffffffff 0xffffffff 0xffffffff 0xffffffff 0xffffffff 0xffffffff 0xffffffff 0xffffffff 0xffffffff 0xffffffff 0xffffffff 0xffffffff 0xffffffff 0xffffffff 0xffffffff 0xffffffff 0xffffffff 0xffffffff 0xffffffff 0xffffffff 0xffffffff 0xffffffff 0xffffffff 0xffffffff 0xffffffff 0xffffffff 0xffffffff 0xffffffff 0xffffffff 0xffffffff 0xffffffff 0xffffffff 0xffffffff 0xffffffff 0xffffffff 0xffffffff 0xffffffff 0xffffffff 0xffffffff 0xffffffff 0xffffffff 0xffffffff 0xffffffff 0xffffffff 0xffffffff 0xffffffff 0xffffffff 0xffffffff 0xffffffff 0xffffffff 0xffffffff 0xffffffff 0xffffffff 0xffffffff 0xffffffff 0xffffffff 0xffffffff 0xffffffff 0xffffffff 0xffffffff 0xffffffff 0xffffffff 0xffffffff 0xffffffff 0xffffffff 0xffffffff 0xffffffff 0xffffffff 0xffffffff 0xffffffff 0xffffffff 0xffffffff 0xffffffff 0xffffffff 0xffffffff 0xffffffff 0xffffffff 0xffffffff 0xffffffff 0xffffffff 0xffffffff 0xffffffff 0xffffffff 0xffffffff 0xffffffff 0xffffffff 0xffffffff 0xffffffff 0xffffffff 0xffffffff 0xffffffff 0xffffffff 0xffffffff 0xffffffff 0xffffffff 0xffffffff 0xffffffff 0xffffffff 0xffffffff 0xffffffff 0xffffffff 0xffffffff 0xffffffff 0xffffffff 0xffffffff 0xffffffff 0xffffffff 0xffffffff 0xffffffff 0xffffffff 0xffffffff 0xffffffff 0xffffffff 0xffffffff 0xffffffff 0xffffffff 0xffffffff 0xffffffff 0xffffffff 0xffffffff 0xffffffff 0xffffffff 0xffffffff 0xffffffff 0xffffffff 0xffffffff 0xffffffff 0xffffffff 0xffffffff 0xffffffff 0xffffffff 0xffffffff 0xffffffff 0xffffffff 0xffffffff 0xffffffff 0xffffffff 0xffffffff 0xffffffff 0xffffffff 0xffffffff 0xffffffff 0xffffffff 0xffffffff 0xffffffff 0xffffffff 0xffffffff 0xffffffff 0xffffffff 0xffffffff 0xffffffff 0xffffffff 0xffffffff 0xffffffff 0xffffffff 0xffffffff 0xffffffff 0xffffffff 0xffffffff 0xffffffff 0xffffffff 0xffffffff 0xffffffff 0xffffffff 0xffffffff 0xffffffff 0xffffffff 0xffffffff 0xffffffff 0xffffffff 0xffffffff 0xffffffff 0xffffffff 0xffffffff 0xffffffff 0xffffffff 0xffffffff 0xffffffff 0xffffffff 0xffffffff 0xffffffff 0xffffffff 0xffffffff 0xffffffff 0xffffffff 0xffffffff 0xffffffff 0xffffffff 0xffffffff 0xffffffff 0xffffffff 0xffffffff 0xffffffff 0xffffffff 0xffffffff 0xffffffff 0xffffffff 0xffffffff 0xffffffff 0xffffffff 0xffffffff 0xffffffff 0xffffffff 0x5000018 0xffffffff 0xffffffff 0xffffffff 0xffffffff 0xffffffff 0xffffffff 0xffffffff 0xffffffff 0xffffffff 0xffffffff 0xffffffff 0xffffffff 0xffffffff 0xffffffff 0xffffffff 0xffffffff 0xffffffff 0xffffffff 0xffffffff 0xffffffff 0xffffffff 0xffffffff 0xffffffff 0xffffffff 0xffffffff 0xffffffff 0xffffffff 0xffffffff 0xffffffff 0xffffffff 0xffffffff 0xffffffff 0xffffffff 0xffffffff 0xffffffff 0xffffffff 0xffffffff 0xffffffff 0xffffffff 0xffffffff 0xffffffff 0xffffffff 0xffffffff 0xffffffff 0xffffffff 0xffffffff 0xffffffff 0xffffffff 0xffffffff 0xffffffff 0xffffffff 0xffffffff 0xffffffff 0xffffffff 0xffffffff 0xffffffff 0xffffffff 0xffffffff 0xffffffff 0xffffffff 0xffffffff 0xffffffff 0xffffffff 0xffffffff 0xffffffff 0xffffffff 0xffffffff 0xffffffff 0xffffffff 0xffffffff 0xffffffff 0xffffffff 0xffffffff 0xffffffff 0xffffffff 0xffffffff 0xffffffff 0xffffffff 0xffffffff 0xffffffff 0xffffffff 0xffffffff 0xffffffff 0xffffffff 0xffffffff 0xffffffff 0xffffffff 0xffffffff 0xffffffff 0xffffffff 0xffffffff 0xffffffff 0xffffffff 0xffffffff 0xffffffff 0xffffffff 0xffffffff 0xffffffff 0xffffffff 0xffffffff 0xffffffff 0xffffffff 0xffffffff 0xffffffff 0xffffffff 0xffffffff 0xffffffff 
	<0x21>
	Attribute:	EIATTR_COOP_GROUP_INSTR_OFFSETS
	Format:	EIFMT_SVAL
	Value:	0xbf0 0x14a0 0x1b30 0x2fd0 0x2ff0 0x3010 0x3030 0x3050 0x3480 0x34b0 0x34c0 0x34e0 0x3510 0x3560 0x3580 0x35c0 0x3750 0x3760 0x3770 0x37c0 0x37e0 0x3830 0x3850 0x3870 0x3910 0x39d0 0x39e0 0x39f0 0x3a00 0x3a50 0x3a70 0x3ac0 0x3ae0 0x3b00 0x3c90 0x3ca0 0x3cd0 0x3d00 0x3d30 0x3d60 0x3da0 0x3db0 0x3e20 0x3f30 0x3f60 0x3f70 0x3f80 0x3fd0 0x3ff0 0x4040 0x4060 0x4080 0x4210 0x4220 0x4250 0x4280 0x42b0 0x42e0 0x4320 0x4330 0x43a0 0x44b0 0x44e0 0x44f0 0x4500 0x4550 0x4570 0x45c0 0x45e0 0x4600 0x4790 0x47a0 0x47d0 0x4800 0x4830 0x4860 0x48a0 0x48b0 0x4920 0x4a10 0x4a50 0x4a60 0x4a90 0x4ac0 0x4af0 0x4b20 0x4b60 0x4b70 0x4cd0 0x4d10 0x4d20 0x4d50 0x4d80 0x4db0 0x4de0 0x4e20 0x4e30 0x4f90 0x4fd0 0x4fe0 0x5010 0x5040 0x5070 0x50a0 0x50e0 0x50f0 0x5250 0x5290 0x52a0 0x52d0 0x5300 0x5330 0x5360 0x53a0 0x53b0 0x5510 0x5550 0x5560 0x5590 0x55c0 0x55f0 0x5620 0x5660 0x5670 0x57f0 0x5820 0x5830 0x5840 0x5890 0x58b0 0x5900 0x5920 0x5940 0x5a90 0x5ad0 0x5ae0 0x5b10 0x5b40 0x5b70 0x5ba0 0x5be0 0x5bf0 0x5d50 0x5d90 0x5da0 0x5dd0 0x5e00 0x5e30 0x5e60 0x5ea0 0x5eb0 0x6040 0x6050 0x6060 0x60b0 0x60d0 0x6120 0x6140 0x6180 0x61a0 0x6300 0x6310 0x6320 0x6370 0x6390 0x63e0 0x6400 0x6440 0x6460 0x6610 0x6620 0x6630 0x6680 0x66a0 0x66f0 0x6710 0x6750 0x6770 0x6920 0x6930 0x6940 0x6990 0x69b0 0x6a00 0x6a20 0x6a60 0x6a80 0x6bf0 0x6c00 0x6c10 0x6c60 0x6c80 0x6cd0 0x6cf0 0x6d30 0x6d50 0x6ed0 0x6f10 0x6f20 0x6f30 0x6f80 0x6fa0 0x6ff0 0x7010 0x7060 0x71c0 0x71f0 0x7200 0x7210 0x7260 0x7280 0x72d0 0x72f0 0x7310 0x7480 0x7950 0x7ce0 0x7e00 0x7fb0 0x80c0 0x81d0 0x82e0 0x83f0 0x8510 0x8650 0x8800 0x8910 0x8a20 0x8b30 0x8c40 0x8d60 0x8ea0 0x9050 0x9160 0x9270 0x9380 0x9490 0x95a0 0x96a0 0x9770 0x9800 0x9890 0x9920 0x99b0 0x9a40 0x9ad0 0x9b60 0x9bf0 0x9c80 0x9d10 0x9da0 0x9e30 0x9ec0 0x9f50 0x9fe0 0xa070 0xa100 0xa190 0xa220 0xa2b0 0xa340 0xa3d0 0xb280 0xb300 0xb370 0xb400 0xb490 0xb520 0xb5b0 0xb640 0xb6d0 0xb760 0xb7f0 0xb880 0xb910 0xb9a0 0xba30 0xbac0 0xbb50 0xbbe0 0xbc70 0xbd00 0xbda0 0xbe20 0xbea0 0xbf20 0xbf80 0xbfe0 0xc040 0xc0a0 0xc100 0xc160 0xc1c0 0xc220 0xc280 0xc2e0 0xc340 0xc3a0 0xc400 0xc460 0xc4c0 0xc520 0xc580 0xc5e0 0xc640 0xc6a0 0xc700 0xc760 0xc7b0 0xc830 0xc8b0 0xc930 0xc9b0 0xca30 0xca90 0xcb00 0xcb80 0xcc00 0xcc80 0xcd00 0xcd80 0xce00 0xce60 
	<0x22>
	Attribute:	EIATTR_EXIT_INSTR_OFFSETS
	Format:	EIFMT_SVAL
	Value:	0x2e10 0x2e30 0x2fb0 0xbeb0 0xc770 
	<0x23>
	Attribute:	EIATTR_MAX_THREADS
	Format:	EIFMT_SVAL
	Value:	0x100 0x1 0x1 
	<0x24>
	Attribute:	EIATTR_CRS_STACK_SIZE
	Format:	EIFMT_SVAL
	Value:	0x0 


.nv.info._ZN3cub17CUB_200400_750_NS33DeviceRadixSortExclusiveSumKernelINS0_21DeviceRadixSortPolicyIisjE9Policy900EjEEvPT0_
	<0x1>
	Attribute:	EIATTR_SW_WAR
	Format:	EIFMT_SVAL
	Value:	0x1 
	<0x2>
	Attribute:	EIATTR_CUDA_API_VERSION
	Format:	EIFMT_SVAL
	Value:	0x7d 
	<0x3>
	Attribute:	EIATTR_PARAM_CBANK
	Format:	EIFMT_SVAL
	Value:	0x43 0x80160 
	<0x4>
	Attribute:	EIATTR_CBANK_PARAM_SIZE
	Format:	EIFMT_HVAL
	Value:	0x8
	<0x5>
	Attribute:	EIATTR_KPARAM_INFO
	Format:	EIFMT_SVAL
	Value:	Index : 0x0	Ordinal : 0x0	Offset  : 0x0	Size    : 0x8
		Pointee's logAlignment : 0x0	Space : 0x0	cbank : 0x1f	Parameter Space : CBANK	
	<0x6>
	Attribute:	EIATTR_MAXREG_COUNT
	Format:	EIFMT_HVAL
	Value:	0xff
	<0x7>
	Attribute:	EIATTR_COOP_GROUP_MASK_REGIDS
	Format:	EIFMT_SVAL
	Value:	0xffffffff 0xffffffff 0xffffffff 0xffffffff 0xffffffff 0xffffffff 0xffffffff 0xffffffff 0xffffffff 0xffffffff 
	<0x8>
	Attribute:	EIATTR_COOP_GROUP_INSTR_OFFSETS
	Format:	EIFMT_SVAL
	Value:	0x1f0 0x210 0x230 0x250 0x270 0x4b0 0x530 0x5b0 0x630 0x6b0 
	<0x9>
	Attribute:	EIATTR_EXIT_INSTR_OFFSETS
	Format:	EIFMT_SVAL
	Value:	0x420 0x450 
	<0x10>
	Attribute:	EIATTR_CRS_STACK_SIZE
	Format:	EIFMT_SVAL
	Value:	0x0 


.nv.info._ZN3cub17CUB_200400_750_NS30DeviceRadixSortHistogramKernelINS0_21DeviceRadixSortPolicyIisjE9Policy900ELb0EijNS0_6detail21identity_decomposer_tEEEvPT2_PKT1_S7_iiT3_
	<0x1>
	Attribute:	EIATTR_SW_WAR
	Format:	EIFMT_SVAL
	Value:	0x1 
	<0x2>
	Attribute:	EIATTR_CUDA_API_VERSION
	Format:	EIFMT_SVAL
	Value:	0x7d 
	<0x3>
	Attribute:	EIATTR_PARAM_CBANK
	Format:	EIFMT_SVAL
	Value:	0x46 0x1d0160 
	<0x4>
	Attribute:	EIATTR_CBANK_PARAM_SIZE
	Format:	EIFMT_HVAL
	Value:	0x1d
	<0x5>
	Attribute:	EIATTR_KPARAM_INFO
	Format:	EIFMT_SVAL
	Value:	Index : 0x0	Ordinal : 0x5	Offset  : 0x1c	Size    : 0x1
		Pointee's logAlignment : 0x0	Space : 0x0	cbank : 0x1f	Parameter Space : CBANK	
	<0x6>
	Attribute:	EIATTR_KPARAM_INFO
	Format:	EIFMT_SVAL
	Value:	Index : 0x0	Ordinal : 0x4	Offset  : 0x18	Size    : 0x4
		Pointee's logAlignment : 0x0	Space : 0x0	cbank : 0x1f	Parameter Space : CBANK	
	<0x7>
	Attribute:	EIATTR_KPARAM_INFO
	Format:	EIFMT_SVAL
	Value:	Index : 0x0	Ordinal : 0x3	Offset  : 0x14	Size    : 0x4
		Pointee's logAlignment : 0x0	Space : 0x0	cbank : 0x1f	Parameter Space : CBANK	
	<0x8>
	Attribute:	EIATTR_KPARAM_INFO
	Format:	EIFMT_SVAL
	Value:	Index : 0x0	Ordinal : 0x2	Offset  : 0x10	Size    : 0x4
		Pointee's logAlignment : 0x0	Space : 0x0	cbank : 0x1f	Parameter Space : CBANK	
	<0x9>
	Attribute:	EIATTR_KPARAM_INFO
	Format:	EIFMT_SVAL
	Value:	Index : 0x0	Ordinal : 0x1	Offset  : 0x8	Size    : 0x8
		Pointee's logAlignment : 0x0	Space : 0x0	cbank : 0x1f	Parameter Space : CBANK	
	<0x10>
	Attribute:	EIATTR_KPARAM_INFO
	Format:	EIFMT_SVAL
	Value:	Index : 0x0	Ordinal : 0x0	Offset  : 0x0	Size    : 0x8
		Pointee's logAlignment : 0x0	Space : 0x0	cbank : 0x1f	Parameter Space : CBANK	
	<0x11>
	Attribute:	EIATTR_MAXREG_COUNT
	Format:	EIFMT_HVAL
	Value:	0xff
	<0x12>
	Attribute:	EIATTR_INT_WARP_WIDE_INSTR_OFFSETS
	Format:	EIFMT_SVAL
	Value:	0x23a0 0x23c0 0x2770 0x2790 
	<0x13>
	Attribute:	EIATTR_EXIT_INSTR_OFFSETS
	Format:	EIFMT_SVAL
	Value:	0x70 0x2810 
	<0x14>
	Attribute:	EIATTR_MAX_THREADS
	Format:	EIFMT_SVAL
	Value:	0x100 0x1 0x1 
	<0x15>
	Attribute:	EIATTR_CRS_STACK_SIZE
	Format:	EIFMT_SVAL
	Value:	0x0 


.nv.info._ZN3cub17CUB_200400_750_NS30DeviceRadixSortDownsweepKernelINS0_21DeviceRadixSortPolicyIisjE9Policy900ELb1ELb0EisjNS0_6detail21identity_decomposer_tEEEvPKT2_PS7_PKT3_PSB_PT4_SF_iiNS0_13GridEvenShareISF_EET5_
	<0x1>
	Attribute:	EIATTR_SW_WAR
	Format:	EIFMT_SVAL
	Value:	0x1 
	<0x2>
	Attribute:	EIATTR_CUDA_API_VERSION
	Format:	EIFMT_SVAL
	Value:	0x7d 
	<0x3>
	Attribute:	EIATTR_PARAM_CBANK
	Format:	EIFMT_SVAL
	Value:	0x4b 0x5d0160 
	<0x4>
	Attribute:	EIATTR_CBANK_PARAM_SIZE
	Format:	EIFMT_HVAL
	Value:	0x5d
	<0x5>
	Attribute:	EIATTR_KPARAM_INFO
	Format:	EIFMT_SVAL
	Value:	Index : 0x0	Ordinal : 0x9	Offset  : 0x5c	Size    : 0x1
		Pointee's logAlignment : 0x0	Space : 0x0	cbank : 0x1f	Parameter Space : CBANK	
	<0x6>
	Attribute:	EIATTR_KPARAM_INFO
	Format:	EIFMT_SVAL
	Value:	Index : 0x0	Ordinal : 0x8	Offset  : 0x34	Size    : 0x28
		Pointee's logAlignment : 0x0	Space : 0x0	cbank : 0x1f	Parameter Space : CBANK	
	<0x7>
	Attribute:	EIATTR_KPARAM_INFO
	Format:	EIFMT_SVAL
	Value:	Index : 0x0	Ordinal : 0x7	Offset  : 0x30	Size    : 0x4
		Pointee's logAlignment : 0x0	Space : 0x0	cbank : 0x1f	Parameter Space : CBANK	
	<0x8>
	Attribute:	EIATTR_KPARAM_INFO
	Format:	EIFMT_SVAL
	Value:	Index : 0x0	Ordinal : 0x6	Offset  : 0x2c	Size    : 0x4
		Pointee's logAlignment : 0x0	Space : 0x0	cbank : 0x1f	Parameter Space : CBANK	
	<0x9>
	Attribute:	EIATTR_KPARAM_INFO
	Format:	EIFMT_SVAL
	Value:	Index : 0x0	Ordinal : 0x5	Offset  : 0x28	Size    : 0x4
		Pointee's logAlignment : 0x0	Space : 0x0	cbank : 0x1f	Parameter Space : CBANK	
	<0x10>
	Attribute:	EIATTR_KPARAM_INFO
	Format:	EIFMT_SVAL
	Value:	Index : 0x0	Ordinal : 0x4	Offset  : 0x20	Size    : 0x8
		Pointee's logAlignment : 0x0	Space : 0x0	cbank : 0x1f	Parameter Space : CBANK	
	<0x11>
	Attribute:	EIATTR_KPARAM_INFO
	Format:	EIFMT_SVAL
	Value:	Index : 0x0	Ordinal : 0x3	Offset  : 0x18	Size    : 0x8
		Pointee's logAlignment : 0x0	Space : 0x0	cbank : 0x1f	Parameter Space : CBANK	
	<0x12>
	Attribute:	EIATTR_KPARAM_INFO
	Format:	EIFMT_SVAL
	Value:	Index : 0x0	Ordinal : 0x2	Offset  : 0x10	Size    : 0x8
		Pointee's logAlignment : 0x0	Space : 0x0	cbank : 0x1f	Parameter Space : CBANK	
	<0x13>
	Attribute:	EIATTR_KPARAM_INFO
	Format:	EIFMT_SVAL
	Value:	Index : 0x0	Ordinal : 0x1	Offset  : 0x8	Size    : 0x8
		Pointee's logAlignment : 0x0	Space : 0x0	cbank : 0x1f	Parameter Space : CBANK	
	<0x14>
	Attribute:	EIATTR_KPARAM_INFO
	Format:	EIFMT_SVAL
	Value:	Index : 0x0	Ordinal : 0x0	Offset  : 0x0	Size    : 0x8
		Pointee's logAlignment : 0x0	Space : 0x0	cbank : 0x1f	Parameter Space : CBANK	
	<0x15>
	Attribute:	EIATTR_MAXREG_COUNT
	Format:	EIFMT_HVAL
	Value:	0xff
	<0x16>
	Attribute:	EIATTR_COOP_GROUP_MASK_REGIDS
	Format:	EIFMT_SVAL
	Value:	0xffffffff 0xffffffff 0xffffffff 0xffffffff 0xffffffff 0xffffffff 0xffffffff 0xffffffff 0xffffffff 0xffffffff 0xffffffff 0xffffffff 0xffffffff 0xffffffff 0xffffffff 0xffffffff 0xffffffff 0xffffffff 0xffffffff 0xffffffff 0xffffffff 0xffffffff 0xffffffff 
	<0x17>
	Attribute:	EIATTR_COOP_GROUP_INSTR_OFFSETS
	Format:	EIFMT_SVAL
	Value:	0x7050 0x7070 0x7090 0x70b0 0x70e0 0xb7a0 0xf590 0xf5b0 0xf5d0 0xf5f0 0xf620 0xf940 0x159e0 0x15a70 0x15b00 0x15b90 0x15c20 0x15c70 0x15ce0 0x15d70 0x15e00 0x15e90 0x15f20 
	<0x18>
	Attribute:	EIATTR_EXIT_INSTR_OFFSETS
	Format:	EIFMT_SVAL
	Value:	0x2550 0x3ab0 0x3ad0 0xb780 0x15920 0x15980 
	<0x19>
	Attribute:	EIATTR_MAX_THREADS
	Format:	EIFMT_SVAL
	Value:	0x100 0x1 0x1 
	<0x20>
	Attribute:	EIATTR_CRS_STACK_SIZE
	Format:	EIFMT_SVAL
	Value:	0x0 


.nv.info._ZN3cub17CUB_200400_750_NS30DeviceRadixSortDownsweepKernelINS0_21DeviceRadixSortPolicyIisjE9Policy900ELb0ELb0EisjNS0_6detail21identity_decomposer_tEEEvPKT2_PS7_PKT3_PSB_PT4_SF_iiNS0_13GridEvenShareISF_EET5_
	<0x1>
	Attribute:	EIATTR_SW_WAR
	Format:	EIFMT_SVAL
	Value:	0x1 
	<0x2>
	Attribute:	EIATTR_CUDA_API_VERSION
	Format:	EIFMT_SVAL
	Value:	0x7d 
	<0x3>
	Attribute:	EIATTR_PARAM_CBANK
	Format:	EIFMT_SVAL
	Value:	0x50 0x5d0160 
	<0x4>
	Attribute:	EIATTR_CBANK_PARAM_SIZE
	Format:	EIFMT_HVAL
	Value:	0x5d
	<0x5>
	Attribute:	EIATTR_KPARAM_INFO
	Format:	EIFMT_SVAL
	Value:	Index : 0x0	Ordinal : 0x9	Offset  : 0x5c	Size    : 0x1
		Pointee's logAlignment : 0x0	Space : 0x0	cbank : 0x1f	Parameter Space : CBANK	
	<0x6>
	Attribute:	EIATTR_KPARAM_INFO
	Format:	EIFMT_SVAL
	Value:	Index : 0x0	Ordinal : 0x8	Offset  : 0x34	Size    : 0x28
		Pointee's logAlignment : 0x0	Space : 0x0	cbank : 0x1f	Parameter Space : CBANK	
	<0x7>
	Attribute:	EIATTR_KPARAM_INFO
	Format:	EIFMT_SVAL
	Value:	Index : 0x0	Ordinal : 0x7	Offset  : 0x30	Size    : 0x4
		Pointee's logAlignment : 0x0	Space : 0x0	cbank : 0x1f	Parameter Space : CBANK	
	<0x8>
	Attribute:	EIATTR_KPARAM_INFO
	Format:	EIFMT_SVAL
	Value:	Index : 0x0	Ordinal : 0x6	Offset  : 0x2c	Size    : 0x4
		Pointee's logAlignment : 0x0	Space : 0x0	cbank : 0x1f	Parameter Space : CBANK	
	<0x9>
	Attribute:	EIATTR_KPARAM_INFO
	Format:	EIFMT_SVAL
	Value:	Index : 0x0	Ordinal : 0x5	Offset  : 0x28	Size    : 0x4
		Pointee's logAlignment : 0x0	Space : 0x0	cbank : 0x1f	Parameter Space : CBANK	
	<0x10>
	Attribute:	EIATTR_KPARAM_INFO
	Format:	EIFMT_SVAL
	Value:	Index : 0x0	Ordinal : 0x4	Offset  : 0x20	Size    : 0x8
		Pointee's logAlignment : 0x0	Space : 0x0	cbank : 0x1f	Parameter Space : CBANK	
	<0x11>
	Attribute:	EIATTR_KPARAM_INFO
	Format:	EIFMT_SVAL
	Value:	Index : 0x0	Ordinal : 0x3	Offset  : 0x18	Size    : 0x8
		Pointee's logAlignment : 0x0	Space : 0x0	cbank : 0x1f	Parameter Space : CBANK	
	<0x12>
	Attribute:	EIATTR_KPARAM_INFO
	Format:	EIFMT_SVAL
	Value:	Index : 0x0	Ordinal : 0x2	Offset  : 0x10	Size    : 0x8
		Pointee's logAlignment : 0x0	Space : 0x0	cbank : 0x1f	Parameter Space : CBANK	
	<0x13>
	Attribute:	EIATTR_KPARAM_INFO
	Format:	EIFMT_SVAL
	Value:	Index : 0x0	Ordinal : 0x1	Offset  : 0x8	Size    : 0x8
		Pointee's logAlignment : 0x0	Space : 0x0	cbank : 0x1f	Parameter Space : CBANK	
	<0x14>
	Attribute:	EIATTR_KPARAM_INFO
	Format:	EIFMT_SVAL
	Value:	Index : 0x0	Ordinal : 0x0	Offset  : 0x0	Size    : 0x8
		Pointee's logAlignment : 0x0	Space : 0x0	cbank : 0x1f	Parameter Space : CBANK	
	<0x15>
	Attribute:	EIATTR_MAXREG_COUNT
	Format:	EIFMT_HVAL
	Value:	0x80
	<0x16>
	Attribute:	EIATTR_UNUSED_LOAD_BYTE_OFFSET
	Format:	EIFMT_SVAL
	Value:	0x5770 0xfff 0xb630 0xfff 
	<0x17>
	Attribute:	EIATTR_COOP_GROUP_MASK_REGIDS
	Format:	EIFMT_SVAL
	Value:	0xffffffff 0xffffffff 0xffffffff 0xffffffff 0xffffffff 0xffffffff 0xffffffff 0xffffffff 0xffffffff 0xffffffff 0xffffffff 0xffffffff 0xffffffff 0xffffffff 0xffffffff 0xffffffff 0xffffffff 0xffffffff 0xffffffff 0xffffffff 0xffffffff 0xffffffff 0xffffffff 0xffffffff 0xffffffff 0xffffffff 0xffffffff 0xffffffff 0xffffffff 0xffffffff 0xffffffff 0xffffffff 0xffffffff 0xffffffff 0xffffffff 0xffffffff 0xffffffff 0xffffffff 0xffffffff 0xffffffff 0xffffffff 0xffffffff 0xffffffff 0xffffffff 0xffffffff 0xffffffff 0xffffffff 0xffffffff 0xffffffff 0xffffffff 0xffffffff 0xffffffff 0xffffffff 0xffffffff 0xffffffff 0xffffffff 0xffffffff 0xffffffff 0xffffffff 0xffffffff 0xffffffff 0xffffffff 0xffffffff 0xffffffff 0xffffffff 0xffffffff 0xffffffff 0xffffffff 0xffffffff 0xffffffff 0xffffffff 0xffffffff 0xffffffff 0xffffffff 0xffffffff 0xffffffff 0xffffffff 0xffffffff 0xffffffff 0xffffffff 0xffffffff 0xffffffff 0xffffffff 0xffffffff 0xffffffff 0xffffffff 0xffffffff 0xffffffff 0xffffffff 0xffffffff 0xffffffff 0xffffffff 0xffffffff 0xffffffff 0xffffffff 0xffffffff 0xffffffff 0xffffffff 0xffffffff 0xffffffff 0xffffffff 0xffffffff 0xffffffff 0xffffffff 0xffffffff 0xffffffff 0xffffffff 0xffffffff 0xffffffff 0xffffffff 0xffffffff 0xffffffff 0xffffffff 0xffffffff 0xffffffff 0xffffffff 0xffffffff 0xffffffff 0xffffffff 0xffffffff 0xffffffff 0xffffffff 0xffffffff 0xffffffff 0xffffffff 0xffffffff 0xffffffff 0xffffffff 0xffffffff 0xffffffff 0xffffffff 0xffffffff 0xffffffff 0xffffffff 0xffffffff 0xffffffff 0xffffffff 0xffffffff 0xffffffff 0xffffffff 0xffffffff 0xffffffff 0xffffffff 0xffffffff 0xffffffff 0xffffffff 0xffffffff 0xffffffff 0xffffffff 0xffffffff 0xffffffff 0xffffffff 0xffffffff 0xffffffff 0xffffffff 0xffffffff 0xffffffff 0xffffffff 0xffffffff 0xffffffff 0xffffffff 0xffffffff 0xffffffff 0xffffffff 0xffffffff 0xffffffff 0xffffffff 0xffffffff 0xffffffff 0xffffffff 0xffffffff 0xffffffff 0xffffffff 0xffffffff 0xffffffff 0xffffffff 0xffffffff 0xffffffff 0xffffffff 0xffffffff 0xffffffff 0xffffffff 0xffffffff 0xffffffff 0xffffffff 0xffffffff 0xffffffff 0xffffffff 0xffffffff 0xffffffff 0xffffffff 0xffffffff 0xffffffff 0xffffffff 0xffffffff 0xffffffff 0xffffffff 0xffffffff 0xffffffff 0xffffffff 0xffffffff 0xffffffff 0xffffffff 0xffffffff 0xffffffff 0xffffffff 0xffffffff 0xffffffff 0xffffffff 0xffffffff 0xffffffff 0xffffffff 0xffffffff 0xffffffff 0xffffffff 0xffffffff 0xffffffff 0xffffffff 0xffffffff 0xffffffff 0xffffffff 0xffffffff 0xffffffff 0xffffffff 0xffffffff 0xffffffff 0xffffffff 0xffffffff 0xffffffff 0xffffffff 0xffffffff 0xffffffff 0xffffffff 0xffffffff 0xffffffff 0xffffffff 0xffffffff 0xffffffff 0xffffffff 0xffffffff 0xffffffff 0xffffffff 0xffffffff 0xffffffff 0xffffffff 0xffffffff 0xffffffff 0xffffffff 0xffffffff 0xffffffff 0xffffffff 0xffffffff 0xffffffff 0xffffffff 0xffffffff 0xffffffff 0xffffffff 0xffffffff 0xffffffff 0xffffffff 0xffffffff 0xffffffff 0xffffffff 0xffffffff 0xffffffff 0xffffffff 0xffffffff 0xffffffff 0xffffffff 0xffffffff 0xffffffff 0xffffffff 0xffffffff 0xffffffff 0xffffffff 0xffffffff 0xffffffff 0xffffffff 0xffffffff 0xffffffff 0xffffffff 0xffffffff 0xffffffff 0xffffffff 0xffffffff 0xffffffff 0xffffffff 0xffffffff 0xffffffff 0xffffffff 0xffffffff 0xffffffff 0xffffffff 0xffffffff 0xffffffff 0xffffffff 0xffffffff 0xffffffff 0xffffffff 0xffffffff 0xffffffff 0xffffffff 0xffffffff 0xffffffff 0xffffffff 0xffffffff 0xffffffff 0xffffffff 0xffffffff 0xffffffff 0xffffffff 0xffffffff 0xffffffff 0xffffffff 0xffffffff 0xffffffff 0xffffffff 0xffffffff 0xffffffff 0xffffffff 0xffffffff 0xffffffff 0xffffffff 0xffffffff 0xffffffff 0xffffffff 0xffffffff 0xffffffff 0xffffffff 0xffffffff 0xffffffff 0xffffffff 0xffffffff 0xffffffff 0xffffffff 0xffffffff 0xffffffff 0xffffffff 0xffffffff 0xffffffff 0xffffffff 0xffffffff 0xffffffff 0xffffffff 0xffffffff 0xffffffff 0xffffffff 0xffffffff 0xffffffff 0xffffffff 0xffffffff 0xffffffff 0xffffffff 0xffffffff 0xffffffff 0xffffffff 0xffffffff 0xffffffff 0xffffffff 0xffffffff 0xffffffff 0xffffffff 0xffffffff 0xffffffff 0xffffffff 0xffffffff 0xffffffff 0xffffffff 0xffffffff 0xffffffff 0xffffffff 0xffffffff 0xffffffff 0xffffffff 0xffffffff 0xffffffff 0xffffffff 0xffffffff 0xffffffff 0xffffffff 0xffffffff 0xffffffff 0xffffffff 0xffffffff 0xffffffff 0xffffffff 0xffffffff 0xffffffff 0xffffffff 0xffffffff 0xffffffff 0xffffffff 0xffffffff 0xffffffff 0xffffffff 0xffffffff 0xffffffff 0xffffffff 0xffffffff 0xffffffff 0xffffffff 0xffffffff 0xffffffff 0xffffffff 0xffffffff 0xffffffff 0xffffffff 0xffffffff 0xffffffff 0xffffffff 0xffffffff 0xffffffff 0xffffffff 0xffffffff 0xffffffff 0xffffffff 0xffffffff 0xffffffff 0xffffffff 0xffffffff 0xffffffff 0xffffffff 0xffffffff 0xffffffff 0xffffffff 0xffffffff 0xffffffff 0xffffffff 0xffffffff 0xffffffff 0xffffffff 0xffffffff 0xffffffff 0xffffffff 0xffffffff 0xffffffff 0xffffffff 0xffffffff 0xffffffff 0xffffffff 0xffffffff 
	<0x18>
	Attribute:	EIATTR_COOP_GROUP_INSTR_OFFSETS
	Format:	EIFMT_SVAL
	Value:	0x23c0 0x23f0 0x2400 0x2450 0x2490 0x24b0 0x24f0 0x2660 0x2670 0x2680 0x2690 0x26a0 0x26b0 0x26c0 0x27a0 0x27b0 0x27c0 0x27d0 0x27e0 0x27f0 0x2800 0x28f0 0x2900 0x2910 0x2920 0x2930 0x2940 0x2950 0x2a30 0x2a40 0x2a50 0x2a60 0x2a70 0x2a80 0x2a90 0x2b80 0x2b90 0x2ba0 0x2bb0 0x2bc0 0x2bd0 0x2be0 0x2cc0 0x2cd0 0x2d00 0x2d10 0x2d20 0x2d40 0x2d50 0x2e20 0x2e60 0x2ec0 0x2f10 0x2f20 0x2f40 0x2f50 0x2f60 0x3020 0x3030 0x3070 0x30c0 0x3110 0x3120 0x3130 0x3140 0x31b0 0x31f0 0x3200 0x3240 0x32b0 0x32c0 0x32f0 0x3300 0x3310 0x33e0 0x3420 0x3430 0x3470 0x34c0 0x34d0 0x3500 0x3510 0x3520 0x3540 0x3620 0x3630 0x3670 0x36e0 0x36f0 0x3720 0x3730 0x3740 0x3800 0x3840 0x3850 0x3890 0x38e0 0x3920 0x3930 0x3940 0x3960 0x3a00 0x3a40 0x3a50 0x3a90 0x3af0 0x3b50 0x3b60 0x3b80 0x3c20 0x3c70 0x3c80 0x3ca0 0x3cb0 0x3d60 0x3d70 0x3da0 0x3db0 0x3dc0 0x3e80 0x3ec0 0x3ed0 0x3f10 0x3f70 0x3fb0 0x3fc0 0x3fd0 0x3ff0 0x4000 0x40d0 0x40e0 0x4120 0x4170 0x4220 0x4230 0x4250 0x42a0 0x42e0 0x4310 0x4340 0x44b0 0x44c0 0x4500 0x4570 0x4580 0x45b0 0x45c0 0x45d0 0x45f0 0x4690 0x46e0 0x4710 0x47b0 0x47c0 0x47f0 0x4800 0x4810 0x4910 0x4920 0x4940 0x4a50 0x4a90 0x4ad0 0x4b00 0x4b10 0x4b40 0x4b50 0x4bc0 0x4bd0 0x4bf0 0x4c20 0x4cc0 0x4d10 0x4d40 0x4d60 0x4d70 0x4da0 0x4db0 0x4dc0 0x4de0 0x4df0 0x4eb0 0x4f20 0x4f30 0x4f80 0x4f90 0x4fa0 0x5010 0x5050 0x5080 0x5120 0x5130 0x5150 0x5160 0x51f0 0x5200 0x5240 0x5280 0x52c0 0x52f0 0x5310 0x5350 0x5380 0x5400 0x5420 0x5480 0x54a0 0x5530 0x5550 0x5570 0x5590 0x55c0 0x7780 0x8070 0x80a0 0x80b0 0x8100 0x8140 0x8160 0x81b0 0x8370 0x8380 0x83a0 0x83b0 0x83c0 0x83d0 0x83e0 0x84d0 0x84e0 0x84f0 0x8500 0x8510 0x8520 0x8530 0x8630 0x8640 0x8650 0x8670 0x8680 0x8690 0x86a0 0x8790 0x87a0 0x87e0 0x87f0 0x8800 0x8810 0x8820 0x8910 0x8920 0x8950 0x8960 0x8970 0x8980 0x8990 0x8a40 0x8a90 0x8af0 0x8b00 0x8b30 0x8b40 0x8b50 0x8b60 0x8b70 0x8c20 0x8c60 0x8cb0 0x8cc0 0x8cf0 0x8d00 0x8d10 0x8d20 0x8d30 0x8de0 0x8e20 0x8e70 0x8ef0 0x8f10 0x8f20 0x8f30 0x8f60 0x8fa0 0x8fb0 0x8ff0 0x9080 0x90f0 0x9100 0x9120 0x9130 0x9170 0x91b0 0x91c0 0x9240 0x9270 0x92e0 0x92f0 0x9310 0x9320 0x9330 0x93b0 0x93c0 0x9400 0x9490 0x94e0 0x9500 0x9530 0x9540 0x9590 0x95d0 0x95e0 0x9620 0x96b0 0x9720 0x9750 0x9760 0x9770 0x9780 0x9790 0x97f0 0x9870 0x98b0 0x9930 0x9950 0x9960 0x9970 0x9980 0x99f0 0x9a00 0x9a40 0x9ad0 0x9b50 0x9b70 0x9b80 0x9b90 0x9c10 0x9c20 0x9c50 0x9c80 0x9d10 0x9d60 0x9d80 0x9e40 0x9e50 0x9e80 0x9ec0 0xa010 0xa040 0xa070 0xa080 0xa110 0xa120 0xa150 0xa160 0xa170 0xa1f0 0xa210 0xa240 0xa2b0 0xa2c0 0xa360 0xa390 0xa420 0xa430 0xa440 0xa450 0xa500 0xa510 0xa530 0xa580 0xa640 0xa650 0xa680 0xa6f0 0xa700 0xa720 0xa750 0xa7d0 0xa820 0xa850 0xa860 0xa8d0 0xa8e0 0xa910 0xa920 0xa930 0xa9f0 0xaa00 0xaa20 0xaa60 0xaac0 0xaad0 0xab00 0xab10 0xab20 0xab90 0xabc0 0xac10 0xac50 0xac90 0xacf0 0xad20 0xad30 0xad40 0xad50 0xad60 0xad70 0xad80 0xae70 0xaed0 0xaf20 0xaf80 0xafb0 0xaff0 0xb030 0xb070 0xb0a0 0xb0e0 0xb100 0xb170 0xb190 0xb220 0xb240 0xb260 0xb280 0xb2b0 0xcf00 0xe660 0xe6d0 0xe750 0xe7d0 0xe850 0xe8d0 0xe950 0xe990 0xe9e0 0xea50 0xead0 0xeb50 0xebd0 0xec50 0xece0 
	<0x19>
	Attribute:	EIATTR_EXIT_INSTR_OFFSETS
	Format:	EIFMT_SVAL
	Value:	0x1460 0x1ea0 0x1ec0 0x7760 0xe5b0 0xe620 
	<0x20>
	Attribute:	EIATTR_MAX_THREADS
	Format:	EIFMT_SVAL
	Value:	0x200 0x1 0x1 
	<0x21>
	Attribute:	EIATTR_CRS_STACK_SIZE
	Format:	EIFMT_SVAL
	Value:	0x0 


.nv.info._ZN3cub17CUB_200400_750_NS23RadixSortScanBinsKernelINS0_21DeviceRadixSortPolicyIisjE9Policy900EjEEvPT0_i
	<0x1>
	Attribute:	EIATTR_SW_WAR
	Format:	EIFMT_SVAL
	Value:	0x1 
	<0x2>
	Attribute:	EIATTR_CUDA_API_VERSION
	Format:	EIFMT_SVAL
	Value:	0x7d 
	<0x3>
	Attribute:	EIATTR_PARAM_CBANK
	Format:	EIFMT_SVAL
	Value:	0x56 0xc0160 
	<0x4>
	Attribute:	EIATTR_CBANK_PARAM_SIZE
	Format:	EIFMT_HVAL
	Value:	0xc
	<0x5>
	Attribute:	EIATTR_KPARAM_INFO
	Format:	EIFMT_SVAL
	Value:	Index : 0x0	Ordinal : 0x1	Offset  : 0x8	Size    : 0x4
		Pointee's logAlignment : 0x0	Space : 0x0	cbank : 0x1f	Parameter Space : CBANK	
	<0x6>
	Attribute:	EIATTR_KPARAM_INFO
	Format:	EIFMT_SVAL
	Value:	Index : 0x0	Ordinal : 0x0	Offset  : 0x0	Size    : 0x8
		Pointee's logAlignment : 0x0	Space : 0x0	cbank : 0x1f	Parameter Space : CBANK	
	<0x7>
	Attribute:	EIATTR_MAXREG_COUNT
	Format:	EIFMT_HVAL
	Value:	0x80
	<0x8>
	Attribute:	EIATTR_COOP_GROUP_MASK_REGIDS
	Format:	EIFMT_SVAL
	Value:	0xffffffff 0xffffffff 0xffffffff 0xffffffff 0xffffffff 0xffffffff 0xffffffff 0xffffffff 0xffffffff 0xffffffff 0xffffffff 0xffffffff 0xffffffff 0xffffffff 0xffffffff 0xffffffff 0xffffffff 0xffffffff 0xffffffff 0xffffffff 0xffffffff 0xffffffff 0xffffffff 0xffffffff 0xffffffff 0xffffffff 0xffffffff 0xffffffff 0xffffffff 0xffffffff 0xffffffff 0xffffffff 0xffffffff 
	<0x9>
	Attribute:	EIATTR_COOP_GROUP_INSTR_OFFSETS
	Format:	EIFMT_SVAL
	Value:	0x470 0x890 0x8b0 0x8d0 0x8f0 0x910 0x930 0x950 0xeb0 0xec0 0x1a00 0x1e20 0x1e40 0x1e60 0x1e80 0x1eb0 0x1f30 0x1f60 0x2520 0x2550 0x2aa0 0x2b30 0x2bc0 0x2c50 0x2ce0 0x2d70 0x2df0 0x2e70 0x2ef0 0x2f70 0x2ff0 0x3070 0x30f0 
	<0x10>
	Attribute:	EIATTR_EXIT_INSTR_OFFSETS
	Format:	EIFMT_SVAL
	Value:	0x11f0 0x2a20 0x2a40 
	<0x11>
	Attribute:	EIATTR_MAX_THREADS
	Format:	EIFMT_SVAL
	Value:	0x200 0x1 0x1 
	<0x12>
	Attribute:	EIATTR_CRS_STACK_SIZE
	Format:	EIFMT_SVAL
	Value:	0x0 


.nv.info._ZN3cub17CUB_200400_750_NS28DeviceRadixSortUpsweepKernelINS0_21DeviceRadixSortPolicyIisjE9Policy900ELb1ELb0EijNS0_6detail21identity_decomposer_tEEEvPKT2_PT3_SA_iiNS0_13GridEvenShareISA_EET4_
	<0x1>
	Attribute:	EIATTR_SW_WAR
	Format:	EIFMT_SVAL
	Value:	0x1 
	<0x2>
	Attribute:	EIATTR_CUDA_API_VERSION
	Format:	EIFMT_SVAL
	Value:	0x7d 
	<0x3>
	Attribute:	EIATTR_PARAM_CBANK
	Format:	EIFMT_SVAL
	Value:	0x59 0x450160 
	<0x4>
	Attribute:	EIATTR_CBANK_PARAM_SIZE
	Format:	EIFMT_HVAL
	Value:	0x45
	<0x5>
	Attribute:	EIATTR_KPARAM_INFO
	Format:	EIFMT_SVAL
	Value:	Index : 0x0	Ordinal : 0x6	Offset  : 0x44	Size    : 0x1
		Pointee's logAlignment : 0x0	Space : 0x0	cbank : 0x1f	Parameter Space : CBANK	
	<0x6>
	Attribute:	EIATTR_KPARAM_INFO
	Format:	EIFMT_SVAL
	Value:	Index : 0x0	Ordinal : 0x5	Offset  : 0x1c	Size    : 0x28
		Pointee's logAlignment : 0x0	Space : 0x0	cbank : 0x1f	Parameter Space : CBANK	
	<0x7>
	Attribute:	EIATTR_KPARAM_INFO
	Format:	EIFMT_SVAL
	Value:	Index : 0x0	Ordinal : 0x4	Offset  : 0x18	Size    : 0x4
		Pointee's logAlignment : 0x0	Space : 0x0	cbank : 0x1f	Parameter Space : CBANK	
	<0x8>
	Attribute:	EIATTR_KPARAM_INFO
	Format:	EIFMT_SVAL
	Value:	Index : 0x0	Ordinal : 0x3	Offset  : 0x14	Size    : 0x4
		Pointee's logAlignment : 0x0	Space : 0x0	cbank : 0x1f	Parameter Space : CBANK	
	<0x9>
	Attribute:	EIATTR_KPARAM_INFO
	Format:	EIFMT_SVAL
	Value:	Index : 0x0	Ordinal : 0x2	Offset  : 0x10	Size    : 0x4
		Pointee's logAlignment : 0x0	Space : 0x0	cbank : 0x1f	Parameter Space : CBANK	
	<0x10>
	Attribute:	EIATTR_KPARAM_INFO
	Format:	EIFMT_SVAL
	Value:	Index : 0x0	Ordinal : 0x1	Offset  : 0x8	Size    : 0x8
		Pointee's logAlignment : 0x0	Space : 0x0	cbank : 0x1f	Parameter Space : CBANK	
	<0x11>
	Attribute:	EIATTR_KPARAM_INFO
	Format:	EIFMT_SVAL
	Value:	Index : 0x0	Ordinal : 0x0	Offset  : 0x0	Size    : 0x8
		Pointee's logAlignment : 0x0	Space : 0x0	cbank : 0x1f	Parameter Space : CBANK	
	<0x12>
	Attribute:	EIATTR_MAXREG_COUNT
	Format:	EIFMT_HVAL
	Value:	0xff
	<0x13>
	Attribute:	EIATTR_EXIT_INSTR_OFFSETS
	Format:	EIFMT_SVAL
	Value:	0x6e60 0x71c0 
	<0x14>
	Attribute:	EIATTR_MAX_THREADS
	Format:	EIFMT_SVAL
	Value:	0x100 0x1 0x1 
	<0x15>
	Attribute:	EIATTR_CRS_STACK_SIZE
	Format:	EIFMT_SVAL
	Value:	0x0 


.nv.info._ZN3cub17CUB_200400_750_NS28DeviceRadixSortUpsweepKernelINS0_21DeviceRadixSortPolicyIisjE9Policy900ELb0ELb0EijNS0_6detail21identity_decomposer_tEEEvPKT2_PT3_SA_iiNS0_13GridEvenShareISA_EET4_
	<0x1>
	Attribute:	EIATTR_SW_WAR
	Format:	EIFMT_SVAL
	Value:	0x1 
	<0x2>
	Attribute:	EIATTR_CUDA_API_VERSION
	Format:	EIFMT_SVAL
	Value:	0x7d 
	<0x3>
	Attribute:	EIATTR_PARAM_CBANK
	Format:	EIFMT_SVAL
	Value:	0x5c 0x450160 
	<0x4>
	Attribute:	EIATTR_CBANK_PARAM_SIZE
	Format:	EIFMT_HVAL
	Value:	0x45
	<0x5>
	Attribute:	EIATTR_KPARAM_INFO
	Format:	EIFMT_SVAL
	Value:	Index : 0x0	Ordinal : 0x6	Offset  : 0x44	Size    : 0x1
		Pointee's logAlignment : 0x0	Space : 0x0	cbank : 0x1f	Parameter Space : CBANK	
	<0x6>
	Attribute:	EIATTR_KPARAM_INFO
	Format:	EIFMT_SVAL
	Value:	Index : 0x0	Ordinal : 0x5	Offset  : 0x1c	Size    : 0x28
		Pointee's logAlignment : 0x0	Space : 0x0	cbank : 0x1f	Parameter Space : CBANK	
	<0x7>
	Attribute:	EIATTR_KPARAM_INFO
	Format:	EIFMT_SVAL
	Value:	Index : 0x0	Ordinal : 0x4	Offset  : 0x18	Size    : 0x4
		Pointee's logAlignment : 0x0	Space : 0x0	cbank : 0x1f	Parameter Space : CBANK	
	<0x8>
	Attribute:	EIATTR_KPARAM_INFO
	Format:	EIFMT_SVAL
	Value:	Index : 0x0	Ordinal : 0x3	Offset  : 0x14	Size    : 0x4
		Pointee's logAlignment : 0x0	Space : 0x0	cbank : 0x1f	Parameter Space : CBANK	
	<0x9>
	Attribute:	EIATTR_KPARAM_INFO
	Format:	EIFMT_SVAL
	Value:	Index : 0x0	Ordinal : 0x2	Offset  : 0x10	Size    : 0x4
		Pointee's logAlignment : 0x0	Space : 0x0	cbank : 0x1f	Parameter Space : CBANK	
	<0x10>
	Attribute:	EIATTR_KPARAM_INFO
	Format:	EIFMT_SVAL
	Value:	Index : 0x0	Ordinal : 0x1	Offset  : 0x8	Size    : 0x8
		Pointee's logAlignment : 0x0	Space : 0x0	cbank : 0x1f	Parameter Space : CBANK	
	<0x11>
	Attribute:	EIATTR_KPARAM_INFO
	Format:	EIFMT_SVAL
	Value:	Index : 0x0	Ordinal : 0x0	Offset  : 0x0	Size    : 0x8
		Pointee's logAlignment : 0x0	Space : 0x0	cbank : 0x1f	Parameter Space : CBANK	
	<0x12>
	Attribute:	EIATTR_MAXREG_COUNT
	Format:	EIFMT_HVAL
	Value:	0xff
	<0x13>
	Attribute:	EIATTR_EXIT_INSTR_OFFSETS
	Format:	EIFMT_SVAL
	Value:	0x58d0 0x5c20 
	<0x14>
	Attribute:	EIATTR_MAX_THREADS
	Format:	EIFMT_SVAL
	Value:	0x100 0x1 0x1 
	<0x15>
	Attribute:	EIATTR_CRS_STACK_SIZE
	Format:	EIFMT_SVAL
	Value:	0x0 


.nv.info._ZN3cub17CUB_200400_750_NS31DeviceRadixSortSingleTileKernelINS0_21DeviceRadixSortPolicyIisjE9Policy900ELb0EisjNS0_6detail21identity_decomposer_tEEEvPKT1_PS7_PKT2_PSB_T3_iiT4_
	<0x1>
	Attribute:	EIATTR_SW_WAR
	Format:	EIFMT_SVAL
	Value:	0x1 
	<0x2>
	Attribute:	EIATTR_CUDA_API_VERSION
	Format:	EIFMT_SVAL
	Value:	0x7d 
	<0x3>
	Attribute:	EIATTR_PARAM_CBANK
	Format:	EIFMT_SVAL
	Value:	0x5f 0x2d0160 
	<0x4>
	Attribute:	EIATTR_CBANK_PARAM_SIZE
	Format:	EIFMT_HVAL
	Value:	0x2d
	<0x5>
	Attribute:	EIATTR_KPARAM_INFO
	Format:	EIFMT_SVAL
	Value:	Index : 0x0	Ordinal : 0x7	Offset  : 0x2c	Size    : 0x1
		Pointee's logAlignment : 0x0	Space : 0x0	cbank : 0x1f	Parameter Space : CBANK	
	<0x6>
	Attribute:	EIATTR_KPARAM_INFO
	Format:	EIFMT_SVAL
	Value:	Index : 0x0	Ordinal : 0x6	Offset  : 0x28	Size    : 0x4
		Pointee's logAlignment : 0x0	Space : 0x0	cbank : 0x1f	Parameter Space : CBANK	
	<0x7>
	Attribute:	EIATTR_KPARAM_INFO
	Format:	EIFMT_SVAL
	Value:	Index : 0x0	Ordinal : 0x5	Offset  : 0x24	Size    : 0x4
		Pointee's logAlignment : 0x0	Space : 0x0	cbank : 0x1f	Parameter Space : CBANK	
	<0x8>
	Attribute:	EIATTR_KPARAM_INFO
	Format:	EIFMT_SVAL
	Value:	Index : 0x0	Ordinal : 0x4	Offset  : 0x20	Size    : 0x4
		Pointee's logAlignment : 0x0	Space : 0x0	cbank : 0x1f	Parameter Space : CBANK	
	<0x9>
	Attribute:	EIATTR_KPARAM_INFO
	Format:	EIFMT_SVAL
	Value:	Index : 0x0	Ordinal : 0x3	Offset  : 0x18	Size    : 0x8
		Pointee's logAlignment : 0x0	Space : 0x0	cbank : 0x1f	Parameter Space : CBANK	
	<0x10>
	Attribute:	EIATTR_KPARAM_INFO
	Format:	EIFMT_SVAL
	Value:	Index : 0x0	Ordinal : 0x2	Offset  : 0x10	Size    : 0x8
		Pointee's logAlignment : 0x0	Space : 0x0	cbank : 0x1f	Parameter Space : CBANK	
	<0x11>
	Attribute:	EIATTR_KPARAM_INFO
	Format:	EIFMT_SVAL
	Value:	Index : 0x0	Ordinal : 0x1	Offset  : 0x8	Size    : 0x8
		Pointee's logAlignment : 0x0	Space : 0x0	cbank : 0x1f	Parameter Space : CBANK	
	<0x12>
	Attribute:	EIATTR_KPARAM_INFO
	Format:	EIFMT_SVAL
	Value:	Index : 0x0	Ordinal : 0x0	Offset  : 0x0	Size    : 0x8
		Pointee's logAlignment : 0x0	Space : 0x0	cbank : 0x1f	Parameter Space : CBANK	
	<0x13>
	Attribute:	EIATTR_MAXREG_COUNT
	Format:	EIFMT_HVAL
	Value:	0xff
	<0x14>
	Attribute:	EIATTR_COOP_GROUP_MASK_REGIDS
	Format:	EIFMT_SVAL
	Value:	0xffffffff 0xffffffff 0xffffffff 0xffffffff 0xffffffff 
	<0x15>
	Attribute:	EIATTR_COOP_GROUP_INSTR_OFFSETS
	Format:	EIFMT_SVAL
	Value:	0x1d10 0x1d30 0x1d50 0x1d70 0x1da0 
	<0x16>
	Attribute:	EIATTR_EXIT_INSTR_OFFSETS
	Format:	EIFMT_SVAL
	Value:	0x37d0 0x3820 
	<0x17>
	Attribute:	EIATTR_MAX_THREADS
	Format:	EIFMT_SVAL
	Value:	0x100 0x1 0x1 
	<0x18>
	Attribute:	EIATTR_CRS_STACK_SIZE
	Format:	EIFMT_SVAL
	Value:	0x0 


.nv.info._ZN3cub17CUB_200400_750_NS29DeviceRadixSortOnesweepKernelINS0_21DeviceRadixSortPolicyIiijE9Policy900ELb0EiijiiNS0_6detail21identity_decomposer_tEEEvPT5_S8_PT3_PKS9_PT1_PKSD_PT2_PKSH_T4_iiT6_
	<0x1>
	Attribute:	EIATTR_SW_WAR
	Format:	EIFMT_SVAL
	Value:	0x1 
	<0x2>
	Attribute:	EIATTR_CUDA_API_VERSION
	Format:	EIFMT_SVAL
	Value:	0x7d 
	<0x3>
	Attribute:	EIATTR_PARAM_CBANK
	Format:	EIFMT_SVAL
	Value:	0x64 0x4d0160 
	<0x4>
	Attribute:	EIATTR_CBANK_PARAM_SIZE
	Format:	EIFMT_HVAL
	Value:	0x4d
	<0x5>
	Attribute:	EIATTR_KPARAM_INFO
	Format:	EIFMT_SVAL
	Value:	Index : 0x0	Ordinal : 0xb	Offset  : 0x4c	Size    : 0x1
		Pointee's logAlignment : 0x0	Space : 0x0	cbank : 0x1f	Parameter Space : CBANK	
	<0x6>
	Attribute:	EIATTR_KPARAM_INFO
	Format:	EIFMT_SVAL
	Value:	Index : 0x0	Ordinal : 0xa	Offset  : 0x48	Size    : 0x4
		Pointee's logAlignment : 0x0	Space : 0x0	cbank : 0x1f	Parameter Space : CBANK	
	<0x7>
	Attribute:	EIATTR_KPARAM_INFO
	Format:	EIFMT_SVAL
	Value:	Index : 0x0	Ordinal : 0x9	Offset  : 0x44	Size    : 0x4
		Pointee's logAlignment : 0x0	Space : 0x0	cbank : 0x1f	Parameter Space : CBANK	
	<0x8>
	Attribute:	EIATTR_KPARAM_INFO
	Format:	EIFMT_SVAL
	Value:	Index : 0x0	Ordinal : 0x8	Offset  : 0x40	Size    : 0x4
		Pointee's logAlignment : 0x0	Space : 0x0	cbank : 0x1f	Parameter Space : CBANK	
	<0x9>
	Attribute:	EIATTR_KPARAM_INFO
	Format:	EIFMT_SVAL
	Value:	Index : 0x0	Ordinal : 0x7	Offset  : 0x38	Size    : 0x8
		Pointee's logAlignment : 0x0	Space : 0x0	cbank : 0x1f	Parameter Space : CBANK	
	<0x10>
	Attribute:	EIATTR_KPARAM_INFO
	Format:	EIFMT_SVAL
	Value:	Index : 0x0	Ordinal : 0x6	Offset  : 0x30	Size    : 0x8
		Pointee's logAlignment : 0x0	Space : 0x0	cbank : 0x1f	Parameter Space : CBANK	
	<0x11>
	Attribute:	EIATTR_KPARAM_INFO
	Format:	EIFMT_SVAL
	Value:	Index : 0x0	Ordinal : 0x5	Offset  : 0x28	Size    : 0x8
		Pointee's logAlignment : 0x0	Space : 0x0	cbank : 0x1f	Parameter Space : CBANK	
	<0x12>
	Attribute:	EIATTR_KPARAM_INFO
	Format:	EIFMT_SVAL
	Value:	Index : 0x0	Ordinal : 0x4	Offset  : 0x20	Size    : 0x8
		Pointee's logAlignment : 0x0	Space : 0x0	cbank : 0x1f	Parameter Space : CBANK	
	<0x13>
	Attribute:	EIATTR_KPARAM_INFO
	Format:	EIFMT_SVAL
	Value:	Index : 0x0	Ordinal : 0x3	Offset  : 0x18	Size    : 0x8
		Pointee's logAlignment : 0x0	Space : 0x0	cbank : 0x1f	Parameter Space : CBANK	
	<0x14>
	Attribute:	EIATTR_KPARAM_INFO
	Format:	EIFMT_SVAL
	Value:	Index : 0x0	Ordinal : 0x2	Offset  : 0x10	Size    : 0x8
		Pointee's logAlignment : 0x0	Space : 0x0	cbank : 0x1f	Parameter Space : CBANK	
	<0x15>
	Attribute:	EIATTR_KPARAM_INFO
	Format:	EIFMT_SVAL
	Value:	Index : 0x0	Ordinal : 0x1	Offset  : 0x8	Size    : 0x8
		Pointee's logAlignment : 0x0	Space : 0x0	cbank : 0x1f	Parameter Space : CBANK	
	<0x16>
	Attribute:	EIATTR_KPARAM_INFO
	Format:	EIFMT_SVAL
	Value:	Index : 0x0	Ordinal : 0x0	Offset  : 0x0	Size    : 0x8
		Pointee's logAlignment : 0x0	Space : 0x0	cbank : 0x1f	Parameter Space : CBANK	
	<0x17>
	Attribute:	EIATTR_MAXREG_COUNT
	Format:	EIFMT_HVAL
	Value:	0xff
	<0x18>
	Attribute:	EIATTR_UNUSED_LOAD_BYTE_OFFSET
	Format:	EIFMT_SVAL
	Value:	0x52a0 0xfff 
	<0x19>
	Attribute:	EIATTR_INT_WARP_WIDE_INSTR_OFFSETS
	Format:	EIFMT_SVAL
	Value:	0x2a80 0x2aa0 0x2ba0 0x2bc0 0xd2b0 0xd2d0 0xd3d0 0xd3f0 
	<0x20>
	Attribute:	EIATTR_COOP_GROUP_MASK_REGIDS
	Format:	EIFMT_SVAL
	Value:	0xffffffff 0xffffffff 0x500000c 0xffffffff 0xffffffff 0xffffffff 0xffffffff 0xffffffff 0xffffffff 0xffffffff 0xffffffff 0xffffffff 0xffffffff 0xffffffff 0xffffffff 0xffffffff 0xffffffff 0xffffffff 0xffffffff 0xffffffff 0xffffffff 0xffffffff 0xffffffff 0xffffffff 0xffffffff 0xffffffff 0xffffffff 0xffffffff 0xffffffff 0xffffffff 0xffffffff 0xffffffff 0xffffffff 0xffffffff 0xffffffff 0xffffffff 0xffffffff 0xffffffff 0xffffffff 0xffffffff 0xffffffff 0xffffffff 0xffffffff 0xffffffff 0xffffffff 0xffffffff 0xffffffff 0xffffffff 0xffffffff 0xffffffff 0xffffffff 0xffffffff 0xffffffff 0xffffffff 0xffffffff 0xffffffff 0xffffffff 0xffffffff 0xffffffff 0xffffffff 0xffffffff 0xffffffff 0xffffffff 0xffffffff 0xffffffff 0xffffffff 0xffffffff 0xffffffff 0xffffffff 0xffffffff 0xffffffff 0xffffffff 0xffffffff 0xffffffff 0xffffffff 0xffffffff 0xffffffff 0xffffffff 0xffffffff 0xffffffff 0xffffffff 0xffffffff 0xffffffff 0xffffffff 0xffffffff 0xffffffff 0xffffffff 0xffffffff 0xffffffff 0xffffffff 0xffffffff 0xffffffff 0xffffffff 0xffffffff 0xffffffff 0xffffffff 0xffffffff 0xffffffff 0xffffffff 0xffffffff 0xffffffff 0xffffffff 0xffffffff 0xffffffff 0xffffffff 0xffffffff 0xffffffff 0xffffffff 0xffffffff 0xffffffff 0xffffffff 0xffffffff 0xffffffff 0xffffffff 0xffffffff 0xffffffff 0xffffffff 0xffffffff 0xffffffff 0xffffffff 0xffffffff 0xffffffff 0xffffffff 0xffffffff 0xffffffff 0xffffffff 0xffffffff 0xffffffff 0xffffffff 0xffffffff 0xffffffff 0xffffffff 0xffffffff 0xffffffff 0xffffffff 0xffffffff 0xffffffff 0xffffffff 0xffffffff 0xffffffff 0xffffffff 0xffffffff 0xffffffff 0xffffffff 0xffffffff 0xffffffff 0xffffffff 0xffffffff 0xffffffff 0xffffffff 0xffffffff 0xffffffff 0xffffffff 0xffffffff 0xffffffff 0xffffffff 0xffffffff 0xffffffff 0xffffffff 0xffffffff 0xffffffff 0xffffffff 0xffffffff 0xffffffff 0xffffffff 0xffffffff 0xffffffff 0xffffffff 0xffffffff 0xffffffff 0xffffffff 0xffffffff 0xffffffff 0xffffffff 0xffffffff 0xffffffff 0xffffffff 0xffffffff 0xffffffff 0xffffffff 0xffffffff 0xffffffff 0xffffffff 0xffffffff 0xffffffff 0xffffffff 0xffffffff 0xffffffff 0xffffffff 0xffffffff 0xffffffff 0xffffffff 0xffffffff 0xffffffff 0xffffffff 0xffffffff 0xffffffff 0xffffffff 0xffffffff 0xffffffff 0xffffffff 0xffffffff 0xffffffff 0xffffffff 0xffffffff 0xffffffff 0xffffffff 0xffffffff 0xffffffff 0xffffffff 0xffffffff 0xffffffff 0xffffffff 0xffffffff 0xffffffff 0xffffffff 0xffffffff 0xffffffff 0xffffffff 0xffffffff 0xffffffff 0xffffffff 0xffffffff 0xffffffff 0xffffffff 0xffffffff 0xffffffff 0xffffffff 0xffffffff 0xffffffff 0xffffffff 0xffffffff 0xffffffff 0xffffffff 0xffffffff 0xffffffff 0xffffffff 0xffffffff 0xffffffff 0xffffffff 0xffffffff 0xffffffff 0xffffffff 0xffffffff 0xffffffff 0xffffffff 0xffffffff 0xffffffff 0xffffffff 0xffffffff 0xffffffff 0xffffffff 0xffffffff 0xffffffff 0xffffffff 0xffffffff 0xffffffff 0xffffffff 0xffffffff 0xffffffff 0xffffffff 0xffffffff 0xffffffff 0xffffffff 0xffffffff 0xffffffff 0xffffffff 0xffffffff 0xffffffff 0xffffffff 0xffffffff 0xffffffff 0xffffffff 0xffffffff 0xffffffff 0xffffffff 0xffffffff 0xffffffff 0xffffffff 0xffffffff 0xffffffff 0xffffffff 0xffffffff 0xffffffff 0xffffffff 0xffffffff 0xffffffff 0xffffffff 0xffffffff 0xffffffff 0xffffffff 0xffffffff 0xffffffff 0xffffffff 0xffffffff 0xffffffff 0xffffffff 0xffffffff 0xffffffff 0xffffffff 0xffffffff 0xffffffff 0xffffffff 0xffffffff 0xffffffff 0xffffffff 0xffffffff 0xffffffff 0xffffffff 0xffffffff 0xffffffff 0xffffffff 0xffffffff 0xffffffff 0xffffffff 0xffffffff 0xffffffff 0xffffffff 0xffffffff 0xffffffff 0xffffffff 0xffffffff 0xffffffff 0xffffffff 0xffffffff 0xffffffff 0xffffffff 0xffffffff 0xffffffff 0xffffffff 0xffffffff 0xffffffff 0xffffffff 0xffffffff 0xffffffff 0xffffffff 0xffffffff 0xffffffff 0xffffffff 0xffffffff 0xffffffff 0xffffffff 0xffffffff 0xffffffff 0xffffffff 0xffffffff 0xffffffff 0xffffffff 0xffffffff 0xffffffff 0xffffffff 0xffffffff 0xffffffff 0xffffffff 0xffffffff 0xffffffff 0xffffffff 0xffffffff 0xffffffff 0xffffffff 0xffffffff 0xffffffff 0xffffffff 0xffffffff 0xffffffff 0xffffffff 0xffffffff 0xffffffff 0xffffffff 0xffffffff 0xffffffff 0xffffffff 0xffffffff 0xffffffff 0xffffffff 0xffffffff 0xffffffff 0xffffffff 0xffffffff 0xffffffff 0xffffffff 0xffffffff 0xffffffff 0xffffffff 0xffffffff 0xffffffff 0xffffffff 0xffffffff 0xffffffff 0xffffffff 0xffffffff 0xffffffff 0xffffffff 0xffffffff 0xffffffff 0xffffffff 0xffffffff 0xffffffff 0xffffffff 0xffffffff 0xffffffff 0xffffffff 0xffffffff 0xffffffff 0xffffffff 0xffffffff 0xffffffff 0xffffffff 0xffffffff 0xffffffff 0xffffffff 0xffffffff 0xffffffff 0xffffffff 0xffffffff 0xffffffff 0xffffffff 0xffffffff 0xffffffff 0xffffffff 0xffffffff 0xffffffff 0x5000026 0xffffffff 0xffffffff 0xffffffff 0xffffffff 0xffffffff 0xffffffff 0xffffffff 0xffffffff 0xffffffff 0xffffffff 0xffffffff 0xffffffff 0xffffffff 0xffffffff 0xffffffff 0xffffffff 0xffffffff 0xffffffff 0xffffffff 0xffffffff 0xffffffff 0xffffffff 0xffffffff 0xffffffff 0xffffffff 0xffffffff 0xffffffff 0xffffffff 0xffffffff 0xffffffff 0xffffffff 0xffffffff 0xffffffff 0xffffffff 0xffffffff 0xffffffff 0xffffffff 0xffffffff 0xffffffff 0xffffffff 0xffffffff 0xffffffff 0xffffffff 0xffffffff 0xffffffff 0xffffffff 0xffffffff 0xffffffff 0xffffffff 0xffffffff 0xffffffff 0xffffffff 0xffffffff 0xffffffff 0xffffffff 0xffffffff 0xffffffff 0xffffffff 0xffffffff 0xffffffff 0xffffffff 0xffffffff 0xffffffff 0xffffffff 0xffffffff 0xffffffff 0xffffffff 0xffffffff 0xffffffff 0xffffffff 0xffffffff 0xffffffff 0xffffffff 0xffffffff 0xffffffff 0xffffffff 0xffffffff 0xffffffff 0xffffffff 0xffffffff 0xffffffff 0xffffffff 0xffffffff 0xffffffff 0xffffffff 0xffffffff 0xffffffff 0xffffffff 0xffffffff 0xffffffff 0xffffffff 0xffffffff 0xffffffff 0xffffffff 0xffffffff 0xffffffff 0xffffffff 0xffffffff 0xffffffff 0xffffffff 0xffffffff 0xffffffff 0xffffffff 0xffffffff 0xffffffff 0xffffffff 0xffffffff 0xffffffff 0xffffffff 0xffffffff 0xffffffff 0xffffffff 0xffffffff 0xffffffff 0xffffffff 0xffffffff 0xffffffff 0xffffffff 0xffffffff 0xffffffff 0xffffffff 0xffffffff 0xffffffff 0xffffffff 0xffffffff 0xffffffff 0xffffffff 0xffffffff 0xffffffff 0xffffffff 0xffffffff 0xffffffff 0xffffffff 0xffffffff 0xffffffff 0xffffffff 0xffffffff 0xffffffff 0xffffffff 0xffffffff 0xffffffff 0xffffffff 0xffffffff 0xffffffff 0xffffffff 0xffffffff 0xffffffff 0xffffffff 0xffffffff 0xffffffff 0xffffffff 0xffffffff 0xffffffff 0xffffffff 0xffffffff 0xffffffff 0xffffffff 0xffffffff 0xffffffff 0xffffffff 0xffffffff 0xffffffff 0xffffffff 0xffffffff 0xffffffff 0xffffffff 0xffffffff 0xffffffff 0xffffffff 0xffffffff 0xffffffff 0xffffffff 0xffffffff 0xffffffff 0xffffffff 0xffffffff 0xffffffff 0xffffffff 0xffffffff 0xffffffff 0xffffffff 0xffffffff 0xffffffff 0xffffffff 0xffffffff 0xffffffff 0xffffffff 0xffffffff 0xffffffff 0xffffffff 0xffffffff 0xffffffff 0xffffffff 0xffffffff 0xffffffff 0xffffffff 0xffffffff 0xffffffff 0xffffffff 
	<0x21>
	Attribute:	EIATTR_COOP_GROUP_INSTR_OFFSETS
	Format:	EIFMT_SVAL
	Value:	0x1360 0x24b0 0x2b30 0x5130 0x5150 0x5170 0x5190 0x51b0 0x55b0 0x55e0 0x55f0 0x5610 0x5640 0x56a0 0x56c0 0x5700 0x5840 0x5860 0x5870 0x5890 0x58d0 0x58f0 0x5940 0x5960 0x5980 0x5aa0 0x5ae0 0x5af0 0x5b10 0x5b50 0x5b70 0x5bc0 0x5be0 0x5c20 0x5d30 0x5d50 0x5d60 0x5d80 0x5dc0 0x5de0 0x5e30 0x5e50 0x5e90 0x5fa0 0x5fd0 0x5fe0 0x6000 0x6040 0x6060 0x60b0 0x60d0 0x6110 0x6220 0x6240 0x6250 0x6280 0x62b0 0x62e0 0x6310 0x6350 0x6360 0x6490 0x64d0 0x64e0 0x6500 0x6540 0x6560 0x65b0 0x65d0 0x6610 0x6720 0x6740 0x6750 0x6770 0x67b0 0x67d0 0x6820 0x6840 0x6880 0x6990 0x69d0 0x69e0 0x6a00 0x6a40 0x6a60 0x6ab0 0x6ad0 0x6b10 0x6c20 0x6c40 0x6c50 0x6c70 0x6cb0 0x6cd0 0x6d20 0x6d40 0x6d80 0x6e90 0x6ed0 0x6ee0 0x6f00 0x6f40 0x6f60 0x6fb0 0x6fd0 0x7010 0x7120 0x7140 0x7150 0x7170 0x71b0 0x71d0 0x7220 0x7240 0x7280 0x7390 0x73d0 0x73e0 0x7400 0x7440 0x7460 0x74b0 0x74d0 0x7510 0x7620 0x7640 0x7650 0x7670 0x76b0 0x76d0 0x7720 0x7740 0x7780 0x7890 0x78c0 0x78d0 0x78f0 0x7930 0x7950 0x79a0 0x79c0 0x7a00 0x7b20 0x7b40 0x7b50 0x7b80 0x7bb0 0x7be0 0x7c10 0x7c50 0x7c60 0x7d90 0x7db0 0x7dc0 0x7df0 0x7e20 0x7e50 0x7e80 0x7ec0 0x7ed0 0x8020 0x8040 0x8050 0x8080 0x80b0 0x80e0 0x8110 0x8150 0x8160 0x8290 0x82b0 0x82c0 0x82f0 0x8320 0x8350 0x8380 0x83c0 0x83d0 0x8520 0x8540 0x8550 0x8580 0x85b0 0x85e0 0x8610 0x8650 0x8660 0x8790 0x87c0 0x87d0 0x8800 0x8830 0x8860 0x8890 0x88d0 0x88e0 0x8a20 0x8a40 0x8a50 0x8a80 0x8ab0 0x8ae0 0x8b10 0x8b50 0x8b60 0x8c90 0x8cc0 0x8cd0 0x8cf0 0x8d30 0x8d50 0x8da0 0x8dc0 0x8e00 0x8f20 0x8f40 0x8f50 0x8f80 0x8fb0 0x8fe0 0x9010 0x9050 0x9060 0x9190 0x91d0 0x91e0 0x9200 0x9240 0x9260 0x92b0 0x92d0 0x9310 0x9420 0x9440 0x9450 0x9470 0x94b0 0x94d0 0x9520 0x9540 0x9580 0x9690 0x96d0 0x96e0 0x9700 0x9740 0x9760 0x97b0 0x97d0 0x9810 0x9920 0x9940 0x9950 0x9970 0x99b0 0x99d0 0x9a20 0x9a40 0x9a80 0x9b90 0x9bd0 0x9be0 0x9c00 0x9c40 0x9c60 0x9cb0 0x9cd0 0x9d10 0x9e20 0x9e40 0x9e50 0x9e70 0x9eb0 0x9ed0 0x9f20 0x9f40 0x9f80 0xa090 0xa0d0 0xa0e0 0xa100 0xa140 0xa160 0xa1b0 0xa1d0 0xa210 0xa320 0xa340 0xa350 0xa370 0xa3b0 0xa3d0 0xa420 0xa440 0xa480 0xa590 0xa5d0 0xa5e0 0xa600 0xa640 0xa660 0xa6b0 0xa6d0 0xa710 0xa820 0xa840 0xa850 0xa870 0xa8b0 0xa8d0 0xa920 0xa940 0xa980 0xaa90 0xaad0 0xaae0 0xab00 0xab40 0xab60 0xabb0 0xabd0 0xac10 0xad20 0xad40 0xad50 0xad70 0xadb0 0xadd0 0xae20 0xae40 0xae80 0xaf90 0xafd0 0xafe0 0xb000 0xb040 0xb060 0xb0b0 0xb0d0 0xb110 0xb220 0xb240 0xb250 0xb270 0xb2b0 0xb2d0 0xb320 0xb340 0xb380 0xb490 0xb4c0 0xb4d0 0xb500 0xb530 0xb560 0xb590 0xb5d0 0xb5e0 0xb720 0xb740 0xb750 0xb770 0xb7b0 0xb7d0 0xb820 0xb840 0xb880 0xb990 0xb9d0 0xb9e0 0xba00 0xba40 0xba60 0xbab0 0xbad0 0xbb10 0xbc20 0xbc40 0xbc50 0xbc70 0xbcb0 0xbcd0 0xbd20 0xbd40 0xbd80 0xbeb0 0xbec0 0xbed0 0xbef0 0xbf30 0xbf50 0xbfa0 0xbfc0 0xbfe0 0xc130 0xc140 0xc160 0xc1a0 0xc1c0 0xc210 0xc230 0xc270 0xc2f0 0xc3c0 0xc3d0 0xc400 0xc430 0xc460 0xc490 0xc4d0 0xc4e0 0xc5a0 0xc660 0xc670 0xc680 0xc6a0 0xc6e0 0xc700 0xc750 0xc770 0xc790 0xc8e0 0xd360 0xd680 0xd740 0xd810 0xd920 0xdaa0 0xdb80 0xdc60 0xdd40 0xde20 0xdf10 0xe020 0xe1a0 0xe280 0xe360 0xe440 0xe520 0xe610 0xe720 0xe8a0 0xe980 0xea60 0xeb40 0xec20 0xed10 0xee20 0xefa0 0xf080 0xf160 0xf240 0xf320 0xf410 0xf520 0xf6a0 0xf780 0xf860 0xf940 0xfa20 0xfb10 0xfc20 0xfda0 0xfe80 0xff60 0x10040 0x10120 0x10200 0x102d0 0x10370 0x10400 0x10490 0x10520 0x105b0 0x10640 0x106d0 0x10760 0x107f0 0x10880 0x10910 0x109a0 0x10a30 0x10ac0 0x10b50 0x10be0 0x10c70 0x10d00 0x10d90 0x10e20 0x10eb0 0x10f40 0x10fd0 0x11060 0x110f0 0x11180 0x11210 0x112a0 0x11330 0x113c0 0x11450 0x114e0 0x11570 0x11600 0x11690 0x11720 0x117b0 0x11840 0x118d0 0x11960 0x119f0 0x11a80 0x11b10 0x11ba0 0x11c30 0x11cc0 0x13880 0x13900 0x13970 0x13a00 0x13a90 0x13b20 0x13bb0 0x13c40 0x13cd0 0x13d60 0x13df0 0x13e80 0x13f10 0x13fa0 0x14030 0x140c0 0x14150 0x141e0 0x14270 0x14300 0x14390 0x14420 0x144b0 0x14540 0x145d0 0x14660 0x146f0 0x14780 0x14810 0x148a0 0x14930 0x149c0 0x14a50 0x14ae0 0x14b70 0x14c00 0x14c90 0x14d20 0x14db0 0x14e40 0x14ed0 0x14f60 0x14ff0 0x15090 0x15110 0x15190 0x15220 0x15280 0x152e0 0x15340 0x153a0 0x15400 0x15460 0x154c0 0x15520 0x15580 0x155e0 0x15640 0x156a0 0x15700 0x15760 0x157c0 0x15820 0x15880 0x158e0 0x15940 0x159a0 0x15a00 0x15a60 0x15ac0 0x15b20 0x15b80 0x15be0 0x15c40 0x15ca0 0x15d00 0x15d60 0x15dc0 0x15e20 0x15e80 0x15ee0 0x15f40 0x15fa0 0x16000 0x16060 0x160c0 0x16120 0x16180 0x161e0 0x16240 0x162a0 0x16300 0x16350 0x163d0 0x16450 0x164d0 0x16550 0x165d0 0x16630 0x166a0 0x16720 0x167a0 0x16820 0x168a0 0x16920 0x169a0 0x16a00 
	<0x22>
	Attribute:	EIATTR_EXIT_INSTR_OFFSETS
	Format:	EIFMT_SVAL
	Value:	0x4e00 0x4e20 0x5110 0x151a0 0x16310 
	<0x23>
	Attribute:	EIATTR_MAX_THREADS
	Format:	EIFMT_SVAL
	Value:	0x100 0x1 0x1 
	<0x24>
	Attribute:	EIATTR_CRS_STACK_SIZE
	Format:	EIFMT_SVAL
	Value:	0x0 


.nv.info._ZN3cub17CUB_200400_750_NS33DeviceRadixSortExclusiveSumKernelINS0_21DeviceRadixSortPolicyIiijE9Policy900EjEEvPT0_
	<0x1>
	Attribute:	EIATTR_SW_WAR
	Format:	EIFMT_SVAL
	Value:	0x1 
	<0x2>
	Attribute:	EIATTR_CUDA_API_VERSION
	Format:	EIFMT_SVAL
	Value:	0x7d 
	<0x3>
	Attribute:	EIATTR_PARAM_CBANK
	Format:	EIFMT_SVAL
	Value:	0x68 0x80160 
	<0x4>
	Attribute:	EIATTR_CBANK_PARAM_SIZE
	Format:	EIFMT_HVAL
	Value:	0x8
	<0x5>
	Attribute:	EIATTR_KPARAM_INFO
	Format:	EIFMT_SVAL
	Value:	Index : 0x0	Ordinal : 0x0	Offset  : 0x0	Size    : 0x8
		Pointee's logAlignment : 0x0	Space : 0x0	cbank : 0x1f	Parameter Space : CBANK	
	<0x6>
	Attribute:	EIATTR_MAXREG_COUNT
	Format:	EIFMT_HVAL
	Value:	0xff
	<0x7>
	Attribute:	EIATTR_COOP_GROUP_MASK_REGIDS
	Format:	EIFMT_SVAL
	Value:	0xffffffff 0xffffffff 0xffffffff 0xffffffff 0xffffffff 0xffffffff 0xffffffff 0xffffffff 0xffffffff 0xffffffff 
	<0x8>
	Attribute:	EIATTR_COOP_GROUP_INSTR_OFFSETS
	Format:	EIFMT_SVAL
	Value:	0x1f0 0x210 0x230 0x250 0x270 0x4b0 0x530 0x5b0 0x630 0x6b0 
	<0x9>
	Attribute:	EIATTR_EXIT_INSTR_OFFSETS
	Format:	EIFMT_SVAL
	Value:	0x420 0x450 
	<0x10>
	Attribute:	EIATTR_CRS_STACK_SIZE
	Format:	EIFMT_SVAL
	Value:	0x0 


.nv.info._ZN3cub17CUB_200400_750_NS30DeviceRadixSortHistogramKernelINS0_21DeviceRadixSortPolicyIiijE9Policy900ELb0EijNS0_6detail21identity_decomposer_tEEEvPT2_PKT1_S7_iiT3_
	<0x1>
	Attribute:	EIATTR_SW_WAR
	Format:	EIFMT_SVAL
	Value:	0x1 
	<0x2>
	Attribute:	EIATTR_CUDA_API_VERSION
	Format:	EIFMT_SVAL
	Value:	0x7d 
	<0x3>
	Attribute:	EIATTR_PARAM_CBANK
	Format:	EIFMT_SVAL
	Value:	0x6b 0x1d0160 
	<0x4>
	Attribute:	EIATTR_CBANK_PARAM_SIZE
	Format:	EIFMT_HVAL
	Value:	0x1d
	<0x5>
	Attribute:	EIATTR_KPARAM_INFO
	Format:	EIFMT_SVAL
	Value:	Index : 0x0	Ordinal : 0x5	Offset  : 0x1c	Size    : 0x1
		Pointee's logAlignment : 0x0	Space : 0x0	cbank : 0x1f	Parameter Space : CBANK	
	<0x6>
	Attribute:	EIATTR_KPARAM_INFO
	Format:	EIFMT_SVAL
	Value:	Index : 0x0	Ordinal : 0x4	Offset  : 0x18	Size    : 0x4
		Pointee's logAlignment : 0x0	Space : 0x0	cbank : 0x1f	Parameter Space : CBANK	
	<0x7>
	Attribute:	EIATTR_KPARAM_INFO
	Format:	EIFMT_SVAL
	Value:	Index : 0x0	Ordinal : 0x3	Offset  : 0x14	Size    : 0x4
		Pointee's logAlignment : 0x0	Space : 0x0	cbank : 0x1f	Parameter Space : CBANK	
	<0x8>
	Attribute:	EIATTR_KPARAM_INFO
	Format:	EIFMT_SVAL
	Value:	Index : 0x0	Ordinal : 0x2	Offset  : 0x10	Size    : 0x4
		Pointee's logAlignment : 0x0	Space : 0x0	cbank : 0x1f	Parameter Space : CBANK	
	<0x9>
	Attribute:	EIATTR_KPARAM_INFO
	Format:	EIFMT_SVAL
	Value:	Index : 0x0	Ordinal : 0x1	Offset  : 0x8	Size    : 0x8
		Pointee's logAlignment : 0x0	Space : 0x0	cbank : 0x1f	Parameter Space : CBANK	
	<0x10>
	Attribute:	EIATTR_KPARAM_INFO
	Format:	EIFMT_SVAL
	Value:	Index : 0x0	Ordinal : 0x0	Offset  : 0x0	Size    : 0x8
		Pointee's logAlignment : 0x0	Space : 0x0	cbank : 0x1f	Parameter Space : CBANK	
	<0x11>
	Attribute:	EIATTR_MAXREG_COUNT
	Format:	EIFMT_HVAL
	Value:	0xff
	<0x12>
	Attribute:	EIATTR_INT_WARP_WIDE_INSTR_OFFSETS
	Format:	EIFMT_SVAL
	Value:	0x23a0 0x23c0 0x2770 0x2790 
	<0x13>
	Attribute:	EIATTR_EXIT_INSTR_OFFSETS
	Format:	EIFMT_SVAL
	Value:	0x70 0x2810 
	<0x14>
	Attribute:	EIATTR_MAX_THREADS
	Format:	EIFMT_SVAL
	Value:	0x100 0x1 0x1 
	<0x15>
	Attribute:	EIATTR_CRS_STACK_SIZE
	Format:	EIFMT_SVAL
	Value:	0x0 


.nv.info._ZN3cub17CUB_200400_750_NS30DeviceRadixSortDownsweepKernelINS0_21DeviceRadixSortPolicyIiijE9Policy900ELb1ELb0EiijNS0_6detail21identity_decomposer_tEEEvPKT2_PS7_PKT3_PSB_PT4_SF_iiNS0_13GridEvenShareISF_EET5_
	<0x1>
	Attribute:	EIATTR_SW_WAR
	Format:	EIFMT_SVAL
	Value:	0x1 
	<0x2>
	Attribute:	EIATTR_CUDA_API_VERSION
	Format:	EIFMT_SVAL
	Value:	0x7d 
	<0x3>
	Attribute:	EIATTR_PARAM_CBANK
	Format:	EIFMT_SVAL
	Value:	0x70 0x5d0160 
	<0x4>
	Attribute:	EIATTR_CBANK_PARAM_SIZE
	Format:	EIFMT_HVAL
	Value:	0x5d
	<0x5>
	Attribute:	EIATTR_KPARAM_INFO
	Format:	EIFMT_SVAL
	Value:	Index : 0x0	Ordinal : 0x9	Offset  : 0x5c	Size    : 0x1
		Pointee's logAlignment : 0x0	Space : 0x0	cbank : 0x1f	Parameter Space : CBANK	
	<0x6>
	Attribute:	EIATTR_KPARAM_INFO
	Format:	EIFMT_SVAL
	Value:	Index : 0x0	Ordinal : 0x8	Offset  : 0x34	Size    : 0x28
		Pointee's logAlignment : 0x0	Space : 0x0	cbank : 0x1f	Parameter Space : CBANK	
	<0x7>
	Attribute:	EIATTR_KPARAM_INFO
	Format:	EIFMT_SVAL
	Value:	Index : 0x0	Ordinal : 0x7	Offset  : 0x30	Size    : 0x4
		Pointee's logAlignment : 0x0	Space : 0x0	cbank : 0x1f	Parameter Space : CBANK	
	<0x8>
	Attribute:	EIATTR_KPARAM_INFO
	Format:	EIFMT_SVAL
	Value:	Index : 0x0	Ordinal : 0x6	Offset  : 0x2c	Size    : 0x4
		Pointee's logAlignment : 0x0	Space : 0x0	cbank : 0x1f	Parameter Space : CBANK	
	<0x9>
	Attribute:	EIATTR_KPARAM_INFO
	Format:	EIFMT_SVAL
	Value:	Index : 0x0	Ordinal : 0x5	Offset  : 0x28	Size    : 0x4
		Pointee's logAlignment : 0x0	Space : 0x0	cbank : 0x1f	Parameter Space : CBANK	
	<0x10>
	Attribute:	EIATTR_KPARAM_INFO
	Format:	EIFMT_SVAL
	Value:	Index : 0x0	Ordinal : 0x4	Offset  : 0x20	Size    : 0x8
		Pointee's logAlignment : 0x0	Space : 0x0	cbank : 0x1f	Parameter Space : CBANK	
	<0x11>
	Attribute:	EIATTR_KPARAM_INFO
	Format:	EIFMT_SVAL
	Value:	Index : 0x0	Ordinal : 0x3	Offset  : 0x18	Size    : 0x8
		Pointee's logAlignment : 0x0	Space : 0x0	cbank : 0x1f	Parameter Space : CBANK	
	<0x12>
	Attribute:	EIATTR_KPARAM_INFO
	Format:	EIFMT_SVAL
	Value:	Index : 0x0	Ordinal : 0x2	Offset  : 0x10	Size    : 0x8
		Pointee's logAlignment : 0x0	Space : 0x0	cbank : 0x1f	Parameter Space : CBANK	
	<0x13>
	Attribute:	EIATTR_KPARAM_INFO
	Format:	EIFMT_SVAL
	Value:	Index : 0x0	Ordinal : 0x1	Offset  : 0x8	Size    : 0x8
		Pointee's logAlignment : 0x0	Space : 0x0	cbank : 0x1f	Parameter Space : CBANK	
	<0x14>
	Attribute:	EIATTR_KPARAM_INFO
	Format:	EIFMT_SVAL
	Value:	Index : 0x0	Ordinal : 0x0	Offset  : 0x0	Size    : 0x8
		Pointee's logAlignment : 0x0	Space : 0x0	cbank : 0x1f	Parameter Space : CBANK	
	<0x15>
	Attribute:	EIATTR_MAXREG_COUNT
	Format:	EIFMT_HVAL
	Value:	0xff
	<0x16>
	Attribute:	EIATTR_COOP_GROUP_MASK_REGIDS
	Format:	EIFMT_SVAL
	Value:	0xffffffff 0xffffffff 0xffffffff 0xffffffff 0xffffffff 0xffffffff 0xffffffff 0xffffffff 0xffffffff 0xffffffff 0xffffffff 0xffffffff 0xffffffff 0xffffffff 0xffffffff 0xffffffff 0xffffffff 0xffffffff 0xffffffff 0xffffffff 0xffffffff 0xffffffff 0xffffffff 
	<0x17>
	Attribute:	EIATTR_COOP_GROUP_INSTR_OFFSETS
	Format:	EIFMT_SVAL
	Value:	0x7040 0x7060 0x7080 0x70a0 0x70d0 0xb6d0 0xf4d0 0xf4f0 0xf510 0xf530 0xf560 0x10480 0x15620 0x156b0 0x15740 0x157d0 0x15860 0x158b0 0x15920 0x159b0 0x15a40 0x15ad0 0x15b60 
	<0x18>
	Attribute:	EIATTR_EXIT_INSTR_OFFSETS
	Format:	EIFMT_SVAL
	Value:	0x2550 0x3ab0 0x3ad0 0xb6b0 0x15560 0x155c0 
	<0x19>
	Attribute:	EIATTR_MAX_THREADS
	Format:	EIFMT_SVAL
	Value:	0x100 0x1 0x1 
	<0x20>
	Attribute:	EIATTR_CRS_STACK_SIZE
	Format:	EIFMT_SVAL
	Value:	0x0 


.nv.info._ZN3cub17CUB_200400_750_NS30DeviceRadixSortDownsweepKernelINS0_21DeviceRadixSortPolicyIiijE9Policy900ELb0ELb0EiijNS0_6detail21identity_decomposer_tEEEvPKT2_PS7_PKT3_PSB_PT4_SF_iiNS0_13GridEvenShareISF_EET5_
	<0x1>
	Attribute:	EIATTR_SW_WAR
	Format:	EIFMT_SVAL
	Value:	0x1 
	<0x2>
	Attribute:	EIATTR_CUDA_API_VERSION
	Format:	EIFMT_SVAL
	Value:	0x7d 
	<0x3>
	Attribute:	EIATTR_PARAM_CBANK
	Format:	EIFMT_SVAL
	Value:	0x75 0x5d0160 
	<0x4>
	Attribute:	EIATTR_CBANK_PARAM_SIZE
	Format:	EIFMT_HVAL
	Value:	0x5d
	<0x5>
	Attribute:	EIATTR_KPARAM_INFO
	Format:	EIFMT_SVAL
	Value:	Index : 0x0	Ordinal : 0x9	Offset  : 0x5c	Size    : 0x1
		Pointee's logAlignment : 0x0	Space : 0x0	cbank : 0x1f	Parameter Space : CBANK	
	<0x6>
	Attribute:	EIATTR_KPARAM_INFO
	Format:	EIFMT_SVAL
	Value:	Index : 0x0	Ordinal : 0x8	Offset  : 0x34	Size    : 0x28
		Pointee's logAlignment : 0x0	Space : 0x0	cbank : 0x1f	Parameter Space : CBANK	
	<0x7>
	Attribute:	EIATTR_KPARAM_INFO
	Format:	EIFMT_SVAL
	Value:	Index : 0x0	Ordinal : 0x7	Offset  : 0x30	Size    : 0x4
		Pointee's logAlignment : 0x0	Space : 0x0	cbank : 0x1f	Parameter Space : CBANK	
	<0x8>
	Attribute:	EIATTR_KPARAM_INFO
	Format:	EIFMT_SVAL
	Value:	Index : 0x0	Ordinal : 0x6	Offset  : 0x2c	Size    : 0x4
		Pointee's logAlignment : 0x0	Space : 0x0	cbank : 0x1f	Parameter Space : CBANK	
	<0x9>
	Attribute:	EIATTR_KPARAM_INFO
	Format:	EIFMT_SVAL
	Value:	Index : 0x0	Ordinal : 0x5	Offset  : 0x28	Size    : 0x4
		Pointee's logAlignment : 0x0	Space : 0x0	cbank : 0x1f	Parameter Space : CBANK	
	<0x10>
	Attribute:	EIATTR_KPARAM_INFO
	Format:	EIFMT_SVAL
	Value:	Index : 0x0	Ordinal : 0x4	Offset  : 0x20	Size    : 0x8
		Pointee's logAlignment : 0x0	Space : 0x0	cbank : 0x1f	Parameter Space : CBANK	
	<0x11>
	Attribute:	EIATTR_KPARAM_INFO
	Format:	EIFMT_SVAL
	Value:	Index : 0x0	Ordinal : 0x3	Offset  : 0x18	Size    : 0x8
		Pointee's logAlignment : 0x0	Space : 0x0	cbank : 0x1f	Parameter Space : CBANK	
	<0x12>
	Attribute:	EIATTR_KPARAM_INFO
	Format:	EIFMT_SVAL
	Value:	Index : 0x0	Ordinal : 0x2	Offset  : 0x10	Size    : 0x8
		Pointee's logAlignment : 0x0	Space : 0x0	cbank : 0x1f	Parameter Space : CBANK	
	<0x13>
	Attribute:	EIATTR_KPARAM_INFO
	Format:	EIFMT_SVAL
	Value:	Index : 0x0	Ordinal : 0x1	Offset  : 0x8	Size    : 0x8
		Pointee's logAlignment : 0x0	Space : 0x0	cbank : 0x1f	Parameter Space : CBANK	
	<0x14>
	Attribute:	EIATTR_KPARAM_INFO
	Format:	EIFMT_SVAL
	Value:	Index : 0x0	Ordinal : 0x0	Offset  : 0x0	Size    : 0x8
		Pointee's logAlignment : 0x0	Space : 0x0	cbank : 0x1f	Parameter Space : CBANK	
	<0x15>
	Attribute:	EIATTR_MAXREG_COUNT
	Format:	EIFMT_HVAL
	Value:	0x80
	<0x16>
	Attribute:	EIATTR_UNUSED_LOAD_BYTE_OFFSET
	Format:	EIFMT_SVAL
	Value:	0x57a0 0xfff 0xb520 0xfff 
	<0x17>
	Attribute:	EIATTR_COOP_GROUP_MASK_REGIDS
	Format:	EIFMT_SVAL
	Value:	0xffffffff 0xffffffff 0xffffffff 0xffffffff 0xffffffff 0xffffffff 0xffffffff 0xffffffff 0xffffffff 0xffffffff 0xffffffff 0xffffffff 0xffffffff 0xffffffff 0xffffffff 0xffffffff 0xffffffff 0xffffffff 0xffffffff 0xffffffff 0xffffffff 0xffffffff 0xffffffff 0xffffffff 0xffffffff 0xffffffff 0xffffffff 0xffffffff 0xffffffff 0xffffffff 0xffffffff 0xffffffff 0xffffffff 0xffffffff 0xffffffff 0xffffffff 0xffffffff 0xffffffff 0xffffffff 0xffffffff 0xffffffff 0xffffffff 0xffffffff 0xffffffff 0xffffffff 0xffffffff 0xffffffff 0xffffffff 0xffffffff 0xffffffff 0xffffffff 0xffffffff 0xffffffff 0xffffffff 0xffffffff 0xffffffff 0xffffffff 0xffffffff 0xffffffff 0xffffffff 0xffffffff 0xffffffff 0xffffffff 0xffffffff 0xffffffff 0xffffffff 0xffffffff 0xffffffff 0xffffffff 0xffffffff 0xffffffff 0xffffffff 0xffffffff 0xffffffff 0xffffffff 0xffffffff 0xffffffff 0xffffffff 0xffffffff 0xffffffff 0xffffffff 0xffffffff 0xffffffff 0xffffffff 0xffffffff 0xffffffff 0xffffffff 0xffffffff 0xffffffff 0xffffffff 0xffffffff 0xffffffff 0xffffffff 0xffffffff 0xffffffff 0xffffffff 0xffffffff 0xffffffff 0xffffffff 0xffffffff 0xffffffff 0xffffffff 0xffffffff 0xffffffff 0xffffffff 0xffffffff 0xffffffff 0xffffffff 0xffffffff 0xffffffff 0xffffffff 0xffffffff 0xffffffff 0xffffffff 0xffffffff 0xffffffff 0xffffffff 0xffffffff 0xffffffff 0xffffffff 0xffffffff 0xffffffff 0xffffffff 0xffffffff 0xffffffff 0xffffffff 0xffffffff 0xffffffff 0xffffffff 0xffffffff 0xffffffff 0xffffffff 0xffffffff 0xffffffff 0xffffffff 0xffffffff 0xffffffff 0xffffffff 0xffffffff 0xffffffff 0xffffffff 0xffffffff 0xffffffff 0xffffffff 0xffffffff 0xffffffff 0xffffffff 0xffffffff 0xffffffff 0xffffffff 0xffffffff 0xffffffff 0xffffffff 0xffffffff 0xffffffff 0xffffffff 0xffffffff 0xffffffff 0xffffffff 0xffffffff 0xffffffff 0xffffffff 0xffffffff 0xffffffff 0xffffffff 0xffffffff 0xffffffff 0xffffffff 0xffffffff 0xffffffff 0xffffffff 0xffffffff 0xffffffff 0xffffffff 0xffffffff 0xffffffff 0xffffffff 0xffffffff 0xffffffff 0xffffffff 0xffffffff 0xffffffff 0xffffffff 0xffffffff 0xffffffff 0xffffffff 0xffffffff 0xffffffff 0xffffffff 0xffffffff 0xffffffff 0xffffffff 0xffffffff 0xffffffff 0xffffffff 0xffffffff 0xffffffff 0xffffffff 0xffffffff 0xffffffff 0xffffffff 0xffffffff 0xffffffff 0xffffffff 0xffffffff 0xffffffff 0xffffffff 0xffffffff 0xffffffff 0xffffffff 0xffffffff 0xffffffff 0xffffffff 0xffffffff 0xffffffff 0xffffffff 0xffffffff 0xffffffff 0xffffffff 0xffffffff 0xffffffff 0xffffffff 0xffffffff 0xffffffff 0xffffffff 0xffffffff 0xffffffff 0xffffffff 0xffffffff 0xffffffff 0xffffffff 0xffffffff 0xffffffff 0xffffffff 0xffffffff 0xffffffff 0xffffffff 0xffffffff 0xffffffff 0xffffffff 0xffffffff 0xffffffff 0xffffffff 0xffffffff 0xffffffff 0xffffffff 0xffffffff 0xffffffff 0xffffffff 0xffffffff 0xffffffff 0xffffffff 0xffffffff 0xffffffff 0xffffffff 0xffffffff 0xffffffff 0xffffffff 0xffffffff 0xffffffff 0xffffffff 0xffffffff 0xffffffff 0xffffffff 0xffffffff 0xffffffff 0xffffffff 0xffffffff 0xffffffff 0xffffffff 0xffffffff 0xffffffff 0xffffffff 0xffffffff 0xffffffff 0xffffffff 0xffffffff 0xffffffff 0xffffffff 0xffffffff 0xffffffff 0xffffffff 0xffffffff 0xffffffff 0xffffffff 0xffffffff 0xffffffff 0xffffffff 0xffffffff 0xffffffff 0xffffffff 0xffffffff 0xffffffff 0xffffffff 0xffffffff 0xffffffff 0xffffffff 0xffffffff 0xffffffff 0xffffffff 0xffffffff 0xffffffff 0xffffffff 0xffffffff 0xffffffff 0xffffffff 0xffffffff 0xffffffff 0xffffffff 0xffffffff 0xffffffff 0xffffffff 0xffffffff 0xffffffff 0xffffffff 0xffffffff 0xffffffff 0xffffffff 0xffffffff 0xffffffff 0xffffffff 0xffffffff 0xffffffff 0xffffffff 0xffffffff 0xffffffff 0xffffffff 0xffffffff 0xffffffff 0xffffffff 0xffffffff 0xffffffff 0xffffffff 0xffffffff 0xffffffff 0xffffffff 0xffffffff 0xffffffff 0xffffffff 0xffffffff 0xffffffff 0xffffffff 0xffffffff 0xffffffff 0xffffffff 0xffffffff 0xffffffff 0xffffffff 0xffffffff 0xffffffff 0xffffffff 0xffffffff 0xffffffff 0xffffffff 0xffffffff 0xffffffff 0xffffffff 0xffffffff 0xffffffff 0xffffffff 0xffffffff 0xffffffff 0xffffffff 0xffffffff 0xffffffff 0xffffffff 0xffffffff 0xffffffff 0xffffffff 0xffffffff 0xffffffff 0xffffffff 0xffffffff 0xffffffff 0xffffffff 0xffffffff 0xffffffff 0xffffffff 0xffffffff 0xffffffff 0xffffffff 0xffffffff 0xffffffff 0xffffffff 0xffffffff 0xffffffff 0xffffffff 0xffffffff 0xffffffff 0xffffffff 0xffffffff 0xffffffff 0xffffffff 0xffffffff 0xffffffff 0xffffffff 0xffffffff 0xffffffff 0xffffffff 0xffffffff 0xffffffff 0xffffffff 0xffffffff 0xffffffff 0xffffffff 0xffffffff 0xffffffff 0xffffffff 0xffffffff 0xffffffff 0xffffffff 0xffffffff 0xffffffff 0xffffffff 0xffffffff 0xffffffff 0xffffffff 0xffffffff 0xffffffff 0xffffffff 0xffffffff 0xffffffff 0xffffffff 0xffffffff 0xffffffff 0xffffffff 0xffffffff 0xffffffff 0xffffffff 0xffffffff 0xffffffff 0xffffffff 0xffffffff 0xffffffff 0xffffffff 0xffffffff 0xffffffff 0xffffffff 0xffffffff 0xffffffff 0xffffffff 
	<0x18>
	Attribute:	EIATTR_COOP_GROUP_INSTR_OFFSETS
	Format:	EIFMT_SVAL
	Value:	0x23d0 0x2400 0x2410 0x2460 0x24a0 0x24c0 0x2500 0x2670 0x2680 0x2690 0x26a0 0x26b0 0x26c0 0x26d0 0x27b0 0x27c0 0x27d0 0x27e0 0x27f0 0x2800 0x2810 0x28f0 0x2900 0x2910 0x2920 0x2930 0x2940 0x2950 0x2a30 0x2a40 0x2a50 0x2a60 0x2a70 0x2a80 0x2a90 0x2b80 0x2b90 0x2ba0 0x2bb0 0x2bc0 0x2bd0 0x2be0 0x2cc0 0x2cd0 0x2d00 0x2d10 0x2d20 0x2d40 0x2df0 0x2e30 0x2e70 0x2ed0 0x2ee0 0x2f10 0x2f20 0x2f30 0x2f40 0x3010 0x3020 0x3060 0x30b0 0x3100 0x3130 0x3150 0x3160 0x3180 0x3210 0x3220 0x3260 0x32c0 0x32d0 0x3300 0x3310 0x3320 0x3340 0x3440 0x3450 0x3490 0x34e0 0x34f0 0x3520 0x3530 0x3540 0x3560 0x3640 0x3650 0x3690 0x3700 0x3710 0x3740 0x3750 0x3760 0x3780 0x3860 0x3870 0x38b0 0x3900 0x3950 0x3980 0x3990 0x39a0 0x39b0 0x3a60 0x3a70 0x3ab0 0x3b10 0x3b80 0x3ba0 0x3bb0 0x3bc0 0x3c90 0x3ca0 0x3cc0 0x3cd0 0x3d70 0x3db0 0x3dc0 0x3dd0 0x3df0 0x3e00 0x3ee0 0x3ef0 0x3f30 0x3f90 0x3fd0 0x3fe0 0x3ff0 0x4010 0x4020 0x40f0 0x4100 0x4140 0x4190 0x4230 0x4240 0x4250 0x4300 0x4330 0x4360 0x4440 0x44c0 0x44d0 0x4510 0x4570 0x4580 0x45b0 0x45c0 0x45d0 0x45f0 0x4600 0x46d0 0x4710 0x4770 0x4780 0x47b0 0x47c0 0x47d0 0x47f0 0x4800 0x48d0 0x4900 0x4a90 0x4ad0 0x4b20 0x4b30 0x4b60 0x4b70 0x4b80 0x4c10 0x4c20 0x4c40 0x4c70 0x4d40 0x4d70 0x4d90 0x4da0 0x4dd0 0x4de0 0x4df0 0x4e10 0x4e20 0x4ee0 0x4f50 0x4f60 0x4fc0 0x4fd0 0x4ff0 0x5000 0x50b0 0x50e0 0x5150 0x5160 0x5180 0x5190 0x5220 0x5230 0x5270 0x52b0 0x52f0 0x5340 0x5370 0x53a0 0x53f0 0x5430 0x5450 0x54b0 0x54d0 0x5560 0x5580 0x55a0 0x55c0 0x55f0 0x7660 0x7f60 0x7f90 0x7fa0 0x7ff0 0x8030 0x8050 0x80a0 0x8270 0x8280 0x82a0 0x82b0 0x82d0 0x82e0 0x82f0 0x83e0 0x83f0 0x8400 0x8410 0x8420 0x8430 0x8440 0x8530 0x8540 0x8550 0x8560 0x8570 0x8580 0x8590 0x8680 0x8690 0x86d0 0x86e0 0x86f0 0x8700 0x8710 0x8800 0x8810 0x8840 0x8850 0x8860 0x8870 0x88f0 0x8930 0x89c0 0x89d0 0x89f0 0x8a20 0x8a30 0x8a40 0x8a50 0x8b40 0x8b50 0x8b90 0x8be0 0x8bf0 0x8c20 0x8c30 0x8c40 0x8c50 0x8d10 0x8d20 0x8d60 0x8db0 0x8dc0 0x8df0 0x8e00 0x8e10 0x8ea0 0x8ee0 0x8ef0 0x8f30 0x8f80 0x8fe0 0x8ff0 0x9000 0x9020 0x9070 0x90b0 0x90c0 0x9130 0x9160 0x91d0 0x91e0 0x9200 0x9210 0x9220 0x92a0 0x92b0 0x92f0 0x9380 0x93d0 0x93f0 0x9420 0x9430 0x9480 0x94c0 0x94d0 0x9510 0x95a0 0x9610 0x9640 0x9650 0x9660 0x9670 0x9680 0x96e0 0x9760 0x97a0 0x9820 0x9840 0x9850 0x9860 0x9870 0x98e0 0x98f0 0x9930 0x99c0 0x9a30 0x9a60 0x9a70 0x9a80 0x9b00 0x9b10 0x9b40 0x9b70 0x9c00 0x9c50 0x9c70 0x9d30 0x9d40 0x9d70 0x9db0 0x9f00 0x9f30 0x9f60 0x9f70 0xa000 0xa010 0xa040 0xa050 0xa060 0xa0e0 0xa100 0xa130 0xa1a0 0xa1b0 0xa250 0xa280 0xa310 0xa320 0xa330 0xa340 0xa3f0 0xa400 0xa420 0xa470 0xa530 0xa540 0xa570 0xa5e0 0xa5f0 0xa610 0xa640 0xa6c0 0xa710 0xa740 0xa750 0xa7c0 0xa7d0 0xa800 0xa810 0xa820 0xa8e0 0xa8f0 0xa910 0xa950 0xa9b0 0xa9c0 0xa9f0 0xaa00 0xaa10 0xaa80 0xaab0 0xab10 0xab50 0xab80 0xabe0 0xac10 0xac20 0xac30 0xac40 0xac50 0xac60 0xac70 0xad60 0xadc0 0xae10 0xae70 0xaea0 0xaee0 0xaf20 0xaf60 0xaf90 0xafd0 0xaff0 0xb060 0xb080 0xb110 0xb130 0xb150 0xb170 0xb1a0 0xcec0 0xe3e0 0xe450 0xe4d0 0xe550 0xe5d0 0xe650 0xe6d0 0xe710 0xe760 0xe7d0 0xe850 0xe8d0 0xe950 0xe9d0 0xea60 
	<0x19>
	Attribute:	EIATTR_EXIT_INSTR_OFFSETS
	Format:	EIFMT_SVAL
	Value:	0x1460 0x1ea0 0x1ec0 0x7640 0xe340 0xe3a0 
	<0x20>
	Attribute:	EIATTR_MAX_THREADS
	Format:	EIFMT_SVAL
	Value:	0x200 0x1 0x1 
	<0x21>
	Attribute:	EIATTR_CRS_STACK_SIZE
	Format:	EIFMT_SVAL
	Value:	0x0 


.nv.info._ZN3cub17CUB_200400_750_NS23RadixSortScanBinsKernelINS0_21DeviceRadixSortPolicyIiijE9Policy900EjEEvPT0_i
	<0x1>
	Attribute:	EIATTR_SW_WAR
	Format:	EIFMT_SVAL
	Value:	0x1 
	<0x2>
	Attribute:	EIATTR_CUDA_API_VERSION
	Format:	EIFMT_SVAL
	Value:	0x7d 
	<0x3>
	Attribute:	EIATTR_PARAM_CBANK
	Format:	EIFMT_SVAL
	Value:	0x7b 0xc0160 
	<0x4>
	Attribute:	EIATTR_CBANK_PARAM_SIZE
	Format:	EIFMT_HVAL
	Value:	0xc
	<0x5>
	Attribute:	EIATTR_KPARAM_INFO
	Format:	EIFMT_SVAL
	Value:	Index : 0x0	Ordinal : 0x1	Offset  : 0x8	Size    : 0x4
		Pointee's logAlignment : 0x0	Space : 0x0	cbank : 0x1f	Parameter Space : CBANK	
	<0x6>
	Attribute:	EIATTR_KPARAM_INFO
	Format:	EIFMT_SVAL
	Value:	Index : 0x0	Ordinal : 0x0	Offset  : 0x0	Size    : 0x8
		Pointee's logAlignment : 0x0	Space : 0x0	cbank : 0x1f	Parameter Space : CBANK	
	<0x7>
	Attribute:	EIATTR_MAXREG_COUNT
	Format:	EIFMT_HVAL
	Value:	0x80
	<0x8>
	Attribute:	EIATTR_COOP_GROUP_MASK_REGIDS
	Format:	EIFMT_SVAL
	Value:	0xffffffff 0xffffffff 0xffffffff 0xffffffff 0xffffffff 0xffffffff 0xffffffff 0xffffffff 0xffffffff 0xffffffff 0xffffffff 0xffffffff 0xffffffff 0xffffffff 0xffffffff 0xffffffff 0xffffffff 0xffffffff 0xffffffff 0xffffffff 0xffffffff 0xffffffff 0xffffffff 0xffffffff 0xffffffff 0xffffffff 0xffffffff 0xffffffff 0xffffffff 0xffffffff 0xffffffff 0xffffffff 0xffffffff 
	<0x9>
	Attribute:	EIATTR_COOP_GROUP_INSTR_OFFSETS
	Format:	EIFMT_SVAL
	Value:	0x470 0x890 0x8b0 0x8d0 0x8f0 0x910 0x930 0x950 0xeb0 0xec0 0x1a00 0x1e20 0x1e40 0x1e60 0x1e80 0x1eb0 0x1f30 0x1f60 0x2520 0x2550 0x2aa0 0x2b30 0x2bc0 0x2c50 0x2ce0 0x2d70 0x2df0 0x2e70 0x2ef0 0x2f70 0x2ff0 0x3070 0x30f0 
	<0x10>
	Attribute:	EIATTR_EXIT_INSTR_OFFSETS
	Format:	EIFMT_SVAL
	Value:	0x11f0 0x2a20 0x2a40 
	<0x11>
	Attribute:	EIATTR_MAX_THREADS
	Format:	EIFMT_SVAL
	Value:	0x200 0x1 0x1 
	<0x12>
	Attribute:	EIATTR_CRS_STACK_SIZE
	Format:	EIFMT_SVAL
	Value:	0x0 


.nv.info._ZN3cub17CUB_200400_750_NS28DeviceRadixSortUpsweepKernelINS0_21DeviceRadixSortPolicyIiijE9Policy900ELb1ELb0EijNS0_6detail21identity_decomposer_tEEEvPKT2_PT3_SA_iiNS0_13GridEvenShareISA_EET4_
	<0x1>
	Attribute:	EIATTR_SW_WAR
	Format:	EIFMT_SVAL
	Value:	0x1 
	<0x2>
	Attribute:	EIATTR_CUDA_API_VERSION
	Format:	EIFMT_SVAL
	Value:	0x7d 
	<0x3>
	Attribute:	EIATTR_PARAM_CBANK
	Format:	EIFMT_SVAL
	Value:	0x7e 0x450160 
	<0x4>
	Attribute:	EIATTR_CBANK_PARAM_SIZE
	Format:	EIFMT_HVAL
	Value:	0x45
	<0x5>
	Attribute:	EIATTR_KPARAM_INFO
	Format:	EIFMT_SVAL
	Value:	Index : 0x0	Ordinal : 0x6	Offset  : 0x44	Size    : 0x1
		Pointee's logAlignment : 0x0	Space : 0x0	cbank : 0x1f	Parameter Space : CBANK	
	<0x6>
	Attribute:	EIATTR_KPARAM_INFO
	Format:	EIFMT_SVAL
	Value:	Index : 0x0	Ordinal : 0x5	Offset  : 0x1c	Size    : 0x28
		Pointee's logAlignment : 0x0	Space : 0x0	cbank : 0x1f	Parameter Space : CBANK	
	<0x7>
	Attribute:	EIATTR_KPARAM_INFO
	Format:	EIFMT_SVAL
	Value:	Index : 0x0	Ordinal : 0x4	Offset  : 0x18	Size    : 0x4
		Pointee's logAlignment : 0x0	Space : 0x0	cbank : 0x1f	Parameter Space : CBANK	
	<0x8>
	Attribute:	EIATTR_KPARAM_INFO
	Format:	EIFMT_SVAL
	Value:	Index : 0x0	Ordinal : 0x3	Offset  : 0x14	Size    : 0x4
		Pointee's logAlignment : 0x0	Space : 0x0	cbank : 0x1f	Parameter Space : CBANK	
	<0x9>
	Attribute:	EIATTR_KPARAM_INFO
	Format:	EIFMT_SVAL
	Value:	Index : 0x0	Ordinal : 0x2	Offset  : 0x10	Size    : 0x4
		Pointee's logAlignment : 0x0	Space : 0x0	cbank : 0x1f	Parameter Space : CBANK	
	<0x10>
	Attribute:	EIATTR_KPARAM_INFO
	Format:	EIFMT_SVAL
	Value:	Index : 0x0	Ordinal : 0x1	Offset  : 0x8	Size    : 0x8
		Pointee's logAlignment : 0x0	Space : 0x0	cbank : 0x1f	Parameter Space : CBANK	
	<0x11>
	Attribute:	EIATTR_KPARAM_INFO
	Format:	EIFMT_SVAL
	Value:	Index : 0x0	Ordinal : 0x0	Offset  : 0x0	Size    : 0x8
		Pointee's logAlignment : 0x0	Space : 0x0	cbank : 0x1f	Parameter Space : CBANK	
	<0x12>
	Attribute:	EIATTR_MAXREG_COUNT
	Format:	EIFMT_HVAL
	Value:	0xff
	<0x13>
	Attribute:	EIATTR_EXIT_INSTR_OFFSETS
	Format:	EIFMT_SVAL
	Value:	0x6e60 0x71c0 
	<0x14>
	Attribute:	EIATTR_MAX_THREADS
	Format:	EIFMT_SVAL
	Value:	0x100 0x1 0x1 
	<0x15>
	Attribute:	EIATTR_CRS_STACK_SIZE
	Format:	EIFMT_SVAL
	Value:	0x0 


.nv.info._ZN3cub17CUB_200400_750_NS28DeviceRadixSortUpsweepKernelINS0_21DeviceRadixSortPolicyIiijE9Policy900ELb0ELb0EijNS0_6detail21identity_decomposer_tEEEvPKT2_PT3_SA_iiNS0_13GridEvenShareISA_EET4_
	<0x1>
	Attribute:	EIATTR_SW_WAR
	Format:	EIFMT_SVAL
	Value:	0x1 
	<0x2>
	Attribute:	EIATTR_CUDA_API_VERSION
	Format:	EIFMT_SVAL
	Value:	0x7d 
	<0x3>
	Attribute:	EIATTR_PARAM_CBANK
	Format:	EIFMT_SVAL
	Value:	0x81 0x450160 
	<0x4>
	Attribute:	EIATTR_CBANK_PARAM_SIZE
	Format:	EIFMT_HVAL
	Value:	0x45
	<0x5>
	Attribute:	EIATTR_KPARAM_INFO
	Format:	EIFMT_SVAL
	Value:	Index : 0x0	Ordinal : 0x6	Offset  : 0x44	Size    : 0x1
		Pointee's logAlignment : 0x0	Space : 0x0	cbank : 0x1f	Parameter Space : CBANK	
	<0x6>
	Attribute:	EIATTR_KPARAM_INFO
	Format:	EIFMT_SVAL
	Value:	Index : 0x0	Ordinal : 0x5	Offset  : 0x1c	Size    : 0x28
		Pointee's logAlignment : 0x0	Space : 0x0	cbank : 0x1f	Parameter Space : CBANK	
	<0x7>
	Attribute:	EIATTR_KPARAM_INFO
	Format:	EIFMT_SVAL
	Value:	Index : 0x0	Ordinal : 0x4	Offset  : 0x18	Size    : 0x4
		Pointee's logAlignment : 0x0	Space : 0x0	cbank : 0x1f	Parameter Space : CBANK	
	<0x8>
	Attribute:	EIATTR_KPARAM_INFO
	Format:	EIFMT_SVAL
	Value:	Index : 0x0	Ordinal : 0x3	Offset  : 0x14	Size    : 0x4
		Pointee's logAlignment : 0x0	Space : 0x0	cbank : 0x1f	Parameter Space : CBANK	
	<0x9>
	Attribute:	EIATTR_KPARAM_INFO
	Format:	EIFMT_SVAL
	Value:	Index : 0x0	Ordinal : 0x2	Offset  : 0x10	Size    : 0x4
		Pointee's logAlignment : 0x0	Space : 0x0	cbank : 0x1f	Parameter Space : CBANK	
	<0x10>
	Attribute:	EIATTR_KPARAM_INFO
	Format:	EIFMT_SVAL
	Value:	Index : 0x0	Ordinal : 0x1	Offset  : 0x8	Size    : 0x8
		Pointee's logAlignment : 0x0	Space : 0x0	cbank : 0x1f	Parameter Space : CBANK	
	<0x11>
	Attribute:	EIATTR_KPARAM_INFO
	Format:	EIFMT_SVAL
	Value:	Index : 0x0	Ordinal : 0x0	Offset  : 0x0	Size    : 0x8
		Pointee's logAlignment : 0x0	Space : 0x0	cbank : 0x1f	Parameter Space : CBANK	
	<0x12>
	Attribute:	EIATTR_MAXREG_COUNT
	Format:	EIFMT_HVAL
	Value:	0xff
	<0x13>
	Attribute:	EIATTR_EXIT_INSTR_OFFSETS
	Format:	EIFMT_SVAL
	Value:	0x58d0 0x5c20 
	<0x14>
	Attribute:	EIATTR_MAX_THREADS
	Format:	EIFMT_SVAL
	Value:	0x100 0x1 0x1 
	<0x15>
	Attribute:	EIATTR_CRS_STACK_SIZE
	Format:	EIFMT_SVAL
	Value:	0x0 


.nv.info._ZN3cub17CUB_200400_750_NS31DeviceRadixSortSingleTileKernelINS0_21DeviceRadixSortPolicyIiijE9Policy900ELb0EiijNS0_6detail21identity_decomposer_tEEEvPKT1_PS7_PKT2_PSB_T3_iiT4_
	<0x1>
	Attribute:	EIATTR_SW_WAR
	Format:	EIFMT_SVAL
	Value:	0x1 
	<0x2>
	Attribute:	EIATTR_CUDA_API_VERSION
	Format:	EIFMT_SVAL
	Value:	0x7d 
	<0x3>
	Attribute:	EIATTR_PARAM_CBANK
	Format:	EIFMT_SVAL
	Value:	0x84 0x2d0160 
	<0x4>
	Attribute:	EIATTR_CBANK_PARAM_SIZE
	Format:	EIFMT_HVAL
	Value:	0x2d
	<0x5>
	Attribute:	EIATTR_KPARAM_INFO
	Format:	EIFMT_SVAL
	Value:	Index : 0x0	Ordinal : 0x7	Offset  : 0x2c	Size    : 0x1
		Pointee's logAlignment : 0x0	Space : 0x0	cbank : 0x1f	Parameter Space : CBANK	
	<0x6>
	Attribute:	EIATTR_KPARAM_INFO
	Format:	EIFMT_SVAL
	Value:	Index : 0x0	Ordinal : 0x6	Offset  : 0x28	Size    : 0x4
		Pointee's logAlignment : 0x0	Space : 0x0	cbank : 0x1f	Parameter Space : CBANK	
	<0x7>
	Attribute:	EIATTR_KPARAM_INFO
	Format:	EIFMT_SVAL
	Value:	Index : 0x0	Ordinal : 0x5	Offset  : 0x24	Size    : 0x4
		Pointee's logAlignment : 0x0	Space : 0x0	cbank : 0x1f	Parameter Space : CBANK	
	<0x8>
	Attribute:	EIATTR_KPARAM_INFO
	Format:	EIFMT_SVAL
	Value:	Index : 0x0	Ordinal : 0x4	Offset  : 0x20	Size    : 0x4
		Pointee's logAlignment : 0x0	Space : 0x0	cbank : 0x1f	Parameter Space : CBANK	
	<0x9>
	Attribute:	EIATTR_KPARAM_INFO
	Format:	EIFMT_SVAL
	Value:	Index : 0x0	Ordinal : 0x3	Offset  : 0x18	Size    : 0x8
		Pointee's logAlignment : 0x0	Space : 0x0	cbank : 0x1f	Parameter Space : CBANK	
	<0x10>
	Attribute:	EIATTR_KPARAM_INFO
	Format:	EIFMT_SVAL
	Value:	Index : 0x0	Ordinal : 0x2	Offset  : 0x10	Size    : 0x8
		Pointee's logAlignment : 0x0	Space : 0x0	cbank : 0x1f	Parameter Space : CBANK	
	<0x11>
	Attribute:	EIATTR_KPARAM_INFO
	Format:	EIFMT_SVAL
	Value:	Index : 0x0	Ordinal : 0x1	Offset  : 0x8	Size    : 0x8
		Pointee's logAlignment : 0x0	Space : 0x0	cbank : 0x1f	Parameter Space : CBANK	
	<0x12>
	Attribute:	EIATTR_KPARAM_INFO
	Format:	EIFMT_SVAL
	Value:	Index : 0x0	Ordinal : 0x0	Offset  : 0x0	Size    : 0x8
		Pointee's logAlignment : 0x0	Space : 0x0	cbank : 0x1f	Parameter Space : CBANK	
	<0x13>
	Attribute:	EIATTR_MAXREG_COUNT
	Format:	EIFMT_HVAL
	Value:	0xff
	<0x14>
	Attribute:	EIATTR_COOP_GROUP_MASK_REGIDS
	Format:	EIFMT_SVAL
	Value:	0xffffffff 0xffffffff 0xffffffff 0xffffffff 0xffffffff 
	<0x15>
	Attribute:	EIATTR_COOP_GROUP_INSTR_OFFSETS
	Format:	EIFMT_SVAL
	Value:	0x1d00 0x1d20 0x1d40 0x1d60 0x1d90 
	<0x16>
	Attribute:	EIATTR_EXIT_INSTR_OFFSETS
	Format:	EIFMT_SVAL
	Value:	0x36c0 0x3710 
	<0x17>
	Attribute:	EIATTR_MAX_THREADS
	Format:	EIFMT_SVAL
	Value:	0x100 0x1 0x1 
	<0x18>
	Attribute:	EIATTR_CRS_STACK_SIZE
	Format:	EIFMT_SVAL
	Value:	0x0 


.nv.info._ZN3cub17CUB_200400_750_NS29DeviceRadixSortOnesweepKernelINS0_21DeviceRadixSortPolicyIihjE9Policy900ELb0EihjiiNS0_6detail21identity_decomposer_tEEEvPT5_S8_PT3_PKS9_PT1_PKSD_PT2_PKSH_T4_iiT6_
	<0x1>
	Attribute:	EIATTR_SW_WAR
	Format:	EIFMT_SVAL
	Value:	0x1 
	<0x2>
	Attribute:	EIATTR_CUDA_API_VERSION
	Format:	EIFMT_SVAL
	Value:	0x7d 
	<0x3>
	Attribute:	EIATTR_PARAM_CBANK
	Format:	EIFMT_SVAL
	Value:	0x89 0x4d0160 
	<0x4>
	Attribute:	EIATTR_CBANK_PARAM_SIZE
	Format:	EIFMT_HVAL
	Value:	0x4d
	<0x5>
	Attribute:	EIATTR_KPARAM_INFO
	Format:	EIFMT_SVAL
	Value:	Index : 0x0	Ordinal : 0xb	Offset  : 0x4c	Size    : 0x1
		Pointee's logAlignment : 0x0	Space : 0x0	cbank : 0x1f	Parameter Space : CBANK	
	<0x6>
	Attribute:	EIATTR_KPARAM_INFO
	Format:	EIFMT_SVAL
	Value:	Index : 0x0	Ordinal : 0xa	Offset  : 0x48	Size    : 0x4
		Pointee's logAlignment : 0x0	Space : 0x0	cbank : 0x1f	Parameter Space : CBANK	
	<0x7>
	Attribute:	EIATTR_KPARAM_INFO
	Format:	EIFMT_SVAL
	Value:	Index : 0x0	Ordinal : 0x9	Offset  : 0x44	Size    : 0x4
		Pointee's logAlignment : 0x0	Space : 0x0	cbank : 0x1f	Parameter Space : CBANK	
	<0x8>
	Attribute:	EIATTR_KPARAM_INFO
	Format:	EIFMT_SVAL
	Value:	Index : 0x0	Ordinal : 0x8	Offset  : 0x40	Size    : 0x4
		Pointee's logAlignment : 0x0	Space : 0x0	cbank : 0x1f	Parameter Space : CBANK	
	<0x9>
	Attribute:	EIATTR_KPARAM_INFO
	Format:	EIFMT_SVAL
	Value:	Index : 0x0	Ordinal : 0x7	Offset  : 0x38	Size    : 0x8
		Pointee's logAlignment : 0x0	Space : 0x0	cbank : 0x1f	Parameter Space : CBANK	
	<0x10>
	Attribute:	EIATTR_KPARAM_INFO
	Format:	EIFMT_SVAL
	Value:	Index : 0x0	Ordinal : 0x6	Offset  : 0x30	Size    : 0x8
		Pointee's logAlignment : 0x0	Space : 0x0	cbank : 0x1f	Parameter Space : CBANK	
	<0x11>
	Attribute:	EIATTR_KPARAM_INFO
	Format:	EIFMT_SVAL
	Value:	Index : 0x0	Ordinal : 0x5	Offset  : 0x28	Size    : 0x8
		Pointee's logAlignment : 0x0	Space : 0x0	cbank : 0x1f	Parameter Space : CBANK	
	<0x12>
	Attribute:	EIATTR_KPARAM_INFO
	Format:	EIFMT_SVAL
	Value:	Index : 0x0	Ordinal : 0x4	Offset  : 0x20	Size    : 0x8
		Pointee's logAlignment : 0x0	Space : 0x0	cbank : 0x1f	Parameter Space : CBANK	
	<0x13>
	Attribute:	EIATTR_KPARAM_INFO
	Format:	EIFMT_SVAL
	Value:	Index : 0x0	Ordinal : 0x3	Offset  : 0x18	Size    : 0x8
		Pointee's logAlignment : 0x0	Space : 0x0	cbank : 0x1f	Parameter Space : CBANK	
	<0x14>
	Attribute:	EIATTR_KPARAM_INFO
	Format:	EIFMT_SVAL
	Value:	Index : 0x0	Ordinal : 0x2	Offset  : 0x10	Size    : 0x8
		Pointee's logAlignment : 0x0	Space : 0x0	cbank : 0x1f	Parameter Space : CBANK	
	<0x15>
	Attribute:	EIATTR_KPARAM_INFO
	Format:	EIFMT_SVAL
	Value:	Index : 0x0	Ordinal : 0x1	Offset  : 0x8	Size    : 0x8
		Pointee's logAlignment : 0x0	Space : 0x0	cbank : 0x1f	Parameter Space : CBANK	
	<0x16>
	Attribute:	EIATTR_KPARAM_INFO
	Format:	EIFMT_SVAL
	Value:	Index : 0x0	Ordinal : 0x0	Offset  : 0x0	Size    : 0x8
		Pointee's logAlignment : 0x0	Space : 0x0	cbank : 0x1f	Parameter Space : CBANK	
	<0x17>
	Attribute:	EIATTR_MAXREG_COUNT
	Format:	EIFMT_HVAL
	Value:	0xff
	<0x18>
	Attribute:	EIATTR_UNUSED_LOAD_BYTE_OFFSET
	Format:	EIFMT_SVAL
	Value:	0x3160 0xfff 
	<0x19>
	Attribute:	EIATTR_INT_WARP_WIDE_INSTR_OFFSETS
	Format:	EIFMT_SVAL
	Value:	0x1a60 0x1a80 0x1b80 0x1ba0 0x78b0 0x78d0 0x79d0 0x79f0 
	<0x20>
	Attribute:	EIATTR_COOP_GROUP_MASK_REGIDS
	Format:	EIFMT_SVAL
	Value:	0xffffffff 0xffffffff 0x5000006 0xffffffff 0xffffffff 0xffffffff 0xffffffff 0xffffffff 0xffffffff 0xffffffff 0xffffffff 0xffffffff 0xffffffff 0xffffffff 0xffffffff 0xffffffff 0xffffffff 0xffffffff 0xffffffff 0xffffffff 0xffffffff 0xffffffff 0xffffffff 0xffffffff 0xffffffff 0xffffffff 0xffffffff 0xffffffff 0xffffffff 0xffffffff 0xffffffff 0xffffffff 0xffffffff 0xffffffff 0xffffffff 0xffffffff 0xffffffff 0xffffffff 0xffffffff 0xffffffff 0xffffffff 0xffffffff 0xffffffff 0xffffffff 0xffffffff 0xffffffff 0xffffffff 0xffffffff 0xffffffff 0xffffffff 0xffffffff 0xffffffff 0xffffffff 0xffffffff 0xffffffff 0xffffffff 0xffffffff 0xffffffff 0xffffffff 0xffffffff 0xffffffff 0xffffffff 0xffffffff 0xffffffff 0xffffffff 0xffffffff 0xffffffff 0xffffffff 0xffffffff 0xffffffff 0xffffffff 0xffffffff 0xffffffff 0xffffffff 0xffffffff 0xffffffff 0xffffffff 0xffffffff 0xffffffff 0xffffffff 0xffffffff 0xffffffff 0xffffffff 0xffffffff 0xffffffff 0xffffffff 0xffffffff 0xffffffff 0xffffffff 0xffffffff 0xffffffff 0xffffffff 0xffffffff 0xffffffff 0xffffffff 0xffffffff 0xffffffff 0xffffffff 0xffffffff 0xffffffff 0xffffffff 0xffffffff 0xffffffff 0xffffffff 0xffffffff 0xffffffff 0xffffffff 0xffffffff 0xffffffff 0xffffffff 0xffffffff 0xffffffff 0xffffffff 0xffffffff 0xffffffff 0xffffffff 0xffffffff 0xffffffff 0xffffffff 0xffffffff 0xffffffff 0xffffffff 0xffffffff 0xffffffff 0xffffffff 0xffffffff 0xffffffff 0xffffffff 0xffffffff 0xffffffff 0xffffffff 0xffffffff 0xffffffff 0xffffffff 0xffffffff 0xffffffff 0xffffffff 0xffffffff 0xffffffff 0xffffffff 0xffffffff 0xffffffff 0xffffffff 0xffffffff 0xffffffff 0xffffffff 0xffffffff 0xffffffff 0xffffffff 0xffffffff 0xffffffff 0xffffffff 0xffffffff 0xffffffff 0xffffffff 0xffffffff 0xffffffff 0xffffffff 0xffffffff 0xffffffff 0xffffffff 0xffffffff 0xffffffff 0xffffffff 0xffffffff 0xffffffff 0xffffffff 0xffffffff 0xffffffff 0xffffffff 0xffffffff 0xffffffff 0xffffffff 0xffffffff 0xffffffff 0xffffffff 0xffffffff 0xffffffff 0xffffffff 0xffffffff 0xffffffff 0xffffffff 0xffffffff 0xffffffff 0xffffffff 0xffffffff 0xffffffff 0xffffffff 0xffffffff 0xffffffff 0xffffffff 0xffffffff 0xffffffff 0xffffffff 0xffffffff 0xffffffff 0xffffffff 0xffffffff 0xffffffff 0xffffffff 0xffffffff 0xffffffff 0xffffffff 0xffffffff 0xffffffff 0xffffffff 0xffffffff 0xffffffff 0xffffffff 0xffffffff 0xffffffff 0xffffffff 0xffffffff 0xffffffff 0xffffffff 0x5000006 0xffffffff 0xffffffff 0xffffffff 0xffffffff 0xffffffff 0xffffffff 0xffffffff 0xffffffff 0xffffffff 0xffffffff 0xffffffff 0xffffffff 0xffffffff 0xffffffff 0xffffffff 0xffffffff 0xffffffff 0xffffffff 0xffffffff 0xffffffff 0xffffffff 0xffffffff 0xffffffff 0xffffffff 0xffffffff 0xffffffff 0xffffffff 0xffffffff 0xffffffff 0xffffffff 0xffffffff 0xffffffff 0xffffffff 0xffffffff 0xffffffff 0xffffffff 0xffffffff 0xffffffff 0xffffffff 0xffffffff 0xffffffff 0xffffffff 0xffffffff 0xffffffff 0xffffffff 0xffffffff 0xffffffff 0xffffffff 0xffffffff 0xffffffff 0xffffffff 0xffffffff 0xffffffff 0xffffffff 0xffffffff 0xffffffff 0xffffffff 0xffffffff 0xffffffff 0xffffffff 0xffffffff 0xffffffff 0xffffffff 0xffffffff 0xffffffff 0xffffffff 0xffffffff 0xffffffff 0xffffffff 0xffffffff 0xffffffff 0xffffffff 0xffffffff 0xffffffff 0xffffffff 0xffffffff 0xffffffff 0xffffffff 0xffffffff 0xffffffff 0xffffffff 0xffffffff 0xffffffff 0xffffffff 0xffffffff 0xffffffff 0xffffffff 0xffffffff 0xffffffff 0xffffffff 0xffffffff 0xffffffff 0xffffffff 0xffffffff 0xffffffff 0xffffffff 0xffffffff 0xffffffff 0xffffffff 0xffffffff 0xffffffff 0xffffffff 0xffffffff 0xffffffff 0xffffffff 0xffffffff 0xffffffff 
	<0x21>
	Attribute:	EIATTR_COOP_GROUP_INSTR_OFFSETS
	Format:	EIFMT_SVAL
	Value:	0xbf0 0x14a0 0x1b10 0x2ff0 0x3010 0x3030 0x3050 0x3070 0x34a0 0x34d0 0x34e0 0x3500 0x3530 0x3580 0x35a0 0x35e0 0x3770 0x3780 0x3790 0x37e0 0x3800 0x3850 0x3870 0x3890 0x3930 0x39f0 0x3a00 0x3a10 0x3a20 0x3a70 0x3a90 0x3ae0 0x3b00 0x3b20 0x3cb0 0x3cc0 0x3cf0 0x3d20 0x3d50 0x3d80 0x3dc0 0x3dd0 0x3e40 0x3f50 0x3f80 0x3f90 0x3fa0 0x3ff0 0x4010 0x4060 0x4080 0x40a0 0x4230 0x4240 0x4270 0x42a0 0x42d0 0x4300 0x4340 0x4350 0x43c0 0x44d0 0x4500 0x4510 0x4520 0x4570 0x4590 0x45e0 0x4600 0x4620 0x47b0 0x47c0 0x47f0 0x4820 0x4850 0x4880 0x48c0 0x48d0 0x4940 0x4a30 0x4a70 0x4a80 0x4ab0 0x4ae0 0x4b10 0x4b40 0x4b80 0x4b90 0x4cf0 0x4d30 0x4d40 0x4d70 0x4da0 0x4dd0 0x4e00 0x4e40 0x4e50 0x4fb0 0x4ff0 0x5000 0x5030 0x5060 0x5090 0x50c0 0x5100 0x5110 0x5270 0x52b0 0x52c0 0x52f0 0x5320 0x5350 0x5380 0x53c0 0x53d0 0x5530 0x5570 0x5580 0x55b0 0x55e0 0x5610 0x5640 0x5680 0x5690 0x5810 0x5840 0x5850 0x5860 0x58b0 0x58d0 0x5920 0x5940 0x5960 0x5ab0 0x5af0 0x5b00 0x5b30 0x5b60 0x5b90 0x5bc0 0x5c00 0x5c10 0x5d70 0x5db0 0x5dc0 0x5df0 0x5e20 0x5e50 0x5e80 0x5ec0 0x5ed0 0x6060 0x6070 0x6080 0x60d0 0x60f0 0x6140 0x6160 0x61a0 0x61c0 0x6320 0x6330 0x6340 0x6390 0x63b0 0x6400 0x6420 0x6460 0x6480 0x6630 0x6640 0x6650 0x66a0 0x66c0 0x6710 0x6730 0x6770 0x6790 0x6940 0x6950 0x6960 0x69b0 0x69d0 0x6a20 0x6a40 0x6a80 0x6aa0 0x6c10 0x6c20 0x6c30 0x6c80 0x6ca0 0x6cf0 0x6d10 0x6d50 0x6d70 0x6ef0 0x6f30 0x6f40 0x6f50 0x6fa0 0x6fc0 0x7010 0x7030 0x7080 0x71e0 0x7210 0x7220 0x7230 0x7280 0x72a0 0x72f0 0x7310 0x7330 0x74a0 0x7960 0x7cf0 0x7e10 0x7fc0 0x80d0 0x81e0 0x82f0 0x8400 0x8520 0x8660 0x8810 0x8920 0x8a30 0x8b40 0x8c50 0x8d70 0x8eb0 0x9060 0x9170 0x9280 0x9390 0x94a0 0x95b0 0x96b0 0x9780 0x9810 0x98a0 0x9930 0x99c0 0x9a50 0x9ae0 0x9b70 0x9c00 0x9c90 0x9d20 0x9db0 0x9e40 0x9ed0 0x9f60 0x9ff0 0xa080 0xa110 0xa1a0 0xa230 0xa2c0 0xa350 0xa3e0 0xb140 0xb1a0 0xb210 0xb280 0xb2f0 0xb360 0xb3d0 0xb440 0xb4b0 0xb520 0xb590 0xb600 0xb670 0xb6e0 0xb750 0xb7c0 0xb830 0xb8a0 0xb910 0xb980 0xb9f0 0xba50 0xbaa0 0xbb10 0xbb60 0xbbb0 0xbc00 0xbc50 0xbca0 0xbcf0 0xbd40 0xbd90 0xbde0 0xbe30 0xbe80 0xbed0 0xbf20 0xbf70 0xbfc0 0xc010 0xc060 0xc0b0 0xc100 0xc150 0xc1a0 0xc1f0 0xc240 0xc2c0 0xc340 0xc3c0 0xc440 0xc4c0 0xc520 0xc590 0xc610 0xc690 0xc710 0xc790 0xc810 0xc890 0xc8f0 
	<0x22>
	Attribute:	EIATTR_EXIT_INSTR_OFFSETS
	Format:	EIFMT_SVAL
	Value:	0x2e10 0x2e40 0x2fd0 0xbab0 0xc200 
	<0x23>
	Attribute:	EIATTR_MAX_THREADS
	Format:	EIFMT_SVAL
	Value:	0x100 0x1 0x1 
	<0x24>
	Attribute:	EIATTR_CRS_STACK_SIZE
	Format:	EIFMT_SVAL
	Value:	0x0 


.nv.info._ZN3cub17CUB_200400_750_NS33DeviceRadixSortExclusiveSumKernelINS0_21DeviceRadixSortPolicyIihjE9Policy900EjEEvPT0_
	<0x1>
	Attribute:	EIATTR_SW_WAR
	Format:	EIFMT_SVAL
	Value:	0x1 
	<0x2>
	Attribute:	EIATTR_CUDA_API_VERSION
	Format:	EIFMT_SVAL
	Value:	0x7d 
	<0x3>
	Attribute:	EIATTR_PARAM_CBANK
	Format:	EIFMT_SVAL
	Value:	0x8d 0x80160 
	<0x4>
	Attribute:	EIATTR_CBANK_PARAM_SIZE
	Format:	EIFMT_HVAL
	Value:	0x8
	<0x5>
	Attribute:	EIATTR_KPARAM_INFO
	Format:	EIFMT_SVAL
	Value:	Index : 0x0	Ordinal : 0x0	Offset  : 0x0	Size    : 0x8
		Pointee's logAlignment : 0x0	Space : 0x0	cbank : 0x1f	Parameter Space : CBANK	
	<0x6>
	Attribute:	EIATTR_MAXREG_COUNT
	Format:	EIFMT_HVAL
	Value:	0xff
	<0x7>
	Attribute:	EIATTR_COOP_GROUP_MASK_REGIDS
	Format:	EIFMT_SVAL
	Value:	0xffffffff 0xffffffff 0xffffffff 0xffffffff 0xffffffff 0xffffffff 0xffffffff 0xffffffff 0xffffffff 0xffffffff 
	<0x8>
	Attribute:	EIATTR_COOP_GROUP_INSTR_OFFSETS
	Format:	EIFMT_SVAL
	Value:	0x1f0 0x210 0x230 0x250 0x270 0x4b0 0x530 0x5b0 0x630 0x6b0 
	<0x9>
	Attribute:	EIATTR_EXIT_INSTR_OFFSETS
	Format:	EIFMT_SVAL
	Value:	0x420 0x450 
	<0x10>
	Attribute:	EIATTR_CRS_STACK_SIZE
	Format:	EIFMT_SVAL
	Value:	0x0 


.nv.info._ZN3cub17CUB_200400_750_NS30DeviceRadixSortHistogramKernelINS0_21DeviceRadixSortPolicyIihjE9Policy900ELb0EijNS0_6detail21identity_decomposer_tEEEvPT2_PKT1_S7_iiT3_
	<0x1>
	Attribute:	EIATTR_SW_WAR
	Format:	EIFMT_SVAL
	Value:	0x1 
	<0x2>
	Attribute:	EIATTR_CUDA_API_VERSION
	Format:	EIFMT_SVAL
	Value:	0x7d 
	<0x3>
	Attribute:	EIATTR_PARAM_CBANK
	Format:	EIFMT_SVAL
	Value:	0x90 0x1d0160 
	<0x4>
	Attribute:	EIATTR_CBANK_PARAM_SIZE
	Format:	EIFMT_HVAL
	Value:	0x1d
	<0x5>
	Attribute:	EIATTR_KPARAM_INFO
	Format:	EIFMT_SVAL
	Value:	Index : 0x0	Ordinal : 0x5	Offset  : 0x1c	Size    : 0x1
		Pointee's logAlignment : 0x0	Space : 0x0	cbank : 0x1f	Parameter Space : CBANK	
	<0x6>
	Attribute:	EIATTR_KPARAM_INFO
	Format:	EIFMT_SVAL
	Value:	Index : 0x0	Ordinal : 0x4	Offset  : 0x18	Size    : 0x4
		Pointee's logAlignment : 0x0	Space : 0x0	cbank : 0x1f	Parameter Space : CBANK	
	<0x7>
	Attribute:	EIATTR_KPARAM_INFO
	Format:	EIFMT_SVAL
	Value:	Index : 0x0	Ordinal : 0x3	Offset  : 0x14	Size    : 0x4
		Pointee's logAlignment : 0x0	Space : 0x0	cbank : 0x1f	Parameter Space : CBANK	
	<0x8>
	Attribute:	EIATTR_KPARAM_INFO
	Format:	EIFMT_SVAL
	Value:	Index : 0x0	Ordinal : 0x2	Offset  : 0x10	Size    : 0x4
		Pointee's logAlignment : 0x0	Space : 0x0	cbank : 0x1f	Parameter Space : CBANK	
	<0x9>
	Attribute:	EIATTR_KPARAM_INFO
	Format:	EIFMT_SVAL
	Value:	Index : 0x0	Ordinal : 0x1	Offset  : 0x8	Size    : 0x8
		Pointee's logAlignment : 0x0	Space : 0x0	cbank : 0x1f	Parameter Space : CBANK	
	<0x10>
	Attribute:	EIATTR_KPARAM_INFO
	Format:	EIFMT_SVAL
	Value:	Index : 0x0	Ordinal : 0x0	Offset  : 0x0	Size    : 0x8
		Pointee's logAlignment : 0x0	Space : 0x0	cbank : 0x1f	Parameter Space : CBANK	
	<0x11>
	Attribute:	EIATTR_MAXREG_COUNT
	Format:	EIFMT_HVAL
	Value:	0xff
	<0x12>
	Attribute:	EIATTR_INT_WARP_WIDE_INSTR_OFFSETS
	Format:	EIFMT_SVAL
	Value:	0x23a0 0x23c0 0x2770 0x2790 
	<0x13>
	Attribute:	EIATTR_EXIT_INSTR_OFFSETS
	Format:	EIFMT_SVAL
	Value:	0x70 0x2810 
	<0x14>
	Attribute:	EIATTR_MAX_THREADS
	Format:	EIFMT_SVAL
	Value:	0x100 0x1 0x1 
	<0x15>
	Attribute:	EIATTR_CRS_STACK_SIZE
	Format:	EIFMT_SVAL
	Value:	0x0 


.nv.info._ZN3cub17CUB_200400_750_NS30DeviceRadixSortDownsweepKernelINS0_21DeviceRadixSortPolicyIihjE9Policy900ELb1ELb0EihjNS0_6detail21identity_decomposer_tEEEvPKT2_PS7_PKT3_PSB_PT4_SF_iiNS0_13GridEvenShareISF_EET5_
	<0x1>
	Attribute:	EIATTR_SW_WAR
	Format:	EIFMT_SVAL
	Value:	0x1 
	<0x2>
	Attribute:	EIATTR_CUDA_API_VERSION
	Format:	EIFMT_SVAL
	Value:	0x7d 
	<0x3>
	Attribute:	EIATTR_PARAM_CBANK
	Format:	EIFMT_SVAL
	Value:	0x95 0x5d0160 
	<0x4>
	Attribute:	EIATTR_CBANK_PARAM_SIZE
	Format:	EIFMT_HVAL
	Value:	0x5d
	<0x5>
	Attribute:	EIATTR_KPARAM_INFO
	Format:	EIFMT_SVAL
	Value:	Index : 0x0	Ordinal : 0x9	Offset  : 0x5c	Size    : 0x1
		Pointee's logAlignment : 0x0	Space : 0x0	cbank : 0x1f	Parameter Space : CBANK	
	<0x6>
	Attribute:	EIATTR_KPARAM_INFO
	Format:	EIFMT_SVAL
	Value:	Index : 0x0	Ordinal : 0x8	Offset  : 0x34	Size    : 0x28
		Pointee's logAlignment : 0x0	Space : 0x0	cbank : 0x1f	Parameter Space : CBANK	
	<0x7>
	Attribute:	EIATTR_KPARAM_INFO
	Format:	EIFMT_SVAL
	Value:	Index : 0x0	Ordinal : 0x7	Offset  : 0x30	Size    : 0x4
		Pointee's logAlignment : 0x0	Space : 0x0	cbank : 0x1f	Parameter Space : CBANK	
	<0x8>
	Attribute:	EIATTR_KPARAM_INFO
	Format:	EIFMT_SVAL
	Value:	Index : 0x0	Ordinal : 0x6	Offset  : 0x2c	Size    : 0x4
		Pointee's logAlignment : 0x0	Space : 0x0	cbank : 0x1f	Parameter Space : CBANK	
	<0x9>
	Attribute:	EIATTR_KPARAM_INFO
	Format:	EIFMT_SVAL
	Value:	Index : 0x0	Ordinal : 0x5	Offset  : 0x28	Size    : 0x4
		Pointee's logAlignment : 0x0	Space : 0x0	cbank : 0x1f	Parameter Space : CBANK	
	<0x10>
	Attribute:	EIATTR_KPARAM_INFO
	Format:	EIFMT_SVAL
	Value:	Index : 0x0	Ordinal : 0x4	Offset  : 0x20	Size    : 0x8
		Pointee's logAlignment : 0x0	Space : 0x0	cbank : 0x1f	Parameter Space : CBANK	
	<0x11>
	Attribute:	EIATTR_KPARAM_INFO
	Format:	EIFMT_SVAL
	Value:	Index : 0x0	Ordinal : 0x3	Offset  : 0x18	Size    : 0x8
		Pointee's logAlignment : 0x0	Space : 0x0	cbank : 0x1f	Parameter Space : CBANK	
	<0x12>
	Attribute:	EIATTR_KPARAM_INFO
	Format:	EIFMT_SVAL
	Value:	Index : 0x0	Ordinal : 0x2	Offset  : 0x10	Size    : 0x8
		Pointee's logAlignment : 0x0	Space : 0x0	cbank : 0x1f	Parameter Space : CBANK	
	<0x13>
	Attribute:	EIATTR_KPARAM_INFO
	Format:	EIFMT_SVAL
	Value:	Index : 0x0	Ordinal : 0x1	Offset  : 0x8	Size    : 0x8
		Pointee's logAlignment : 0x0	Space : 0x0	cbank : 0x1f	Parameter Space : CBANK	
	<0x14>
	Attribute:	EIATTR_KPARAM_INFO
	Format:	EIFMT_SVAL
	Value:	Index : 0x0	Ordinal : 0x0	Offset  : 0x0	Size    : 0x8
		Pointee's logAlignment : 0x0	Space : 0x0	cbank : 0x1f	Parameter Space : CBANK	
	<0x15>
	Attribute:	EIATTR_MAXREG_COUNT
	Format:	EIFMT_HVAL
	Value:	0xff
	<0x16>
	Attribute:	EIATTR_COOP_GROUP_MASK_REGIDS
	Format:	EIFMT_SVAL
	Value:	0xffffffff 0xffffffff 0xffffffff 0xffffffff 0xffffffff 0xffffffff 0xffffffff 0xffffffff 0xffffffff 0xffffffff 0xffffffff 0xffffffff 0xffffffff 0xffffffff 0xffffffff 0xffffffff 0xffffffff 0xffffffff 0xffffffff 0xffffffff 0xffffffff 0xffffffff 0xffffffff 
	<0x17>
	Attribute:	EIATTR_COOP_GROUP_INSTR_OFFSETS
	Format:	EIFMT_SVAL
	Value:	0x7020 0x7040 0x7060 0x7080 0x70b0 0xb3f0 0xf1e0 0xf200 0xf220 0xf240 0xf270 0x110b0 0x14ba0 0x14c30 0x14cc0 0x14d50 0x14de0 0x14e30 0x14ea0 0x14f30 0x14fc0 0x15050 0x150e0 
	<0x18>
	Attribute:	EIATTR_EXIT_INSTR_OFFSETS
	Format:	EIFMT_SVAL
	Value:	0x2530 0x3aa0 0x3ac0 0xb3d0 0x14af0 0x14b40 
	<0x19>
	Attribute:	EIATTR_MAX_THREADS
	Format:	EIFMT_SVAL
	Value:	0x100 0x1 0x1 
	<0x20>
	Attribute:	EIATTR_CRS_STACK_SIZE
	Format:	EIFMT_SVAL
	Value:	0x0 


.nv.info._ZN3cub17CUB_200400_750_NS30DeviceRadixSortDownsweepKernelINS0_21DeviceRadixSortPolicyIihjE9Policy900ELb0ELb0EihjNS0_6detail21identity_decomposer_tEEEvPKT2_PS7_PKT3_PSB_PT4_SF_iiNS0_13GridEvenShareISF_EET5_
	<0x1>
	Attribute:	EIATTR_SW_WAR
	Format:	EIFMT_SVAL
	Value:	0x1 
	<0x2>
	Attribute:	EIATTR_CUDA_API_VERSION
	Format:	EIFMT_SVAL
	Value:	0x7d 
	<0x3>
	Attribute:	EIATTR_PARAM_CBANK
	Format:	EIFMT_SVAL
	Value:	0x9a 0x5d0160 
	<0x4>
	Attribute:	EIATTR_CBANK_PARAM_SIZE
	Format:	EIFMT_HVAL
	Value:	0x5d
	<0x5>
	Attribute:	EIATTR_KPARAM_INFO
	Format:	EIFMT_SVAL
	Value:	Index : 0x0	Ordinal : 0x9	Offset  : 0x5c	Size    : 0x1
		Pointee's logAlignment : 0x0	Space : 0x0	cbank : 0x1f	Parameter Space : CBANK	
	<0x6>
	Attribute:	EIATTR_KPARAM_INFO
	Format:	EIFMT_SVAL
	Value:	Index : 0x0	Ordinal : 0x8	Offset  : 0x34	Size    : 0x28
		Pointee's logAlignment : 0x0	Space : 0x0	cbank : 0x1f	Parameter Space : CBANK	
	<0x7>
	Attribute:	EIATTR_KPARAM_INFO
	Format:	EIFMT_SVAL
	Value:	Index : 0x0	Ordinal : 0x7	Offset  : 0x30	Size    : 0x4
		Pointee's logAlignment : 0x0	Space : 0x0	cbank : 0x1f	Parameter Space : CBANK	
	<0x8>
	Attribute:	EIATTR_KPARAM_INFO
	Format:	EIFMT_SVAL
	Value:	Index : 0x0	Ordinal : 0x6	Offset  : 0x2c	Size    : 0x4
		Pointee's logAlignment : 0x0	Space : 0x0	cbank : 0x1f	Parameter Space : CBANK	
	<0x9>
	Attribute:	EIATTR_KPARAM_INFO
	Format:	EIFMT_SVAL
	Value:	Index : 0x0	Ordinal : 0x5	Offset  : 0x28	Size    : 0x4
		Pointee's logAlignment : 0x0	Space : 0x0	cbank : 0x1f	Parameter Space : CBANK	
	<0x10>
	Attribute:	EIATTR_KPARAM_INFO
	Format:	EIFMT_SVAL
	Value:	Index : 0x0	Ordinal : 0x4	Offset  : 0x20	Size    : 0x8
		Pointee's logAlignment : 0x0	Space : 0x0	cbank : 0x1f	Parameter Space : CBANK	
	<0x11>
	Attribute:	EIATTR_KPARAM_INFO
	Format:	EIFMT_SVAL
	Value:	Index : 0x0	Ordinal : 0x3	Offset  : 0x18	Size    : 0x8
		Pointee's logAlignment : 0x0	Space : 0x0	cbank : 0x1f	Parameter Space : CBANK	
	<0x12>
	Attribute:	EIATTR_KPARAM_INFO
	Format:	EIFMT_SVAL
	Value:	Index : 0x0	Ordinal : 0x2	Offset  : 0x10	Size    : 0x8
		Pointee's logAlignment : 0x0	Space : 0x0	cbank : 0x1f	Parameter Space : CBANK	
	<0x13>
	Attribute:	EIATTR_KPARAM_INFO
	Format:	EIFMT_SVAL
	Value:	Index : 0x0	Ordinal : 0x1	Offset  : 0x8	Size    : 0x8
		Pointee's logAlignment : 0x0	Space : 0x0	cbank : 0x1f	Parameter Space : CBANK	
	<0x14>
	Attribute:	EIATTR_KPARAM_INFO
	Format:	EIFMT_SVAL
	Value:	Index : 0x0	Ordinal : 0x0	Offset  : 0x0	Size    : 0x8
		Pointee's logAlignment : 0x0	Space : 0x0	cbank : 0x1f	Parameter Space : CBANK	
	<0x15>
	Attribute:	EIATTR_MAXREG_COUNT
	Format:	EIFMT_HVAL
	Value:	0x80
	<0x16>
	Attribute:	EIATTR_UNUSED_LOAD_BYTE_OFFSET
	Format:	EIFMT_SVAL
	Value:	0x5760 0xfff 0xb3b0 0xfff 
	<0x17>
	Attribute:	EIATTR_COOP_GROUP_MASK_REGIDS
	Format:	EIFMT_SVAL
	Value:	0xffffffff 0xffffffff 0xffffffff 0xffffffff 0xffffffff 0xffffffff 0xffffffff 0xffffffff 0xffffffff 0xffffffff 0xffffffff 0xffffffff 0xffffffff 0xffffffff 0xffffffff 0xffffffff 0xffffffff 0xffffffff 0xffffffff 0xffffffff 0xffffffff 0xffffffff 0xffffffff 0xffffffff 0xffffffff 0xffffffff 0xffffffff 0xffffffff 0xffffffff 0xffffffff 0xffffffff 0xffffffff 0xffffffff 0xffffffff 0xffffffff 0xffffffff 0xffffffff 0xffffffff 0xffffffff 0xffffffff 0xffffffff 0xffffffff 0xffffffff 0xffffffff 0xffffffff 0xffffffff 0xffffffff 0xffffffff 0xffffffff 0xffffffff 0xffffffff 0xffffffff 0xffffffff 0xffffffff 0xffffffff 0xffffffff 0xffffffff 0xffffffff 0xffffffff 0xffffffff 0xffffffff 0xffffffff 0xffffffff 0xffffffff 0xffffffff 0xffffffff 0xffffffff 0xffffffff 0xffffffff 0xffffffff 0xffffffff 0xffffffff 0xffffffff 0xffffffff 0xffffffff 0xffffffff 0xffffffff 0xffffffff 0xffffffff 0xffffffff 0xffffffff 0xffffffff 0xffffffff 0xffffffff 0xffffffff 0xffffffff 0xffffffff 0xffffffff 0xffffffff 0xffffffff 0xffffffff 0xffffffff 0xffffffff 0xffffffff 0xffffffff 0xffffffff 0xffffffff 0xffffffff 0xffffffff 0xffffffff 0xffffffff 0xffffffff 0xffffffff 0xffffffff 0xffffffff 0xffffffff 0xffffffff 0xffffffff 0xffffffff 0xffffffff 0xffffffff 0xffffffff 0xffffffff 0xffffffff 0xffffffff 0xffffffff 0xffffffff 0xffffffff 0xffffffff 0xffffffff 0xffffffff 0xffffffff 0xffffffff 0xffffffff 0xffffffff 0xffffffff 0xffffffff 0xffffffff 0xffffffff 0xffffffff 0xffffffff 0xffffffff 0xffffffff 0xffffffff 0xffffffff 0xffffffff 0xffffffff 0xffffffff 0xffffffff 0xffffffff 0xffffffff 0xffffffff 0xffffffff 0xffffffff 0xffffffff 0xffffffff 0xffffffff 0xffffffff 0xffffffff 0xffffffff 0xffffffff 0xffffffff 0xffffffff 0xffffffff 0xffffffff 0xffffffff 0xffffffff 0xffffffff 0xffffffff 0xffffffff 0xffffffff 0xffffffff 0xffffffff 0xffffffff 0xffffffff 0xffffffff 0xffffffff 0xffffffff 0xffffffff 0xffffffff 0xffffffff 0xffffffff 0xffffffff 0xffffffff 0xffffffff 0xffffffff 0xffffffff 0xffffffff 0xffffffff 0xffffffff 0xffffffff 0xffffffff 0xffffffff 0xffffffff 0xffffffff 0xffffffff 0xffffffff 0xffffffff 0xffffffff 0xffffffff 0xffffffff 0xffffffff 0xffffffff 0xffffffff 0xffffffff 0xffffffff 0xffffffff 0xffffffff 0xffffffff 0xffffffff 0xffffffff 0xffffffff 0xffffffff 0xffffffff 0xffffffff 0xffffffff 0xffffffff 0xffffffff 0xffffffff 0xffffffff 0xffffffff 0xffffffff 0xffffffff 0xffffffff 0xffffffff 0xffffffff 0xffffffff 0xffffffff 0xffffffff 0xffffffff 0xffffffff 0xffffffff 0xffffffff 0xffffffff 0xffffffff 0xffffffff 0xffffffff 0xffffffff 0xffffffff 0xffffffff 0xffffffff 0xffffffff 0xffffffff 0xffffffff 0xffffffff 0xffffffff 0xffffffff 0xffffffff 0xffffffff 0xffffffff 0xffffffff 0xffffffff 0xffffffff 0xffffffff 0xffffffff 0xffffffff 0xffffffff 0xffffffff 0xffffffff 0xffffffff 0xffffffff 0xffffffff 0xffffffff 0xffffffff 0xffffffff 0xffffffff 0xffffffff 0xffffffff 0xffffffff 0xffffffff 0xffffffff 0xffffffff 0xffffffff 0xffffffff 0xffffffff 0xffffffff 0xffffffff 0xffffffff 0xffffffff 0xffffffff 0xffffffff 0xffffffff 0xffffffff 0xffffffff 0xffffffff 0xffffffff 0xffffffff 0xffffffff 0xffffffff 0xffffffff 0xffffffff 0xffffffff 0xffffffff 0xffffffff 0xffffffff 0xffffffff 0xffffffff 0xffffffff 0xffffffff 0xffffffff 0xffffffff 0xffffffff 0xffffffff 0xffffffff 0xffffffff 0xffffffff 0xffffffff 0xffffffff 0xffffffff 0xffffffff 0xffffffff 0xffffffff 0xffffffff 0xffffffff 0xffffffff 0xffffffff 0xffffffff 0xffffffff 0xffffffff 0xffffffff 0xffffffff 0xffffffff 0xffffffff 0xffffffff 0xffffffff 0xffffffff 0xffffffff 0xffffffff 0xffffffff 0xffffffff 0xffffffff 0xffffffff 0xffffffff 0xffffffff 0xffffffff 0xffffffff 0xffffffff 0xffffffff 0xffffffff 0xffffffff 0xffffffff 0xffffffff 0xffffffff 0xffffffff 0xffffffff 0xffffffff 0xffffffff 0xffffffff 0xffffffff 0xffffffff 0xffffffff 0xffffffff 0xffffffff 0xffffffff 0xffffffff 0xffffffff 0xffffffff 0xffffffff 0xffffffff 0xffffffff 0xffffffff 0xffffffff 0xffffffff 0xffffffff 0xffffffff 0xffffffff 0xffffffff 0xffffffff 0xffffffff 0xffffffff 0xffffffff 0xffffffff 0xffffffff 0xffffffff 0xffffffff 0xffffffff 0xffffffff 0xffffffff 0xffffffff 0xffffffff 0xffffffff 0xffffffff 0xffffffff 0xffffffff 0xffffffff 0xffffffff 0xffffffff 0xffffffff 0xffffffff 0xffffffff 0xffffffff 0xffffffff 0xffffffff 0xffffffff 0xffffffff 0xffffffff 0xffffffff 0xffffffff 0xffffffff 0xffffffff 0xffffffff 0xffffffff 0xffffffff 0xffffffff 0xffffffff 0xffffffff 0xffffffff 0xffffffff 0xffffffff 0xffffffff 0xffffffff 0xffffffff 0xffffffff 0xffffffff 0xffffffff 0xffffffff 0xffffffff 0xffffffff 0xffffffff 0xffffffff 0xffffffff 0xffffffff 0xffffffff 0xffffffff 0xffffffff 0xffffffff 0xffffffff 0xffffffff 0xffffffff 0xffffffff 0xffffffff 0xffffffff 0xffffffff 0xffffffff 0xffffffff 0xffffffff 0xffffffff 0xffffffff 0xffffffff 0xffffffff 0xffffffff 0xffffffff 0xffffffff 0xffffffff 0xffffffff 0xffffffff 0xffffffff 0xffffffff 0xffffffff 0xffffffff 0xffffffff 
	<0x18>
	Attribute:	EIATTR_COOP_GROUP_INSTR_OFFSETS
	Format:	EIFMT_SVAL
	Value:	0x23a0 0x23d0 0x23e0 0x2430 0x2470 0x2490 0x24d0 0x2650 0x2660 0x2670 0x2680 0x2690 0x26a0 0x26b0 0x27a0 0x27b0 0x27c0 0x27d0 0x27e0 0x27f0 0x2800 0x28e0 0x28f0 0x2900 0x2910 0x2920 0x2930 0x2940 0x2a20 0x2a30 0x2a40 0x2a50 0x2a60 0x2a70 0x2a80 0x2b70 0x2b80 0x2b90 0x2ba0 0x2bb0 0x2bc0 0x2bd0 0x2cb0 0x2cc0 0x2cf0 0x2d00 0x2d10 0x2d30 0x2e10 0x2e20 0x2e60 0x2ec0 0x2f00 0x2f10 0x2f20 0x2f40 0x2f50 0x2ff0 0x3030 0x3070 0x30c0 0x30d0 0x3100 0x3110 0x3120 0x31e0 0x3230 0x3240 0x3280 0x32e0 0x32f0 0x3320 0x3330 0x3340 0x3360 0x3440 0x3450 0x3490 0x34e0 0x34f0 0x3520 0x3530 0x3540 0x35d0 0x3620 0x3630 0x3670 0x36d0 0x36e0 0x3710 0x3720 0x3730 0x3750 0x3830 0x3840 0x3880 0x38d0 0x3910 0x3920 0x3930 0x3950 0x3960 0x3a30 0x3a40 0x3a80 0x3af0 0x3b30 0x3b40 0x3b50 0x3b70 0x3c60 0x3c70 0x3c90 0x3ca0 0x3d50 0x3d60 0x3d90 0x3da0 0x3db0 0x3dd0 0x3eb0 0x3ec0 0x3f00 0x3f60 0x3f70 0x3fa0 0x3fb0 0x3fc0 0x3fe0 0x40c0 0x40d0 0x4110 0x4160 0x41d0 0x41f0 0x4200 0x42d0 0x4300 0x4330 0x4410 0x44a0 0x44b0 0x44f0 0x4550 0x4560 0x4590 0x45a0 0x45b0 0x45d0 0x45e0 0x46b0 0x46f0 0x4750 0x4760 0x4790 0x47a0 0x47b0 0x47d0 0x47e0 0x48b0 0x48e0 0x4a60 0x4aa0 0x4ae0 0x4af0 0x4b20 0x4b30 0x4b40 0x4bc0 0x4bd0 0x4bf0 0x4c20 0x4cf0 0x4d20 0x4d40 0x4d50 0x4d80 0x4d90 0x4da0 0x4dc0 0x4dd0 0x4e90 0x4f00 0x4f10 0x4f70 0x4f80 0x4fa0 0x4fb0 0x5060 0x5090 0x5100 0x5110 0x5130 0x5140 0x51d0 0x51e0 0x5220 0x5260 0x52a0 0x52f0 0x5330 0x5360 0x53b0 0x53f0 0x5410 0x5470 0x5490 0x5520 0x5540 0x5560 0x5580 0x55b0 0x7500 0x7df0 0x7e20 0x7e30 0x7e80 0x7ec0 0x7ee0 0x7f30 0x8100 0x8110 0x8130 0x8140 0x8160 0x8170 0x8180 0x8270 0x8280 0x8290 0x82a0 0x82b0 0x82c0 0x82d0 0x83c0 0x83d0 0x83e0 0x83f0 0x8400 0x8410 0x8420 0x8510 0x8520 0x8560 0x8570 0x8580 0x8590 0x85a0 0x8690 0x86a0 0x86d0 0x86e0 0x86f0 0x8700 0x8780 0x87c0 0x8850 0x8860 0x88c0 0x88d0 0x88e0 0x8960 0x89e0 0x89f0 0x8a10 0x8a20 0x8ad0 0x8ae0 0x8b10 0x8b20 0x8b30 0x8b40 0x8c00 0x8c10 0x8c50 0x8ca0 0x8cb0 0x8ce0 0x8cf0 0x8d00 0x8d90 0x8dd0 0x8de0 0x8e20 0x8e70 0x8e80 0x8eb0 0x8ec0 0x8ed0 0x8f60 0x8fa0 0x8fb0 0x8ff0 0x9040 0x9080 0x9090 0x90a0 0x90b0 0x90c0 0x9170 0x9180 0x91c0 0x9220 0x9270 0x9290 0x92c0 0x92d0 0x9310 0x9350 0x9360 0x93a0 0x9430 0x94a0 0x94b0 0x94d0 0x94e0 0x94f0 0x9530 0x9570 0x95f0 0x9630 0x96b0 0x96d0 0x96e0 0x96f0 0x9700 0x9770 0x9780 0x97c0 0x9850 0x98d0 0x98f0 0x9900 0x9910 0x9990 0x99a0 0x99d0 0x9a00 0x9a90 0x9ae0 0x9b00 0x9bc0 0x9bd0 0x9c00 0x9c40 0x9d90 0x9dc0 0x9df0 0x9e00 0x9e90 0x9ea0 0x9ed0 0x9ee0 0x9ef0 0x9f70 0x9f90 0x9fc0 0xa030 0xa040 0xa0e0 0xa110 0xa1a0 0xa1b0 0xa1c0 0xa1d0 0xa280 0xa290 0xa2b0 0xa300 0xa3c0 0xa3d0 0xa400 0xa470 0xa480 0xa4a0 0xa4d0 0xa550 0xa5a0 0xa5d0 0xa5e0 0xa650 0xa660 0xa690 0xa6a0 0xa6b0 0xa770 0xa780 0xa7a0 0xa7e0 0xa840 0xa850 0xa880 0xa890 0xa8a0 0xa910 0xa940 0xa9a0 0xa9e0 0xaa10 0xaa70 0xaaa0 0xaab0 0xaac0 0xaad0 0xaae0 0xaaf0 0xab00 0xabf0 0xac50 0xaca0 0xad00 0xad30 0xad70 0xadb0 0xadf0 0xae20 0xae60 0xae80 0xaef0 0xaf10 0xafa0 0xafc0 0xafe0 0xb000 0xb030 0xcdc0 0xdec0 0xdf30 0xdfb0 0xe030 0xe0b0 0xe130 0xe1b0 0xe1f0 0xe240 0xe2b0 0xe330 0xe3b0 0xe430 0xe4b0 0xe540 
	<0x19>
	Attribute:	EIATTR_EXIT_INSTR_OFFSETS
	Format:	EIFMT_SVAL
	Value:	0x1440 0x1e90 0x1eb0 0x74e0 0xde30 0xde80 
	<0x20>
	Attribute:	EIATTR_MAX_THREADS
	Format:	EIFMT_SVAL
	Value:	0x200 0x1 0x1 
	<0x21>
	Attribute:	EIATTR_CRS_STACK_SIZE
	Format:	EIFMT_SVAL
	Value:	0x0 


.nv.info._ZN3cub17CUB_200400_750_NS23RadixSortScanBinsKernelINS0_21DeviceRadixSortPolicyIihjE9Policy900EjEEvPT0_i
	<0x1>
	Attribute:	EIATTR_SW_WAR
	Format:	EIFMT_SVAL
	Value:	0x1 
	<0x2>
	Attribute:	EIATTR_CUDA_API_VERSION
	Format:	EIFMT_SVAL
	Value:	0x7d 
	<0x3>
	Attribute:	EIATTR_PARAM_CBANK
	Format:	EIFMT_SVAL
	Value:	0xa0 0xc0160 
	<0x4>
	Attribute:	EIATTR_CBANK_PARAM_SIZE
	Format:	EIFMT_HVAL
	Value:	0xc
	<0x5>
	Attribute:	EIATTR_KPARAM_INFO
	Format:	EIFMT_SVAL
	Value:	Index : 0x0	Ordinal : 0x1	Offset  : 0x8	Size    : 0x4
		Pointee's logAlignment : 0x0	Space : 0x0	cbank : 0x1f	Parameter Space : CBANK	
	<0x6>
	Attribute:	EIATTR_KPARAM_INFO
	Format:	EIFMT_SVAL
	Value:	Index : 0x0	Ordinal : 0x0	Offset  : 0x0	Size    : 0x8
		Pointee's logAlignment : 0x0	Space : 0x0	cbank : 0x1f	Parameter Space : CBANK	
	<0x7>
	Attribute:	EIATTR_MAXREG_COUNT
	Format:	EIFMT_HVAL
	Value:	0x80
	<0x8>
	Attribute:	EIATTR_COOP_GROUP_MASK_REGIDS
	Format:	EIFMT_SVAL
	Value:	0xffffffff 0xffffffff 0xffffffff 0xffffffff 0xffffffff 0xffffffff 0xffffffff 0xffffffff 0xffffffff 0xffffffff 0xffffffff 0xffffffff 0xffffffff 0xffffffff 0xffffffff 0xffffffff 0xffffffff 0xffffffff 0xffffffff 0xffffffff 0xffffffff 0xffffffff 0xffffffff 0xffffffff 0xffffffff 0xffffffff 0xffffffff 0xffffffff 0xffffffff 0xffffffff 0xffffffff 0xffffffff 0xffffffff 
	<0x9>
	Attribute:	EIATTR_COOP_GROUP_INSTR_OFFSETS
	Format:	EIFMT_SVAL
	Value:	0x470 0x890 0x8b0 0x8d0 0x8f0 0x910 0x930 0x950 0xeb0 0xec0 0x1a00 0x1e20 0x1e40 0x1e60 0x1e80 0x1eb0 0x1f30 0x1f60 0x2520 0x2550 0x2aa0 0x2b30 0x2bc0 0x2c50 0x2ce0 0x2d70 0x2df0 0x2e70 0x2ef0 0x2f70 0x2ff0 0x3070 0x30f0 
	<0x10>
	Attribute:	EIATTR_EXIT_INSTR_OFFSETS
	Format:	EIFMT_SVAL
	Value:	0x11f0 0x2a20 0x2a40 
	<0x11>
	Attribute:	EIATTR_MAX_THREADS
	Format:	EIFMT_SVAL
	Value:	0x200 0x1 0x1 
	<0x12>
	Attribute:	EIATTR_CRS_STACK_SIZE
	Format:	EIFMT_SVAL
	Value:	0x0 


.nv.info._ZN3cub17CUB_200400_750_NS28DeviceRadixSortUpsweepKernelINS0_21DeviceRadixSortPolicyIihjE9Policy900ELb1ELb0EijNS0_6detail21identity_decomposer_tEEEvPKT2_PT3_SA_iiNS0_13GridEvenShareISA_EET4_
	<0x1>
	Attribute:	EIATTR_SW_WAR
	Format:	EIFMT_SVAL
	Value:	0x1 
	<0x2>
	Attribute:	EIATTR_CUDA_API_VERSION
	Format:	EIFMT_SVAL
	Value:	0x7d 
	<0x3>
	Attribute:	EIATTR_PARAM_CBANK
	Format:	EIFMT_SVAL
	Value:	0xa3 0x450160 
	<0x4>
	Attribute:	EIATTR_CBANK_PARAM_SIZE
	Format:	EIFMT_HVAL
	Value:	0x45
	<0x5>
	Attribute:	EIATTR_KPARAM_INFO
	Format:	EIFMT_SVAL
	Value:	Index : 0x0	Ordinal : 0x6	Offset  : 0x44	Size    : 0x1
		Pointee's logAlignment : 0x0	Space : 0x0	cbank : 0x1f	Parameter Space : CBANK	
	<0x6>
	Attribute:	EIATTR_KPARAM_INFO
	Format:	EIFMT_SVAL
	Value:	Index : 0x0	Ordinal : 0x5	Offset  : 0x1c	Size    : 0x28
		Pointee's logAlignment : 0x0	Space : 0x0	cbank : 0x1f	Parameter Space : CBANK	
	<0x7>
	Attribute:	EIATTR_KPARAM_INFO
	Format:	EIFMT_SVAL
	Value:	Index : 0x0	Ordinal : 0x4	Offset  : 0x18	Size    : 0x4
		Pointee's logAlignment : 0x0	Space : 0x0	cbank : 0x1f	Parameter Space : CBANK	
	<0x8>
	Attribute:	EIATTR_KPARAM_INFO
	Format:	EIFMT_SVAL
	Value:	Index : 0x0	Ordinal : 0x3	Offset  : 0x14	Size    : 0x4
		Pointee's logAlignment : 0x0	Space : 0x0	cbank : 0x1f	Parameter Space : CBANK	
	<0x9>
	Attribute:	EIATTR_KPARAM_INFO
	Format:	EIFMT_SVAL
	Value:	Index : 0x0	Ordinal : 0x2	Offset  : 0x10	Size    : 0x4
		Pointee's logAlignment : 0x0	Space : 0x0	cbank : 0x1f	Parameter Space : CBANK	
	<0x10>
	Attribute:	EIATTR_KPARAM_INFO
	Format:	EIFMT_SVAL
	Value:	Index : 0x0	Ordinal : 0x1	Offset  : 0x8	Size    : 0x8
		Pointee's logAlignment : 0x0	Space : 0x0	cbank : 0x1f	Parameter Space : CBANK	
	<0x11>
	Attribute:	EIATTR_KPARAM_INFO
	Format:	EIFMT_SVAL
	Value:	Index : 0x0	Ordinal : 0x0	Offset  : 0x0	Size    : 0x8
		Pointee's logAlignment : 0x0	Space : 0x0	cbank : 0x1f	Parameter Space : CBANK	
	<0x12>
	Attribute:	EIATTR_MAXREG_COUNT
	Format:	EIFMT_HVAL
	Value:	0xff
	<0x13>
	Attribute:	EIATTR_EXIT_INSTR_OFFSETS
	Format:	EIFMT_SVAL
	Value:	0x6e60 0x71c0 
	<0x14>
	Attribute:	EIATTR_MAX_THREADS
	Format:	EIFMT_SVAL
	Value:	0x100 0x1 0x1 
	<0x15>
	Attribute:	EIATTR_CRS_STACK_SIZE
	Format:	EIFMT_SVAL
	Value:	0x0 


.nv.info._ZN3cub17CUB_200400_750_NS28DeviceRadixSortUpsweepKernelINS0_21DeviceRadixSortPolicyIihjE9Policy900ELb0ELb0EijNS0_6detail21identity_decomposer_tEEEvPKT2_PT3_SA_iiNS0_13GridEvenShareISA_EET4_
	<0x1>
	Attribute:	EIATTR_SW_WAR
	Format:	EIFMT_SVAL
	Value:	0x1 
	<0x2>
	Attribute:	EIATTR_CUDA_API_VERSION
	Format:	EIFMT_SVAL
	Value:	0x7d 
	<0x3>
	Attribute:	EIATTR_PARAM_CBANK
	Format:	EIFMT_SVAL
	Value:	0xa6 0x450160 
	<0x4>
	Attribute:	EIATTR_CBANK_PARAM_SIZE
	Format:	EIFMT_HVAL
	Value:	0x45
	<0x5>
	Attribute:	EIATTR_KPARAM_INFO
	Format:	EIFMT_SVAL
	Value:	Index : 0x0	Ordinal : 0x6	Offset  : 0x44	Size    : 0x1
		Pointee's logAlignment : 0x0	Space : 0x0	cbank : 0x1f	Parameter Space : CBANK	
	<0x6>
	Attribute:	EIATTR_KPARAM_INFO
	Format:	EIFMT_SVAL
	Value:	Index : 0x0	Ordinal : 0x5	Offset  : 0x1c	Size    : 0x28
		Pointee's logAlignment : 0x0	Space : 0x0	cbank : 0x1f	Parameter Space : CBANK	
	<0x7>
	Attribute:	EIATTR_KPARAM_INFO
	Format:	EIFMT_SVAL
	Value:	Index : 0x0	Ordinal : 0x4	Offset  : 0x18	Size    : 0x4
		Pointee's logAlignment : 0x0	Space : 0x0	cbank : 0x1f	Parameter Space : CBANK	
	<0x8>
	Attribute:	EIATTR_KPARAM_INFO
	Format:	EIFMT_SVAL
	Value:	Index : 0x0	Ordinal : 0x3	Offset  : 0x14	Size    : 0x4
		Pointee's logAlignment : 0x0	Space : 0x0	cbank : 0x1f	Parameter Space : CBANK	
	<0x9>
	Attribute:	EIATTR_KPARAM_INFO
	Format:	EIFMT_SVAL
	Value:	Index : 0x0	Ordinal : 0x2	Offset  : 0x10	Size    : 0x4
		Pointee's logAlignment : 0x0	Space : 0x0	cbank : 0x1f	Parameter Space : CBANK	
	<0x10>
	Attribute:	EIATTR_KPARAM_INFO
	Format:	EIFMT_SVAL
	Value:	Index : 0x0	Ordinal : 0x1	Offset  : 0x8	Size    : 0x8
		Pointee's logAlignment : 0x0	Space : 0x0	cbank : 0x1f	Parameter Space : CBANK	
	<0x11>
	Attribute:	EIATTR_KPARAM_INFO
	Format:	EIFMT_SVAL
	Value:	Index : 0x0	Ordinal : 0x0	Offset  : 0x0	Size    : 0x8
		Pointee's logAlignment : 0x0	Space : 0x0	cbank : 0x1f	Parameter Space : CBANK	
	<0x12>
	Attribute:	EIATTR_MAXREG_COUNT
	Format:	EIFMT_HVAL
	Value:	0xff
	<0x13>
	Attribute:	EIATTR_EXIT_INSTR_OFFSETS
	Format:	EIFMT_SVAL
	Value:	0x58d0 0x5c20 
	<0x14>
	Attribute:	EIATTR_MAX_THREADS
	Format:	EIFMT_SVAL
	Value:	0x100 0x1 0x1 
	<0x15>
	Attribute:	EIATTR_CRS_STACK_SIZE
	Format:	EIFMT_SVAL
	Value:	0x0 


.nv.info._ZN3cub17CUB_200400_750_NS31DeviceRadixSortSingleTileKernelINS0_21DeviceRadixSortPolicyIihjE9Policy900ELb0EihjNS0_6detail21identity_decomposer_tEEEvPKT1_PS7_PKT2_PSB_T3_iiT4_
	<0x1>
	Attribute:	EIATTR_SW_WAR
	Format:	EIFMT_SVAL
	Value:	0x1 
	<0x2>
	Attribute:	EIATTR_CUDA_API_VERSION
	Format:	EIFMT_SVAL
	Value:	0x7d 
	<0x3>
	Attribute:	EIATTR_PARAM_CBANK
	Format:	EIFMT_SVAL
	Value:	0xa9 0x2d0160 
	<0x4>
	Attribute:	EIATTR_CBANK_PARAM_SIZE
	Format:	EIFMT_HVAL
	Value:	0x2d
	<0x5>
	Attribute:	EIATTR_KPARAM_INFO
	Format:	EIFMT_SVAL
	Value:	Index : 0x0	Ordinal : 0x7	Offset  : 0x2c	Size    : 0x1
		Pointee's logAlignment : 0x0	Space : 0x0	cbank : 0x1f	Parameter Space : CBANK	
	<0x6>
	Attribute:	EIATTR_KPARAM_INFO
	Format:	EIFMT_SVAL
	Value:	Index : 0x0	Ordinal : 0x6	Offset  : 0x28	Size    : 0x4
		Pointee's logAlignment : 0x0	Space : 0x0	cbank : 0x1f	Parameter Space : CBANK	
	<0x7>
	Attribute:	EIATTR_KPARAM_INFO
	Format:	EIFMT_SVAL
	Value:	Index : 0x0	Ordinal : 0x5	Offset  : 0x24	Size    : 0x4
		Pointee's logAlignment : 0x0	Space : 0x0	cbank : 0x1f	Parameter Space : CBANK	
	<0x8>
	Attribute:	EIATTR_KPARAM_INFO
	Format:	EIFMT_SVAL
	Value:	Index : 0x0	Ordinal : 0x4	Offset  : 0x20	Size    : 0x4
		Pointee's logAlignment : 0x0	Space : 0x0	cbank : 0x1f	Parameter Space : CBANK	
	<0x9>
	Attribute:	EIATTR_KPARAM_INFO
	Format:	EIFMT_SVAL
	Value:	Index : 0x0	Ordinal : 0x3	Offset  : 0x18	Size    : 0x8
		Pointee's logAlignment : 0x0	Space : 0x0	cbank : 0x1f	Parameter Space : CBANK	
	<0x10>
	Attribute:	EIATTR_KPARAM_INFO
	Format:	EIFMT_SVAL
	Value:	Index : 0x0	Ordinal : 0x2	Offset  : 0x10	Size    : 0x8
		Pointee's logAlignment : 0x0	Space : 0x0	cbank : 0x1f	Parameter Space : CBANK	
	<0x11>
	Attribute:	EIATTR_KPARAM_INFO
	Format:	EIFMT_SVAL
	Value:	Index : 0x0	Ordinal : 0x1	Offset  : 0x8	Size    : 0x8
		Pointee's logAlignment : 0x0	Space : 0x0	cbank : 0x1f	Parameter Space : CBANK	
	<0x12>
	Attribute:	EIATTR_KPARAM_INFO
	Format:	EIFMT_SVAL
	Value:	Index : 0x0	Ordinal : 0x0	Offset  : 0x0	Size    : 0x8
		Pointee's logAlignment : 0x0	Space : 0x0	cbank : 0x1f	Parameter Space : CBANK	
	<0x13>
	Attribute:	EIATTR_MAXREG_COUNT
	Format:	EIFMT_HVAL
	Value:	0xff
	<0x14>
	Attribute:	EIATTR_COOP_GROUP_MASK_REGIDS
	Format:	EIFMT_SVAL
	Value:	0xffffffff 0xffffffff 0xffffffff 0xffffffff 0xffffffff 
	<0x15>
	Attribute:	EIATTR_COOP_GROUP_INSTR_OFFSETS
	Format:	EIFMT_SVAL
	Value:	0x1d00 0x1d20 0x1d40 0x1d60 0x1db0 
	<0x16>
	Attribute:	EIATTR_EXIT_INSTR_OFFSETS
	Format:	EIFMT_SVAL
	Value:	0x35d0 0x3650 
	<0x17>
	Attribute:	EIATTR_MAX_THREADS
	Format:	EIFMT_SVAL
	Value:	0x100 0x1 0x1 
	<0x18>
	Attribute:	EIATTR_CRS_STACK_SIZE
	Format:	EIFMT_SVAL
	Value:	0x0 


.nv.info._ZN3cub17CUB_200400_750_NS11EmptyKernelIvEEvv
	<0x1>
	Attribute:	EIATTR_SW_WAR
	Format:	EIFMT_SVAL
	Value:	0x1 
	<0x2>
	Attribute:	EIATTR_CUDA_API_VERSION
	Format:	EIFMT_SVAL
	Value:	0x7d 
	<0x3>
	Attribute:	EIATTR_MAXREG_COUNT
	Format:	EIFMT_HVAL
	Value:	0xff
	<0x4>
	Attribute:	EIATTR_EXIT_INSTR_OFFSETS
	Format:	EIFMT_SVAL
	Value:	0x10 


.nv.callgraph
 <0,-1>
 <0,-2>
 <0,-3>
 <0,-4>


.nv.rel.action
Header : Base Relocation : R_CUDA_CONST_FIELD22_37
Reloc type : Symbol Kind,Addend Shift,Source Position1,length1,Destination Position1,Source Position2,length2,Destination Position2
R_CUDA_CONST_FIELD22_37 : EIVALUE_SYM_KIND_ADDR,0,0,17,37,0,5,54


.text._ZN3cub17CUB_200400_750_NS29DeviceRadixSortOnesweepKernelINS0_21DeviceRadixSortPolicyIiljE9Policy900ELb0EiljiiNS0_6detail21identity_decomposer_tEEEvPT5_S8_PT3_PKS9_PT1_PKSD_PT2_PKSH_T4_iiT6_
bar = 1	reg = 82	lmem=0	smem=34880
0xff017624 0x00000a00 0x078e00ff 0x000fe400
0x00007919 0x00000000 0x00002100 0x000e2200
0x00ff7355 0x00000000 0x00100000 0x000fe200
0x00007945 0x00000070 0x03800000 0x000fe200
0x0000720c 0x000000ff 0x03f05270 0x001fd800
0x00000947 0x00000040 0x03800000 0x000fea00
0xff027424 0x00000001 0x078e00ff 0x000fe200
0x00047ab9 0x00005a00 0x00000a00 0x000fce00
0xff0279a8 0x00000002 0x081f4144 0x000ea800
0xff007388 0x00844002 0x00000800 0x0041e400
0x00007941 0x00000000 0x03800000 0x000fea00
0x00007b1d 0x00000000 0x00000000 0x000fea00
0xff037984 0x00844000 0x00001800 0x000e6200
0x00027812 0xffffffe0 0x078ec0ff 0x041fe200
0x00ff7355 0x00000000 0x00100000 0x000fe200
0x00057812 0x0000001f 0x078ec0ff 0x000fe200
0x00007945 0x00000450 0x03800000 0x000fe200
0xff137819 0x00000005 0x00011600 0x000fc600
0x02027824 0x0000000b 0x078e0205 0x000fca00
0xff2a7819 0x0000001f 0x00011402 0x000fe200
0x03077824 0x00000b00 0x078e02ff 0x002fca00
0x072e7810 0x00000b00 0x07ffe0ff 0x040fe400
0x07047210 0x00000002 0x07f1e0ff 0x000fe400
0x2e007a0c 0x00006800 0x03f44270 0x000fc600
0xff057224 0x000000ff 0x000e062a 0x000fe200
0x04087a11 0x00006200 0x078010ff 0x000fc800
0x04097a11 0x00006300 0x000f1405 0x000fc800
0x0000a947 0x000002e0 0x03800000 0x000fea00
0x070b7a10 0x00006800 0x07ffe1ff 0x000fe200
0xff197424 0x7fffffff 0x078e00ff 0x000fe200
0x02067810 0x00000020 0x07ffe0ff 0x040fe200
0xff177424 0x7fffffff 0x078e00ff 0x000fe200
0x020a7810 0x00000040 0x07ffe0ff 0x000fe200
0xff1d7424 0x7fffffff 0x078e00ff 0x000fe200
0x0600720c 0x0000000b 0x03fc6270 0x080fe200
0xff1b7424 0x7fffffff 0x078e00ff 0x000fe200
0x020c7810 0x00000060 0x07ffe0ff 0x000fe400
0x0a00720c 0x0000000b 0x03f06270 0x000fc400
0x020a7810 0x000000a0 0x07ffe0ff 0x040fe400
0x0200720c 0x0000000b 0x03fa6270 0x080fe400
0x0c00720c 0x0000000b 0x03f26270 0x080fe400
0x0a00720c 0x0000000b 0x03f86270 0x080fe200
0x0819e381 0x00008000 0x001ee900 0x00016200
0x02067810 0x00000080 0x07ffe0ff 0x040fe400
0x020a7810 0x000000e0 0x07ffe0ff 0x000fe200
0xff1f7424 0x7fffffff 0x078e00ff 0x000fe200
0x0600720c 0x0000000b 0x03f66270 0x080fe200
0xff237424 0x7fffffff 0x078e00ff 0x000fe200
0x0a00720c 0x0000000b 0x03fc6270 0x000fe200
0x0817d381 0x00000000 0x001ee900 0x00016200
0x02067810 0x000000c0 0x07ffe0ff 0x000fc400
0x020a7810 0x00000120 0x07ffe0ff 0x000fe200
0x081d9381 0x00018000 0x001ee900 0x00016200
0x0600720c 0x0000000b 0x03fa6270 0x080fe400
0x0a00720c 0x0000000b 0x03f26270 0x000fe200
0xff257424 0x7fffffff 0x078e00ff 0x000fe200
0x081fb381 0x00020000 0x001ee900 0x00016200
0xff277424 0x7fffffff 0x078e00ff 0x000fe400
0xff2b7424 0x7fffffff 0x078e00ff 0x000fe200
0x0823c381 0x00028000 0x001ee900 0x00016800
0x0825d381 0x00030000 0x001ee900 0x00016800
0x0827e381 0x00038000 0x001ee900 0x00016800
0x082b9381 0x00048000 0x001ee900 0x00016200
0x02067810 0x00000100 0x07ffe0ff 0x000fc600
0x081b8381 0x00010000 0x001ee900 0x00016200
0x0600720c 0x0000000b 0x03f06270 0x000fe200
0xff297424 0x7fffffff 0x078e00ff 0x000fe200
0x02067810 0x00000140 0x07ffe0ff 0x000fd400
0x08298381 0x00040000 0x001ee900 0x00016200
0x0600720c 0x0000000b 0x03f06270 0x000fe200
0xff2d7424 0x7fffffff 0x078e00ff 0x000fd600
0x00000947 0x000000d0 0x03800000 0x000fea00
0x082d7381 0x00050000 0x001ee900 0x00116200
0x00007947 0x000000b0 0x03800000 0x000fea00
0x08177381 0x00000000 0x001ee900 0x00016800
0x08197381 0x00008000 0x001ee900 0x00016800
0x081b7381 0x00010000 0x001ee900 0x00016800
0x081d7381 0x00018000 0x001ee900 0x00016800
0x081f7381 0x00020000 0x001ee900 0x00016800
0x08237381 0x00028000 0x001ee900 0x00016800
0x08257381 0x00030000 0x001ee900 0x00016800
0x08277381 0x00038000 0x001ee900 0x00016800
0x08297381 0x00040000 0x001ee900 0x00016800
0x082b7381 0x00048000 0x001ee900 0x00016800
0x082d7381 0x00050000 0x001ee900 0x00016400
0x00007941 0x00000000 0x03800000 0x001fea00
0x00127919 0x00000000 0x00000000 0x000e2200
0x00ff7355 0x00000000 0x00100000 0x000fe200
0x00007945 0x00000130 0x03800000 0x000fe200
0x13217824 0x00001000 0x078e00ff 0x000fe200
0x12097817 0x000000e0 0x07800200 0x001fe200
0xff0a7224 0x000000ff 0x078e0012 0x000fc600
0x12097810 0x0000001f 0x07ffe109 0x000fc800
0x09067811 0x00000001 0x078fd8ff 0x040fe400
0x0900780c 0x00000060 0x03f26070 0x000fe400
0x06087812 0x00000003 0x0780c0ff 0x000fe400
0x17067810 0x80000000 0x07ffe0ff 0x020fd400
0x00008947 0x00000090 0x03800000 0x000fea00
0x13097824 0x00000100 0x078e0212 0x100fe400
0xff0a7224 0x000000ff 0x078e0012 0x000fe400
0x09097824 0x00000010 0x078e00ff 0x000fce00
0x08087810 0xffffffff 0x07ffe0ff 0x000fe200
0x09007388 0x000000ff 0x00000c00 0x0001e200
0x0a0a7810 0x00000020 0x07ffe0ff 0x000fe400
0x0800720c 0x000000ff 0x03f05270 0x000fe400
0x09097810 0x00000200 0x07ffe0ff 0x001fd400
0x00000947 0xffffffa0 0x0383ffff 0x000fea00
0x00007941 0x00000000 0x03800000 0x000fea00
0x00ff7355 0x00000000 0x00100000 0x000fe200
0x00007945 0x000000d0 0x03800000 0x000fe200
0x00009947 0x000000b0 0x03800000 0x000fea00
0x13087824 0x00000100 0x078e020a 0x000fe200
0x0a097810 0xffffff80 0x07ffe0ff 0x000fc800
0x08087811 0x00000400 0x078e20ff 0x000fce00
0x09097810 0x00000080 0x07ffe0ff 0x000fe200
0x08007388 0xfffc00ff 0x00000c00 0x000fe600
0x0900780c 0x00000080 0x03f06270 0x000fe200
0x08007388 0xfffe00ff 0x00000c00 0x000fe800
0x08007388 0x000000ff 0x00000c00 0x000fe800
0x08007388 0x000200ff 0x00000c00 0x0001e400
0x08087810 0x00000800 0x07ffe0ff 0x001fe200
0x00008947 0xffffff80 0x0383ffff 0x000fec00
0x00007941 0x00000000 0x03800000 0x000fea00
0x00047882 0xffffffff 0x00000000 0x000fe200
0x19087810 0x80000000 0x07ffe0ff 0x000fe200
0x00057ab9 0x00006a00 0x00000800 0x000fe200
0x1b097810 0x80000000 0x07ffe0ff 0x000fe200
0x04047299 0x00000005 0x0800063f 0x000fe200
0x1d0a7810 0x80000000 0x07ffe0ff 0x000fe200
0xff2f7424 0x00000001 0x078e00ff 0x000fe200
0x1f0b7810 0x80000000 0x07ffe0ff 0x000fe200
0x00007918 0x00000000 0x00000000 0x000fca00
0xff157211 0x00000012 0x078f10ff 0x000fe200
0x13137824 0x00000100 0x078e0212 0x000fe200
0xff147a19 0x00006900 0x00011606 0x000fe400
0x230c7810 0x80000000 0x07ffe0ff 0x000fe400
0xff167a19 0x00006900 0x00011608 0x000fe400
0x250d7810 0x80000000 0x07ffe0ff 0x000fe400
0xff187a19 0x00006900 0x00011609 0x000fc400
0x270e7810 0x80000000 0x07ffe0ff 0x000fe400
0xff1a7a19 0x00006900 0x0001160a 0x000fe400
0x290f7810 0x80000000 0x07ffe0ff 0x000fe400
0xff1c7a19 0x00006900 0x0001160b 0x000fe400
0x15157812 0x3ffffffc 0x078ec0ff 0x000fe400
0x142c7c12 0x00000004 0x0f8e30ff 0x000fc400
0x2b107810 0x80000000 0x07ffe0ff 0x000fe200
0x12157824 0x00000001 0x078e0a15 0x000fe200
0xff1e7a19 0x00006900 0x0001160c 0x000fe200
0x2c147824 0x00000010 0x078e0221 0x000fe200
0x16167c12 0x00000004 0x0f8e30ff 0x000fe400
0x2d117810 0x80000000 0x07ffe0ff 0x000fe200
0x15147824 0x00000004 0x078e0214 0x000fe200
0xff207a19 0x00006900 0x0001160d 0x000fe200
0x16167824 0x00000010 0x078e0221 0x000fe200
0x18187c12 0x00000004 0x0f8e30ff 0x000fc400
0xff227a19 0x00006900 0x0001160e 0x000fe200
0x15167824 0x00000004 0x078e0216 0x040fe200
0x1a1a7c12 0x00000004 0x0f8e30ff 0x000fe200
0x18187824 0x00000010 0x078e0221 0x000fe200
0xff247a19 0x00006900 0x0001160f 0x000fe200
0x14ff738c 0x0000002f 0x000000ff 0x000fe200
0x1c1c7c12 0x00000004 0x0f8e30ff 0x000fe200
0x1a1a7824 0x00000010 0x078e0221 0x100fe200
0xff267a19 0x00006900 0x00011610 0x000fe200
0x15187824 0x00000004 0x078e0218 0x040fe200
0x1e1e7c12 0x00000004 0x0f8e30ff 0x000fe200
0x1c1c7824 0x00000010 0x078e0221 0x000fe200
0xff287a19 0x00006900 0x00011611 0x000fe200
0x151a7824 0x00000004 0x078e021a 0x040fe200
0x20207c12 0x00000004 0x0f8e30ff 0x000fe200
0x1e1e7824 0x00000010 0x078e0221 0x100fe200
0x22227c12 0x00000004 0x0f8e30ff 0x000fe200
0x151c7824 0x00000004 0x078e021c 0x000fe200
0x24247c12 0x00000004 0x0f8e30ff 0x000fe200
0x20207824 0x00000010 0x078e0221 0x100fe200
0x26267c12 0x00000004 0x0f8e30ff 0x000fe200
0x22227824 0x00000010 0x078e0221 0x100fe200
0x28287c12 0x00000004 0x0f8e30ff 0x000fe200
0x24247824 0x00000010 0x078e0221 0x100fe200
0x16ff738c 0x0000002f 0x000000ff 0x000fe200
0x26267824 0x00000010 0x078e0221 0x000fc400
0x151e7824 0x00000004 0x078e021e 0x040fe200
0x18ff738c 0x0000002f 0x000000ff 0x000fe200
0x28287824 0x00000010 0x078e0221 0x000fe400
0x15207824 0x00000004 0x078e0220 0x040fe200
0x1aff738c 0x0000002f 0x000000ff 0x000fe200
0x15227824 0x00000004 0x078e0222 0x040fe400
0x15247824 0x00000004 0x078e0224 0x040fe200
0x1cff738c 0x0000002f 0x000000ff 0x000fe200
0x15267824 0x00000004 0x078e0226 0x000fc400
0x15287824 0x00000004 0x078e0228 0x000fe200
0x1eff738c 0x0000002f 0x000000ff 0x000fe200
0x12217824 0x00000010 0x078e0221 0x000fc600
0x20ff738c 0x0000002f 0x000000ff 0x000fe800
0x22ff738c 0x0000002f 0x000000ff 0x000fe800
0x24ff738c 0x0000002f 0x000000ff 0x000fe800
0x26ff738c 0x0000002f 0x000000ff 0x000fe800
0x28ff738c 0x0000002f 0x000000ff 0x000fe200
0x00007918 0x00000000 0x00000000 0x000fca00
0x21307984 0x00000000 0x00001c00 0x000e3000
0x21347984 0x00020000 0x00001c00 0x000e7000
0x21387984 0x00040000 0x00001c00 0x000eb000
0x213c7984 0x00060000 0x00001c00 0x000ef000
0x21407984 0x00080000 0x00001c00 0x000f3000
0x21447984 0x000a0000 0x00001c00 0x000f6200
0x32307210 0x00000031 0x07ffe030 0x001fca00
0x33307824 0x00000001 0x078e0230 0x000fe400
0x21487984 0x000c0000 0x00001c00 0x000e2200
0x36347210 0x00000035 0x07ffe034 0x002fca00
0x37347824 0x00000001 0x078e0234 0x000fe400
0x214c7984 0x000e0000 0x00001c00 0x000e6200
0x3a387210 0x00000039 0x07ffe038 0x004fca00
0x3b387824 0x00000001 0x078e0238 0x000fe200
0x3e3c7210 0x0000003d 0x07ffe03c 0x008fe200
0x00007b1d 0x00000000 0x00000000 0x000fea00
0x3f3c7824 0x00000001 0x078e023c 0x000fe200
0x13007388 0x00000030 0x00004800 0x000fe200
0x42407210 0x00000041 0x07ffe040 0x010fe200
0xff3d7424 0x00000004 0x078e00ff 0x000fc400
0x13007388 0x00008034 0x00004800 0x000fe400
0x43407824 0x00000001 0x078e0240 0x000fe400
0x13007388 0x00010038 0x00004800 0x000fe200
0x46447210 0x00000045 0x07ffe044 0x020fc600
0x13007388 0x0001803c 0x00004800 0x000fe400
0x47447824 0x00000001 0x078e0244 0x000fe400
0x13007388 0x00020040 0x00004800 0x000fe200
0x4a487210 0x00000049 0x07ffe048 0x001fca00
0x4b487824 0x00000001 0x078e0248 0x000fe200
0x13007388 0x00028044 0x00004800 0x000fe200
0x4e4c7210 0x0000004d 0x07ffe04c 0x002fca00
0x4f4c7824 0x00000001 0x078e024c 0x000fe200
0x13007388 0x00030048 0x00004800 0x000fee00
0x13007388 0x0003804c 0x00004800 0x000fe800
0x00007b1d 0x00000000 0x00000000 0x000fea00
0x00217984 0x00000000 0x00005800 0x000e2800
0x00147984 0x00040000 0x00005800 0x000e6800
0x00167984 0x00080000 0x00005800 0x000ea800
0x00187984 0x000c0000 0x00005800 0x000ee800
0x001a7984 0x00100000 0x00005800 0x000f2800
0x001c7984 0x00140000 0x00005800 0x000f6800
0x001e7984 0x00180000 0x00005800 0x000f6800
0x00207984 0x001c0000 0x00005800 0x000f6800
0x00007388 0x000000ff 0x00004800 0x000fe800
0x00007388 0x00040021 0x00004800 0x001fe200
0x212f7824 0x00000001 0x078e0214 0x002fc400
0x03147824 0x00000100 0x078e0200 0x000fe400
0x2f317824 0x00000001 0x078e0216 0x004fe400
0x14147625 0x00005800 0x078e023d 0x000fe400
0x00007388 0x0008002f 0x00004800 0x000fe400
0x31337824 0x00000001 0x078e0218 0x008fe400
0x00007388 0x000c0031 0x00004800 0x000fe400
0x33357824 0x00000001 0x078e021a 0x010fc800
0x35377824 0x00000001 0x078e021c 0x020fe200
0x00007388 0x00100033 0x00004800 0x000fe600
0x37397824 0x00000001 0x078e021e 0x000fe200
0x00007388 0x00140035 0x00004800 0x000fe600
0x39137824 0x00000001 0x078e0220 0x000fe200
0x00007388 0x00180037 0x00004800 0x000fe800
0x1300780c 0x00000b00 0x03f05270 0x040fe200
0x00007388 0x001c0039 0x00004800 0x000fe200
0x133b7812 0x40000000 0x078efcff 0x000fd000
0x14007386 0x0000003b 0x00116900 0x000fe800
0x00007b1d 0x00000000 0x04004800 0x000fea00
0x00ff731c 0x00000000 0x00004000 0x000e2400
0x00008947 0x00000df0 0x03800000 0x001fea00
0x00087625 0x00005e00 0x078e023d 0x000fd000
0x08087381 0x00000000 0x001ee900 0x000ea200
0x0000720c 0x0000002c 0x03f04070 0x000fe200
0xff067224 0x000000ff 0x078e0013 0x000fe200
0xff0f7819 0x0000001f 0x00011400 0x000fe400
0xff0c7807 0x00000b00 0x04000000 0x000fe400
0x0300780c 0x00000001 0x03f06270 0x000fc600
0x080b7824 0x00000001 0x078e0a0c 0x004fd000
0x00007388 0x0084400b 0x00004800 0x0001e200
0x00008947 0x00000280 0x03800000 0x000fea00
0x00ff7355 0x00000000 0x00100000 0x000fe200
0x00007945 0x00000260 0x03800000 0x000fe200
0xff0a7424 0xffffffff 0x078e00ff 0x000fe400
0xff0b7224 0x000000ff 0x078e0003 0x001fe400
0xff067224 0x000000ff 0x078e0013 0x000fe400
0x0b087824 0x00000100 0x078e0200 0x000fe200
0x01ff7355 0x00000000 0x00100000 0x000fe200
0xff097424 0x00000004 0x078e00ff 0x000fe200
0x00017945 0x000000d0 0x03800000 0x000fe400
0x08087810 0xffffff00 0x07ffe0ff 0x000fca00
0x08087625 0x00005800 0x078e0209 0x000fc800
0x00007992 0x00000000 0x00000000 0x000fea00
0x080d7381 0x00000000 0x001f6900 0x000ea400
0x0d00720c 0x000000ff 0x03f05270 0x004fd800
0x00000947 0x00000060 0x03800000 0x000fea00
0x000d7806 0x00000000 0x038e0100 0x000fe200
0x00007946 0x00000000 0x03800000 0x000fe200
0x00047886 0x00000000 0x038e0100 0x000fe400
0x0dff7c12 0x00000004 0x0f800cff 0x000fd800
0x00008947 0xffffff71 0x0383ffff 0x000fea00
0x00007947 0xffffffa0 0x0383ffff 0x000fea00
0x00017941 0x00000000 0x03800000 0x000fea00
0x0d097812 0x3fffffff 0x078ec0ff 0x040fe400
0x0d00780c 0xffffffff 0x03f04270 0x000fc600
0x09067824 0x00000001 0x078e0206 0x000fe200
0x00007947 0x00005ac2 0x03800000 0x000ff000
0x00097806 0x00000000 0x000e0100 0x000fc800
0x090a7212 0x0000000a 0x078ec0ff 0x000fe400
0x0d00720c 0x000000ff 0x03f06270 0x000fd800
0x00008947 0x00000090 0x03800000 0x000fea00
0x0b00780c 0x00000001 0x03f04270 0x000fd800
0x00008947 0x00000070 0x03800000 0x000fea00
0x0b0b7810 0xffffffff 0x07ffe0ff 0x000fe400
0x00087806 0x00000000 0x038e0100 0x000fe200
0x00007946 0x00000000 0x03800000 0x000fe200
0x00047886 0x00000000 0x038e0100 0x000fe400
0x08ff7c12 0x00000004 0x0f800cff 0x000fd800
0x00008947 0xfffffdf1 0x0383ffff 0x000fea00
0x00007947 0xffffffa0 0x0383ffff 0x000fea00
0x00007941 0x00000000 0x03800000 0x000fea00
0x00087984 0x00844000 0x00005800 0x000e6200
0x2e007a0c 0x00006800 0x03f06270 0x000fe200
0x00007948 0xffffffff 0x03800000 0x000fe800
0xff007a0c 0x00005c00 0x03f22070 0x000fe200
0x00ff7355 0x00000000 0x00100000 0x000fe200
0x060d7812 0x80000000 0x078efcff 0x000fe200
0x00007945 0x000003f0 0x03800000 0x000fe200
0xff007a0c 0x00005d00 0x04702710 0x000fcc00
0x14007386 0x0000000d 0x00116900 0x000fe200
0x08117210 0x00000006 0x07ffe813 0x002fca00
0x00088a11 0x00005c00 0x078210ff 0x040fe400
0x11138210 0x0000000c 0x07ffe013 0x000fe400
0x00098a11 0x00005d00 0x008f140f 0x000fe200
0x00007388 0x00844011 0x00004800 0x000fee00
0x08008386 0x00000013 0x0010e900 0x000fe800
0x00007b1d 0x00000000 0x00000000 0x000fea00
0x2c0b7984 0x00844000 0x00005800 0x001e2400
0x021c7210 0x0000000b 0x07f1e0ff 0x001fca00
0xff217224 0x000000ff 0x000e062a 0x000fe200
0x1c0a7a11 0x00006000 0x078010ff 0x000fc800
0x1c0b7a11 0x00006100 0x000f1421 0x000fe200
0x0000a947 0x00000240 0x03800000 0x000fee00
0xff007424 0xfffff500 0x078e00ff 0x000fe200
0x02067810 0x00000040 0x07ffe0ff 0x040fe400
0x02087810 0x00000080 0x07ffe0ff 0x040fe200
0x03097624 0x00006800 0x078e0200 0x000fe200
0x02007810 0x00000020 0x07ffe0ff 0x000fc800
0x0000720c 0x00000009 0x03fc6270 0x080fe400
0x02007810 0x00000060 0x07ffe0ff 0x000fe400
0x0600720c 0x00000009 0x03f06270 0x080fe400
0x02067810 0x000000a0 0x07ffe0ff 0x040fe400
0x0200720c 0x00000009 0x03fa6270 0x080fe400
0x0000720c 0x00000009 0x03f26270 0x000fc400
0x0600720c 0x00000009 0x03f86270 0x080fe200
0x0a00e386 0x00008019 0x0010e900 0x0001e200
0x02067810 0x000000e0 0x07ffe0ff 0x040fe400
0x02007810 0x000000c0 0x07ffe0ff 0x000fe200
0x0a008386 0x0001001b 0x0010e900 0x0001e200
0x0600720c 0x00000009 0x03fc6270 0x080fe400
0x02067810 0x00000120 0x07ffe0ff 0x000fe200
0x0a00d386 0x00000017 0x0010e900 0x0001e200
0x0800720c 0x00000009 0x03f66270 0x000fc400
0x0000720c 0x00000009 0x03fa6270 0x080fe200
0x0a009386 0x0001801d 0x0010e900 0x0001e200
0x0600720c 0x00000009 0x03f26270 0x080fe400
0x02007810 0x00000100 0x07ffe0ff 0x000fe200
0x0a00c386 0x00028023 0x0010e900 0x0001e600
0x0000720c 0x00000009 0x03f06270 0x000fe200
0x0a00e386 0x00038027 0x0010e900 0x0001e200
0x02007810 0x00000140 0x07ffe0ff 0x000fc600
0x0a00b386 0x0002001f 0x0010e900 0x0001e800
0x0a00d386 0x00030025 0x0010e900 0x0001e800
0x0a009386 0x0004802b 0x0010e900 0x0001e800
0x0a008386 0x00040029 0x0010e900 0x0001e200
0x0000720c 0x00000009 0x03f06270 0x000fd800
0x00000947 0x000000d0 0x03800000 0x000fea00
0x0a007386 0x0005002d 0x0010e900 0x0011e200
0x00007947 0x000000b0 0x03800000 0x000fea00
0x0a007386 0x00000017 0x0010e900 0x0001e800
0x0a007386 0x00008019 0x0010e900 0x0001e800
0x0a007386 0x0001001b 0x0010e900 0x0001e800
0x0a007386 0x0001801d 0x0010e900 0x0001e800
0x0a007386 0x0002001f 0x0010e900 0x0001e800
0x0a007386 0x00028023 0x0010e900 0x0001e800
0x0a007386 0x00030025 0x0010e900 0x0001e800
0x0a007386 0x00038027 0x0010e900 0x0001e800
0x0a007386 0x00040029 0x0010e900 0x0001e800
0x0a007386 0x0004802b 0x0010e900 0x0001e800
0x0a007386 0x0005002d 0x0010e900 0x0001e400
0x00007941 0x00000000 0x03800000 0x001fea00
0x04087a11 0x00006600 0x078018ff 0x040fe200
0x00ff7355 0x00000000 0x00100000 0x000fe200
0x00007945 0x00000310 0x03800000 0x000fe400
0x04097a11 0x00006700 0x000f1c05 0x000fe200
0x0000a947 0x00000230 0x03800000 0x000fee00
0x071b7a10 0x00006800 0x07ffe1ff 0x000fe400
0x02007810 0x00000020 0x07ffe0ff 0x000fc400
0x021a7810 0x00000040 0x07ffe0ff 0x000fe400
0x0000720c 0x0000001b 0x03fc6270 0x080fe400
0x02007810 0x00000060 0x07ffe0ff 0x000fe400
0x1a00720c 0x0000001b 0x03f06270 0x080fe400
0x021a7810 0x000000a0 0x07ffe0ff 0x040fe400
0x0200720c 0x0000001b 0x03fa6270 0x000fc400
0x0000720c 0x0000001b 0x03f26270 0x080fe400
0x1a00720c 0x0000001b 0x03f86270 0x080fe200
0x0806e381 0x00010000 0x001eeb00 0x00016200
0x021a7810 0x000000e0 0x07ffe0ff 0x040fe400
0x021e7810 0x00000080 0x07ffe0ff 0x000fe200
0x080a8381 0x00020000 0x001eeb00 0x00016200
0x1a00720c 0x0000001b 0x03fc6270 0x000fe400
0x02007810 0x000000c0 0x07ffe0ff 0x040fe200
0x0804d381 0x00000000 0x001eeb00 0x00016200
0x021a7810 0x00000120 0x07ffe0ff 0x000fc400
0x1e00720c 0x0000001b 0x03f66270 0x080fe200
0x080c9381 0x00030000 0x001eeb00 0x00016200
0x0000720c 0x0000001b 0x03fa6270 0x080fe400
0x1a00720c 0x0000001b 0x03f26270 0x000fe200
0x0810c381 0x00050000 0x001eeb00 0x00016800
0x0814e381 0x00070000 0x001eeb00 0x00016800
0x080eb381 0x00040000 0x001eeb00 0x00016800
0x0812d381 0x00060000 0x001eeb00 0x00016800
0x08189381 0x00090000 0x001eeb00 0x00016200
0x02007810 0x00000100 0x07ffe0ff 0x000fc800
0x0000720c 0x0000001b 0x03f06270 0x000fe400
0x02007810 0x00000140 0x07ffe0ff 0x000fd400
0x08168381 0x00080000 0x001eeb00 0x00016200
0x0000720c 0x0000001b 0x03f06270 0x000fd800
0x00000947 0x000000d0 0x03800000 0x000fea00
0x081a7381 0x000a0000 0x001eeb00 0x00116200
0x00007947 0x000000b0 0x03800000 0x000fea00
0x08047381 0x00000000 0x001eeb00 0x00016800
0x08067381 0x00010000 0x001eeb00 0x00016800
0x080a7381 0x00020000 0x001eeb00 0x00016800
0x080c7381 0x00030000 0x001eeb00 0x00016800
0x080e7381 0x00040000 0x001eeb00 0x00016800
0x08107381 0x00050000 0x001eeb00 0x00016800
0x08127381 0x00060000 0x001eeb00 0x00016800
0x08147381 0x00070000 0x001eeb00 0x00016800
0x08167381 0x00080000 0x001eeb00 0x00016800
0x08187381 0x00090000 0x001eeb00 0x00016800
0x081a7381 0x000a0000 0x001eeb00 0x00016400
0x00007941 0x00000000 0x03800000 0x001fea00
0x1c087a11 0x00006400 0x078018ff 0x000fc800
0x1c097a11 0x00006500 0x000f1c21 0x000fe200
0x0000a947 0x00000240 0x03800000 0x000fee00
0xff007424 0xfffff500 0x078e00ff 0x000fe200
0x021c7810 0x00000040 0x07ffe0ff 0x040fe400
0x021e7810 0x000000a0 0x07ffe0ff 0x040fe200
0x03037624 0x00006800 0x078e0200 0x000fe200
0x02007810 0x00000020 0x07ffe0ff 0x000fc800
0x0200720c 0x00000003 0x03f26270 0x080fe400
0x0000720c 0x00000003 0x03fc6270 0x080fe400
0x02007810 0x00000060 0x07ffe0ff 0x000fe400
0x1c00720c 0x00000003 0x03fa6270 0x080fe400
0x021c7810 0x00000080 0x07ffe0ff 0x000fe400
0x0000720c 0x00000003 0x03f06270 0x000fc400
0x1c00720c 0x00000003 0x03f86270 0x080fe200
0x08009386 0x00000004 0x0010eb00 0x0201e200
0x02007810 0x000000c0 0x07ffe0ff 0x040fe400
0x021c7810 0x000000e0 0x07ffe0ff 0x000fe200
0x0800e386 0x00010006 0x0010eb00 0x0001e200
0x0000720c 0x00000003 0x03f46270 0x080fe400
0x1c00720c 0x00000003 0x03f26270 0x000fe200
0x0800d386 0x0002000a 0x0010eb00 0x0001e200
0x02007810 0x00000100 0x07ffe0ff 0x000fc400
0x021c7810 0x00000120 0x07ffe0ff 0x040fe200
0x08008386 0x0003000c 0x0010eb00 0x0001e200
0x02027810 0x00000140 0x07ffe0ff 0x000fe400
0x1e00720c 0x00000003 0x03f66270 0x080fe200
0x0800c386 0x0004000e 0x0010eb00 0x0001e200
0x0000720c 0x00000003 0x03fc6270 0x080fe400
0x1c00720c 0x00000003 0x03fa6270 0x080fe200
0x0800a386 0x00060012 0x0010eb00 0x0001e200
0x0200720c 0x00000003 0x03f06270 0x000fc600
0x08009386 0x00070014 0x0010eb00 0x0001e800
0x0800b386 0x00050010 0x0010eb00 0x0001e800
0x0800e386 0x00080016 0x0010eb00 0x0001e800
0x0800d386 0x00090018 0x0010eb00 0x0001e200
0x0000094d 0x00000000 0x03800000 0x000fea00
0x08007386 0x000a001a 0x0010eb00 0x000fe200
0x0000794d 0x00000000 0x03800000 0x000fea00
0x08007386 0x00000004 0x0010eb00 0x020fe800
0x08007386 0x00010006 0x0010eb00 0x000fe800
0x08007386 0x0002000a 0x0010eb00 0x000fe800
0x08007386 0x0003000c 0x0010eb00 0x000fe800
0x08007386 0x0004000e 0x0010eb00 0x000fe800
0x08007386 0x00050010 0x0010eb00 0x000fe800
0x08007386 0x00060012 0x0010eb00 0x000fe800
0x08007386 0x00070014 0x0010eb00 0x000fe800
0x08007386 0x00080016 0x0010eb00 0x000fe800
0x08007386 0x00090018 0x0010eb00 0x000fe800
0x08007386 0x000a001a 0x0010eb00 0x000fe200
0x0000794d 0x00000000 0x03800000 0x000fea00
0x00007947 0x00004f62 0x03800000 0x000fea00
0x13147989 0x04200000 0x000000ff 0x000e2400
0x13140824 0x00000001 0x078e0214 0x001fd000
0x14157989 0x04400000 0x000000ff 0x000e2400
0x14150824 0x00000001 0x078e0215 0x001fd000
0x15167989 0x04800000 0x000000ff 0x000e2400
0x15160824 0x00000001 0x078e0216 0x001fd000
0x16177989 0x05000000 0x000000ff 0x000e2400
0x16170824 0x00000001 0x078e0217 0x001fd000
0x17187989 0x06000000 0x000000ff 0x00006400
0x1200780c 0x0000001f 0x03f25270 0x000fe200
0xff1c7224 0x000000ff 0x078e0018 0x002fe200
0xff1e7819 0x00000005 0x00011600 0x000fe200
0x00007948 0xffffffff 0x03800000 0x000fe800
0x1c1c0824 0x00000001 0x078e0217 0x000fe200
0x1e00780c 0x00000002 0x03f05270 0x000fe400
0x1200720c 0x000000ff 0x03f45270 0x000fc400
0x1e1d9824 0x00000004 0x078e00ff 0x000fd000
0x1d009388 0x0084001c 0x00000800 0x000fe800
0x00007b1d 0x00000000 0x00000000 0x000fea00
0xff147984 0x00840000 0x00001c00 0x001e2200
0x1e00780c 0x00000007 0x03f25270 0x000fce00
0xff187984 0x00841000 0x00001c00 0x000e7000
0x001d7984 0x00000000 0x00005800 0x000ea800
0x001f7984 0x00040000 0x00005800 0x000ee800
0x00217984 0x00080000 0x00005800 0x000f2800
0x00237984 0x000c0000 0x00005800 0x000f6800
0x00257984 0x00100000 0x00005800 0x000ea800
0x00277984 0x00140000 0x00005800 0x000ea200
0x14157824 0x00000001 0x078e0215 0x001fc600
0x00297984 0x00180000 0x00005800 0x000e2200
0x15167824 0x00000001 0x078e0216 0x000fc600
0x002b7984 0x001c0000 0x00005800 0x000e2200
0x15147207 0x00000014 0x04000000 0x000fe200
0x1c157824 0x00000001 0x078e0a13 0x000fe200
0x1e00780c 0x00000003 0x03f05270 0x000fe200
0x17177824 0x00000001 0x078e0216 0x000fc600
0x16147207 0x00000014 0x04000000 0x000fe200
0x17187824 0x00000001 0x078e0218 0x002fe200
0x1e00780c 0x00000004 0x03f05270 0x000fe400
0x15157207 0x000000ff 0x01000000 0x000fe200
0x18197824 0x00000001 0x078e0219 0x000fe200
0x17147207 0x00000014 0x04000000 0x000fe400
0x1e00780c 0x00000005 0x03f05270 0x000fe400
0xff167a19 0x00006900 0x00011606 0x000fc400
0x18147207 0x00000014 0x04000000 0x000fe200
0xff187224 0x000000ff 0x078e00ff 0x000fe200
0x1e00780c 0x00000006 0x03f05270 0x000fc800
0x19147207 0x00000014 0x04000000 0x000fe400
0x1e00720c 0x000000ff 0x03f05270 0x000fc600
0x19149824 0x00000001 0x078e021a 0x000fca00
0x14147207 0x000000ff 0x00000000 0x000fca00
0x14147824 0x00000001 0x078e0215 0x000fe400
0xff157424 0xffffffff 0x078e00ff 0x000fe400
0x141d7824 0x00000001 0x078e021d 0x044fe400
0x141f7824 0x00000001 0x078e021f 0x048fe200
0x15157a19 0x00006a00 0x000006ff 0x000fe200
0x14217824 0x00000001 0x078e0221 0x050fe400
0x14237824 0x00000001 0x078e0223 0x020fe200
0x161b7212 0x00000015 0x078e30ff 0x000fe200
0x14257824 0x00000001 0x078e0225 0x040fe200
0x00007388 0x0000001d 0x00004800 0x000fe200
0x14277824 0x00000001 0x078e0227 0x040fe200
0x1bff7812 0x00000001 0x0780c0ff 0x000fe200
0x14297824 0x00000001 0x078e0229 0x041fe200
0x00007388 0x0004001f 0x00004800 0x000fe200
0x142b7824 0x00000001 0x078e022b 0x000fc600
0x00007388 0x00080021 0x00004800 0x000fe800
0x00007388 0x000c0023 0x00004800 0x000fe800
0x00007388 0x00100025 0x00004800 0x000fe800
0x00007388 0x00140027 0x00004800 0x000fe800
0x00007388 0x00180029 0x00004800 0x000fe800
0x00007388 0x001c002b 0x00004800 0x000fe800
0x00007b1d 0x00000000 0x00000000 0x000fea00
0x00007947 0x00004d42 0x03800000 0x000fea00
0x1b007804 0x0000007e 0x00000000 0x000fe400
0x00157806 0x00000000 0x000e0100 0x000fc800
0xff158212 0x00000015 0x078e33ff 0x000fe400
0x1bff7812 0x00000080 0x0780c0ff 0x000fc800
0x00167806 0x00000000 0x008e0100 0x000fe400
0x001a7806 0x00000000 0x010e0100 0x000fe400
0xff169212 0x00000016 0x078e33ff 0x000fe400
0x001c7806 0x00000000 0x018e0100 0x000fe400
0xff1aa212 0x0000001a 0x078e33ff 0x000fe400
0x16157212 0x00000015 0x078ec0ff 0x000fc400
0x00167806 0x00000000 0x020e0100 0x000fe400
0xff1cb212 0x0000001c 0x078e33ff 0x000fe400
0x1a157212 0x00000015 0x078ec0ff 0x000fe400
0xff16c212 0x00000016 0x078e33ff 0x000fe400
0x1c157212 0x00000015 0x078ec0ff 0x000fe400
0x001a7806 0x00000000 0x028e0100 0x000fc400
0x16157212 0x00000015 0x078ec0ff 0x000fe400
0x00167806 0x00000000 0x030e0100 0x000fe400
0xff1ad212 0x0000001a 0x078e33ff 0x000fe400
0xff16e212 0x00000016 0x078e33ff 0x000fe400
0x1a157212 0x00000015 0x078ec0ff 0x000fe400
0x00177806 0x00000000 0x000e0100 0x000fc400
0x16157212 0x00000015 0x078ec0ff 0x000fe400
0x001a7919 0x00000000 0x00003a00 0x000e2200
0xff178212 0x00000017 0x078e33ff 0x000fe200
0x00ff7355 0x00000000 0x00100000 0x000fe200
0x00007945 0x000000b0 0x03800000 0x000fe200
0xff197224 0x000000ff 0x078e00ff 0x000fe200
0x17167212 0x00000015 0x078ec0ff 0x000fcc00
0x001c7300 0x00000016 0x000e0000 0x000e6200
0x1a157212 0x00000016 0x078ec0ff 0x001fe400
0x1200720c 0x0000001c 0x03f05270 0x002fca00
0x00157309 0x00000015 0x00000000 0x000e2e00
0x00000947 0x00000030 0x03800000 0x000fea00
0xff167819 0x00000005 0x00011600 0x000fca00
0x16167824 0x00000100 0x078e021b 0x000fd000
0x1619738c 0x00000015 0x000040ff 0x00106400
0x00007941 0x00000000 0x03800000 0x000fea00
0x00047882 0xffffffff 0x00000000 0x000fe200
0xff167a19 0x00006900 0x00011608 0x001fe200
0x00057ab9 0x00006a00 0x00000800 0x000fe200
0x00ff7355 0x00000000 0x00100000 0x000fe200
0x04047299 0x00000005 0x0800063f 0x000fe200
0x00007945 0x00000260 0x03800000 0x000fea00
0x161e7c12 0x00000004 0x0f8e30ff 0x000fc800
0x1e007804 0x0000007f 0x00000000 0x000fd800
0x00167806 0x00000000 0x000e0100 0x000fe400
0x00177806 0x00000000 0x008e0100 0x000fe400
0x001b7806 0x00000000 0x010e0100 0x000fe400
0xff168212 0x00000016 0x078e33ff 0x000fe400
0xff179212 0x00000017 0x078e33ff 0x000fe400
0xff1ba212 0x0000001b 0x078e33ff 0x000fc400
0x17167212 0x00000016 0x078ec0ff 0x000fe400
0x00177806 0x00000000 0x018e0100 0x000fe400
0x1b167212 0x00000016 0x078ec0ff 0x000fe400
0x001b7806 0x00000000 0x020e0100 0x000fe400
0xff17b212 0x00000017 0x078e33ff 0x000fe400
0x1eff7812 0x00000080 0x0780c0ff 0x000fc400
0xff1bc212 0x0000001b 0x078e33ff 0x000fe400
0x17167212 0x00000016 0x078ec0ff 0x000fe400
0x00177806 0x00000000 0x028e0100 0x000fe400
0x1b167212 0x00000016 0x078ec0ff 0x000fe400
0x001b7806 0x00000000 0x030e0100 0x000fe400
0xff17d212 0x00000017 0x078e33ff 0x000fc400
0x001d7806 0x00000000 0x000e0100 0x000fe400
0xff1be212 0x0000001b 0x078e33ff 0x000fe400
0x17167212 0x00000016 0x078ec0ff 0x000fe400
0xff1d8212 0x0000001d 0x078e33ff 0x000fe400
0x1b167212 0x00000016 0x078ec0ff 0x000fc800
0x1d1d7212 0x00000016 0x078ec0ff 0x000fe400
0xff167a19 0x00006900 0x00011609 0x000fe400
0x1a177212 0x0000001d 0x078ec0ff 0x000fe400
0x001f7300 0x0000001d 0x000e0000 0x000e2200
0x16207c12 0x00000004 0x0f8e30ff 0x000fc600
0x19167589 0x00001f1c 0x000e0000 0x0022a800
0x00177309 0x00000017 0x00000000 0x000ee200
0x1200720c 0x0000001f 0x03f05270 0x001fd800
0x00000947 0x00000030 0x03800000 0x000fea00
0xff197819 0x00000005 0x00011600 0x00efca00
0x19187824 0x00000100 0x078e021e 0x000fd000
0x1818738c 0x00000017 0x000040ff 0x00006400
0x00007941 0x00000000 0x03800000 0x00efea00
0x20007804 0x0000007f 0x00000000 0x000fe200
0x001b7919 0x00000000 0x00003a00 0x000e6200
0x00ff7355 0x00000000 0x00100000 0x000fe200
0x00007945 0x00000240 0x03800000 0x000fe400
0x18187589 0x00001f1f 0x000e0000 0x0004ee00
0x00197806 0x00000000 0x000e0100 0x000fc400
0x001a7806 0x00000000 0x008e0100 0x000fe400
0x001c7806 0x00000000 0x010e0100 0x000fe400
0xff198212 0x00000019 0x078e33ff 0x000fe400
0xff1a9212 0x0000001a 0x078e33ff 0x000fe400
0xff1ca212 0x0000001c 0x078e33ff 0x000fe400
0x1a197212 0x00000019 0x078ec0ff 0x000fc400
0x001a7806 0x00000000 0x018e0100 0x000fe400
0x1c197212 0x00000019 0x078ec0ff 0x000fe400
0x001c7806 0x00000000 0x020e0100 0x000fe400
0xff1ab212 0x0000001a 0x078e33ff 0x000fe400
0x20ff7812 0x00000080 0x0780c0ff 0x000fe400
0xff1cc212 0x0000001c 0x078e33ff 0x000fc400
0x1a197212 0x00000019 0x078ec0ff 0x000fe400
0x001a7806 0x00000000 0x028e0100 0x000fe400
0x1c197212 0x00000019 0x078ec0ff 0x000fe400
0x001c7806 0x00000000 0x030e0100 0x000fe400
0xff1ad212 0x0000001a 0x078e33ff 0x000fe400
0x001e7806 0x00000000 0x000e0100 0x000fc400
0xff1ce212 0x0000001c 0x078e33ff 0x000fe400
0x1a197212 0x00000019 0x078ec0ff 0x000fe400
0xff1e8212 0x0000001e 0x078e33ff 0x000fe400
0x1c197212 0x00000019 0x078ec0ff 0x000fe200
0xff1c7224 0x000000ff 0x078e00ff 0x000fc600
0x1e1a7212 0x00000019 0x078ec0ff 0x000fe200
0xff197224 0x000000ff 0x078e00ff 0x000fc600
0x1b1b7212 0x0000001a 0x078ec0ff 0x002fe400
0x00217300 0x0000001a 0x000e0000 0x000e7000
0x00277309 0x0000001b 0x00000000 0x00052200
0x1200720c 0x00000021 0x03f05270 0x002fd800
0x00000947 0x00000030 0x03800000 0x000fea00
0xff1b7819 0x00000005 0x00011600 0x01cfca00
0x1b1c7824 0x00000100 0x078e0220 0x000fd000
0x1c1c738c 0x00000027 0x000040ff 0x0002a400
0x00007941 0x00000000 0x03800000 0x01cfea00
0x00047882 0xffffffff 0x00000000 0x000fe200
0xff1a7a19 0x00006900 0x0001160a 0x000fe200
0x00057ab9 0x00006a00 0x00000800 0x000fe200
0x00ff7355 0x00000000 0x00100000 0x000fe200
0x04047299 0x00000005 0x0800063f 0x000fe200
0x1c1c7589 0x00001f21 0x000e0000 0x0004e200
0x00007945 0x00000240 0x03800000 0x000fe800
0x1a1e7c12 0x00000004 0x0f8e30ff 0x000fc800
0x1e007804 0x0000007f 0x00000000 0x000fd800
0x001a7806 0x00000000 0x000e0100 0x000fe400
0x001b7806 0x00000000 0x008e0100 0x000fe400
0xff1a8212 0x0000001a 0x078e33ff 0x000fe400
0xff1b9212 0x0000001b 0x078e33ff 0x000fe400
0x001d7806 0x00000000 0x010e0100 0x000fe400
0x1b1a7212 0x0000001a 0x078ec0ff 0x000fc400
0xff1da212 0x0000001d 0x078e33ff 0x000fe400
0x001b7806 0x00000000 0x018e0100 0x000fe400
0x1d1a7212 0x0000001a 0x078ec0ff 0x000fe400
0xff1bb212 0x0000001b 0x078e33ff 0x000fe400
0x001d7806 0x00000000 0x020e0100 0x000fe400
0x1eff7812 0x00000080 0x0780c0ff 0x000fc400
0x1b1a7212 0x0000001a 0x078ec0ff 0x000fe400
0x001b7806 0x00000000 0x028e0100 0x000fe400
0xff1dc212 0x0000001d 0x078e33ff 0x000fe400
0xff1bd212 0x0000001b 0x078e33ff 0x000fe400
0x1d1a7212 0x0000001a 0x078ec0ff 0x000fe400
0x001d7806 0x00000000 0x030e0100 0x000fc400
0x001f7806 0x00000000 0x000e0100 0x000fe400
0xff1de212 0x0000001d 0x078e33ff 0x000fe400
0x1b1a7212 0x0000001a 0x078ec0ff 0x000fe400
0x001b7919 0x00000000 0x00003a00 0x000f2200
0xff1f8212 0x0000001f 0x078e33ff 0x000fe400
0x1d1a7212 0x0000001a 0x078ec0ff 0x000fc800
0x1f1a7212 0x0000001a 0x078ec0ff 0x000fcc00
0x00207300 0x0000001a 0x000e0000 0x000f6200
0x1b1b7212 0x0000001a 0x078ec0ff 0x010fe400
0x1200720c 0x00000020 0x03f05270 0x020fca00
0x00267309 0x0000001b 0x00000000 0x00052e00
0x00000947 0x00000030 0x03800000 0x000fea00
0xff197819 0x00000005 0x00011600 0x00cfca00
0x19197824 0x00000100 0x078e021e 0x000fd000
0x1919738c 0x00000026 0x000040ff 0x0104e400
0x00007941 0x00000000 0x03800000 0x00cfea00
0x00047882 0xffffffff 0x00000000 0x000fe200
0xff1a7a19 0x00006900 0x0001160b 0x000fe200
0x00057ab9 0x00006a00 0x00000800 0x000fe200
0x001e7919 0x00000000 0x00003a00 0x000ea200
0x04047299 0x00000005 0x0800063f 0x000fe200
0x00ff7355 0x00000000 0x00100000 0x000fe200
0x00007945 0x00000260 0x03800000 0x000fe200
0x19197589 0x00001f20 0x000e0000 0x00062600
0x1a227c12 0x00000004 0x0f8e30ff 0x000fc800
0x22007804 0x0000007f 0x00000000 0x000fd800
0x001a7806 0x00000000 0x000e0100 0x000fe400
0x001b7806 0x00000000 0x008e0100 0x000fe400
0x001d7806 0x00000000 0x010e0100 0x000fe400
0xff1a8212 0x0000001a 0x078e33ff 0x000fe400
0xff1b9212 0x0000001b 0x078e33ff 0x000fe400
0xff1da212 0x0000001d 0x078e33ff 0x000fc400
0x1b1a7212 0x0000001a 0x078ec0ff 0x000fe400
0x001b7806 0x00000000 0x018e0100 0x000fe400
0x1d1a7212 0x0000001a 0x078ec0ff 0x000fe400
0x001d7806 0x00000000 0x020e0100 0x000fe400
0xff1bb212 0x0000001b 0x078e33ff 0x000fe400
0x22ff7812 0x00000080 0x0780c0ff 0x000fc400
0xff1dc212 0x0000001d 0x078e33ff 0x000fe400
0x1b1a7212 0x0000001a 0x078ec0ff 0x000fe400
0x001b7806 0x00000000 0x028e0100 0x000fe400
0x1d1a7212 0x0000001a 0x078ec0ff 0x000fe400
0x001d7806 0x00000000 0x030e0100 0x000fe400
0xff1bd212 0x0000001b 0x078e33ff 0x000fc400
0x001f7806 0x00000000 0x000e0100 0x000fe400
0xff1de212 0x0000001d 0x078e33ff 0x000fe400
0x1b1a7212 0x0000001a 0x078ec0ff 0x000fe400
0xff1f8212 0x0000001f 0x078e33ff 0x000fe400
0x1d1a7212 0x0000001a 0x078ec0ff 0x000fc800
0x1f1b7212 0x0000001a 0x078ec0ff 0x000fe200
0xff1a7224 0x000000ff 0x078e00ff 0x000fc600
0x1e1d7212 0x0000001b 0x078ec0ff 0x004fe200
0xff1e7224 0x000000ff 0x078e00ff 0x000fe200
0x00217300 0x0000001b 0x000e0000 0x000eb000
0x00287309 0x0000001d 0x00000000 0x00066200
0x1200720c 0x00000021 0x03f05270 0x004fd800
0x00000947 0x00000030 0x03800000 0x000fea00
0xff1b7819 0x00000005 0x00011600 0x00bfca00
0x1b1e7824 0x00000100 0x078e0222 0x000fd000
0x1e1e738c 0x00000028 0x000040ff 0x00006400
0x00007941 0x00000000 0x03800000 0x00bfea00
0x00047882 0xffffffff 0x00000000 0x000fe200
0xff257a19 0x00006900 0x0001160c 0x000fe200
0x00057ab9 0x00006a00 0x00000800 0x000fe200
0x00ff7355 0x00000000 0x00100000 0x000fe200
0x04047299 0x00000005 0x0800063f 0x000fe200
0x00007945 0x000002a0 0x03800000 0x000fea00
0x251d7c12 0x00000004 0x0f8e30ff 0x000fc800
0x1d007804 0x0000007f 0x00000000 0x000fd800
0x001b7806 0x00000000 0x000e0100 0x000fe400
0x00207806 0x00000000 0x008e0100 0x000fe400
0xff1b8212 0x0000001b 0x078e33ff 0x000fe400
0xff209212 0x00000020 0x078e33ff 0x000fe400
0x00227806 0x00000000 0x010e0100 0x000fe400
0x201b7212 0x0000001b 0x078ec0ff 0x000fc400
0xff22a212 0x00000022 0x078e33ff 0x000fe400
0x00207806 0x00000000 0x018e0100 0x000fe400
0x221b7212 0x0000001b 0x078ec0ff 0x000fe400
0xff20b212 0x00000020 0x078e33ff 0x000fe400
0x00227806 0x00000000 0x020e0100 0x000fe400
0x1dff7812 0x00000080 0x0780c0ff 0x000fc400
0x201b7212 0x0000001b 0x078ec0ff 0x000fe400
0x00207806 0x00000000 0x028e0100 0x000fe400
0xff22c212 0x00000022 0x078e33ff 0x000fe400
0xff20d212 0x00000020 0x078e33ff 0x000fe400
0x221b7212 0x0000001b 0x078ec0ff 0x000fe400
0x00227806 0x00000000 0x030e0100 0x000fc400
0x00247806 0x00000000 0x000e0100 0x000fe400
0xff22e212 0x00000022 0x078e33ff 0x000fe400
0x201b7212 0x0000001b 0x078ec0ff 0x000fe400
0x00207919 0x00000000 0x00003a00 0x000e2200
0xff248212 0x00000024 0x078e33ff 0x000fe400
0x221b7212 0x0000001b 0x078ec0ff 0x000fc800
0x241d7212 0x0000001b 0x078ec0ff 0x000fc800
0x1e1b7589 0x00001f21 0x000e0000 0x0002a400
0x00237300 0x0000001d 0x000e0000 0x000ee200
0x201f7212 0x0000001d 0x078ec0ff 0x001fe400
0x1200720c 0x00000023 0x03f05270 0x008fca00
0x00297309 0x0000001f 0x00000000 0x00022e00
0x00000947 0x00000080 0x03800000 0x000fea00
0x00047882 0xffffffff 0x00000000 0x006fe200
0x001a7824 0x00000020 0x078e00ff 0x000fe200
0x00057ab9 0x00006a00 0x00000800 0x000fe400
0x04047299 0x00000005 0x0800063f 0x000fc400
0x1a1d7812 0xfffffc00 0x078ec0ff 0x000fc800
0x251a7c12 0x00000004 0x0f8e30ff 0x000fca00
0x1a1a7824 0x00000004 0x078e021d 0x000fd000
0x1a1a738c 0x00000029 0x000000ff 0x00106400
0x00007941 0x00000000 0x03800000 0x006fea00
0x00047882 0xffffffff 0x00000000 0x000fe200
0xff217a19 0x00006900 0x0001160d 0x000fe200
0x00057ab9 0x00006a00 0x00000800 0x000fe200
0x00ff7355 0x00000000 0x00100000 0x000fe200
0x04047299 0x00000005 0x0800063f 0x000fe200
0x1a1a7589 0x00001f23 0x000e0000 0x0002a200
0x00007945 0x000002a0 0x03800000 0x000fe800
0x211f7c12 0x00000004 0x0f8e30ff 0x000fc800
0x1f007804 0x0000007f 0x00000000 0x000fd800
0x001d7806 0x00000000 0x000e0100 0x000fe400
0x001e7806 0x00000000 0x008e0100 0x000fe400
0x00207806 0x00000000 0x010e0100 0x000fe400
0xff1d8212 0x0000001d 0x078e33ff 0x000fe400
0xff1e9212 0x0000001e 0x078e33ff 0x000fe400
0xff20a212 0x00000020 0x078e33ff 0x000fc400
0x1e1d7212 0x0000001d 0x078ec0ff 0x000fe400
0x001e7806 0x00000000 0x018e0100 0x000fe400
0x201d7212 0x0000001d 0x078ec0ff 0x000fe400
0x00207806 0x00000000 0x020e0100 0x000fe400
0xff1eb212 0x0000001e 0x078e33ff 0x000fe400
0x1fff7812 0x00000080 0x0780c0ff 0x000fc400
0xff20c212 0x00000020 0x078e33ff 0x000fe200
0x001f7919 0x00000000 0x00003a00 0x000ee200
0x1e1d7212 0x0000001d 0x078ec0ff 0x000fe400
0x001e7806 0x00000000 0x028e0100 0x000fe400
0x201d7212 0x0000001d 0x078ec0ff 0x000fe400
0x00207806 0x00000000 0x030e0100 0x000fe400
0xff1ed212 0x0000001e 0x078e33ff 0x000fc400
0x00227806 0x00000000 0x000e0100 0x000fe400
0xff20e212 0x00000020 0x078e33ff 0x000fe400
0x1e1d7212 0x0000001d 0x078ec0ff 0x000fe400
0xff228212 0x00000022 0x078e33ff 0x000fe400
0x201d7212 0x0000001d 0x078ec0ff 0x000fc800
0x221e7212 0x0000001d 0x078ec0ff 0x000fe200
0xff1d7224 0x000000ff 0x078e00ff 0x000fc600
0x1f1f7212 0x0000001e 0x078ec0ff 0x008fe400
0x00227300 0x0000001e 0x000e0000 0x000ef000
0x002a7309 0x0000001f 0x00000000 0x00032200
0x1200720c 0x00000022 0x03f05270 0x008fd800
0x00000947 0x00000080 0x03800000 0x000fea00
0x00047882 0xffffffff 0x00000000 0x016fe200
0x001d7824 0x00000020 0x078e00ff 0x000fe200
0x00057ab9 0x00006a00 0x00000800 0x000fe400
0x04047299 0x00000005 0x0800063f 0x000fe400
0x1d1e7812 0xfffffc00 0x078ec0ff 0x000fc800
0x211d7c12 0x00000004 0x0f8e30ff 0x000fca00
0x1d1d7824 0x00000004 0x078e021e 0x000fd000
0x1d1d738c 0x0000002a 0x000000ff 0x0002a400
0x00007941 0x00000000 0x03800000 0x016fea00
0x00047882 0xffffffff 0x00000000 0x000fe200
0xff1e7a19 0x00006900 0x0001160e 0x000fe200
0x00057ab9 0x00006a00 0x00000800 0x000fe200
0x00207919 0x00000000 0x00003a00 0x000e6200
0x04047299 0x00000005 0x0800063f 0x000fe200
0x00ff7355 0x00000000 0x00100000 0x000fe200
0x00007945 0x00000260 0x03800000 0x000fe200
0x1d1d7589 0x00001f22 0x000e0000 0x0004e600
0x1e247c12 0x00000004 0x0f8e30ff 0x000fc800
0x24007804 0x0000007f 0x00000000 0x000fd800
0x001e7806 0x00000000 0x000e0100 0x000fe400
0x001f7806 0x00000000 0x008e0100 0x000fe400
0x00217806 0x00000000 0x010e0100 0x000fe400
0xff1e8212 0x0000001e 0x078e33ff 0x000fe400
0xff1f9212 0x0000001f 0x078e33ff 0x000fe400
0xff21a212 0x00000021 0x078e33ff 0x000fc400
0x1f1e7212 0x0000001e 0x078ec0ff 0x000fe400
0x001f7806 0x00000000 0x018e0100 0x000fe400
0x211e7212 0x0000001e 0x078ec0ff 0x000fe400
0x00217806 0x00000000 0x020e0100 0x000fe400
0xff1fb212 0x0000001f 0x078e33ff 0x000fe400
0x24ff7812 0x00000080 0x0780c0ff 0x000fc400
0xff21c212 0x00000021 0x078e33ff 0x000fe400
0x1f1e7212 0x0000001e 0x078ec0ff 0x000fe400
0x001f7806 0x00000000 0x028e0100 0x000fe400
0x211e7212 0x0000001e 0x078ec0ff 0x000fe400
0x00217806 0x00000000 0x030e0100 0x000fe400
0xff1fd212 0x0000001f 0x078e33ff 0x000fc400
0x00237806 0x00000000 0x000e0100 0x000fe400
0xff21e212 0x00000021 0x078e33ff 0x000fe400
0x1f1e7212 0x0000001e 0x078ec0ff 0x000fe400
0xff238212 0x00000023 0x078e33ff 0x000fe400
0x211e7212 0x0000001e 0x078ec0ff 0x000fc800
0x231f7212 0x0000001e 0x078ec0ff 0x000fe200
0xff1e7224 0x000000ff 0x078e00ff 0x000fc600
0x20207212 0x0000001f 0x078ec0ff 0x002fe400
0x00237300 0x0000001f 0x000e0000 0x000e7000
0x002b7309 0x00000020 0x00000000 0x00052200
0x1200720c 0x00000023 0x03f05270 0x002fd800
0x00000947 0x00000040 0x03800000 0x000fea00
0x001e7824 0x00000020 0x078e00ff 0x01cfca00
0x1e1f7812 0xfffffc00 0x078ec0ff 0x000fca00
0x241e7824 0x00000004 0x078e021f 0x000fd000
0x1e1e738c 0x0000002b 0x000000ff 0x0002a400
0x00007941 0x00000000 0x03800000 0x01cfea00
0x00047882 0xffffffff 0x00000000 0x000fe200
0xff257a19 0x00006900 0x0001160f 0x000fe200
0x00057ab9 0x00006a00 0x00000800 0x000fe200
0x00ff7355 0x00000000 0x00100000 0x000fe200
0x04047299 0x00000005 0x0800063f 0x000fe200
0x00007945 0x000002b0 0x03800000 0x000fea00
0x25217c12 0x00000004 0x0f8e30ff 0x000fc800
0x21007804 0x0000007f 0x00000000 0x000fd800
0x001f7806 0x00000000 0x000e0100 0x000fe400
0x00207806 0x00000000 0x008e0100 0x000fe400
0x00227806 0x00000000 0x010e0100 0x000fe400
0xff1f8212 0x0000001f 0x078e33ff 0x000fe400
0xff209212 0x00000020 0x078e33ff 0x000fe400
0xff22a212 0x00000022 0x078e33ff 0x000fc400
0x201f7212 0x0000001f 0x078ec0ff 0x000fe400
0x00207806 0x00000000 0x018e0100 0x000fe400
0x221f7212 0x0000001f 0x078ec0ff 0x000fe400
0x00227806 0x00000000 0x020e0100 0x000fe400
0xff20b212 0x00000020 0x078e33ff 0x000fe400
0xff22c212 0x00000022 0x078e33ff 0x000fc400
0x201f7212 0x0000001f 0x078ec0ff 0x000fe400
0x21ff7812 0x00000080 0x0780c0ff 0x000fe400
0x00207806 0x00000000 0x028e0100 0x000fe400
0x221f7212 0x0000001f 0x078ec0ff 0x000fe400
0x00227806 0x00000000 0x030e0100 0x000fe400
0xff20d212 0x00000020 0x078e33ff 0x000fc400
0xff22e212 0x00000022 0x078e33ff 0x000fe400
0x201f7212 0x0000001f 0x078ec0ff 0x000fe400
0x00247806 0x00000000 0x000e0100 0x000fe400
0x221f7212 0x0000001f 0x078ec0ff 0x000fe200
0x1e207589 0x00001f23 0x000e0000 0x0004e200
0xff248212 0x00000024 0x078e33ff 0x000fc600
0x00227919 0x00000000 0x00003a00 0x000f2200
0x24217212 0x0000001f 0x078ec0ff 0x000fe200
0xff1f7224 0x000000ff 0x078e00ff 0x000fca00
0x00247300 0x00000021 0x000e0000 0x000f6400
0x1200720c 0x00000024 0x03f05270 0x020fe400
0x22227212 0x00000021 0x078ec0ff 0x010fcc00
0x002d7309 0x00000022 0x00000000 0x00052800
0x00000947 0x00000080 0x03800000 0x000fea00
0x00047882 0xffffffff 0x00000000 0x008fe200
0x001e7824 0x00000020 0x078e00ff 0x004fe200
0x00057ab9 0x00006a00 0x00000800 0x000fe400
0x04047299 0x00000005 0x0800063f 0x000fe400
0x1e1f7812 0xfffffc00 0x078ec0ff 0x000fc800
0x251e7c12 0x00000004 0x0f8e30ff 0x000fca00
0x1e1e7824 0x00000004 0x078e021f 0x000fd000
0x1e1f738c 0x0000002d 0x000000ff 0x0104e400
0x00007941 0x00000000 0x03800000 0x008fea00
0x00047882 0xffffffff 0x00000000 0x000fe200
0xff1e7a19 0x00006900 0x00011610 0x004fe200
0x00057ab9 0x00006a00 0x00000800 0x000fe200
0x00ff7355 0x00000000 0x00100000 0x000fe200
0x04047299 0x00000005 0x0800063f 0x000fe200
0x1f227589 0x00001f24 0x000e0000 0x0004e200
0x00007945 0x00000260 0x03800000 0x000fe800
0x1e2f7c12 0x00000004 0x0f8e30ff 0x000fc800
0x2f007804 0x0000007f 0x00000000 0x000fd800
0x001e7806 0x00000000 0x000e0100 0x000fe400
0x00217806 0x00000000 0x008e0100 0x000fe400
0x00237806 0x00000000 0x010e0100 0x000fe400
0xff1e8212 0x0000001e 0x078e33ff 0x000fe400
0xff219212 0x00000021 0x078e33ff 0x000fe400
0xff23a212 0x00000023 0x078e33ff 0x000fc400
0x211e7212 0x0000001e 0x078ec0ff 0x000fe400
0x00217806 0x00000000 0x018e0100 0x000fe400
0x231e7212 0x0000001e 0x078ec0ff 0x000fe400
0x00237806 0x00000000 0x020e0100 0x000fe400
0xff21b212 0x00000021 0x078e33ff 0x000fe400
0xff23c212 0x00000023 0x078e33ff 0x000fc400
0x211e7212 0x0000001e 0x078ec0ff 0x000fe400
0x2fff7812 0x00000080 0x0780c0ff 0x000fe400
0x00217806 0x00000000 0x028e0100 0x000fe400
0x231e7212 0x0000001e 0x078ec0ff 0x000fe400
0x00237806 0x00000000 0x030e0100 0x000fe400
0xff21d212 0x00000021 0x078e33ff 0x000fc400
0xff23e212 0x00000023 0x078e33ff 0x000fe400
0x211e7212 0x0000001e 0x078ec0ff 0x000fe200
0xff217224 0x000000ff 0x078e00ff 0x000fe200
0x00257806 0x00000000 0x000e0100 0x000fe400
0x231e7212 0x0000001e 0x078ec0ff 0x000fe400
0x00237919 0x00000000 0x00003a00 0x000f6200
0xff258212 0x00000025 0x078e33ff 0x000fc800
0x251e7212 0x0000001e 0x078ec0ff 0x000fcc00
0x002c7300 0x0000001e 0x000e0000 0x000e6200
0x23237212 0x0000001e 0x078ec0ff 0x020fe400
0x1200720c 0x0000002c 0x03f05270 0x002fca00
0x002e7309 0x00000023 0x00000000 0x00046e00
0x00000947 0x00000040 0x03800000 0x000fea00
0x001e7824 0x00000020 0x078e00ff 0x008fca00
0x1e1e7812 0xfffffc00 0x078ec0ff 0x000fca00
0x2f217824 0x00000004 0x078e021e 0x000fd000
0x2121738c 0x0000002e 0x000000ff 0x0022e400
0x00007941 0x00000000 0x03800000 0x008fea00
0x00047882 0xffffffff 0x00000000 0x000fe200
0xff1e7a19 0x00006900 0x00011611 0x000fe200
0x00057ab9 0x00006a00 0x00000800 0x000fe200
0x00ff7355 0x00000000 0x00100000 0x000fe200
0x04047299 0x00000005 0x0800063f 0x000fe200
0x21217589 0x00001f2c 0x000e0000 0x0006a200
0x00007945 0x00000280 0x03800000 0x000fe800
0x1e317c12 0x00000004 0x0f8e30ff 0x000fc800
0x31007804 0x0000007f 0x00000000 0x000fd800
0x001e7806 0x00000000 0x000e0100 0x000fe400
0x001f7806 0x00000000 0x008e0100 0x004fe400
0x00237806 0x00000000 0x010e0100 0x000fe400
0xff1e8212 0x0000001e 0x078e33ff 0x000fe400
0xff1f9212 0x0000001f 0x078e33ff 0x000fe400
0xff23a212 0x00000023 0x078e33ff 0x000fc400
0x1f1e7212 0x0000001e 0x078ec0ff 0x000fe400
0x001f7806 0x00000000 0x018e0100 0x000fe400
0x231e7212 0x0000001e 0x078ec0ff 0x000fe400
0x00237806 0x00000000 0x020e0100 0x000fe400
0xff1fb212 0x0000001f 0x078e33ff 0x000fe400
0x31ff7812 0x00000080 0x0780c0ff 0x000fc400
0xff23c212 0x00000023 0x078e33ff 0x000fe400
0x1f1e7212 0x0000001e 0x078ec0ff 0x000fe400
0x001f7806 0x00000000 0x028e0100 0x000fe400
0x231e7212 0x0000001e 0x078ec0ff 0x000fe400
0x00237806 0x00000000 0x030e0100 0x000fe400
0xff1fd212 0x0000001f 0x078e33ff 0x000fc400
0x00257806 0x00000000 0x000e0100 0x000fe400
0xff23e212 0x00000023 0x078e33ff 0x000fe400
0x1f1e7212 0x0000001e 0x078ec0ff 0x000fe400
0xff258212 0x00000025 0x078e33ff 0x000fe200
0x001f7919 0x00000000 0x00003a00 0x000ea200
0x231e7212 0x0000001e 0x078ec0ff 0x000fe200
0xff237424 0x00000004 0x078e00ff 0x000fc600
0x25247212 0x0000001e 0x078ec0ff 0x000fcc00
0x002f7300 0x00000024 0x000e0000 0x000f6400
0x1200720c 0x0000002f 0x03f05270 0x020fe400
0x1f127212 0x00000024 0x078ec0ff 0x004fe200
0x001e7625 0x00005e00 0x078e0223 0x000fc800
0xff237224 0x000000ff 0x078e00ff 0x000fe200
0x00307309 0x00000012 0x00000000 0x0006a800
0x00000947 0x00000040 0x03800000 0x000fea00
0x00127824 0x00000020 0x078e00ff 0x008fca00
0x12127812 0xfffffc00 0x078ec0ff 0x000fca00
0x31237824 0x00000004 0x078e0212 0x000fd000
0x2323738c 0x00000030 0x000000ff 0x0044e400
0x00007941 0x00000000 0x03800000 0x000fea00
0x00007b1d 0x00000000 0x00000000 0x000fea00
0x1e257381 0x00000000 0x001ee900 0x010b2200
0x15157810 0xffffffff 0x07ffe016 0x000fe400
0x17177810 0xffffffff 0x07ffe018 0x000fe200
0x23237589 0x00001f2f 0x000e0000 0x008ee200
0x27127810 0xffffffff 0x07ffe01c 0x000fc400
0x26197810 0xffffffff 0x07ffe019 0x000fe400
0x28167810 0xffffffff 0x07ffe01b 0x000fe200
0x15007388 0x00000006 0x00004800 0x0005e200
0x291b7810 0xffffffff 0x07ffe01a 0x001fe200
0xff1e7224 0x000000ff 0x078e0013 0x020fe200
0x2a187810 0xffffffff 0x07ffe01d 0x000fe200
0x17007388 0x00000008 0x00004800 0x0001e200
0x2b1d7810 0xffffffff 0x07ffe020 0x000fe400
0x2d1a7810 0xffffffff 0x07ffe022 0x000fe200
0x12007388 0x00000009 0x00004800 0x0001e200
0x2e1f7810 0xffffffff 0x07ffe021 0x002fc400
0x0300780c 0x00000001 0x03f06270 0x000fe200
0x19007388 0x0000000a 0x00004800 0x0001e800
0x16007388 0x0000000b 0x00004800 0x0001e200
0x301c7824 0x00000001 0x078e0223 0x00cfc600
0x1b007388 0x0000000c 0x00004800 0x0001e200
0x1c067824 0x00000008 0x078e00ff 0x000fc600
0x18007388 0x0000000d 0x00004800 0x0001e800
0x1d007388 0x0000000e 0x00004800 0x0001e800
0x1a007388 0x0000000f 0x00004800 0x0001e800
0x1f007388 0x00000010 0x00004800 0x0001e800
0x1c007388 0xfffffc11 0x00004800 0x0001e200
0x25257824 0x00000001 0x078e0a14 0x010fd000
0x00007388 0x00844025 0x00004800 0x0001e200
0x00008947 0x00000280 0x03800000 0x000fea00
0x00ff7355 0x00000000 0x00100000 0x000fe200
0x00007945 0x00000260 0x03800000 0x000fe200
0xff0a7424 0xffffffff 0x078e00ff 0x001fe400
0xff0b7224 0x000000ff 0x078e0003 0x000fe400
0xff1e7224 0x000000ff 0x078e0013 0x000fe400
0x0b087824 0x00000100 0x078e0200 0x000fe200
0x01ff7355 0x00000000 0x00100000 0x000fe200
0xff097424 0x00000004 0x078e00ff 0x000fe200
0x00017945 0x000000d0 0x03800000 0x000fe400
0x08087810 0xffffff00 0x07ffe0ff 0x000fca00
0x08087625 0x00005800 0x078e0209 0x000fc800
0x00007992 0x00000000 0x00000000 0x000fea00
0x080c7381 0x00000000 0x001f6900 0x000ea400
0x0c00720c 0x000000ff 0x03f05270 0x004fd800
0x00000947 0x00000060 0x03800000 0x000fea00
0x000c7806 0x00000000 0x038e0100 0x000fe200
0x00007946 0x00000000 0x03800000 0x000fe200
0x00047886 0x00000000 0x038e0100 0x000fe400
0x0cff7c12 0x00000004 0x0f800cff 0x000fd800
0x00008947 0xffffff71 0x0383ffff 0x000fea00
0x00007947 0xffffffa0 0x0383ffff 0x000fea00
0x00017941 0x00000000 0x03800000 0x000fea00
0x0c097812 0x3fffffff 0x078ec0ff 0x040fe400
0x0c00780c 0xffffffff 0x03f04270 0x000fc600
0x091e7824 0x00000001 0x078e021e 0x000fe200
0x00007947 0x00002eb2 0x03800000 0x000ff000
0x00097806 0x00000000 0x000e0100 0x000fc800
0x090a7212 0x0000000a 0x078ec0ff 0x000fe400
0x0c00720c 0x000000ff 0x03f06270 0x000fd800
0x00008947 0x00000090 0x03800000 0x000fea00
0x0b00780c 0x00000001 0x03f04270 0x000fd800
0x00008947 0x00000070 0x03800000 0x000fea00
0x0b0b7810 0xffffffff 0x07ffe0ff 0x000fe400
0x00087806 0x00000000 0x038e0100 0x000fe200
0x00007946 0x00000000 0x03800000 0x000fe200
0x00047886 0x00000000 0x038e0100 0x000fe400
0x08ff7c12 0x00000004 0x0f800cff 0x000fd800
0x00008947 0xfffffdf1 0x0383ffff 0x000fea00
0x00007947 0xffffffa0 0x0383ffff 0x000fea00
0x00007941 0x00000000 0x03800000 0x000fea00
0x00087984 0x00844000 0x00005800 0x001e2200
0x070c7810 0x00000b00 0x07ffe0ff 0x000fe200
0x030a7824 0x00000100 0x078e0200 0x000fe200
0xff007a0c 0x00005c00 0x03f22070 0x000fe200
0xff107424 0x00000004 0x078e00ff 0x000fe200
0x0c007a0c 0x00006800 0x03f06270 0x000fe200
0x00007948 0xffffffff 0x03800000 0x000fe800
0xff007a0c 0x00005d00 0x04702710 0x000fe200
0x0a0a7625 0x00005800 0x078e0210 0x000fe200
0x1e077812 0x80000000 0x078efcff 0x000fd000
0x0a007386 0x00000007 0x00116900 0x000fe200
0x080d7210 0x0000001e 0x07ffe813 0x001fe200
0x00088625 0x00005c00 0x078e0210 0x000fc600
0x0d138210 0x00000014 0x07ffe013 0x000fc800
0x00007388 0x0084400d 0x00004800 0x000fe800
0x08008386 0x00000013 0x0010e900 0x000fe800
0x00007b1d 0x00000000 0x00000000 0x000fea00
0x0c007a0c 0x00006800 0x03f04270 0x000fd800
0x00008947 0x00000d30 0x03800000 0x000fea00
0xff087424 0xfffff500 0x078e00ff 0x000fe200
0x000b7810 0x00000100 0x07ffe0ff 0x040fe200
0x00ff7355 0x00000000 0x00100000 0x000fe200
0x000c7810 0x00000200 0x07ffe0ff 0x040fe200
0x03147624 0x00006800 0x078e0208 0x000fe200
0x000d7810 0x00000300 0x07ffe0ff 0x040fe200
0x00007945 0x00000110 0x03800000 0x000fe600
0x0000720c 0x00000014 0x03f26270 0x080fe400
0x0b00720c 0x00000014 0x03f46270 0x000fc400
0x0c00720c 0x00000014 0x03f66270 0x080fe400
0x0d00720c 0x00000014 0x03f86270 0x000fcc00
0x00001947 0x000000b0 0x03800000 0x000fea00
0x00077984 0x00000000 0x00005800 0x000e2200
0x00047882 0xffffffff 0x00000000 0x000fe400
0x00057ab9 0x00006a00 0x00000800 0x000fe400
0x04047299 0x00000005 0x0800063f 0x000fe200
0xff087a19 0x00006900 0x00011607 0x001fe400
0x07077812 0x80000000 0x078e3cff 0x000fc600
0x080a7c12 0x00000004 0x0f8e30ff 0x000fd000
0x0a097984 0x00844000 0x00005800 0x000e2400
0x09097824 0x00000001 0x078e0200 0x001fc800
0x09087625 0x00006000 0x078e0010 0x000fd000
0x08007386 0x00000007 0x0010e900 0x0001e400
0x00007941 0x00000000 0x03800000 0x000fea00
0x00ff7355 0x00000000 0x00100000 0x000fe200
0x00007918 0x00000000 0x00000000 0x000fca00
0x00007945 0x000000d0 0x03800000 0x000fe200
0x00002947 0x000000b0 0x03800000 0x000fea00
0x00077984 0x00040000 0x00005800 0x001e2200
0x00047882 0xffffffff 0x00000000 0x000fe400
0x00057ab9 0x00006a00 0x00000800 0x000fe400
0x04047299 0x00000005 0x0800063f 0x000fe200
0xff087a19 0x00006900 0x00011607 0x001fe400
0x07077812 0x80000000 0x078e3cff 0x000fc600
0x080a7c12 0x00000004 0x0f8e30ff 0x000fd000
0x0a0a7984 0x00844000 0x00005800 0x000e2400
0x0b087824 0x00000001 0x078e020a 0x001fc800
0x08087625 0x00006000 0x078e0010 0x000fd000
0x08007386 0x00000007 0x0010e900 0x0001e400
0x00007941 0x00000000 0x03800000 0x000fea00
0x00ff7355 0x00000000 0x00100000 0x000fe200
0x00007918 0x00000000 0x00000000 0x000fca00
0x00007945 0x000000f0 0x03800000 0x000fe200
0x000b7810 0x00000400 0x07ffe0ff 0x000fe200
0x00003947 0x000000c0 0x03800000 0x000fea00
0x00077984 0x00080000 0x00005800 0x001e2200
0x00047882 0xffffffff 0x00000000 0x000fe400
0x00057ab9 0x00006a00 0x00000800 0x000fe400
0x04047299 0x00000005 0x0800063f 0x000fe200
0xff087a19 0x00006900 0x00011607 0x001fe400
0x07077812 0x80000000 0x078e3cff 0x000fc600
0x080a7c12 0x00000004 0x0f8e30ff 0x000fe200
0xff087424 0x00000004 0x078e00ff 0x000fce00
0x0a097984 0x00844000 0x00005800 0x000e2400
0x0c097824 0x00000001 0x078e0209 0x001fc800
0x09087625 0x00006000 0x078e0008 0x000fd000
0x08007386 0x00000007 0x0010e900 0x0001e400
0x00007941 0x00000000 0x03800000 0x000fea00
0x00ff7355 0x00000000 0x00100000 0x000fe200
0x00007918 0x00000000 0x00000000 0x000fca00
0x00007945 0x000000f0 0x03800000 0x000fe200
0x000c7810 0x00000500 0x07ffe0ff 0x000fe200
0x00004947 0x000000c0 0x03800000 0x000fea00
0x00077984 0x000c0000 0x00005800 0x001e2200
0x00047882 0xffffffff 0x00000000 0x000fe200
0xff097424 0x00000004 0x078e00ff 0x000fe200
0x00057ab9 0x00006a00 0x00000800 0x000fe400
0x04047299 0x00000005 0x0800063f 0x000fe200
0xff087a19 0x00006900 0x00011607 0x001fe400
0x07077812 0x80000000 0x078e3cff 0x000fc600
0x080a7c12 0x00000004 0x0f8e30ff 0x000fd000
0x0a0a7984 0x00844000 0x00005800 0x000e2400
0x0d087824 0x00000001 0x078e020a 0x001fc800
0x08087625 0x00006000 0x078e0009 0x000fd000
0x08007386 0x00000007 0x0010e900 0x0001e400
0x00007941 0x00000000 0x03800000 0x000fea00
0x0b00720c 0x00000014 0x03fc6270 0x080fe200
0x00ff7355 0x00000000 0x00100000 0x000fe200
0x0c00720c 0x00000014 0x03f66270 0x000fe200
0x00007918 0x00000000 0x00000000 0x000fca00
0x000d7810 0x00000600 0x07ffe0ff 0x040fe200
0x00007945 0x00000180 0x03800000 0x000fe200
0x000e7810 0x00000700 0x07ffe0ff 0x040fe400
0x000f7810 0x00000800 0x07ffe0ff 0x040fe400
0x00107810 0x00000900 0x07ffe0ff 0x040fe400
0x00117810 0x00000a00 0x07ffe0ff 0x000fe400
0xff137803 0x00000008 0x00000000 0x000fc400
0x0d00720c 0x00000014 0x03f26270 0x080fe400
0x0e00720c 0x00000014 0x03f46270 0x080fe400
0x0f00720c 0x00000014 0x03f66270 0x080fe400
0x1000720c 0x00000014 0x03f86270 0x080fe400
0x1100720c 0x00000014 0x03fa6270 0x000fe200
0x00006947 0x000000c0 0x03800000 0x000fec00
0x00077984 0x00100000 0x00005800 0x001e2200
0x00047882 0xffffffff 0x00000000 0x000fe200
0xff097424 0x00000004 0x078e00ff 0x000fe200
0x00057ab9 0x00006a00 0x00000800 0x000fc400
0x04047299 0x00000005 0x0800063f 0x000fe200
0xff087a19 0x00006900 0x00011607 0x001fe400
0x07077812 0x80000000 0x078e3cff 0x000fc600
0x080a7c12 0x00000004 0x0f8e30ff 0x000fd000
0x0a0a7984 0x00844000 0x00005800 0x000e2400
0x0b087824 0x00000001 0x078e020a 0x001fc800
0x08087625 0x00006000 0x078e0009 0x000fd000
0x08007386 0x00000007 0x0010e900 0x0001e400
0x00007941 0x00000000 0x03800000 0x000fea00
0x1300720c 0x000000ff 0x03fc5270 0x000fe200
0x00ff7355 0x00000000 0x00100000 0x000fe200
0x00007918 0x00000000 0x00000000 0x000fca00
0x00007945 0x000000e0 0x03800000 0x000fea00
0x00006947 0x000000c0 0x03800000 0x000fea00
0x00077984 0x00140000 0x00005800 0x001e2200
0x00047882 0xffffffff 0x00000000 0x000fe400
0x00057ab9 0x00006a00 0x00000800 0x000fe400
0x04047299 0x00000005 0x0800063f 0x000fe200
0xff087a19 0x00006900 0x00011607 0x001fc400
0x07077812 0x80000000 0x078e3cff 0x000fc600
0x080a7c12 0x00000004 0x0f8e30ff 0x000fe200
0xff087424 0x00000004 0x078e00ff 0x000fce00
0x0a097984 0x00844000 0x00005800 0x000e2400
0x0c097824 0x00000001 0x078e0209 0x001fc800
0x09087625 0x00006000 0x078e0008 0x000fd000
0x08007386 0x00000007 0x0010e900 0x0001e400
0x00007941 0x00000000 0x03800000 0x000fea00
0x00ff7355 0x00000000 0x00100000 0x000fe200
0x00007918 0x00000000 0x00000000 0x000fca00
0x00007945 0x000000e0 0x03800000 0x000fe200
0x00001947 0x000000c0 0x03800000 0x000fea00
0x00077984 0x00180000 0x00005800 0x001e2200
0x00047882 0xffffffff 0x00000000 0x000fe200
0xff097424 0x00000004 0x078e00ff 0x000fe200
0x00057ab9 0x00006a00 0x00000800 0x000fe400
0x04047299 0x00000005 0x0800063f 0x000fe200
0xff087a19 0x00006900 0x00011607 0x001fe400
0x07077812 0x80000000 0x078e3cff 0x000fc600
0x080a7c12 0x00000004 0x0f8e30ff 0x000fd000
0x0a0a7984 0x00844000 0x00005800 0x000e2400
0x0d087824 0x00000001 0x078e020a 0x001fc800
0x08087625 0x00006000 0x078e0009 0x000fd000
0x08007386 0x00000007 0x0010e900 0x0001e400
0x00007941 0x00000000 0x03800000 0x000fea00
0x00ff7355 0x00000000 0x00100000 0x000fe200
0x00007918 0x00000000 0x00000000 0x000fca00
0x00007945 0x000000e0 0x03800000 0x000fe200
0x00002947 0x000000c0 0x03800000 0x000fea00
0x00077984 0x001c0000 0x00005800 0x001e2200
0x00047882 0xffffffff 0x00000000 0x000fe400
0x00057ab9 0x00006a00 0x00000800 0x000fe400
0x04047299 0x00000005 0x0800063f 0x000fe200
0xff087a19 0x00006900 0x00011607 0x001fe400
0x07077812 0x80000000 0x078e3cff 0x000fc600
0x080a7c12 0x00000004 0x0f8e30ff 0x000fe200
0xff087424 0x00000004 0x078e00ff 0x000fce00
0x0a097984 0x00844000 0x00005800 0x000e2400
0x0e097824 0x00000001 0x078e0209 0x001fc800
0x09087625 0x00006000 0x078e0008 0x000fd000
0x08007386 0x00000007 0x0010e900 0x0001e400
0x00007941 0x00000000 0x03800000 0x000fea00
0x00ff7355 0x00000000 0x00100000 0x000fe200
0x00007918 0x00000000 0x00000000 0x000fca00
0x00007945 0x000000e0 0x03800000 0x000fe200
0x00003947 0x000000c0 0x03800000 0x000fea00
0x00077984 0x00200000 0x00005800 0x001e2200
0x00047882 0xffffffff 0x00000000 0x000fe200
0xff097424 0x00000004 0x078e00ff 0x000fe200
0x00057ab9 0x00006a00 0x00000800 0x000fe400
0x04047299 0x00000005 0x0800063f 0x000fe200
0xff087a19 0x00006900 0x00011607 0x001fe400
0x07077812 0x80000000 0x078e3cff 0x000fc600
0x080a7c12 0x00000004 0x0f8e30ff 0x000fd000
0x0a0a7984 0x00844000 0x00005800 0x000e2400
0x0f087824 0x00000001 0x078e020a 0x001fc800
0x08087625 0x00006000 0x078e0009 0x000fd000
0x08007386 0x00000007 0x0010e900 0x0001e400
0x00007941 0x00000000 0x03800000 0x000fea00
0x00ff7355 0x00000000 0x00100000 0x000fe200
0x00007918 0x00000000 0x00000000 0x000fca00
0x00007945 0x000000e0 0x03800000 0x000fe200
0x00004947 0x000000c0 0x03800000 0x000fea00
0x00077984 0x00240000 0x00005800 0x001e2200
0x00047882 0xffffffff 0x00000000 0x000fe400
0x00057ab9 0x00006a00 0x00000800 0x000fe400
0x04047299 0x00000005 0x0800063f 0x000fe200
0xff087a19 0x00006900 0x00011607 0x001fe400
0x07077812 0x80000000 0x078e3cff 0x000fc600
0x080a7c12 0x00000004 0x0f8e30ff 0x000fe200
0xff087424 0x00000004 0x078e00ff 0x000fce00
0x0a097984 0x00844000 0x00005800 0x000e2400
0x10097824 0x00000001 0x078e0209 0x001fc800
0x09087625 0x00006000 0x078e0008 0x000fd000
0x08007386 0x00000007 0x0010e900 0x0001e400
0x00007941 0x00000000 0x03800000 0x000fea00
0x00ff7355 0x00000000 0x00100000 0x000fe200
0x00007918 0x00000000 0x00000000 0x000fca00
0x00007945 0x000000e0 0x03800000 0x000fe200
0x00005947 0x000000c0 0x03800000 0x000fea00
0x00077984 0x00280000 0x00005800 0x001e2200
0x00047882 0xffffffff 0x00000000 0x000fe200
0xff097424 0x00000004 0x078e00ff 0x000fe200
0x00057ab9 0x00006a00 0x00000800 0x000fe400
0x04047299 0x00000005 0x0800063f 0x000fe200
0xff087a19 0x00006900 0x00011607 0x001fe400
0x07077812 0x80000000 0x078e3cff 0x000fc600
0x080a7c12 0x00000004 0x0f8e30ff 0x000fd000
0x0a0a7984 0x00844000 0x00005800 0x000e2400
0x11087824 0x00000001 0x078e020a 0x001fc800
0x08087625 0x00006000 0x078e0009 0x000fd000
0x08007386 0x00000007 0x0010e900 0x0001e400
0x00007941 0x00000000 0x03800000 0x000fea00
0x00007918 0x00000000 0x00000000 0x000fca00
0x00007947 0x00000660 0x03800000 0x000fea00
0x00077984 0x00000000 0x00005800 0x000e2200
0x00047882 0xffffffff 0x00000000 0x000fe400
0x00057ab9 0x00006a00 0x00000800 0x000fe400
0x04047299 0x00000005 0x0800063f 0x000fe200
0xff087a19 0x00006900 0x00011607 0x001fe400
0x07077812 0x80000000 0x078e3cff 0x000fc600
0x080a7c12 0x00000004 0x0f8e30ff 0x000fd000
0x0a097984 0x00844000 0x00005800 0x000e2400
0x09097824 0x00000001 0x078e0200 0x001fc800
0x09087625 0x00006000 0x078e0010 0x000fd000
0x08007386 0x00000007 0x0010e900 0x000fe200
0x00007918 0x00000000 0x00000000 0x000fca00
0x000b7984 0x00040000 0x00005800 0x000e2400
0xff0c7a19 0x00006900 0x0001160b 0x001fe400
0x0b0f7812 0x80000000 0x078e3cff 0x000fe400
0x0c0c7c12 0x00000004 0x0f8e30ff 0x000fd000
0x0c0d7984 0x00844000 0x00005800 0x000e2400
0x0d0d7810 0x00000100 0x07ffe000 0x001fca00
0x0d0a7625 0x00006000 0x078e0010 0x000fd000
0x0a007386 0x0000000f 0x0010e900 0x000fe200
0x00007918 0x00000000 0x00000000 0x000fca00
0x00077984 0x00080000 0x00005800 0x000e2400
0xff087a19 0x00006900 0x00011607 0x001fe400
0x07077812 0x80000000 0x078e3cff 0x000fe400
0x080d7c12 0x00000004 0x0f8e30ff 0x000fd000
0x0d0d7984 0x00844000 0x00005800 0x000e2400
0x0d087810 0x00000200 0x07ffe000 0x001fca00
0x08087625 0x00006000 0x078e0010 0x000fd000
0x08007386 0x00000007 0x0010e900 0x000fe200
0x00007918 0x00000000 0x00000000 0x000fca00
0x000a7984 0x000c0000 0x00005800 0x000e2400
0xff0b7a19 0x00006900 0x0001160a 0x001fe400
0x0a0d7812 0x80000000 0x078e3cff 0x000fe400
0x0b0c7c12 0x00000004 0x0f8e30ff 0x000fd000
0x0c0b7984 0x00844000 0x00005800 0x000e2400
0x0b0b7810 0x00000300 0x07ffe000 0x001fca00
0x0b0a7625 0x00006000 0x078e0010 0x000fd000
0x0a007386 0x0000000d 0x0010e900 0x000fe200
0x00007918 0x00000000 0x00000000 0x000fca00
0x00077984 0x00100000 0x00005800 0x000e2400
0xff087a19 0x00006900 0x00011607 0x001fe400
0x07077812 0x80000000 0x078e3cff 0x000fe400
0x080e7c12 0x00000004 0x0f8e30ff 0x000fd000
0x0e097984 0x00844000 0x00005800 0x000e2400
0x09097810 0x00000400 0x07ffe000 0x001fca00
0x09087625 0x00006000 0x078e0010 0x000fd000
0x08007386 0x00000007 0x0010e900 0x000fe200
0x00007918 0x00000000 0x00000000 0x000fca00
0x000a7984 0x00140000 0x00005800 0x000e2400
0xff0b7a19 0x00006900 0x0001160a 0x001fe400
0x0a0d7812 0x80000000 0x078e3cff 0x000fe400
0x0b0c7c12 0x00000004 0x0f8e30ff 0x000fd000
0x0c0b7984 0x00844000 0x00005800 0x000e2400
0x0b0b7810 0x00000500 0x07ffe000 0x001fca00
0x0b0a7625 0x00006000 0x078e0010 0x000fd000
0x0a007386 0x0000000d 0x0010e900 0x000fe200
0x00007918 0x00000000 0x00000000 0x000fca00
0x00077984 0x00180000 0x00005800 0x000e2400
0xff087a19 0x00006900 0x00011607 0x001fe400
0x07077812 0x80000000 0x078e3cff 0x000fe400
0x080e7c12 0x00000004 0x0f8e30ff 0x000fd000
0x0e097984 0x00844000 0x00005800 0x000e2400
0x09097810 0x00000600 0x07ffe000 0x001fca00
0x09087625 0x00006000 0x078e0010 0x000fd000
0x08007386 0x00000007 0x0010e900 0x000fe200
0x00007918 0x00000000 0x00000000 0x000fca00
0x000a7984 0x001c0000 0x00005800 0x000e2400
0xff0b7a19 0x00006900 0x0001160a 0x001fe400
0x0a0d7812 0x80000000 0x078e3cff 0x000fe400
0x0b0c7c12 0x00000004 0x0f8e30ff 0x000fd000
0x0c0b7984 0x00844000 0x00005800 0x000e2400
0x0b0b7810 0x00000700 0x07ffe000 0x001fca00
0x0b0a7625 0x00006000 0x078e0010 0x000fd000
0x0a007386 0x0000000d 0x0010e900 0x000fe200
0x00007918 0x00000000 0x00000000 0x000fca00
0x00077984 0x00200000 0x00005800 0x000e2400
0xff087a19 0x00006900 0x00011607 0x001fe400
0x07077812 0x80000000 0x078e3cff 0x000fe400
0x080e7c12 0x00000004 0x0f8e30ff 0x000fd000
0x0e097984 0x00844000 0x00005800 0x000e2400
0x09097810 0x00000800 0x07ffe000 0x001fca00
0x09087625 0x00006000 0x078e0010 0x000fd000
0x08007386 0x00000007 0x0010e900 0x000fe200
0x00007918 0x00000000 0x00000000 0x000fca00
0x000a7984 0x00240000 0x00005800 0x000e2400
0xff0b7a19 0x00006900 0x0001160a 0x001fe400
0x0a0d7812 0x80000000 0x078e3cff 0x000fe400
0x0b0c7c12 0x00000004 0x0f8e30ff 0x000fd000
0x0c0b7984 0x00844000 0x00005800 0x000e2400
0x0b0b7810 0x00000900 0x07ffe000 0x001fca00
0x0b0a7625 0x00006000 0x078e0010 0x000fd000
0x0a007386 0x0000000d 0x0010e900 0x000fe200
0x00007918 0x00000000 0x00000000 0x000fca00
0x00077984 0x00280000 0x00005800 0x000e2400
0xff087a19 0x00006900 0x00011607 0x001fe400
0x07077812 0x80000000 0x078e3cff 0x000fe400
0x080e7c12 0x00000004 0x0f8e30ff 0x000fd000
0x0e097984 0x00844000 0x00005800 0x000e2400
0x09097810 0x00000a00 0x07ffe000 0x001fca00
0x09087625 0x00006000 0x078e0010 0x000fd000
0x08007386 0x00000007 0x0010e900 0x0001e200
0x00007918 0x00000000 0x00000000 0x000fca00
0x00077984 0x00000000 0x00005800 0x001e2200
0x00047882 0xffffffff 0x00000000 0x000fe200
0x00ff7355 0x00000000 0x00100000 0x000fe200
0x00057ab9 0x00006a00 0x00000800 0x000fe200
0x00087984 0x00040000 0x00005800 0x000e6200
0x04047299 0x00000005 0x0800063f 0x000fe200
0x00007945 0x00000690 0x03800000 0x000fe200
0x003d7810 0x00000100 0x07ffe0ff 0x000fe200
0x00097984 0x00080000 0x00005800 0x000ea800
0x000a7984 0x000c0000 0x00005800 0x000ee800
0x000b7984 0x00100000 0x00005800 0x000f2800
0x000c7984 0x00140000 0x00005800 0x000f6800
0x000d7984 0x00180000 0x00005800 0x000f6800
0x000e7984 0x001c0000 0x00005800 0x000f6800
0x000f7984 0x00200000 0x00005800 0x000f6800
0x00107984 0x00240000 0x00005800 0x000f6800
0x00117984 0x00280000 0x00005800 0x000f6200
0xff077a19 0x00006900 0x00011607 0x001fc400
0xff087a19 0x00006900 0x00011608 0x002fe400
0x07137c12 0x00000004 0x0f8e30ff 0x000fe400
0xff097a19 0x00006900 0x00011609 0x004fe400
0x08147c12 0x00000004 0x0f8e30ff 0x000fe400
0xff0a7a19 0x00006900 0x0001160a 0x008fe400
0x091c7c12 0x00000004 0x0f8e30ff 0x000fc400
0xff0b7a19 0x00006900 0x0001160b 0x010fe400
0x0a1e7c12 0x00000004 0x0f8e30ff 0x000fe400
0xff0c7a19 0x00006900 0x0001160c 0x020fe400
0x0b367c12 0x00000004 0x0f8e30ff 0x000fe400
0xff0d7a19 0x00006900 0x0001160d 0x000fe400
0x0c377c12 0x00000004 0x0f8e30ff 0x000fc400
0xff0e7a19 0x00006900 0x0001160e 0x000fe400
0x0d387c12 0x00000004 0x0f8e30ff 0x000fe400
0xff0f7a19 0x00006900 0x0001160f 0x000fe400
0x0e397c12 0x00000004 0x0f8e30ff 0x000fe400
0xff107a19 0x00006900 0x00011610 0x000fe400
0x0f3a7c12 0x00000004 0x0f8e30ff 0x000fc400
0xff117a19 0x00006900 0x00011611 0x000fe400
0x103b7c12 0x00000004 0x0f8e30ff 0x000fe400
0x113c7c12 0x00000004 0x0f8e30ff 0x000fe200
0x00008947 0x000003a0 0x03800000 0x000fea00
0xff2a7424 0xfffff500 0x078e00ff 0x000fe200
0x022c7810 0x00000040 0x07ffe0ff 0x040fe400
0x02307810 0x00000080 0x07ffe0ff 0x040fe200
0x03077624 0x00006800 0x078e022a 0x000fe200
0x022a7810 0x00000020 0x07ffe0ff 0x000fc800
0x0200720c 0x00000007 0x03f46270 0x080fe400
0x2a00720c 0x00000007 0x03f66270 0x080fe400
0x2c00720c 0x00000007 0x03f86270 0x000fe400
0x022c7810 0x00000060 0x07ffe0ff 0x000fc800
0x2c00720c 0x00000007 0x03fa6270 0x000fe400
0x042aaa11 0x00006600 0x078c18ff 0x040fe400
0x042cba11 0x00006600 0x078218ff 0x040fe400
0x042baa11 0x00006700 0x030f1c05 0x140fe400
0x042dba11 0x00006700 0x008f1c05 0x000fcc00
0x042eca11 0x00006600 0x078c18ff 0x000fe200
0x2a08a381 0x00000000 0x001eeb00 0x00016200
0x3000720c 0x00000007 0x03f26270 0x080fe400
0x02307810 0x000000a0 0x07ffe0ff 0x000fe200
0x2c0ab381 0x00010000 0x001eeb00 0x00036200
0x042fca11 0x00006700 0x030f1c05 0x000fe400
0x3000720c 0x00000007 0x03f46270 0x000fe400
0x0430da11 0x00006600 0x078618ff 0x000fc800
0x04329a11 0x00006600 0x078c18ff 0x040fe200
0x2e0cc381 0x00020000 0x001eeb00 0x00056200
0x0431da11 0x00006700 0x018f1c05 0x100fe400
0x022a7810 0x00000100 0x07ffe0ff 0x041fe400
0x02347810 0x000000c0 0x07ffe0ff 0x000fe400
0x04339a11 0x00006700 0x030f1c05 0x000fe400
0x300ed381 0x00030000 0x001eeb00 0x00016200
0x2a00720c 0x00000007 0x03fa6270 0x000fc400
0x3400720c 0x00000007 0x03f66270 0x080fe400
0x042aaa11 0x00006600 0x078c18ff 0x000fe200
0x32109381 0x00040000 0x001eeb00 0x00076200
0x022c7810 0x00000120 0x07ffe0ff 0x042fe400
0x023e7810 0x000000e0 0x07ffe0ff 0x000fe400
0x2c00720c 0x00000007 0x03f26270 0x000fe400
0x042baa11 0x00006700 0x030f1c05 0x000fc400
0x3e00720c 0x00000007 0x03f86270 0x000fe400
0x042cba11 0x00006600 0x078c18ff 0x000fc800
0x2a20a381 0x00050000 0x001eeb00 0x00076200
0x042dba11 0x00006700 0x030f1c05 0x000fca00
0x042eca11 0x00006600 0x078418ff 0x044fe400
0x0430da11 0x00006600 0x078c18ff 0x041fe200
0x2c22b381 0x00060000 0x001eeb00 0x00076200
0x042fca11 0x00006700 0x010f1c05 0x140fe400
0x0431da11 0x00006700 0x030f1c05 0x000fcc00
0x2e24c381 0x00070000 0x001eeb00 0x00076800
0x3026d381 0x00080000 0x001eeb00 0x00076200
0x04349a11 0x00006600 0x078418ff 0x000fc800
0x04359a11 0x00006700 0x010f1c05 0x000fe400
0x02027810 0x00000140 0x07ffe0ff 0x000fcc00
0x34289381 0x00090000 0x001eeb00 0x00076200
0x0200720c 0x00000007 0x03f26270 0x000fd800
0x00001947 0x00000110 0x03800000 0x000fea00
0x042a7a11 0x00006600 0x078218ff 0x008fc800
0x042b7a11 0x00006700 0x008f1c05 0x000fd000
0x2a047381 0x000a0000 0x001eeb00 0x00016200
0x00007947 0x000000d0 0x03800000 0x000fea00
0x042a7a11 0x00006600 0x078218ff 0x000fc800
0x042b7a11 0x00006700 0x008f1c05 0x000fd000
0x2a087381 0x00000000 0x001eeb00 0x00016800
0x2a0a7381 0x00010000 0x001eeb00 0x00016800
0x2a0c7381 0x00020000 0x001eeb00 0x00016800
0x2a0e7381 0x00030000 0x001eeb00 0x00016800
0x2a107381 0x00040000 0x001eeb00 0x00016800
0x2a207381 0x00050000 0x001eeb00 0x00016800
0x2a227381 0x00060000 0x001eeb00 0x00016800
0x2a247381 0x00070000 0x001eeb00 0x00016800
0x2a267381 0x00080000 0x001eeb00 0x00016800
0x2a287381 0x00090000 0x001eeb00 0x00016800
0x2a047381 0x000a0000 0x001eeb00 0x00016400
0x00007941 0x00000000 0x03800000 0x008fea00
0x00007b1d 0x00000000 0x00000000 0x000fea00
0x15007388 0x00000008 0x00008a00 0x020fe800
0x17007388 0x0000000a 0x00008a00 0x000fe800
0x12007388 0x0000000c 0x00008a00 0x000fe800
0x19007388 0x0000000e 0x00008a00 0x000fe800
0x16007388 0x00000010 0x00008a00 0x000fe800
0x1b007388 0x00000020 0x00008a00 0x000fe800
0x18007388 0x00000022 0x00008a00 0x000fe800
0x1d007388 0x00000024 0x00008a00 0x000fe800
0x1a007388 0x00000026 0x00008a00 0x000fe800
0x1f007388 0x00000028 0x00008a00 0x000fe800
0x06007388 0xfffff804 0x00000a00 0x000fe800
0x00007b1d 0x00000000 0x00000000 0x000fea00
0x00008947 0x00000640 0x03800000 0x000fea00
0xff027424 0xfffff500 0x078e00ff 0x000fe200
0x13137984 0x00844000 0x00005800 0x000e6200
0x000b7810 0x00000200 0x07ffe0ff 0x000fc400
0x030a7624 0x00006800 0x078e0202 0x000fca00
0x0000720c 0x0000000a 0x03f06270 0x080fe400
0x3d00720c 0x0000000a 0x03f26270 0x000fd400
0x00028984 0x00000000 0x00009a00 0x000ea200
0xff058424 0x00000008 0x078e00ff 0x000fe400
0xff099424 0x00000008 0x078e00ff 0x000fe400
0x13047824 0x00000001 0x078e0200 0x002fc800
0x04048625 0x00006400 0x078e0005 0x000fd000
0x04008386 0x00000002 0x0010eb00 0x0043e200
0x00007918 0x00000000 0x00000000 0x000fca00
0x14149984 0x00844000 0x00005800 0x000ea200
0x0b00720c 0x0000000a 0x03f06270 0x000fc600
0x00069984 0x00080000 0x00009a00 0x000ef200
0xff058424 0x00000008 0x078e00ff 0x002fe400
0x3d089824 0x00000001 0x078e0214 0x004fc800
0x08089625 0x00006400 0x078e0009 0x000fd000
0x08009386 0x00000006 0x0010eb00 0x008fe200
0x00007918 0x00000000 0x00000000 0x000fca00
0x1c1c7984 0x00844000 0x00005800 0x000e6800
0x00028984 0x00100000 0x00009a00 0x000ea200
0x0b047824 0x00000001 0x078e021c 0x002fe200
0x000b7810 0x00000300 0x07ffe0ff 0x000fc600
0x04048625 0x00006400 0x078e0005 0x000fd000
0x04008386 0x00000002 0x0010eb00 0x004fe200
0x00007918 0x00000000 0x00000000 0x000fca00
0x1e1e7984 0x00844000 0x00005800 0x000e6200
0x0b00720c 0x0000000a 0x03f06270 0x000fd800
0x00068984 0x00180000 0x00009a00 0x000ea200
0xff098424 0x00000008 0x078e00ff 0x000fe400
0x0b087824 0x00000001 0x078e021e 0x002fe200
0x000b7810 0x00000400 0x07ffe0ff 0x000fc600
0x08088625 0x00006400 0x078e0009 0x000fd000
0x08008386 0x00000006 0x0010eb00 0x004fe200
0x00007918 0x00000000 0x00000000 0x000fca00
0x36367984 0x00844000 0x00005800 0x000e6200
0x0b00720c 0x0000000a 0x03f06270 0x000fd800
0x00028984 0x00200000 0x00009a00 0x000ea200
0xff058424 0x00000008 0x078e00ff 0x000fe400
0x0b047824 0x00000001 0x078e0236 0x002fe200
0x000b7810 0x00000500 0x07ffe0ff 0x000fc600
0x04048625 0x00006400 0x078e0005 0x000fd000
0x04008386 0x00000002 0x0010eb00 0x004fe200
0x00007918 0x00000000 0x00000000 0x000fca00
0x37377984 0x00844000 0x00005800 0x000e6200
0x0b00720c 0x0000000a 0x03f06270 0x000fd800
0x00068984 0x00280000 0x00009a00 0x000ea200
0xff098424 0x00000008 0x078e00ff 0x000fe400
0x0b087824 0x00000001 0x078e0237 0x002fe200
0x000b7810 0x00000600 0x07ffe0ff 0x000fc600
0x08088625 0x00006400 0x078e0009 0x000fd000
0x08008386 0x00000006 0x0010eb00 0x004fe200
0x00007918 0x00000000 0x00000000 0x000fca00
0x38387984 0x00844000 0x00005800 0x000e6200
0x0b00720c 0x0000000a 0x03f06270 0x000fd800
0x00028984 0x00300000 0x00009a00 0x000ea200
0xff058424 0x00000008 0x078e00ff 0x000fe400
0x0b047824 0x00000001 0x078e0238 0x002fe200
0x000b7810 0x00000700 0x07ffe0ff 0x000fc600
0x04048625 0x00006400 0x078e0005 0x000fd000
0x04008386 0x00000002 0x0010eb00 0x004fe200
0x00007918 0x00000000 0x00000000 0x000fca00
0x39397984 0x00844000 0x00005800 0x000e6200
0x0b00720c 0x0000000a 0x03f06270 0x000fd800
0x00068984 0x00380000 0x00009a00 0x000ea200
0xff098424 0x00000008 0x078e00ff 0x000fe400
0x0b087824 0x00000001 0x078e0239 0x002fe200
0x000b7810 0x00000800 0x07ffe0ff 0x000fc600
0x08088625 0x00006400 0x078e0009 0x000fd000
0x08008386 0x00000006 0x0010eb00 0x004fe200
0x00007918 0x00000000 0x00000000 0x000fca00
0x3a3a7984 0x00844000 0x00005800 0x000e6200
0x0b00720c 0x0000000a 0x03f06270 0x000fd800
0x00028984 0x00400000 0x00009a00 0x000ea200
0xff058424 0x00000008 0x078e00ff 0x000fe400
0x0b047824 0x00000001 0x078e023a 0x002fe200
0x000b7810 0x00000900 0x07ffe0ff 0x000fc600
0x04048625 0x00006400 0x078e0005 0x000fd000
0x04008386 0x00000002 0x0010eb00 0x004fe200
0x00007918 0x00000000 0x00000000 0x000fca00
0x3b3b7984 0x00844000 0x00005800 0x000e6200
0x0b00720c 0x0000000a 0x03f06270 0x000fd800
0x00068984 0x00480000 0x00009a00 0x000ea200
0xff098424 0x00000008 0x078e00ff 0x000fe400
0x0b087824 0x00000001 0x078e023b 0x002fe200
0x000b7810 0x00000a00 0x07ffe0ff 0x000fc600
0x08088625 0x00006400 0x078e0009 0x000fd000
0x08008386 0x00000006 0x0010eb00 0x004fe200
0x00007918 0x00000000 0x00000000 0x000fca00
0x3c3c7984 0x00844000 0x00005800 0x000e6200
0x0b00720c 0x0000000a 0x03f06270 0x000fd800
0x00028984 0x00500000 0x00009a00 0x000ea200
0xff058424 0x00000008 0x078e00ff 0x000fe400
0x0b047824 0x00000001 0x078e023c 0x002fc800
0x04048625 0x00006400 0x078e0005 0x000fd000
0x04008386 0x00000002 0x0010eb00 0x004fe200
0x00007918 0x00000000 0x00000000 0x000fca00
0x0000794d 0x00000000 0x03800000 0x000fea00
0x13137984 0x00844000 0x00005800 0x000e6200
0xff0d7424 0x00000008 0x078e00ff 0x000fc600
0x00027984 0x00000000 0x00009a00 0x000ea200
0x13047824 0x00000001 0x078e0200 0x002fc800
0x04047625 0x00006400 0x078e000d 0x000fd000
0x04007386 0x00000002 0x0010eb00 0x004fe200
0x00007918 0x00000000 0x00000000 0x000fca00
0x14147984 0x00844000 0x00005800 0x000e6800
0x00067984 0x00080000 0x00009a00 0x000ea200
0x3d087824 0x00000001 0x078e0214 0x002fc800
0x08087625 0x00006400 0x078e000d 0x000fd000
0x08007386 0x00000006 0x0010eb00 0x004fe200
0x00007918 0x00000000 0x00000000 0x000fca00
0x1c1c7984 0x00844000 0x00005800 0x000e6800
0x000a7984 0x00100000 0x00009a00 0x000ea200
0x1c0c7810 0x00000100 0x07ffe03d 0x002fca00
0x0c027625 0x00006400 0x078e000d 0x000fd000
0x02007386 0x0000000a 0x0010eb00 0x004fe200
0x00007918 0x00000000 0x00000000 0x000fca00
0x1e1e7984 0x00844000 0x00005800 0x000e6800
0x00047984 0x00180000 0x00009a00 0x000ea200
0x1e0c7810 0x00000200 0x07ffe03d 0x002fca00
0x0c067625 0x00006400 0x078e000d 0x000fd000
0x06007386 0x00000004 0x0010eb00 0x004fe200
0x00007918 0x00000000 0x00000000 0x000fca00
0x36367984 0x00844000 0x00005800 0x000e6800
0x00087984 0x00200000 0x00009a00 0x000ea200
0x360c7810 0x00000300 0x07ffe03d 0x002fca00
0x0c027625 0x00006400 0x078e000d 0x000fd000
0x02007386 0x00000008 0x0010eb00 0x004fe200
0x00007918 0x00000000 0x00000000 0x000fca00
0x37377984 0x00844000 0x00005800 0x000e6800
0x000a7984 0x00280000 0x00009a00 0x000ea200
0x370c7810 0x00000400 0x07ffe03d 0x002fca00
0x0c047625 0x00006400 0x078e000d 0x000fd000
0x04007386 0x0000000a 0x0010eb00 0x004fe200
0x00007918 0x00000000 0x00000000 0x000fca00
0x38387984 0x00844000 0x00005800 0x000e6800
0x00067984 0x00300000 0x00009a00 0x000ea200
0x380c7810 0x00000500 0x07ffe03d 0x002fca00
0x0c027625 0x00006400 0x078e000d 0x000fd000
0x02007386 0x00000006 0x0010eb00 0x004fe200
0x00007918 0x00000000 0x00000000 0x000fca00
0x39397984 0x00844000 0x00005800 0x000e6800
0x00087984 0x00380000 0x00009a00 0x000ea200
0x390c7810 0x00000600 0x07ffe03d 0x002fca00
0x0c047625 0x00006400 0x078e000d 0x000fd000
0x04007386 0x00000008 0x0010eb00 0x004fe200
0x00007918 0x00000000 0x00000000 0x000fca00
0x3a3a7984 0x00844000 0x00005800 0x000e6800
0x000a7984 0x00400000 0x00009a00 0x000ea200
0x3a0c7810 0x00000700 0x07ffe03d 0x002fca00
0x0c027625 0x00006400 0x078e000d 0x000fd000
0x02007386 0x0000000a 0x0010eb00 0x004fe200
0x00007918 0x00000000 0x00000000 0x000fca00
0x3b3b7984 0x00844000 0x00005800 0x000e6800
0x00067984 0x00480000 0x00009a00 0x000ea200
0x3b0c7810 0x00000800 0x07ffe03d 0x002fca00
0x0c047625 0x00006400 0x078e000d 0x000fd000
0x04007386 0x00000006 0x0010eb00 0x004fe200
0x00007918 0x00000000 0x00000000 0x000fca00
0x3c3c7984 0x00844000 0x00005800 0x000e6800
0x00087984 0x00500000 0x00009a00 0x000ea200
0x3c0c7810 0x00000900 0x07ffe03d 0x002fca00
0x0c027625 0x00006400 0x078e000d 0x000fd000
0x02007386 0x00000008 0x0010eb00 0x004fe200
0x00007918 0x00000000 0x00000000 0x000fca00
0x0000794d 0x00000000 0x03800000 0x000fea00
0xff217224 0x000000ff 0x078e000a 0x000fe200
0xff227807 0x00000001 0x04000000 0x000fe400
0x00207802 0x00006dd0 0x00000f00 0x000fc600
0x00007944 0x00000720 0x03c00000 0x000fea00
0xff0a7224 0x000000ff 0x078e001c 0x000fe200
0x00007947 0xffffa500 0x0383ffff 0x000fea00
0xff177224 0x000000ff 0x078e0013 0x000fe200
0x00147802 0x00006e50 0x00000f00 0x000fe200
0xff187424 0x00000001 0x078e00ff 0x000fe400
0xff197224 0x000000ff 0x078e00ff 0x000fe400
0xff1a7424 0xffffffff 0x078e00ff 0x000fc600
0x00007944 0x00000650 0x03c00000 0x000fea00
0x13157824 0x00000001 0x078e0218 0x000fe200
0x1600780c 0x00000001 0x03f05070 0x000fe200
0xff197224 0x000000ff 0x078e00ff 0x000fe200
0x00147802 0x00006ed0 0x00000f00 0x000fe200
0xff1a7424 0xffffffff 0x078e00ff 0x000fe200
0x15177207 0x00000018 0x04000000 0x000fe200
0xff187424 0x00000002 0x078e00ff 0x000fc600
0x00007944 0x000005d0 0x03c00000 0x000fea00
0x17157824 0x00000001 0x078e0218 0x000fe200
0x1600780c 0x00000001 0x03f05070 0x000fe200
0xff197224 0x000000ff 0x078e00ff 0x000fe200
0x00147802 0x00006f50 0x00000f00 0x000fe200
0xff1a7424 0xffffffff 0x078e00ff 0x000fe200
0x15177207 0x00000018 0x04000000 0x000fe200
0xff187424 0x00000004 0x078e00ff 0x000fc600
0x00007944 0x00000550 0x03c00000 0x000fea00
0x17157824 0x00000001 0x078e0218 0x000fe200
0x1600780c 0x00000001 0x03f05070 0x000fe200
0xff197224 0x000000ff 0x078e00ff 0x000fe200
0x00147802 0x00006fd0 0x00000f00 0x000fe200
0xff1a7424 0xffffffff 0x078e00ff 0x000fe200
0x15177207 0x00000018 0x04000000 0x000fe200
0xff187424 0x00000008 0x078e00ff 0x000fc600
0x00007944 0x000004d0 0x03c00000 0x000fea00
0x17177824 0x00000001 0x078e0218 0x000fe200
0x1600780c 0x00000001 0x03f05070 0x000fe200
0xff197224 0x000000ff 0x078e00ff 0x000fe200
0x00147802 0x00007050 0x00000f00 0x000fe200
0xff1a7424 0xffffffff 0x078e00ff 0x000fe200
0x17177207 0x00000018 0x04000000 0x000fe200
0xff187424 0x00000010 0x078e00ff 0x000fc600
0x00007944 0x00000450 0x03c00000 0x000fea00
0x1600780c 0x00000001 0x03f02070 0x000fe200
0x00007947 0xffffaeb0 0x0383ffff 0x000fea00
0xff227807 0x00000001 0x04000000 0x000fe200
0xff217424 0xffffffff 0x078e00ff 0x000fe200
0x00207802 0x000070b0 0x00000f00 0x000fc600
0x00007944 0x00000440 0x03c00000 0x000fea00
0xff157212 0x0000001c 0x078e33ff 0x000fe200
0xff217424 0xffffffff 0x078e00ff 0x000fe200
0x1bff7812 0x00000002 0x0784c0ff 0x000fc400
0x15157207 0x0000001c 0x04000000 0x000fe400
0xff227807 0x00000001 0x05000000 0x000fe400
0x00207802 0x00007120 0x00000f00 0x000fc600
0x00007944 0x000003d0 0x03c00000 0x000fea00
0xff177212 0x0000001c 0x078e33ff 0x080fe200
0xff217424 0xffffffff 0x078e00ff 0x000fe200
0x1bff7812 0x00000004 0x0780c0ff 0x000fe400
0x171c7207 0x0000001c 0x05000000 0x000fe400
0xff227807 0x00000001 0x04000000 0x000fc400
0x1c157212 0x00000015 0x078ec0ff 0x000fe400
0x00207802 0x000071a0 0x00000f00 0x000fc600
0x00007944 0x00000350 0x03c00000 0x000fea00
0xff177212 0x0000001c 0x078e33ff 0x080fe200
0xff217424 0xffffffff 0x078e00ff 0x000fe200
0x1bff7812 0x00000008 0x0784c0ff 0x000fe400
0x171c7207 0x0000001c 0x04000000 0x000fe400
0xff227807 0x00000001 0x05000000 0x000fe400
0x1c157212 0x00000015 0x078ec0ff 0x000fc400
0x00207802 0x00007220 0x00000f00 0x000fc600
0x00007944 0x000002d0 0x03c00000 0x000fea00
0xff177212 0x0000001c 0x078e33ff 0x080fe200
0xff217424 0xffffffff 0x078e00ff 0x000fe200
0x1bff7812 0x00000010 0x0780c0ff 0x000fe400
0x171c7207 0x0000001c 0x05000000 0x000fe400
0xff227807 0x00000001 0x04000000 0x000fe400
0x1c157212 0x00000015 0x078ec0ff 0x000fe400
0x00207802 0x000072a0 0x00000f00 0x000fc600
0x00007944 0x00000250 0x03c00000 0x000fea00
0xff177212 0x0000001c 0x078e33ff 0x000fe200
0xff217424 0xffffffff 0x078e00ff 0x000fe200
0x1bff7812 0x00000020 0x0784c0ff 0x000fc400
0x171c7207 0x0000001c 0x04000000 0x000fe400
0xff227807 0x00000001 0x05000000 0x000fe400
0x1c157212 0x00000015 0x078ec0ff 0x000fe400
0x00207802 0x00007320 0x00000f00 0x000fc600
0x00007944 0x000001d0 0x03c00000 0x000fea00
0xff177212 0x0000001c 0x078e33ff 0x080fe200
0xff217424 0xffffffff 0x078e00ff 0x000fe200
0x1bff7812 0x00000040 0x0786c0ff 0x000fe400
0x171c7207 0x0000001c 0x05000000 0x000fc400
0xff227807 0x00000001 0x05800000 0x000fe400
0x1c167212 0x00000015 0x078ec0ff 0x000fe400
0x00207802 0x000073a0 0x00000f00 0x000fc600
0x00007944 0x00000150 0x03c00000 0x000fea00
0xff157212 0x0000001c 0x078e33ff 0x080fe200
0xff217424 0xffffffff 0x078e00ff 0x000fe200
0x1bff7812 0x00000080 0x0780c0ff 0x000fe400
0x15157207 0x0000001c 0x05800000 0x000fe400
0xff227807 0x00000001 0x04000000 0x000fc400
0x15157212 0x00000016 0x078ec0ff 0x000fe400
0x00207802 0x00007420 0x00000f00 0x000fc600
0x00007944 0x000000d0 0x03c00000 0x000fea00
0xff177224 0x000000ff 0x078e001c 0x000fe200
0x00007947 0xffffb060 0x0383ffff 0x000fea00
0xff217224 0x000000ff 0x078e000a 0x000fe200
0xff227807 0x00000001 0x04000000 0x000fe400
0x00207802 0x00007480 0x00000f00 0x000fc600
0x00007944 0x00000070 0x03c00000 0x000fea00
0xff0a7224 0x000000ff 0x078e001c 0x000fe200
0x00007947 0xffffd110 0x0383ffff 0x000fea00
0x00007348 0x0000001a 0x03800000 0x000fe800
0x17187389 0x04000018 0x00000019 0x000e2200
0xff157424 0x00000000 0x078e00ff 0x000fe200
0xff167807 0x00000001 0x04000000 0x001fca00
0x14007950 0xffff8b10 0x03c3ffff 0x000fea00
0x2200780c 0x00000001 0x03f25070 0x000fe200
0x00007348 0x00000021 0x03800000 0x000ff600
0x001c7806 0x00000000 0x048e0100 0x000fc800
0x1c1c7212 0x00000021 0x078ec0ff 0x000fe200
0xff217424 0x00000000 0x078e00ff 0x000fcc00
0x20007950 0xffff8ab0 0x03c3ffff 0x000fea00
0x00007947 0xfffffff0 0x0383ffff 0x000fc000
0x00007918 0x00000000 0x00000000 0x000fc000
0x00007918 0x00000000 0x00000000 0x000fc000



.text._ZN3cub17CUB_200400_750_NS33DeviceRadixSortExclusiveSumKernelINS0_21DeviceRadixSortPolicyIiljE9Policy900EjEEvPT0_
bar = 1	reg = 24	lmem=0	smem=1184
0xff017624 0x00000a00 0x078e00ff 0x000fe400
0x00057919 0x00000000 0x00002100 0x000e2200
0xff037424 0x00000004 0x078e00ff 0x000fe200
0x00ff7355 0x00000000 0x00100000 0x000fe200
0x00007945 0x00000080 0x03800000 0x000fe200
0x00027919 0x00000000 0x00002500 0x000e6200
0x0500780c 0x000000ff 0x03f04270 0x041fe400
0x05077211 0x00000005 0x078fe8ff 0x000fe200
0x02027824 0x00000100 0x078e0205 0x002fc800
0x02027625 0x00005800 0x078e0203 0x000fca00
0x00000947 0x00000010 0x03800000 0x000fea00
0x02007381 0x00000000 0x001ee900 0x00016400
0x00007941 0x00000000 0x03800000 0x000fea00
0x0500780c 0x0000001f 0x03f24070 0x000fe200
0x07007388 0x00001000 0x00004800 0x020fe800
0x00007b1d 0x00000000 0x00000000 0x000fee00
0x00001947 0x000002f0 0x03800000 0x000fea00
0x05007824 0x00000024 0x078e02ff 0x000fd000
0x00047984 0x00001400 0x00001800 0x000fe800
0x00057984 0x00001000 0x00001800 0x000fe800
0x00067984 0x00001800 0x00001800 0x000e6800
0x00097984 0x00001c00 0x00001800 0x000fe800
0x00087984 0x00002000 0x00001800 0x000ea800
0x000b7984 0x00002400 0x00001800 0x000fe800
0x000a7984 0x00002800 0x00001800 0x000ee800
0x000d7984 0x00002c00 0x00001800 0x000f2200
0x06047210 0x00000004 0x07ffe005 0x002fc800
0x08047210 0x00000004 0x07ffe009 0x004fc800
0x0a047210 0x00000004 0x07ffe00b 0x008fc800
0x040d7210 0x0000000d 0x07ffe0ff 0x010fe200
0x00007947 0x00000272 0x03800000 0x000fee00
0x0d047989 0x04200000 0x000200ff 0x000e6400
0x0d041210 0x00000004 0x07ffe0ff 0x002fd000
0x04057989 0x04400000 0x000200ff 0x000e6400
0x04051824 0x00000001 0x078e0205 0x002fd000
0x05067989 0x04800000 0x000200ff 0x000e6400
0x05061824 0x00000001 0x078e0206 0x002fd000
0x06097989 0x05000000 0x000200ff 0x000e6400
0x06091210 0x00000009 0x07ffe0ff 0x002fd000
0x09087989 0x06000000 0x000200ff 0x0002a400
0x00047984 0x00001000 0x00001800 0x000ee200
0x08081824 0x00000001 0x078e0209 0x004fc600
0x00067984 0x00001400 0x00001800 0x000ea200
0x080d7824 0x00000001 0x078e0a0d 0x000fc600
0x000a7984 0x00001800 0x00001800 0x000f2800
0x000c7984 0x00001c00 0x00001800 0x000f6800
0x000e7984 0x00002000 0x00001800 0x000e2800
0x00107984 0x00002400 0x00001800 0x000e6800
0x00127984 0x00002800 0x00001800 0x000e6800
0x00007388 0x0000100d 0x00000800 0x0001e200
0x0d057210 0x00000004 0x07ffe0ff 0x008fca00
0x05097824 0x00000001 0x078e0206 0x006fc600
0x00007388 0x00001405 0x00000800 0x0003e200
0x090b7824 0x00000001 0x078e020a 0x010fc800
0x00007388 0x00001809 0x00000800 0x0003e200
0x0b0f7210 0x0000000c 0x07ffe0ff 0x020fc600
0x00007388 0x00001c0b 0x00000800 0x0003e400
0x0f117824 0x00000001 0x078e020e 0x001fc600
0x00007388 0x0000200f 0x00000800 0x0003e200
0x11137824 0x00000001 0x078e0210 0x000fc800
0x00007388 0x00002411 0x00000800 0x0003e200
0x13157210 0x00000012 0x07ffe0ff 0x000fc600
0x00007388 0x00002813 0x00000800 0x0003ea00
0x00007388 0x00002c15 0x00000800 0x0003e400
0x00007948 0xffffffff 0x03800000 0x000fe800
0x00007b1d 0x00000000 0x00000000 0x000fea00
0x0000094d 0x00000000 0x03800000 0x000fea00
0x07077984 0x00001000 0x00005800 0x000ea800
0x02007386 0x00000007 0x0010e900 0x004fe200
0x0000794d 0x00000000 0x03800000 0x000fea00
0xff097224 0x000000ff 0x078e000d 0x000fe200
0x000b7802 0xffffffff 0x00000f00 0x000fe200
0xff087424 0x00000001 0x078e00ff 0x000fe200
0x00047802 0x000004c0 0x00000f00 0x000fe200
0xff0a7224 0x000000ff 0x078e00ff 0x000fc600
0x00007944 0x00000220 0x03c00000 0x001fea00
0x0d057824 0x00000001 0x078e0208 0x000fe200
0x0600780c 0x00000001 0x03f25070 0x000fe200
0xff0a7224 0x000000ff 0x078e00ff 0x000fe200
0x000b7802 0xffffffff 0x00000f00 0x000fc400
0x05097207 0x00000008 0x04800000 0x000fe200
0xff087424 0x00000002 0x078e00ff 0x000fe200
0x00047802 0x00000540 0x00000f00 0x000fc600
0x00007944 0x000001a0 0x03c00000 0x000fea00
0x09057824 0x00000001 0x078e0208 0x000fe200
0x0600780c 0x00000001 0x03f25070 0x000fe200
0xff0a7224 0x000000ff 0x078e00ff 0x000fe200
0x000b7802 0xffffffff 0x00000f00 0x000fe400
0x05097207 0x00000008 0x04800000 0x000fe200
0xff087424 0x00000004 0x078e00ff 0x000fe200
0x00047802 0x000005c0 0x00000f00 0x000fc600
0x00007944 0x00000120 0x03c00000 0x000fea00
0x09057824 0x00000001 0x078e0208 0x000fe200
0x0600780c 0x00000001 0x03f25070 0x000fe200
0xff0b7424 0xffffffff 0x078e00ff 0x000fe200
0x000a7202 0x000000ff 0x00000f00 0x000fc400
0x05097207 0x00000008 0x04800000 0x000fe200
0xff087424 0x00000008 0x078e00ff 0x000fe200
0x00047802 0x00000640 0x00000f00 0x000fc600
0x00007944 0x000000a0 0x03c00000 0x000fea00
0x09097824 0x00000001 0x078e0208 0x000fe200
0x0600780c 0x00000001 0x03f25070 0x000fe200
0xff0a7224 0x000000ff 0x078e00ff 0x000fe200
0x00047802 0x000006c0 0x00000f00 0x000fe200
0xff0b7424 0xffffffff 0x078e00ff 0x000fe200
0x09097207 0x00000008 0x04800000 0x000fe400
0x00087802 0x00000010 0x00000f00 0x000fc600
0x00007944 0x00000020 0x03c00000 0x000fea00
0x0600780c 0x00000001 0x03f22070 0x000fe200
0x00007947 0xfffffba0 0x0383ffff 0x000ff400
0x00007348 0x0000000b 0x03800000 0x000fe800
0x09087389 0x04000008 0x0002000a 0x000e2200
0xff057424 0x00000000 0x078e00ff 0x000fe200
0xff067807 0x00000001 0x04800000 0x001fca00
0x04007950 0xfffff8d0 0x03c3ffff 0x000fea00
0x00007947 0xfffffff0 0x0383ffff 0x000fc000
0x00007918 0x00000000 0x00000000 0x000fc000
0x00007918 0x00000000 0x00000000 0x000fc000
0x00007918 0x00000000 0x00000000 0x000fc000
0x00007918 0x00000000 0x00000000 0x000fc000



.text._ZN3cub17CUB_200400_750_NS30DeviceRadixSortHistogramKernelINS0_21DeviceRadixSortPolicyIiljE9Policy900ELb0EijNS0_6detail21identity_decomposer_tEEEvPT2_PKT1_S7_iiT3_
bar = 1	reg = 58	lmem=0	smem=32768
0xff017624 0x00000a00 0x078e00ff 0x000fe400
0x00057ab9 0x00005c00 0x00000800 0x000fe400
0x053f7892 0x3fffffff 0x0f80c03f 0x000fe400
0x3f047899 0x0000001e 0x08011605 0x000fe400
0x05057891 0x00000001 0x0f8f103f 0x000fce00
0x04058290 0x0000003f 0x0fffe03f 0x000fcc00
0xff007c0c 0x00000005 0x0bf05270 0x000fd800
0x0000894d 0x00000000 0x03800000 0x000fea00
0xff027624 0x00005d00 0x078e00ff 0x000fe200
0x00057919 0x00000000 0x00000000 0x000e2200
0xff047a12 0x00005d00 0x078e33ff 0x000fe200
0xff037224 0x000000ff 0x078e00ff 0x000fe400
0x02027810 0x00000007 0x07ffe1ff 0x000fe200
0x00067919 0x00000000 0x00002500 0x000e6200
0x04047a10 0x00005e00 0x07ffe0ff 0x000fe400
0x02027a10 0x00005e00 0x07ffe0ff 0x000fe200
0x00007919 0x00000000 0x00002100 0x000ea200
0x04137811 0x00000001 0x078fe8ff 0x000fc400
0xff097819 0x0000001f 0x00011402 0x000fe400
0x130e7812 0x00000003 0x078ec0ff 0x000fe400
0x090b7211 0x00000002 0x078f18ff 0x000fc600
0x13107824 0x00000001 0x078e0a0e 0x000fe200
0xff117819 0x00000003 0x0001140b 0x000fc800
0x110c7812 0x00000003 0x078ec0ff 0x040fe400
0x11347810 0xffffffff 0x07ffe0ff 0x000fe400
0x05057812 0x00000007 0x078ec0ff 0x001fe200
0x06067824 0x00000800 0x078e00ff 0x002fe400
0x11117824 0x00000001 0x078e0a0c 0x000fe200
0x00077810 0x00000100 0x07ffe0ff 0x044fe400
0x00087810 0x00000200 0x07ffe0ff 0x000fc400
0x00097810 0x00000300 0x07ffe0ff 0x040fe400
0x000a7810 0x00000400 0x07ffe0ff 0x040fe400
0x000f7810 0x00000500 0x07ffe0ff 0x040fe400
0x000d7810 0x00000600 0x07ffe0ff 0x040fe400
0x000b7810 0x00000700 0x07ffe0ff 0x000fe400
0x0200780c 0x00000007 0x03f04270 0x000fe200
0x00ff7355 0x00000000 0x00100000 0x000fe200
0x00007945 0x00000270 0x03800000 0x000fe400
0x0000780c 0x00000100 0x00701270 0x000fd800
0x00008947 0x00000240 0x03800000 0x001fea00
0xff127224 0x000000ff 0x078e0000 0x000fe400
0x3400780c 0x00000003 0x03f26070 0x000fe200
0xff137224 0x000000ff 0x078e00ff 0x003fe200
0x0c00720c 0x000000ff 0x03f45270 0x000fd400
0x00009947 0x00000100 0x03800000 0x000fea00
0x12147811 0x00004000 0x078e28ff 0x000fe200
0xff137224 0x000000ff 0x078e00ff 0x000fe400
0xff157224 0x000000ff 0x078e0011 0x000fca00
0x15157810 0xfffffffc 0x07ffe0ff 0x000fe200
0x14007388 0xffc000ff 0x00000c00 0x000fe200
0x13137810 0x00000004 0x07ffe0ff 0x000fe400
0x1500720c 0x000000ff 0x03f25270 0x000fe200
0x14007388 0xffc010ff 0x00000c00 0x000fe800
0x14007388 0xffe000ff 0x00000c00 0x000fe800
0x14007388 0xffe010ff 0x00000c00 0x000fe800
0x14007388 0x000000ff 0x00000c00 0x000fe800
0x14007388 0x000010ff 0x00000c00 0x000fe800
0x14007388 0x002000ff 0x00000c00 0x000fe800
0x14007388 0x002010ff 0x00000c00 0x0001e400
0x14147810 0x00008000 0x07ffe0ff 0x001fe200
0x00001947 0xffffff30 0x0383ffff 0x000fec00
0x0000a947 0x000000b0 0x03800000 0x000fea00
0x13137824 0x00000100 0x078e0212 0x000fe200
0x0c00780c 0x00000001 0x03f25270 0x000fc600
0x13137824 0x00000020 0x078e00ff 0x000fd000
0x13007388 0x000000ff 0x00000c00 0x0001e800
0x13007388 0x000010ff 0x00000c00 0x0001e200
0x00009947 0x00000050 0x03800000 0x000fea00
0x0c00780c 0x00000002 0x03f25270 0x000fe200
0x13007388 0x002000ff 0x00000c00 0x0003e800
0x13007388 0x002010ff 0x00000c00 0x0003ee00
0x13001388 0x004000ff 0x00000c00 0x0003e800
0x13001388 0x004010ff 0x00000c00 0x0003e400
0x1200720c 0x000000ff 0x03f26270 0x040fe400
0x12127810 0x00000100 0x07ffe0ff 0x000fd400
0x00009947 0xfffffdd0 0x0383ffff 0x000fea00
0x00007941 0x00000000 0x03800000 0x000fea00
0xff127624 0x00005c00 0x078e00ff 0x000fe200
0x00007b1d 0x00000000 0x00000000 0x000fea00
0xff147624 0x00005d00 0x078e00ff 0x000fe200
0x00007b1d 0x00000000 0x00000000 0x000fea00
0x03137824 0xc0000000 0x078e0212 0x003fe200
0x14007a0c 0x00005e00 0x03f26270 0x000fc800
0x13137817 0x40000000 0x03800000 0x000fc800
0x0600720c 0x00000013 0x00f26470 0x000fd800
0x00001947 0x000019b0 0x03800000 0x000fea00
0xff127224 0x000000ff 0x078e0006 0x000fc800
0x03157824 0x40000000 0x078e0212 0x100fe200
0x00ff7355 0x00000000 0x00100000 0x000fe200
0xff177624 0x00000300 0x078e00ff 0x000fe200
0x00007945 0x000002c0 0x03800000 0x000fe400
0x151e7a10 0x00005c00 0x07ffe1ff 0x001fe200
0x17127824 0x00000800 0x078e0212 0x000fe200
0x15167210 0x00000000 0x07f3e0ff 0x000fe400
0x1e00780c 0x000007ff 0x03f44070 0x000fe400
0x00157211 0x000000ff 0x008f0eff 0x000fc400
0x16147a11 0x00005a00 0x078610ff 0x000fe400
0x1200720c 0x00000013 0x03f26070 0x000fe400
0x16157a11 0x00005b00 0x018f1415 0x000fc800
0x00002947 0x000001a0 0x03800000 0x000fea00
0x0000720c 0x0000001e 0x03fc6270 0x080fe200
0xff167424 0x7fffffff 0x078e00ff 0x000fe200
0x0800720c 0x0000001e 0x03f66270 0x080fe200
0xff177424 0x7fffffff 0x078e00ff 0x000fe200
0x0900720c 0x0000001e 0x03f86270 0x080fe400
0x0a00720c 0x0000001e 0x03fa6270 0x080fe200
0xff187424 0x7fffffff 0x078e00ff 0x000fe200
0x0700720c 0x0000001e 0x03f46270 0x000fc800
0x1416e381 0x00000000 0x001ee900 0x00016200
0x0f00720c 0x0000001e 0x03fc6270 0x000fe200
0xff197424 0x7fffffff 0x078e00ff 0x000fe400
0xff1a7424 0x7fffffff 0x078e00ff 0x000fe200
0x1418b381 0x00080000 0x001ee900 0x00016200
0xff1b7424 0x7fffffff 0x078e00ff 0x000fc600
0x1417a381 0x00040000 0x001ee900 0x00016200
0x0d00720c 0x0000001e 0x03f46270 0x080fe200
0xff1c7424 0x7fffffff 0x078e00ff 0x000fe400
0x1419c381 0x000c0000 0x001ee900 0x00016800
0x141ad381 0x00100000 0x001ee900 0x00016800
0x141be381 0x00140000 0x001ee900 0x00016800
0x141ca381 0x00180000 0x001ee900 0x00016200
0x0b00720c 0x0000001e 0x03f46270 0x000fe200
0xff1d7424 0x7fffffff 0x078e00ff 0x000fd600
0x00002947 0x000000a0 0x03800000 0x000fea00
0x141d7381 0x001c0000 0x001ee900 0x00116200
0x00007947 0x00000080 0x03800000 0x000fea00
0x14167381 0x00000000 0x001ee900 0x00016800
0x14177381 0x00040000 0x001ee900 0x00016800
0x14187381 0x00080000 0x001ee900 0x00016800
0x14197381 0x000c0000 0x001ee900 0x00016800
0x141a7381 0x00100000 0x001ee900 0x00016800
0x141b7381 0x00140000 0x001ee900 0x00016800
0x141c7381 0x00180000 0x001ee900 0x00016800
0x141d7381 0x001c0000 0x001ee900 0x00016400
0x00007941 0x00000000 0x03800000 0x001fea00
0x0400780c 0x00000018 0x03f46070 0x000fe200
0x00047c82 0x0000003f 0x08000000 0x000fe200
0x16147812 0x80000000 0x078e3cff 0x020fe200
0x00067ab9 0x00005d00 0x00000800 0x000fe200
0x17157812 0x80000000 0x078e3cff 0x000fc400
0x18167812 0x80000000 0x078e3cff 0x000fe400
0x19177812 0x80000000 0x078e3cff 0x000fe400
0x1a187812 0x80000000 0x078e3cff 0x000fe400
0x1b197812 0x80000000 0x078e3cff 0x000fe400
0x0e00720c 0x000000ff 0x03f65270 0x000fe400
0x1c1a7812 0x80000000 0x078e3cff 0x000fc400
0x1d1b7812 0x80000000 0x078e3cff 0x000fe200
0x0000a947 0x00000c60 0x03800000 0x000fee00
0xff1c7224 0x000000ff 0x078e0010 0x000fe200
0x00047c82 0x0000003f 0x08000000 0x000fe400
0x00067ab9 0x00005d00 0x00000800 0x000fe400
0x000b7ab9 0x00005e00 0x00000800 0x000fe200
0xff1e7c19 0x00000006 0x08011614 0x001fe200
0x06087290 0x0000000b 0x0fffe13f 0x000fe200
0xff1f7c19 0x00000006 0x08011615 0x000fe200
0x000a7882 0xffffffff 0x00000000 0x000fe200
0xff207c19 0x00000006 0x08011616 0x000fe200
0x0a077299 0x00000008 0x0800063f 0x000fe200
0xff227c19 0x00000006 0x08011617 0x000fe200
0x0800788c 0x00000008 0x0bf06270 0x000fe200
0xff1d7424 0x00000001 0x078e00ff 0x000fe200
0x3f077292 0x00000007 0x0f8e333f 0x000fe200
0x1c1c7810 0xfffffffc 0x07ffe0ff 0x000fe200
0x04087899 0x0000000d 0x0800063f 0x000fc400
0x07077887 0x000000ff 0x0c000000 0x000fe200
0x1c00720c 0x000000ff 0x03f45270 0x000fe200
0x060c7890 0x00000008 0x0fffe03f 0x000fe400
0x060e7890 0x00000010 0x0fffe03f 0x000fe400
0x1e1e7c12 0x00000007 0x0f8ec0ff 0x000fe200
0x0c0d7290 0x0000000b 0x0fffe13f 0x000fe200
0x1f1f7c12 0x00000007 0x0f8ec0ff 0x000fe200
0x0e0f7290 0x0000000b 0x0fffe13f 0x000fe200
0x20217c12 0x00000007 0x0f8ec0ff 0x000fe200
0x0a097299 0x0000000d 0x0800063f 0x000fe200
0x1e1e7c11 0x00000008 0x0f8e28ff 0x000fe200
0x0d00788c 0x00000008 0x0bf06270 0x000fe200
0x22237c12 0x00000007 0x0f8ec0ff 0x000fe200
0x3f097292 0x00000009 0x0f8e333f 0x000fe200
0x1f207c11 0x00000008 0x0f8e28ff 0x000fe200
0x051e7824 0x00000004 0x078e021e 0x000fe200
0x21227c11 0x00000008 0x0f8e28ff 0x000fe200
0x09097887 0x000000ff 0x0c000000 0x000fe200
0x23247c11 0x00000008 0x0f8e28ff 0x000fe200
0x05207824 0x00000004 0x078e0220 0x040fe200
0xff1f7c19 0x00000006 0x08011618 0x000fe200
0x05227824 0x00000004 0x078e0222 0x040fe200
0xff217c19 0x00000006 0x08011619 0x000fe200
0x05247824 0x00000004 0x078e0224 0x000fe200
0x1eff738c 0x0000001d 0x000000ff 0x0001e200
0x1f1f7c12 0x00000007 0x0f8ec0ff 0x000fe200
0x080d7890 0x00002000 0x0fffe03f 0x000fe200
0xff237c19 0x00000006 0x0801161a 0x000fe200
0x20ff738c 0x0000001d 0x000000ff 0x0003e200
0x21217c12 0x00000007 0x0f8ec0ff 0x000fe200
0x0f00788c 0x00000008 0x0bf06270 0x000fe200
0x23237c12 0x00000007 0x0f8ec0ff 0x000fe200
0x22ff738c 0x0000001d 0x000000ff 0x0005e200
0xff1e7c19 0x00000006 0x0801161b 0x001fe200
0x08107890 0x00004000 0x0fffe03f 0x000fe200
0xff267c19 0x0000000c 0x08011616 0x000fe200
0x24ff738c 0x0000001d 0x000000ff 0x0001e200
0xff207c19 0x0000000c 0x08011614 0x002fe200
0x04047890 0x00000004 0x0fffe03f 0x000fe200
0x26297c12 0x00000009 0x0f8ec0ff 0x000fc400
0xff227c19 0x0000000c 0x08011615 0x004fe400
0x20257c12 0x00000009 0x0f8ec0ff 0x000fe400
0x1e247c12 0x00000007 0x0f8ec0ff 0x001fe200
0x0a077299 0x0000000f 0x0800063f 0x000fe200
0x1f1e7c11 0x00000008 0x0f8e28ff 0x000fe400
0x21207c11 0x00000008 0x0f8e28ff 0x000fe200
0x3f077292 0x00000007 0x0f8e333f 0x000fe200
0x22277c12 0x00000009 0x0f8ec0ff 0x000fe200
0x051e7824 0x00000004 0x078e021e 0x000fe200
0x23227c11 0x00000008 0x0f8e28ff 0x000fe200
0x05207824 0x00000004 0x078e0220 0x040fe200
0x24247c11 0x00000008 0x0f8e28ff 0x000fe200
0x07077887 0x000000ff 0x0c000000 0x000fe200
0xff1f7c19 0x0000000c 0x08011618 0x000fe200
0x05227824 0x00000004 0x078e0222 0x000fe200
0x25267c11 0x0000000d 0x0f8e28ff 0x000fe200
0x1eff738c 0x0000001d 0x000000ff 0x0001e200
0x27287c11 0x0000000d 0x0f8e28ff 0x000fe200
0x05247824 0x00000004 0x078e0224 0x000fe200
0x292a7c11 0x0000000d 0x0f8e28ff 0x000fe200
0x20ff738c 0x0000001d 0x000000ff 0x0003e200
0x1f1f7c12 0x00000009 0x0f8ec0ff 0x000fe200
0x05267824 0x00000004 0x078e0226 0x000fc400
0x22ff738c 0x0000001d 0x000000ff 0x0005e200
0xff1e7c19 0x0000000c 0x08011617 0x001fe200
0x05287824 0x00000004 0x078e0228 0x040fe400
0x052a7824 0x00000004 0x078e022a 0x000fe200
0xff207c19 0x0000000c 0x08011619 0x002fe200
0x24ff738c 0x0000001d 0x000000ff 0x0001e200
0x1e1e7c12 0x00000009 0x0f8ec0ff 0x000fe400
0xff227c19 0x0000000c 0x0801161a 0x004fe200
0x26ff738c 0x0000001d 0x000000ff 0x0003e200
0x20217c12 0x00000009 0x0f8ec0ff 0x000fc400
0x1e1e7c11 0x0000000d 0x0f8e28ff 0x000fe200
0x28ff738c 0x0000001d 0x000000ff 0x0005e200
0x1f207c11 0x0000000d 0x0f8e28ff 0x000fe400
0x22237c12 0x00000009 0x0f8ec0ff 0x000fe200
0x051e7824 0x00000004 0x078e021e 0x000fe200
0x21227c11 0x0000000d 0x0f8e28ff 0x000fe200
0x05207824 0x00000004 0x078e0220 0x040fe200
0xff247c19 0x0000000c 0x0801161b 0x001fe200
0x2aff738c 0x0000001d 0x000000ff 0x0001e200
0xff267c19 0x0000000e 0x08011614 0x002fe200
0x05227824 0x00000004 0x078e0222 0x000fe200
0xff287c19 0x0000000e 0x08011615 0x004fe200
0x1eff738c 0x0000001d 0x000000ff 0x0003e200
0xff1f7c19 0x0000000e 0x08011617 0x000fe200
0x060c7890 0x00000018 0x0fffe03f 0x000fe200
0x24257c12 0x00000009 0x0f8ec0ff 0x000fe200
0x20ff738c 0x0000001d 0x000000ff 0x0005e200
0xff2a7c19 0x0000000e 0x08011616 0x001fe200
0x08097890 0x00006000 0x0fffe03f 0x000fe200
0x23247c11 0x0000000d 0x0f8e28ff 0x000fe200
0x22ff738c 0x0000001d 0x000000ff 0x0001e200
0x26277c12 0x00000007 0x0f8ec0ff 0x000fe200
0x06067890 0x00000020 0x0fffe03f 0x000fe200
0xff1e7c19 0x0000000e 0x08011619 0x002fe200
0x05247824 0x00000004 0x078e0224 0x000fe200
0x28297c12 0x00000007 0x0f8ec0ff 0x000fc400
0x1f1f7c12 0x00000007 0x0f8ec0ff 0x000fe400
0x2a2b7c12 0x00000007 0x0f8ec0ff 0x000fe400
0xff217c19 0x0000000e 0x08011618 0x000fe200
0x24ff738c 0x0000001d 0x000000ff 0x0003e200
0xff207c19 0x0000000e 0x0801161a 0x004fe400
0xff237c19 0x0000000e 0x0801161b 0x000fe400
0x25267c11 0x0000000d 0x0f8e28ff 0x000fc400
0x27287c11 0x00000010 0x0f8e28ff 0x000fe400
0x1e227c12 0x00000007 0x0f8ec0ff 0x001fe200
0x05267824 0x00000004 0x078e0226 0x000fe200
0x292a7c11 0x00000010 0x0f8e28ff 0x000fe200
0x05287824 0x00000004 0x078e0228 0x000fe200
0x1f1e7c11 0x00000010 0x0f8e28ff 0x000fe400
0x2b2c7c11 0x00000010 0x0f8e28ff 0x000fe200
0x052a7824 0x00000004 0x078e022a 0x000fe200
0x21217c12 0x00000007 0x0f8ec0ff 0x000fe200
0x051e7824 0x00000004 0x078e021e 0x040fe200
0x201f7c12 0x00000007 0x0f8ec0ff 0x000fe200
0x052c7824 0x00000004 0x078e022c 0x000fe200
0x23237c12 0x00000007 0x0f8ec0ff 0x000fe200
0x0c077290 0x0000000b 0x0fffe13f 0x000fe200
0x21207c11 0x00000010 0x0f8e28ff 0x000fe200
0x26ff738c 0x0000001d 0x000000ff 0x0001e200
0x22227c11 0x00000010 0x0f8e28ff 0x000fe200
0x0a087299 0x00000007 0x0800063f 0x000fe200
0x1f247c11 0x00000010 0x0f8e28ff 0x002fe200
0x05207824 0x00000004 0x078e0220 0x040fe200
0x0700788c 0x00000008 0x0bf06270 0x000fe200
0x05227824 0x00000004 0x078e0222 0x040fe200
0x3f087292 0x00000008 0x0f8e333f 0x000fe200
0x28ff738c 0x0000001d 0x000000ff 0x0003e200
0x05247824 0x00000004 0x078e0224 0x000fe200
0x23267c11 0x00000010 0x0f8e28ff 0x001fe200
0x08087887 0x000000ff 0x0c000000 0x000fe200
0x2aff738c 0x0000001d 0x000000ff 0x000fe200
0xff1f7c19 0x0000000c 0x08011615 0x000fc400
0xff217c19 0x0000000c 0x08011616 0x000fe200
0x2cff738c 0x0000001d 0x000000ff 0x000fe200
0x05267824 0x00000004 0x078e0226 0x000fe200
0xff277c19 0x0000000c 0x08011619 0x000fe400
0x1eff738c 0x0000001d 0x000000ff 0x0001e200
0x1f1f7c12 0x00000008 0x0f8ec0ff 0x000fe400
0x21217c12 0x00000008 0x0f8ec0ff 0x000fe200
0x20ff738c 0x0000001d 0x000000ff 0x0005e200
0xff287c19 0x0000000c 0x0801161b 0x002fc400
0x27277c12 0x00000008 0x0f8ec0ff 0x000fe200
0x22ff738c 0x0000001d 0x000000ff 0x0003e200
0xff1e7c19 0x0000000c 0x08011614 0x001fe400
0x282b7c12 0x00000008 0x0f8ec0ff 0x000fe200
0x24ff738c 0x0000001d 0x000000ff 0x0001e200
0xff207c19 0x0000000c 0x08011617 0x004fe400
0x1e1e7c12 0x00000008 0x0f8ec0ff 0x000fe200
0x26ff738c 0x0000001d 0x000000ff 0x0005e200
0xff227c19 0x0000000c 0x08011618 0x002fc400
0x20237c12 0x00000008 0x0f8ec0ff 0x000fe400
0xff247c19 0x0000000c 0x0801161a 0x001fe400
0x22257c12 0x00000008 0x0f8ec0ff 0x000fe400
0x1e1e7c11 0x00000009 0x0f8e28ff 0x000fe400
0x1f207c11 0x00000009 0x0f8e28ff 0x000fe400
0x24297c12 0x00000008 0x0f8ec0ff 0x000fe200
0x051e7824 0x00000004 0x078e021e 0x000fe200
0x21227c11 0x00000009 0x0f8e28ff 0x000fe200
0x05207824 0x00000004 0x078e0220 0x000fe200
0x23247c11 0x00000009 0x0f8e28ff 0x000fc400
0x25267c11 0x00000009 0x0f8e28ff 0x004fe200
0x05227824 0x00000004 0x078e0222 0x000fe200
0x27287c11 0x00000009 0x0f8e28ff 0x000fe200
0x05247824 0x00000004 0x078e0224 0x000fe200
0x292a7c11 0x00000009 0x0f8e28ff 0x000fe200
0x05267824 0x00000004 0x078e0226 0x000fe200
0x2b2c7c11 0x00000009 0x0f8e28ff 0x000fe200
0x05287824 0x00000004 0x078e0228 0x040fe200
0x1eff738c 0x0000001d 0x000000ff 0x0001e200
0x052a7824 0x00000004 0x078e022a 0x040fe400
0x052c7824 0x00000004 0x078e022c 0x000fe200
0x20ff738c 0x0000001d 0x000000ff 0x0001e800
0x22ff738c 0x0000001d 0x000000ff 0x0001e800
0x24ff738c 0x0000001d 0x000000ff 0x0001e800
0x26ff738c 0x0000001d 0x000000ff 0x0001e800
0x28ff738c 0x0000001d 0x000000ff 0x0001e800
0x2aff738c 0x0000001d 0x000000ff 0x0001e800
0x2cff738c 0x0000001d 0x000000ff 0x0001e200
0x00002947 0xfffff3d0 0x0383ffff 0x000fea00
0x0000b947 0x00000950 0x03800000 0x000fea00
0x00077ab9 0x00005e00 0x00000800 0x000fe200
0xff1c7c19 0x00000006 0x08011614 0x000fe200
0x06077290 0x00000007 0x0fffe13f 0x000fe200
0xff1d7c19 0x00000006 0x08011615 0x001fe200
0x00097882 0xffffffff 0x00000000 0x000fe200
0xff1e7c19 0x00000006 0x08011616 0x000fe200
0x04087899 0x0000000d 0x0800063f 0x000fe200
0xff207c19 0x00000006 0x08011617 0x000fe200
0x09047299 0x00000007 0x0800063f 0x000fe200
0xff227c19 0x00000006 0x08011618 0x000fe200
0x0700788c 0x00000008 0x0bf06270 0x000fe200
0xff247c19 0x00000006 0x08011619 0x000fe200
0x3f047292 0x00000004 0x0f8e333f 0x000fe200
0xff267c19 0x00000006 0x0801161a 0x000fe200
0xff2b7424 0x00000001 0x078e00ff 0x000fe200
0xff287c19 0x00000006 0x0801161b 0x000fe200
0x04047887 0x000000ff 0x0c000000 0x000fe200
0x0e00780c 0x00000001 0x03f45270 0x000fca00
0x1c1c7c12 0x00000004 0x0f8ec0ff 0x000fe400
0x1d1d7c12 0x00000004 0x0f8ec0ff 0x000fe400
0x1e1f7c12 0x00000004 0x0f8ec0ff 0x000fe400
0x20217c12 0x00000004 0x0f8ec0ff 0x000fe400
0x22237c12 0x00000004 0x0f8ec0ff 0x000fe400
0x1c1c7c11 0x00000008 0x0f8e28ff 0x000fc400
0x24257c12 0x00000004 0x0f8ec0ff 0x000fe400
0x1d1e7c11 0x00000008 0x0f8e28ff 0x000fe200
0x051c7824 0x00000004 0x078e021c 0x000fe200
0x26277c12 0x00000004 0x0f8ec0ff 0x000fe400
0x1f207c11 0x00000008 0x0f8e28ff 0x000fe200
0x051e7824 0x00000004 0x078e021e 0x000fe200
0x28297c12 0x00000004 0x0f8ec0ff 0x000fe400
0x21227c11 0x00000008 0x0f8e28ff 0x000fe200
0x05207824 0x00000004 0x078e0220 0x000fe200
0x23247c11 0x00000008 0x0f8e28ff 0x000fe200
0x1cff738c 0x0000002b 0x000000ff 0x0001e200
0x25267c11 0x00000008 0x0f8e28ff 0x000fe200
0x05227824 0x00000004 0x078e0222 0x000fe200
0x27287c11 0x00000008 0x0f8e28ff 0x000fe200
0x05247824 0x00000004 0x078e0224 0x000fe200
0x292a7c11 0x00000008 0x0f8e28ff 0x000fe200
0x05267824 0x00000004 0x078e0226 0x040fe200
0x1eff738c 0x0000002b 0x000000ff 0x0001e200
0x05287824 0x00000004 0x078e0228 0x000fc400
0x052a7824 0x00000004 0x078e022a 0x000fe200
0x20ff738c 0x0000002b 0x000000ff 0x0001e800
0x22ff738c 0x0000002b 0x000000ff 0x0001e800
0x24ff738c 0x0000002b 0x000000ff 0x0001e800
0x26ff738c 0x0000002b 0x000000ff 0x0001e800
0x28ff738c 0x0000002b 0x000000ff 0x0001e800
0x2aff738c 0x0000002b 0x000000ff 0x0001e200
0x0000a947 0x00000620 0x03800000 0x000fea00
0x060a7890 0x00000008 0x0fffe03f 0x000fe200
0x0e00780c 0x00000002 0x03f45270 0x000fe200
0x00047ab9 0x00005e00 0x00000800 0x000fc400
0x0a047290 0x00000004 0x0fffe13f 0x000fe400
0xff1c7c19 0x0000000a 0x08011614 0x001fe200
0x080b7890 0x00002000 0x0fffe03f 0x000fe200
0xff1d7c19 0x0000000a 0x08011615 0x000fe200
0x09077299 0x00000004 0x0800063f 0x000fe200
0xff1e7c19 0x0000000a 0x08011616 0x000fe200
0x0400788c 0x00000008 0x0bf06270 0x000fe200
0xff207c19 0x0000000a 0x08011617 0x000fe200
0x3f077292 0x00000007 0x0f8e333f 0x000fe200
0xff227c19 0x0000000a 0x08011618 0x000fc400
0xff247c19 0x0000000a 0x08011619 0x000fe200
0x07077887 0x000000ff 0x0c000000 0x000fe200
0xff267c19 0x0000000a 0x0801161a 0x000fe400
0xff287c19 0x0000000a 0x0801161b 0x000fc600
0x1c1c7c12 0x00000007 0x0f8ec0ff 0x000fe400
0x1d1d7c12 0x00000007 0x0f8ec0ff 0x000fe400
0x1e1f7c12 0x00000007 0x0f8ec0ff 0x000fe400
0x20217c12 0x00000007 0x0f8ec0ff 0x000fe400
0x22237c12 0x00000007 0x0f8ec0ff 0x000fe400
0x1c1c7c11 0x0000000b 0x0f8e28ff 0x000fc400
0x24257c12 0x00000007 0x0f8ec0ff 0x000fe400
0x1d1e7c11 0x0000000b 0x0f8e28ff 0x000fe200
0x051c7824 0x00000004 0x078e021c 0x000fe200
0x26277c12 0x00000007 0x0f8ec0ff 0x000fe400
0x1f207c11 0x0000000b 0x0f8e28ff 0x000fe200
0x051e7824 0x00000004 0x078e021e 0x000fe200
0x28297c12 0x00000007 0x0f8ec0ff 0x000fe400
0x21227c11 0x0000000b 0x0f8e28ff 0x000fe200
0x05207824 0x00000004 0x078e0220 0x000fe200
0x23247c11 0x0000000b 0x0f8e28ff 0x000fe200
0x1cff738c 0x0000002b 0x000000ff 0x0001e200
0x25267c11 0x0000000b 0x0f8e28ff 0x000fe200
0x05227824 0x00000004 0x078e0222 0x000fe200
0x27287c11 0x0000000b 0x0f8e28ff 0x000fe200
0x05247824 0x00000004 0x078e0224 0x000fe200
0x292a7c11 0x0000000b 0x0f8e28ff 0x000fe200
0x05267824 0x00000004 0x078e0226 0x040fe200
0x1eff738c 0x0000002b 0x000000ff 0x0001e200
0x05287824 0x00000004 0x078e0228 0x000fc400
0x052a7824 0x00000004 0x078e022a 0x000fe200
0x20ff738c 0x0000002b 0x000000ff 0x0001e800
0x22ff738c 0x0000002b 0x000000ff 0x0001e800
0x24ff738c 0x0000002b 0x000000ff 0x0001e800
0x26ff738c 0x0000002b 0x000000ff 0x0001e800
0x28ff738c 0x0000002b 0x000000ff 0x0001e800
0x2aff738c 0x0000002b 0x000000ff 0x0001e200
0x0000a947 0x00000300 0x03800000 0x000fea00
0x06067890 0x00000010 0x0fffe03f 0x000fe400
0x00047ab9 0x00005e00 0x00000800 0x000fc400
0x06047290 0x00000004 0x0fffe13f 0x000fe400
0xff147c19 0x00000006 0x08011614 0x000fe200
0x08087890 0x00004000 0x0fffe03f 0x000fe200
0xff157c19 0x00000006 0x08011615 0x000fe200
0x09077299 0x00000004 0x0800063f 0x000fe200
0xff167c19 0x00000006 0x08011616 0x000fe200
0x0400788c 0x00000008 0x0bf06270 0x000fe200
0xff1c7c19 0x00000006 0x08011617 0x001fe200
0x3f077292 0x00000007 0x0f8e333f 0x000fe200
0xff187c19 0x00000006 0x08011618 0x000fc400
0xff1d7c19 0x00000006 0x08011619 0x000fe200
0x07077887 0x000000ff 0x0c000000 0x000fe200
0xff1a7c19 0x00000006 0x0801161a 0x000fe400
0xff1e7c19 0x00000006 0x0801161b 0x000fc600
0x14147c12 0x00000007 0x0f8ec0ff 0x000fe400
0x15157c12 0x00000007 0x0f8ec0ff 0x000fe400
0x16177c12 0x00000007 0x0f8ec0ff 0x000fe400
0x1c1c7c12 0x00000007 0x0f8ec0ff 0x000fe400
0x18197c12 0x00000007 0x0f8ec0ff 0x000fe400
0x14147c11 0x00000008 0x0f8e28ff 0x000fc400
0x1d1d7c12 0x00000007 0x0f8ec0ff 0x000fe400
0x15167c11 0x00000008 0x0f8e28ff 0x000fe200
0x05147824 0x00000004 0x078e0214 0x000fe200
0x1a1b7c12 0x00000007 0x0f8ec0ff 0x000fe400
0x17187c11 0x00000008 0x0f8e28ff 0x000fe200
0x05167824 0x00000004 0x078e0216 0x040fe200
0x1e1f7c12 0x00000007 0x0f8ec0ff 0x000fe400
0x1c1c7c11 0x00000008 0x0f8e28ff 0x000fe200
0x05187824 0x00000004 0x078e0218 0x000fe200
0x191a7c11 0x00000008 0x0f8e28ff 0x000fe200
0x14ff738c 0x0000002b 0x000000ff 0x0001e200
0x1d1e7c11 0x00000008 0x0f8e28ff 0x000fe200
0x051c7824 0x00000004 0x078e021c 0x000fe200
0x1b207c11 0x00000008 0x0f8e28ff 0x000fe200
0x051a7824 0x00000004 0x078e021a 0x000fe200
0x1f227c11 0x00000008 0x0f8e28ff 0x000fe200
0x051e7824 0x00000004 0x078e021e 0x040fe200
0x16ff738c 0x0000002b 0x000000ff 0x0001e200
0x05207824 0x00000004 0x078e0220 0x000fc400
0x05227824 0x00000004 0x078e0222 0x000fe200
0x18ff738c 0x0000002b 0x000000ff 0x0001e800
0x1cff738c 0x0000002b 0x000000ff 0x0001e800
0x1aff738c 0x0000002b 0x000000ff 0x0001e800
0x1eff738c 0x0000002b 0x000000ff 0x0001e800
0x20ff738c 0x0000002b 0x000000ff 0x0001e800
0x22ff738c 0x0000002b 0x000000ff 0x0001e400
0x00009947 0xffffe660 0x0383ffff 0x000fea00
0x00007b1d 0x00000000 0x00000000 0x000fea00
0x00008947 0x000008a0 0x03800000 0x000fea00
0xff127224 0x000000ff 0x078e0000 0x000fe400
0x3400780c 0x00000003 0x03f06070 0x000fe200
0xff137224 0x000000ff 0x078e00ff 0x000fd600
0x00008947 0x00000490 0x03800000 0x000fea00
0xff137224 0x000000ff 0x078e00ff 0x000fe400
0xff357224 0x000000ff 0x078e0011 0x000fc800
0x13367824 0x00000100 0x078e0212 0x000fe200
0x35357810 0xfffffffc 0x07ffe0ff 0x000fe200
0x00ff7355 0x00000000 0x00100000 0x000fe200
0x00007945 0x00000230 0x03800000 0x000fe200
0x36377824 0x00000020 0x078e00ff 0x000fe200
0x3500720c 0x000000ff 0x03f85270 0x000fce00
0x37307984 0x00000000 0x00001c00 0x000e7000
0x37207984 0x00001000 0x00001c00 0x001e3000
0x372c7984 0x00200000 0x00001c00 0x000eb000
0x37287984 0x00400000 0x00001c00 0x000ef000
0x37247984 0x00600000 0x00001c00 0x000f3000
0x371c7984 0x00201000 0x00001c00 0x000f6200
0x32307210 0x00000031 0x07ffe030 0x002fce00
0x37187984 0x00401000 0x00001c00 0x000e6200
0x20207210 0x00000033 0x07ffe030 0x001fc800
0x22207210 0x00000021 0x07ffe020 0x000fc600
0x37147984 0x00601000 0x00001c00 0x000e2200
0x2e2c7210 0x0000002d 0x07ffe02c 0x004fe200
0x20237824 0x00000001 0x078e0223 0x000fca00
0x2300720c 0x000000ff 0x03f05270 0x000fe400
0x2a287210 0x00000029 0x07ffe028 0x008fe400
0x26247210 0x00000025 0x07ffe024 0x010fe400
0x1c1c7210 0x0000002f 0x07ffe02c 0x020fc800
0x1e1c7210 0x0000001d 0x07ffe01c 0x000fe400
0x18187210 0x0000002b 0x07ffe028 0x002fc600
0x1c1f7824 0x00000001 0x078e021f 0x000fe200
0x1a187210 0x00000019 0x07ffe018 0x000fc800
0x1f00720c 0x000000ff 0x03f25270 0x000fe400
0x14147210 0x00000027 0x07ffe024 0x001fe200
0x181b7824 0x00000001 0x078e021b 0x000fc600
0x16147210 0x00000015 0x07ffe014 0x000fe400
0x1b00720c 0x000000ff 0x03f45270 0x000fc600
0x14177824 0x00000001 0x078e0217 0x000fca00
0x1700720c 0x000000ff 0x03f65270 0x000fe200
0x00008947 0x00000030 0x03800000 0x000fec00
0xff157424 0x00000004 0x078e00ff 0x000fc800
0x36147625 0x00005800 0x078e0215 0x000fd000
0x1400798e 0x00000023 0x00114100 0x0001e400
0x00007941 0x00000000 0x03800000 0x000fea00
0x00ff7355 0x00000000 0x00100000 0x000fe200
0x00007945 0x00000060 0x03800000 0x000fe200
0x00009947 0x00000040 0x03800000 0x000fea00
0x36147810 0x00000100 0x07ffe0ff 0x001fe200
0xff157424 0x00000004 0x078e00ff 0x000fc800
0x14147625 0x00005800 0x078e0215 0x000fd000
0x1400798e 0x0000001f 0x00114100 0x0001e400
0x00007941 0x00000000 0x03800000 0x000fea00
0x00ff7355 0x00000000 0x00100000 0x000fe200
0x00007945 0x00000060 0x03800000 0x000fe200
0x0000a947 0x00000040 0x03800000 0x000fea00
0x36147810 0x00000200 0x07ffe0ff 0x001fe200
0xff157424 0x00000004 0x078e00ff 0x000fc800
0x14147625 0x00005800 0x078e0215 0x000fd000
0x1400798e 0x0000001b 0x00114100 0x0001e400
0x00007941 0x00000000 0x03800000 0x000fea00
0x00ff7355 0x00000000 0x00100000 0x000fe200
0x00007945 0x00000060 0x03800000 0x000fe200
0x0000b947 0x00000040 0x03800000 0x000fea00
0x36147810 0x00000300 0x07ffe0ff 0x001fe200
0xff157424 0x00000004 0x078e00ff 0x000fc800
0x14147625 0x00005800 0x078e0215 0x000fd000
0x1400798e 0x00000017 0x00114100 0x0001e400
0x00007941 0x00000000 0x03800000 0x000fea00
0x13137810 0x00000004 0x07ffe0ff 0x000fe200
0x0000c947 0x00000060 0x03800000 0x000fea00
0x00147806 0x00000000 0x038e0100 0x001fe200
0x00007946 0x00000000 0x03800000 0x000fe200
0x00047886 0x00000000 0x038e0100 0x000fe400
0x14ff7c12 0x00000004 0x0f800cff 0x000fd800
0x00008947 0xfffffba1 0x0383ffff 0x000fea00
0x00007947 0xffffffa0 0x0383ffff 0x000fea00
0x0c00720c 0x000000ff 0x03f05270 0x000fd800
0x00008947 0x00000320 0x03800000 0x000fea00
0x13187824 0x00000100 0x078e0212 0x001fe200
0x00ff7355 0x00000000 0x00100000 0x000fe200
0x00007945 0x000000e0 0x03800000 0x000fe200
0x0c00780c 0x00000001 0x03f25270 0x000fe200
0x18197824 0x00000020 0x078e00ff 0x000fd000
0x191c7984 0x00000000 0x00001c00 0x000e3000
0x19147984 0x00001000 0x00001c00 0x000e6200
0x1e137210 0x0000001d 0x07ffe01c 0x001fc800
0x14137210 0x0000001f 0x07ffe013 0x002fc800
0x16167210 0x00000015 0x07ffe013 0x000fca00
0x16177824 0x00000001 0x078e0217 0x000fca00
0x1700720c 0x000000ff 0x03f05270 0x000fd800
0x00008947 0x00000030 0x03800000 0x000fea00
0xff157424 0x00000004 0x078e00ff 0x000fc800
0x18147625 0x00005800 0x078e0215 0x000fd000
0x1400798e 0x00000017 0x00114100 0x0001e400
0x00007941 0x00000000 0x03800000 0x000fea00
0x00ff7355 0x00000000 0x00100000 0x000fe200
0x00007945 0x000001f0 0x03800000 0x000fe200
0x00009947 0x000001d0 0x03800000 0x000fea00
0x191c7984 0x00200000 0x00001c00 0x000e6200
0x01ff7355 0x00000000 0x00100000 0x000fe200
0x00017945 0x000000d0 0x03800000 0x000fe200
0x0c00780c 0x00000002 0x03f25270 0x000fca00
0x19147984 0x00201000 0x00001c00 0x001e2200
0x1e137210 0x0000001d 0x07ffe01c 0x002fc800
0x14137210 0x0000001f 0x07ffe013 0x001fc800
0x16167210 0x00000015 0x07ffe013 0x000fca00
0x16177824 0x00000001 0x078e0217 0x000fca00
0x1700720c 0x000000ff 0x03f05270 0x000fd800
0x00008947 0x00000040 0x03800000 0x000fea00
0x18147810 0x00000100 0x07ffe0ff 0x000fe200
0xff157424 0x00000004 0x078e00ff 0x000fc800
0x14147625 0x00005800 0x078e0215 0x000fd000
0x1400798e 0x00000017 0x00114100 0x0001e400
0x00017941 0x00000000 0x03800000 0x000fea00
0x00009947 0x000000c0 0x03800000 0x000fea00
0x191c7984 0x00400000 0x00001c00 0x000e7000
0x19147984 0x00401000 0x00001c00 0x001e2200
0x1e137210 0x0000001d 0x07ffe01c 0x002fc800
0x14137210 0x0000001f 0x07ffe013 0x001fc800
0x16167210 0x00000015 0x07ffe013 0x000fca00
0x16177824 0x00000001 0x078e0217 0x000fca00
0x1700720c 0x000000ff 0x03f05270 0x000fd800
0x00008947 0x00000040 0x03800000 0x000fea00
0x18147810 0x00000200 0x07ffe0ff 0x000fe200
0xff157424 0x00000004 0x078e00ff 0x000fc800
0x14147625 0x00005800 0x078e0215 0x000fd000
0x1400798e 0x00000017 0x00114100 0x0001e400
0x00007941 0x00000000 0x03800000 0x000fea00
0x1200720c 0x000000ff 0x03f06270 0x000fd800
0x00000947 0x00000070 0x03800000 0x000fea00
0x12127810 0x00000100 0x07ffe0ff 0x000fe400
0x00137806 0x00000000 0x038e0100 0x000fe200
0x00007946 0x00000000 0x03800000 0x000fe200
0x00047886 0x00000000 0x038e0100 0x000fe400
0x13ff7c12 0x00000004 0x0f800cff 0x000fd800
0x00008947 0xfffff781 0x0383ffff 0x001fea00
0x00007947 0xffffffa0 0x0383ffff 0x000fea00
0x03037810 0x00000001 0x07ffe0ff 0x000fe200
0x00007948 0xffffffff 0x03800000 0x000fe800
0x00007b1d 0x00000000 0x00000000 0x000fea00
0x03007c0c 0x00000005 0x0bf06070 0x000fd800
0x0000094d 0x00000000 0x03800000 0x000fea00
0x00007947 0xffffda00 0x0383ffff 0x000fea00
0x00007947 0xfffffff0 0x0383ffff 0x000fc000
0x00007918 0x00000000 0x00000000 0x000fc000
0x00007918 0x00000000 0x00000000 0x000fc000
0x00007918 0x00000000 0x00000000 0x000fc000
0x00007918 0x00000000 0x00000000 0x000fc000



.text._ZN3cub17CUB_200400_750_NS30DeviceRadixSortDownsweepKernelINS0_21DeviceRadixSortPolicyIiljE9Policy900ELb1ELb0EiljNS0_6detail21identity_decomposer_tEEEvPKT2_PS7_PKT3_PSB_PT4_SF_iiNS0_13GridEvenShareISF_EET5_
bar = 1	reg = 169	lmem=0	smem=47104
0xff017624 0x00000a00 0x078e00ff 0x000fe400
0x00077919 0x00000000 0x00002500 0x000e2400
0x07007a0c 0x00006600 0x03f06270 0x001fd800
0x00008947 0x000000a0 0x03800000 0x000fea00
0x07007a0c 0x00006500 0x03f06270 0x000fe200
0xff037624 0x00006d00 0x078e00ff 0x000fe400
0xff3a7624 0x00006c00 0x078e00ff 0x000fd200
0x00000947 0x00000080 0x03800000 0x000fea00
0xff3a7624 0x00006800 0x078e00ff 0x000fc800
0x073a7624 0x00006900 0x078e023a 0x000fca00
0x3a007a10 0x00006a00 0x07ffe1ff 0x000fc800
0x00007a17 0x00006800 0x03800000 0x000fca00
0x3a037824 0x00000001 0x078e0200 0x000fe200
0x00007947 0x00000020 0x03800000 0x000fea00
0x073a7a24 0x00006700 0x078e02ff 0x000fca00
0x3a037a10 0x00006700 0x07ffe0ff 0x000fe400
0x00007919 0x00000000 0x00002100 0x000e2400
0x0000780c 0x0000003f 0x03f24270 0x001fd800
0xff089424 0x00000004 0x078e00ff 0x000fe400
0x00029a24 0x00000300 0x078e02ff 0x000fc800
0x02049625 0x00006000 0x078e0008 0x000fd000
0x04069381 0x00000000 0x001ee900 0x0000a200
0x0000781c 0x00000000 0x03f0f070 0x000fe200
0x02049824 0x00000001 0x078e0207 0x001fc800
0x04049625 0x00006000 0x078e0008 0x000fd000
0x04029381 0x00000000 0x001ee900 0x00016200
0x033b7824 0x00000001 0x078e0a3a 0x000fe200
0x06009a0c 0x00006200 0x03f45270 0x004fc800
0x0600920c 0x000000ff 0x05702670 0x000fd800
0x00007b1d 0x00000000 0x00004400 0x000fea00
0x00ff731c 0x00000000 0x00004000 0x000e6400
0x00008947 0x00001ca0 0x03800000 0x002fea00
0x3b00780c 0x00001700 0x03f06070 0x001fe200
0xff027224 0x000000ff 0x078e003a 0x020fe400
0xff087224 0x000000ff 0x078e003b 0x000fe200
0xff2f7803 0x00000001 0x00000000 0x000fd000
0x00008947 0x000003c0 0x03800000 0x000fea00
0xff087224 0x000000ff 0x078e003b 0x000fe400
0xff027224 0x000000ff 0x078e003a 0x000fca00
0x00057210 0x00000002 0x07f1e0ff 0x001fe200
0x00047ab9 0x00005800 0x00000a00 0x000fc600
0x00067211 0x000000ff 0x000f0eff 0x000fe200
0x05047824 0x00000004 0x078e00ff 0x000fc600
0x05057819 0x00000002 0x00010206 0x000fd000
0x04067981 0x00000004 0x0c1ee900 0x000ea800
0x04077981 0x00040004 0x0c1ee900 0x000ee800
0x04097981 0x00080004 0x0c1ee900 0x000f2800
0x040a7981 0x000c0004 0x0c1ee900 0x000f6800
0x040b7981 0x00100004 0x0c1ee900 0x000f6800
0x040c7981 0x00140004 0x0c1ee900 0x000f6800
0x040d7981 0x00180004 0x0c1ee900 0x000f6800
0x040e7981 0x001c0004 0x0c1ee900 0x000f6800
0x040f7981 0x00200004 0x0c1ee900 0x000f6800
0x04107981 0x00240004 0x0c1ee900 0x000f6800
0x04117981 0x00280004 0x0c1ee900 0x000f6800
0x04127981 0x002c0004 0x0c1ee900 0x000f6800
0x04137981 0x00300004 0x0c1ee900 0x000f6800
0x04147981 0x00340004 0x0c1ee900 0x000f6800
0x04157981 0x00380004 0x0c1ee900 0x000f6800
0x04167981 0x003c0004 0x0c1ee900 0x000f6800
0x04177981 0x00400004 0x0c1ee900 0x000f6800
0x04187981 0x00440004 0x0c1ee900 0x000f6800
0x04197981 0x00480004 0x0c1ee900 0x000f6800
0x041a7981 0x004c0004 0x0c1ee900 0x000f6800
0x041b7981 0x00500004 0x0c1ee900 0x000f6800
0x041c7981 0x00540004 0x0c1ee900 0x000f6800
0x041d7981 0x00580004 0x0c1ee900 0x000f6200
0x08087810 0xffffe900 0x07ffe0ff 0x000fe200
0x00007948 0xffffffff 0x03800000 0x000fe800
0x00007b1d 0x00000000 0x00000000 0x000fea00
0x0800780c 0x000016ff 0x03f04070 0x000fe200
0x00047ab9 0x00005a00 0x00000a00 0x000fe200
0x02027810 0x00001700 0x07ffe0ff 0x000fe200
0x04007986 0x00000006 0x0c10e904 0x0041e800
0x04007986 0x00040007 0x0c10e904 0x0081e800
0x04007986 0x00080009 0x0c10e904 0x0101e800
0x04007986 0x000c000a 0x0c10e904 0x0201e800
0x04007986 0x0010000b 0x0c10e904 0x0001e800
0x04007986 0x0014000c 0x0c10e904 0x0001e800
0x04007986 0x0018000d 0x0c10e904 0x0001e800
0x04007986 0x001c000e 0x0c10e904 0x0001e800
0x04007986 0x0020000f 0x0c10e904 0x0001e800
0x04007986 0x00240010 0x0c10e904 0x0001e800
0x04007986 0x00280011 0x0c10e904 0x0001e800
0x04007986 0x002c0012 0x0c10e904 0x0001e800
0x04007986 0x00300013 0x0c10e904 0x0001e800
0x04007986 0x00340014 0x0c10e904 0x0001e800
0x04007986 0x00380015 0x0c10e904 0x0001e800
0x04007986 0x003c0016 0x0c10e904 0x0001e800
0x04007986 0x00400017 0x0c10e904 0x0001e800
0x04007986 0x00440018 0x0c10e904 0x0001e800
0x04007986 0x00480019 0x0c10e904 0x0001e800
0x04007986 0x004c001a 0x0c10e904 0x0001e800
0x04007986 0x0050001b 0x0c10e904 0x0001e800
0x04007986 0x0054001c 0x0c10e904 0x0001e800
0x04007986 0x0058001d 0x0c10e904 0x0001e200
0x00000947 0xfffffc60 0x0383ffff 0x000fea00
0x0300720c 0x00000002 0x03f04070 0x000fd800
0x00008947 0x00000a30 0x03800000 0x000fea00
0x00047810 0x00000100 0x07ffe0ff 0x041fe400
0x00097210 0x00000002 0x07f1e0ff 0x040fe400
0x00057810 0x00000200 0x07ffe0ff 0x000fe400
0x0400720c 0x00000008 0x03fc6270 0x000fe400
0x000a7211 0x000000ff 0x000f0eff 0x000fe400
0x09047a11 0x00005800 0x078210ff 0x000fc400
0x0500720c 0x00000008 0x03fa6270 0x080fe400
0x09057a11 0x00005900 0x008f140a 0x000fe400
0x0000720c 0x00000008 0x03f26270 0x0c0fe400
0x00067810 0x00000300 0x07ffe0ff 0x040fe400
0x00027810 0x00000400 0x07ffe0ff 0x000fe400
0x041ae381 0x00040000 0x001ee900 0x0000a200
0x0600720c 0x00000008 0x03f86270 0x000fc400
0x0200720c 0x00000008 0x03f66270 0x080fe200
0x041bd381 0x00080000 0x001ee900 0x0000e200
0x00077810 0x00000500 0x07ffe0ff 0x040fe400
0x09067a11 0x00005a00 0x078010ff 0x000fe200
0x04199381 0x00000000 0x001ee900 0x00012200
0x0700720c 0x00000008 0x03f46270 0x000fe400
0x00027810 0x00000600 0x07ffe0ff 0x000fe400
0x041cc381 0x000c0000 0x001ee900 0x00016200
0x09077a11 0x00005b00 0x000f140a 0x000fc400
0x000b7810 0x00000900 0x07ffe0ff 0x000fe200
0x041db381 0x00100000 0x001ee900 0x0000a200
0x0200720c 0x00000008 0x03f06270 0x000fe400
0x00097810 0x00000700 0x07ffe0ff 0x040fe200
0x041ea381 0x00140000 0x001ee900 0x0000a200
0xff247803 0x00000001 0x00000000 0x000fe400
0x000a7810 0x00000800 0x07ffe0ff 0x040fe400
0x000c7810 0x00000a00 0x07ffe0ff 0x000fc400
0x000d7810 0x00000b00 0x07ffe0ff 0x040fe400
0x04028381 0x00180000 0x001ee900 0x0000e200
0x0900720c 0x00000008 0x03f06270 0x000fe400
0x000e7810 0x00000c00 0x07ffe0ff 0x040fe400
0xff257803 0x00000001 0x00000000 0x000fe400
0x000f7810 0x00000d00 0x07ffe0ff 0x040fe400
0x00107810 0x00000e00 0x07ffe0ff 0x000fc400
0x00117810 0x00000f00 0x07ffe0ff 0x000fe400
0x04098381 0x001c0000 0x001ee900 0x00016200
0x0a00720c 0x00000008 0x03f06270 0x000fe400
0x00127810 0x00001000 0x07ffe0ff 0x040fe400
0xff267803 0x00000001 0x00000000 0x000fe400
0x00137810 0x00001100 0x07ffe0ff 0x040fe400
0x00147810 0x00001200 0x07ffe0ff 0x000fc400
0x00157810 0x00001300 0x07ffe0ff 0x040fe400
0x040a8381 0x00200000 0x001ee900 0x00016200
0x0b00720c 0x00000008 0x03f06270 0x000fe400
0x00167810 0x00001400 0x07ffe0ff 0x040fe400
0xff277803 0x00000001 0x00000000 0x000fe400
0x00177810 0x00001500 0x07ffe0ff 0x040fe400
0x00187810 0x00001600 0x07ffe0ff 0x000fc400
0xff207803 0x00000020 0x00000000 0x000fe400
0x040b8381 0x00240000 0x001ee900 0x00016200
0x0c00720c 0x00000008 0x03f06270 0x000fe400
0xff217803 0x00000010 0x00000000 0x000fe400
0xff287803 0x00000001 0x00000000 0x000fe400
0xff227803 0x00000008 0x00000000 0x000fe400
0xff237803 0x00000004 0x00000000 0x000fc400
0xff307803 0x00000002 0x00000000 0x000fe400
0x040c8381 0x00280000 0x001ee900 0x00016200
0x0d00720c 0x00000008 0x03f06270 0x000fe400
0xff1f7803 0x00000040 0x00000000 0x000fe400
0xff297803 0x00000001 0x00000000 0x000fd000
0x040d8381 0x002c0000 0x001ee900 0x00016200
0x0e00720c 0x00000008 0x03f06270 0x000fc800
0xff2a7803 0x00000001 0x00000000 0x000fd000
0x040e8381 0x00300000 0x001ee900 0x00016200
0x0f00720c 0x00000008 0x03f06270 0x000fc800
0xff2b7803 0x00000001 0x00000000 0x000fd000
0x040f8381 0x00340000 0x001ee900 0x00016200
0x1000720c 0x00000008 0x03f06270 0x000fc800
0xff2c7803 0x00000001 0x00000000 0x000fd000
0x04108381 0x00380000 0x001ee900 0x00016200
0x1100720c 0x00000008 0x03f06270 0x080fe400
0x1300720c 0x00000008 0x03f26270 0x080fe400
0xff2d7803 0x00000001 0x00000000 0x000fe400
0x1400720c 0x00000008 0x03f46270 0x080fe400
0x1500720c 0x00000008 0x03f66270 0x080fe400
0x1600720c 0x00000008 0x03f86270 0x000fc400
0x04118381 0x003c0000 0x001ee900 0x00016200
0x1200720c 0x00000008 0x03f06270 0x080fe400
0x1700720c 0x00000008 0x03fa6270 0x080fe200
0x04139381 0x00440000 0x001ee900 0x00016200
0x1800720c 0x00000008 0x03fc6270 0x000fc600
0x0414a381 0x00480000 0x001ee900 0x00016800
0x0415b381 0x004c0000 0x001ee900 0x00016800
0x04128381 0x00400000 0x001ee900 0x00016800
0x0416c381 0x00500000 0x001ee900 0x00016800
0x0417d381 0x00540000 0x001ee900 0x00016200
0xff2e7803 0x00000001 0x00000000 0x000fc400
0x2d00720c 0x000000ff 0x03f05270 0x000fe200
0x0404e381 0x00580000 0x001ee900 0x001f6600
0xff2d7803 0x00000001 0x00000000 0x000fe400
0x2c00720c 0x000000ff 0x03f05270 0x000fc800
0xff2c7803 0x00000001 0x00000000 0x000fe400
0x2b00720c 0x000000ff 0x03f05270 0x000fc800
0xff2b7803 0x00000001 0x00000000 0x000fe400
0x2a00720c 0x000000ff 0x03f05270 0x000fc800
0xff2a7803 0x00000001 0x00000000 0x000fe400
0x2900720c 0x000000ff 0x03f05270 0x000fc800
0xff297803 0x00000001 0x00000000 0x000fe400
0x2800720c 0x000000ff 0x03f05270 0x000fc800
0xff287803 0x00000001 0x00000000 0x000fe400
0x2700720c 0x000000ff 0x03f05270 0x000fc800
0xff277803 0x00000001 0x00000000 0x000fe400
0x2600720c 0x000000ff 0x03f05270 0x000fc800
0xff267803 0x00000001 0x00000000 0x000fe400
0x2500720c 0x000000ff 0x03f05270 0x000fc800
0xff257803 0x00000001 0x00000000 0x000fe400
0x2400720c 0x000000ff 0x03f05270 0x000fc800
0xff247803 0x00000001 0x00000000 0x000fe400
0x2300720c 0x000000ff 0x03f05270 0x000fc800
0xff237803 0x00000001 0x00000000 0x000fe400
0x2200720c 0x000000ff 0x03f05270 0x000fc800
0xff227803 0x00000001 0x00000000 0x000fe400
0x2100720c 0x000000ff 0x03f05270 0x000fc800
0xff217803 0x00000001 0x00000000 0x000fe400
0x2000720c 0x000000ff 0x03f05270 0x000fc800
0xff207803 0x00000001 0x00000000 0x000fe400
0x1f00720c 0x000000ff 0x03f05270 0x000fc800
0xff1f7803 0x00000001 0x00000000 0x000fe400
0x3000720c 0x000000ff 0x03f05270 0x000fe200
0x00007948 0xffffffff 0x03800000 0x000fe800
0x00007b1d 0x00000000 0x00000000 0x000fee00
0x06008386 0x00000019 0x0010e900 0x0101e200
0x1f00720c 0x000000ff 0x03f05270 0x000fd800
0x06008386 0x0004001a 0x0010e900 0x0041e200
0x2000720c 0x000000ff 0x03f05270 0x000fd800
0x06008386 0x0008001b 0x0010e900 0x0081e200
0x2100720c 0x000000ff 0x03f05270 0x000fd800
0x06008386 0x000c001c 0x0010e900 0x0201e200
0x2200720c 0x000000ff 0x03f05270 0x000fd800
0x06008386 0x0010001d 0x0010e900 0x0001e200
0x2300720c 0x000000ff 0x03f05270 0x000fd800
0x06008386 0x0014001e 0x0010e900 0x0001e200
0x2400720c 0x000000ff 0x03f05270 0x000fd800
0x06008386 0x00180002 0x0010e900 0x0001e200
0x2500720c 0x000000ff 0x03f05270 0x000fd800
0x06008386 0x001c0009 0x0010e900 0x0001e200
0x2600720c 0x000000ff 0x03f05270 0x000fd800
0x06008386 0x0020000a 0x0010e900 0x0001e200
0x2700720c 0x000000ff 0x03f05270 0x000fd800
0x06008386 0x0024000b 0x0010e900 0x0001e200
0x2800720c 0x000000ff 0x03f05270 0x000fd800
0x06008386 0x0028000c 0x0010e900 0x0001e200
0x2900720c 0x000000ff 0x03f05270 0x000fd800
0x06008386 0x002c000d 0x0010e900 0x0001e200
0x2a00720c 0x000000ff 0x03f05270 0x000fd800
0x06008386 0x0030000e 0x0010e900 0x0001e200
0x2b00720c 0x000000ff 0x03f05270 0x000fd800
0x06008386 0x0034000f 0x0010e900 0x0001e200
0x2c00720c 0x000000ff 0x03f05270 0x000fd800
0x06008386 0x00380010 0x0010e900 0x0001e200
0x2d00720c 0x000000ff 0x03f05270 0x000fd800
0x06008386 0x003c0011 0x0010e900 0x0001e200
0x2e00720c 0x000000ff 0x03f05270 0x000fc600
0x06009386 0x00440013 0x0010e900 0x0001e800
0x0600a386 0x00480014 0x0010e900 0x0001e800
0x0600b386 0x004c0015 0x0010e900 0x0001e800
0x06008386 0x00400012 0x0010e900 0x0001e800
0x0600c386 0x00500016 0x0010e900 0x0001e800
0x0600d386 0x00540017 0x0010e900 0x0001e800
0x0600e386 0x00580004 0x0010e900 0x0001e400
0x2f00720c 0x000000ff 0x03f05270 0x000fd800
0x00008947 0x000003a0 0x03800000 0x000fea00
0x00027210 0x0000003a 0x07f1e0ff 0x001fe200
0x00047ab9 0x00005c00 0x00000a00 0x000fc600
0x00047211 0x000000ff 0x000f0eff 0x000fe200
0x02327824 0x00000008 0x078e00ff 0x000fc600
0x02337819 0x00000003 0x00010204 0x000fd000
0x32047981 0x00000004 0x0c1eeb00 0x000ea800
0x32067981 0x00080004 0x0c1eeb00 0x000ee800
0x32087981 0x00100004 0x0c1eeb00 0x000f2800
0x320a7981 0x00180004 0x0c1eeb00 0x000f6800
0x320c7981 0x00200004 0x0c1eeb00 0x000f6800
0x320e7981 0x00280004 0x0c1eeb00 0x000f6800
0x32107981 0x00300004 0x0c1eeb00 0x000f6800
0x32127981 0x00380004 0x0c1eeb00 0x000f6800
0x32147981 0x00400004 0x0c1eeb00 0x000f6800
0x32167981 0x00480004 0x0c1eeb00 0x000f6800
0x32187981 0x00500004 0x0c1eeb00 0x000f6800
0x321a7981 0x00580004 0x0c1eeb00 0x000f6800
0x321c7981 0x00600004 0x0c1eeb00 0x000f6800
0x321e7981 0x00680004 0x0c1eeb00 0x000f6800
0x32207981 0x00700004 0x0c1eeb00 0x000f6800
0x32227981 0x00780004 0x0c1eeb00 0x000f6800
0x32247981 0x00800004 0x0c1eeb00 0x000f6800
0x32267981 0x00880004 0x0c1eeb00 0x000f6800
0x32287981 0x00900004 0x0c1eeb00 0x000f6800
0x322a7981 0x00980004 0x0c1eeb00 0x000f6800
0x322c7981 0x00a00004 0x0c1eeb00 0x000f6800
0x322e7981 0x00a80004 0x0c1eeb00 0x000f6800
0x32307981 0x00b00004 0x0c1eeb00 0x000f6200
0x3b3b7810 0xffffe900 0x07ffe0ff 0x000fe200
0x00007948 0xffffffff 0x03800000 0x000fe800
0x00007b1d 0x00000000 0x00000000 0x000fea00
0x3b00780c 0x000016ff 0x03f04070 0x000fe200
0x00047ab9 0x00005e00 0x00000a00 0x000fe200
0x3a3a7810 0x00001700 0x07ffe0ff 0x000fe200
0x32007986 0x00000004 0x0c10eb04 0x0041e800
0x32007986 0x00080006 0x0c10eb04 0x0081e800
0x32007986 0x00100008 0x0c10eb04 0x0101e800
0x32007986 0x0018000a 0x0c10eb04 0x0201e800
0x32007986 0x0020000c 0x0c10eb04 0x0001e800
0x32007986 0x0028000e 0x0c10eb04 0x0001e800
0x32007986 0x00300010 0x0c10eb04 0x0001e800
0x32007986 0x00380012 0x0c10eb04 0x0001e800
0x32007986 0x00400014 0x0c10eb04 0x0001e800
0x32007986 0x00480016 0x0c10eb04 0x0001e800
0x32007986 0x00500018 0x0c10eb04 0x0001e800
0x32007986 0x0058001a 0x0c10eb04 0x0001e800
0x32007986 0x0060001c 0x0c10eb04 0x0001e800
0x32007986 0x0068001e 0x0c10eb04 0x0001e800
0x32007986 0x00700020 0x0c10eb04 0x0001e800
0x32007986 0x00780022 0x0c10eb04 0x0001e800
0x32007986 0x00800024 0x0c10eb04 0x0001e800
0x32007986 0x00880026 0x0c10eb04 0x0001e800
0x32007986 0x00900028 0x0c10eb04 0x0001e800
0x32007986 0x0098002a 0x0c10eb04 0x0001e800
0x32007986 0x00a0002c 0x0c10eb04 0x0001e800
0x32007986 0x00a8002e 0x0c10eb04 0x0001e800
0x32007986 0x00b00030 0x0c10eb04 0x0001e200
0x00000947 0xfffffc60 0x0383ffff 0x000fea00
0x0300720c 0x0000003a 0x03f04070 0x000fd800
0x0000894d 0x00000000 0x03800000 0x000fea00
0x00027810 0x00000100 0x07ffe0ff 0x041fe400
0x00047810 0x00000300 0x07ffe0ff 0x000fe400
0x0200720c 0x0000003b 0x03f06270 0x080fe400
0x0400720c 0x0000003b 0x03fa6270 0x000fe400
0xff297803 0x00000001 0x00000000 0x000fe400
0x003a7210 0x0000003a 0x07f1e0ff 0x000fc400
0x00037810 0x00000200 0x07ffe0ff 0x040fe400
0x00047211 0x000000ff 0x000f0eff 0x040fe400
0x00027810 0x00000400 0x07ffe0ff 0x000fe400
0x3a307a11 0x00005e00 0x078018ff 0x000fe400
0x0300720c 0x0000003b 0x03fc6270 0x080fe400
0x0200720c 0x0000003b 0x03f86270 0x000fc400
0x00037810 0x00000500 0x07ffe0ff 0x000fe400
0x3a317a11 0x00005f00 0x000f1c04 0x040fe400
0x3a027a11 0x00005c00 0x078218ff 0x000fe400
0x0000720c 0x0000003b 0x03f06270 0x0c0fe400
0x0300720c 0x0000003b 0x03f66270 0x000fe400
0x00057810 0x00000600 0x07ffe0ff 0x000fc400
0x3a037a11 0x00005d00 0x008f1c04 0x000fe400
0x00127810 0x00000700 0x07ffe0ff 0x000fe400
0x0500720c 0x0000003b 0x03f46270 0x080fe400
0x2900720c 0x000000ff 0x03f25270 0x000fe400
0x02048381 0x00000000 0x001eeb00 0x0000a200
0xff277803 0x00000001 0x00000000 0x000fe400
0x1200720c 0x0000003b 0x03f06270 0x000fe200
0x0208e381 0x00100000 0x001eeb00 0x0000e200
0x00147810 0x00000800 0x07ffe0ff 0x000fc400
0xff347803 0x00000001 0x00000000 0x000fe200
0x020ad381 0x00180000 0x001eeb00 0x00012200
0x00167810 0x00000900 0x07ffe0ff 0x040fe400
0x00187810 0x00000a00 0x07ffe0ff 0x040fe200
0x02069381 0x00080000 0x001eeb00 0x0000e200
0x001a7810 0x00000b00 0x07ffe0ff 0x040fe400
0x001c7810 0x00000c00 0x07ffe0ff 0x000fe200
0x02128381 0x00380000 0x001eeb00 0x00012200
0x1400720c 0x0000003b 0x03f06270 0x000fc400
0x001e7810 0x00000d00 0x07ffe0ff 0x040fe200
0x020cc381 0x00200000 0x001eeb00 0x00012200
0xff357803 0x00000001 0x00000000 0x000fe400
0x00207810 0x00000e00 0x07ffe0ff 0x040fe200
0x020eb381 0x00280000 0x001eeb00 0x00012200
0x00227810 0x00000f00 0x07ffe0ff 0x040fe400
0x00247810 0x00001000 0x07ffe0ff 0x000fe200
0x0210a381 0x00300000 0x001eeb00 0x00012200
0xff337803 0x00000004 0x00000000 0x000fc400
0xff327803 0x00000008 0x00000000 0x000fe200
0x02148381 0x00400000 0x001eeb00 0x00012200
0x1600720c 0x0000003b 0x03f06270 0x000fe400
0xff2f7803 0x00000010 0x00000000 0x000fe400
0xff367803 0x00000001 0x00000000 0x000fe400
0xff2d7803 0x00000020 0x00000000 0x000fe400
0x00267810 0x00001100 0x07ffe0ff 0x000fc400
0x00287810 0x00001200 0x07ffe0ff 0x000fe400
0x02168381 0x00480000 0x001eeb00 0x00012200
0x1800720c 0x0000003b 0x03f06270 0x000fe400
0x002a7810 0x00001300 0x07ffe0ff 0x040fe400
0xff377803 0x00000001 0x00000000 0x000fe400
0x002c7810 0x00001400 0x07ffe0ff 0x040fe400
0x002e7810 0x00001500 0x07ffe0ff 0x000fc400
0xff2b7803 0x00000040 0x00000000 0x000fe400
0x02188381 0x00500000 0x001eeb00 0x00012200
0x1a00720c 0x0000003b 0x03f06270 0x080fe400
0x2600720c 0x0000003b 0x03f26270 0x080fe400
0xff387803 0x00000001 0x00000000 0x000fe400
0x2800720c 0x0000003b 0x03f46270 0x080fe400
0x2a00720c 0x0000003b 0x03f66270 0x000fc400
0x2c00720c 0x0000003b 0x03f86270 0x080fe400
0x021a8381 0x00580000 0x001eeb00 0x00012200
0x1c00720c 0x0000003b 0x03f06270 0x000fe400
0x00007810 0x00001600 0x07ffe0ff 0x000fe400
0xff397803 0x00000001 0x00000000 0x000fd000
0x021c8381 0x00600000 0x001eeb00 0x00012200
0x1e00720c 0x0000003b 0x03f06270 0x000fc800
0xff3a7803 0x00000001 0x00000000 0x000fd000
0x021e8381 0x00680000 0x001eeb00 0x00012200
0x2000720c 0x0000003b 0x03f06270 0x000fc800
0xff3c7803 0x00000001 0x00000000 0x000fd000
0x02208381 0x00700000 0x001eeb00 0x00012200
0x2200720c 0x0000003b 0x03f06270 0x000fc800
0xff3d7803 0x00000001 0x00000000 0x000fd000
0x02228381 0x00780000 0x001eeb00 0x00012200
0x2400720c 0x0000003b 0x03f06270 0x000fc800
0xff427803 0x00000001 0x00000000 0x000fd000
0x02248381 0x00800000 0x001eeb00 0x00012200
0x3d00720c 0x000000ff 0x03f05270 0x000fc800
0xff417803 0x00000001 0x00000000 0x000fe400
0x3c00720c 0x000000ff 0x03f05270 0x000fc800
0xff407803 0x00000001 0x00000000 0x000fe400
0x3a00720c 0x000000ff 0x03f05270 0x000fc800
0xff3f7803 0x00000001 0x00000000 0x000fe400
0x3900720c 0x000000ff 0x03f05270 0x000fc800
0xff3e7803 0x00000001 0x00000000 0x000fe400
0x3800720c 0x000000ff 0x03f05270 0x000fc800
0xff3d7803 0x00000001 0x00000000 0x000fe400
0x3700720c 0x000000ff 0x03f05270 0x000fc800
0xff3c7803 0x00000001 0x00000000 0x000fe400
0x3600720c 0x000000ff 0x03f05270 0x000fc800
0xff3a7803 0x00000001 0x00000000 0x000fe400
0x3500720c 0x000000ff 0x03f05270 0x000fc800
0xff397803 0x00000001 0x00000000 0x000fe400
0x3400720c 0x000000ff 0x03f05270 0x000fc800
0xff387803 0x00000001 0x00000000 0x000fe400
0x3300720c 0x000000ff 0x03f05270 0x000fc800
0xff377803 0x00000001 0x00000000 0x000fe400
0x3200720c 0x000000ff 0x03f05270 0x000fc800
0xff367803 0x00000001 0x00000000 0x000fe400
0x2f00720c 0x000000ff 0x03f05270 0x000fc800
0xff357803 0x00000001 0x00000000 0x000fe400
0x2d00720c 0x000000ff 0x03f05270 0x000fe400
0x2e00720c 0x0000003b 0x03fa6270 0x000fe200
0x022cc381 0x00a00000 0x001eeb00 0x00012200
0xff347803 0x00000001 0x00000000 0x000fe400
0x2b00720c 0x000000ff 0x03f05270 0x000fe400
0x022ab381 0x00980000 0x001eeb00 0x00012400
0xff337803 0x00000001 0x00000000 0x000fc400
0x2900720c 0x000000ff 0x03f05270 0x000fe400
0x0228a381 0x00900000 0x001eeb00 0x00012400
0xff327803 0x00000001 0x00000000 0x000fe400
0x2700720c 0x000000ff 0x03f05270 0x000fe200
0x022ed381 0x00a80000 0x001eeb00 0x00012800
0x02269381 0x00880000 0x001eeb00 0x00012200
0x0000720c 0x0000003b 0x03fc6270 0x000fe200
0x00007948 0xffffffff 0x03800000 0x000ff600
0x0202e381 0x00b00000 0x001eeb00 0x001f6800
0x00007b1d 0x00000000 0x00000000 0x000fea00
0x30008386 0x00000004 0x0010eb00 0x0041e200
0x3200720c 0x000000ff 0x03f05270 0x000fd800
0x30008386 0x00080006 0x0010eb00 0x0081e200
0x3300720c 0x000000ff 0x03f05270 0x000fd800
0x30008386 0x00100008 0x0010eb00 0x0001e200
0x3400720c 0x000000ff 0x03f05270 0x000fd800
0x30008386 0x0018000a 0x0010eb00 0x0101e200
0x3500720c 0x000000ff 0x03f05270 0x000fd800
0x30008386 0x0020000c 0x0010eb00 0x0001e200
0x3600720c 0x000000ff 0x03f05270 0x000fd800
0x30008386 0x0028000e 0x0010eb00 0x0001e200
0x3700720c 0x000000ff 0x03f05270 0x000fd800
0x30008386 0x00300010 0x0010eb00 0x0001e200
0x3800720c 0x000000ff 0x03f05270 0x000fd800
0x30008386 0x00380012 0x0010eb00 0x0001e200
0x3900720c 0x000000ff 0x03f05270 0x000fd800
0x30008386 0x00400014 0x0010eb00 0x0001e200
0x3a00720c 0x000000ff 0x03f05270 0x000fd800
0x30008386 0x00480016 0x0010eb00 0x0001e200
0x3c00720c 0x000000ff 0x03f05270 0x000fd800
0x30008386 0x00500018 0x0010eb00 0x0001e200
0x3d00720c 0x000000ff 0x03f05270 0x000fd800
0x30008386 0x0058001a 0x0010eb00 0x0001e200
0x3e00720c 0x000000ff 0x03f05270 0x000fd800
0x30008386 0x0060001c 0x0010eb00 0x0001e200
0x3f00720c 0x000000ff 0x03f05270 0x000fd800
0x30008386 0x0068001e 0x0010eb00 0x0001e200
0x4000720c 0x000000ff 0x03f05270 0x000fd800
0x30008386 0x00700020 0x0010eb00 0x0001e200
0x4100720c 0x000000ff 0x03f05270 0x000fd800
0x30008386 0x00780022 0x0010eb00 0x0001e200
0x4200720c 0x000000ff 0x03f05270 0x000fd800
0x30008386 0x00800024 0x0010eb00 0x0001e800
0x3000c386 0x00a0002c 0x0010eb00 0x0001e800
0x3000b386 0x0098002a 0x0010eb00 0x0001e800
0x3000a386 0x00900028 0x0010eb00 0x0001e800
0x3000d386 0x00a8002e 0x0010eb00 0x0001e800
0x30009386 0x00880026 0x0010eb00 0x0001e200
0x0000694d 0x00000000 0x03800000 0x000fea00
0x30007386 0x00b00002 0x0010eb00 0x020fe200
0x0000794d 0x00000000 0x03800000 0x000fea00
0x3b00780c 0x00001700 0x03f06070 0x001fd800
0x00008947 0x000043e0 0x03800000 0x000fea00
0x00617919 0x00000000 0x00000000 0x000e2200
0x000c7824 0x00000004 0x078e00ff 0x000fc600
0x000d7210 0x0000003a 0x07f1e0ff 0x000fc800
0x000e7211 0x000000ff 0x000f0eff 0x000fe400
0x0d067a11 0x00005800 0x078010ff 0x000fc800
0x0d077a11 0x00005900 0x000f140e 0x000fd000
0x06057381 0x00000000 0x001ee900 0x0002a800
0x06087381 0x00040000 0x001ee900 0x0002e800
0x06097381 0x00080000 0x001ee900 0x00032800
0x060a7381 0x000c0000 0x001ee900 0x00032800
0x060b7381 0x00100000 0x001ee900 0x00032800
0x060f7381 0x00140000 0x001ee900 0x00032800
0x06107381 0x00180000 0x001ee900 0x00032800
0x06117381 0x001c0000 0x001ee900 0x00032800
0x06127381 0x00200000 0x001ee900 0x00032800
0x06137381 0x00240000 0x001ee900 0x00032800
0x06147381 0x00280000 0x001ee900 0x00032800
0x06157381 0x002c0000 0x001ee900 0x00032800
0x06167381 0x00300000 0x001ee900 0x00032800
0x06177381 0x00340000 0x001ee900 0x00032800
0x06187381 0x00380000 0x001ee900 0x00032800
0x06197381 0x003c0000 0x001ee900 0x00032800
0x061a7381 0x00400000 0x001ee900 0x00032800
0x061b7381 0x00440000 0x001ee900 0x00032800
0x061c7381 0x00480000 0x001ee900 0x00032800
0x061d7381 0x004c0000 0x001ee900 0x00032800
0x061e7381 0x00500000 0x001ee900 0x00032800
0x061f7381 0x00540000 0x001ee900 0x00032800
0x06217381 0x00580000 0x001ee900 0x00032200
0x004e7824 0x0000005c 0x078e02ff 0x040fe200
0x00007948 0xffffffff 0x03800000 0x000fe800
0x00567824 0x00000084 0x078e02ff 0x000fc400
0xff7a7224 0x000000ff 0x078e0004 0x000fe400
0xff067624 0x00006300 0x078e00ff 0x002fe200
0x00007388 0x00000005 0x00004800 0x0043e800
0x00007388 0x00040008 0x00004800 0x008fe800
0x00007388 0x00080009 0x00004800 0x010fe200
0xff057624 0x00006400 0x078e00ff 0x002fc600
0x00007388 0x000c000a 0x00004800 0x000fe400
0x05057816 0x00007604 0x00000006 0x000fe400
0x00007388 0x0010000b 0x00004800 0x000fe400
0xff067816 0x00000004 0x00000005 0x100fe400
0x00007388 0x0014000f 0x00004800 0x000fe200
0xff077816 0x00000005 0x00000005 0x000fc600
0x00007388 0x00180010 0x00004800 0x000fe800
0x00007388 0x001c0011 0x00004800 0x000fe800
0x00007388 0x00200012 0x00004800 0x000fe800
0x00007388 0x00240013 0x00004800 0x000fe800
0x00007388 0x00280014 0x00004800 0x000fe800
0x00007388 0x002c0015 0x00004800 0x000fe800
0x00007388 0x00300016 0x00004800 0x000fe800
0x00007388 0x00340017 0x00004800 0x000fe800
0x00007388 0x00380018 0x00004800 0x000fe800
0x00007388 0x003c0019 0x00004800 0x000fe800
0x00007388 0x0040001a 0x00004800 0x000fe800
0x00007388 0x0044001b 0x00004800 0x000fe800
0x00007388 0x0048001c 0x00004800 0x000fe800
0x00007388 0x004c001d 0x00004800 0x000fe800
0x00007388 0x0050001e 0x00004800 0x000fe800
0x00007388 0x0054001f 0x00004800 0x000fe800
0x00007388 0x00580021 0x00004800 0x000fe800
0x00007b1d 0x00000000 0x00000000 0x000fea00
0x4e0f7984 0x00000000 0x00001800 0x000e6800
0x4e107984 0x00000400 0x00001800 0x000ea800
0x4e117984 0x00000800 0x00001800 0x000ee800
0x4e127984 0x00000c00 0x00001800 0x000f2800
0x4e137984 0x00001000 0x00001800 0x000e2800
0x4e167984 0x00001400 0x00001800 0x000e2800
0x4e1a7984 0x00001800 0x00001800 0x000e2800
0x4e1d7984 0x00001c00 0x00001800 0x000e2800
0x4e207984 0x00002000 0x00001800 0x000e2800
0x4e237984 0x00002400 0x00001800 0x000e2200
0x0f0f7812 0x80000000 0x078e3cff 0x002fc600
0x4e267984 0x00002800 0x00001800 0x000e6200
0xff067219 0x00000006 0x0001160f 0x000fc600
0x4e297984 0x00002c00 0x00001800 0x000e6200
0x10107812 0x80000000 0x078e3cff 0x004fe400
0x0606721a 0x00000007 0x00000000 0x000fe200
0x4e2d7984 0x00003000 0x00001800 0x000ea200
0x11117812 0x80000000 0x078e3cff 0x008fe400
0x12127812 0x80000000 0x078e3cff 0x010fe200
0x06077824 0x00000400 0x078e00ff 0x000fe200
0xff067819 0x00000004 0x00011606 0x000fe200
0x4e307984 0x00003400 0x00001800 0x000ee200
0x13137812 0x80000000 0x078e3cff 0x001fc400
0x07077812 0x00007c00 0x078ec0ff 0x000fe200
0x4e337984 0x00003800 0x00001800 0x000e2200
0x06067812 0x0ffffffe 0x078ec0ff 0x000fe400
0x16167812 0x80000000 0x078e3cff 0x000fe200
0x4e367984 0x00003c00 0x00001800 0x000f2200
0x06157210 0x00000007 0x07ffe00c 0x000fe400
0xff067816 0x00000004 0x00000005 0x100fe200
0x4e397984 0x00004000 0x00001800 0x000e2200
0xff077816 0x00000005 0x00000005 0x000fc400
0xff067219 0x00000006 0x00011610 0x000fe200
0x4e3e7984 0x00004400 0x00001800 0x000f2200
0x1a1a7812 0x80000000 0x078e3cff 0x000fe400
0x0606721a 0x00000007 0x00000000 0x000fe200
0x4e417984 0x00004800 0x00001800 0x000f2200
0x1d1d7812 0x80000000 0x078e3cff 0x000fe400
0x20207812 0x80000000 0x078e3cff 0x000fe200
0x4e457984 0x00004c00 0x00001800 0x000f2200
0x06077824 0x00000400 0x078e00ff 0x000fe200
0xff067819 0x00000004 0x00011606 0x000fc400
0x4e487984 0x00005000 0x00001800 0x000f2200
0x23237812 0x80000000 0x078e3cff 0x000fe400
0x07077812 0x00007c00 0x078ec0ff 0x000fe200
0x4e4b7984 0x00005400 0x00001800 0x000f2200
0x06177812 0x0ffffffe 0x078ec0ff 0x000fe400
0x26267812 0x80000000 0x078e3cff 0x002fe200
0x4e4e7984 0x00005800 0x00001800 0x000e6200
0x17177210 0x00000007 0x07ffe00c 0x000fe400
0xff077816 0x00000005 0x00000005 0x000fe200
0x00007b1d 0x00000000 0x00000000 0x000fea00
0x00007388 0x000000ff 0x00004800 0x000fe200
0x29297812 0x80000000 0x078e3cff 0x000fc400
0x2d2d7812 0x80000000 0x078e3cff 0x004fe200
0x00007388 0x000400ff 0x00004800 0x000fe200
0x30307812 0x80000000 0x078e3cff 0x008fe400
0x33337812 0x80000000 0x078e3cff 0x001fe200
0x00007388 0x000800ff 0x00004800 0x000fe200
0x36367812 0x80000000 0x078e3cff 0x010fe400
0x39397812 0x80000000 0x078e3cff 0x000fe200
0x00007388 0x000c00ff 0x00004800 0x000fe200
0x3e3e7812 0x80000000 0x078e3cff 0x000fc400
0x41417812 0x80000000 0x078e3cff 0x000fe200
0x00007388 0x001000ff 0x00004800 0x000fe200
0x45457812 0x80000000 0x078e3cff 0x000fc600
0x00007388 0x001400ff 0x00004800 0x000fe200
0x48487812 0x80000000 0x078e3cff 0x000fc600
0x00007388 0x001800ff 0x00004800 0x000fe200
0x4b4b7812 0x80000000 0x078e3cff 0x000fc600
0x00007388 0x001c00ff 0x00004800 0x000fe200
0x4e4e7812 0x80000000 0x078e3cff 0x002fc600
0x00007388 0x002000ff 0x00004800 0x000fe800
0x00007388 0x002400ff 0x00004800 0x000fe800
0x00007388 0x002800ff 0x00004800 0x000fe800
0x00007388 0x002c00ff 0x00004800 0x000fe800
0x00007388 0x003000ff 0x00004800 0x000fe800
0x00007388 0x003400ff 0x00004800 0x000fe800
0x00007388 0x003800ff 0x00004800 0x000fe800
0x00007388 0x003c00ff 0x00004800 0x000fe800
0x00007388 0x004000ff 0x00004800 0x000fe800
0x00007388 0x004400ff 0x00004800 0x000fe800
0x00007388 0x004800ff 0x00004800 0x000fe800
0x00007388 0x004c00ff 0x00004800 0x000fe800
0x00007388 0x005000ff 0x00004800 0x000fe800
0x00007388 0x005400ff 0x00004800 0x000fe800
0x00007388 0x005800ff 0x00004800 0x000fe800
0x00007388 0x005c00ff 0x00004800 0x000fe800
0x00007388 0x006000ff 0x00004800 0x000fe800
0x00007388 0x006400ff 0x00004800 0x000fe800
0x00007388 0x006800ff 0x00004800 0x000fe800
0x00007388 0x006c00ff 0x00004800 0x000fe800
0x00007388 0x007000ff 0x00004800 0x000fe800
0x00007388 0x007400ff 0x00004800 0x000fe800
0x00007388 0x007800ff 0x00004800 0x000fe800
0x00007388 0x007c00ff 0x00004800 0x000fe800
0x00007388 0x008000ff 0x00004800 0x000fe800
0x15147984 0x00000000 0x00001400 0x000e2400
0x14067810 0x00000001 0x07ffe0ff 0x001fd000
0x15007388 0x00000006 0x00000400 0x0001e800
0x17187984 0x00000000 0x00001400 0x000e6200
0xff067816 0x00000004 0x00000005 0x001fc800
0xff067219 0x00000006 0x00011611 0x000fc800
0x0606721a 0x00000007 0x00000000 0x000fca00
0x06077824 0x00000400 0x078e00ff 0x000fe200
0xff067819 0x00000004 0x00011606 0x000fc800
0x07077812 0x00007c00 0x078ec0ff 0x000fe400
0x061b7812 0x0ffffffe 0x078ec0ff 0x000fc800
0x1b1b7210 0x00000007 0x07ffe00c 0x000fe400
0xff077816 0x00000005 0x00000005 0x000fe400
0x18067810 0x00000001 0x07ffe0ff 0x002fd000
0x17007388 0x00000006 0x00000400 0x0001e800
0x1b197984 0x00000000 0x00001400 0x000e6200
0xff067816 0x00000004 0x00000005 0x001fc800
0xff067219 0x00000006 0x00011612 0x000fc800
0x0606721a 0x00000007 0x00000000 0x000fca00
0x06077824 0x00000400 0x078e00ff 0x000fe200
0xff067819 0x00000004 0x00011606 0x000fc800
0x07077812 0x00007c00 0x078ec0ff 0x000fe400
0x061e7812 0x0ffffffe 0x078ec0ff 0x000fc800
0x1e1e7210 0x00000007 0x07ffe00c 0x000fe400
0xff077816 0x00000005 0x00000005 0x000fe400
0x19067810 0x00000001 0x07ffe0ff 0x002fd000
0x1b007388 0x00000006 0x00000400 0x0001e800
0x1e1c7984 0x00000000 0x00001400 0x000e6200
0xff067816 0x00000004 0x00000005 0x001fc800
0xff067219 0x00000006 0x00011613 0x000fc800
0x0606721a 0x00000007 0x00000000 0x000fca00
0x06077824 0x00000400 0x078e00ff 0x000fe200
0xff067819 0x00000004 0x00011606 0x000fc800
0x07077812 0x00007c00 0x078ec0ff 0x000fe400
0x06217812 0x0ffffffe 0x078ec0ff 0x000fc800
0x21217210 0x00000007 0x07ffe00c 0x000fe400
0xff077816 0x00000005 0x00000005 0x000fe400
0x1c067810 0x00000001 0x07ffe0ff 0x002fd000
0x1e007388 0x00000006 0x00000400 0x0001e800
0x211f7984 0x00000000 0x00001400 0x000e6200
0xff067816 0x00000004 0x00000005 0x001fc800
0xff067219 0x00000006 0x00011616 0x000fc800
0x0606721a 0x00000007 0x00000000 0x000fca00
0x06077824 0x00000400 0x078e00ff 0x000fe200
0xff067819 0x00000004 0x00011606 0x000fc800
0x07077812 0x00007c00 0x078ec0ff 0x000fe400
0x06247812 0x0ffffffe 0x078ec0ff 0x000fc800
0x24247210 0x00000007 0x07ffe00c 0x000fe400
0xff077816 0x00000005 0x00000005 0x000fe400
0x1f067810 0x00000001 0x07ffe0ff 0x002fd000
0x21007388 0x00000006 0x00000400 0x0001e800
0x24227984 0x00000000 0x00001400 0x000e6200
0xff067816 0x00000004 0x00000005 0x001fc800
0xff067219 0x00000006 0x0001161a 0x000fc800
0x0606721a 0x00000007 0x00000000 0x000fca00
0x06077824 0x00000400 0x078e00ff 0x000fe200
0xff067819 0x00000004 0x00011606 0x000fc800
0x07077812 0x00007c00 0x078ec0ff 0x000fe400
0x06277812 0x0ffffffe 0x078ec0ff 0x000fc800
0x27277210 0x00000007 0x07ffe00c 0x000fe400
0xff077816 0x00000005 0x00000005 0x000fe400
0x22067810 0x00000001 0x07ffe0ff 0x002fd000
0x24007388 0x00000006 0x00000400 0x0001e800
0x27257984 0x00000000 0x00001400 0x000e6200
0xff067816 0x00000004 0x00000005 0x001fc800
0xff067219 0x00000006 0x0001161d 0x000fc800
0x0606721a 0x00000007 0x00000000 0x000fca00
0x06077824 0x00000400 0x078e00ff 0x000fe200
0xff067819 0x00000004 0x00011606 0x000fc800
0x07077812 0x00007c00 0x078ec0ff 0x000fe400
0x062a7812 0x0ffffffe 0x078ec0ff 0x000fc800
0x2a2a7210 0x00000007 0x07ffe00c 0x000fe400
0xff077816 0x00000005 0x00000005 0x000fe400
0x25067810 0x00000001 0x07ffe0ff 0x002fd000
0x27007388 0x00000006 0x00000400 0x0001e800
0x2a287984 0x00000000 0x00001400 0x000e6200
0xff067816 0x00000004 0x00000005 0x001fc800
0xff067219 0x00000006 0x00011620 0x000fc800
0x0606721a 0x00000007 0x00000000 0x000fca00
0x06077824 0x00000400 0x078e00ff 0x000fe200
0xff067819 0x00000004 0x00011606 0x000fc800
0x07077812 0x00007c00 0x078ec0ff 0x000fe400
0x062e7812 0x0ffffffe 0x078ec0ff 0x000fc800
0x2e2e7210 0x00000007 0x07ffe00c 0x000fe400
0xff077816 0x00000005 0x00000005 0x000fe400
0x28067810 0x00000001 0x07ffe0ff 0x002fd000
0x2a007388 0x00000006 0x00000400 0x0001e800
0x2e2b7984 0x00000000 0x00001400 0x000e6200
0xff067816 0x00000004 0x00000005 0x001fc800
0xff067219 0x00000006 0x00011623 0x000fc800
0x0606721a 0x00000007 0x00000000 0x000fca00
0x06077824 0x00000400 0x078e00ff 0x000fe200
0xff067819 0x00000004 0x00011606 0x000fc800
0x07077812 0x00007c00 0x078ec0ff 0x000fe400
0x06317812 0x0ffffffe 0x078ec0ff 0x000fc800
0x31317210 0x00000007 0x07ffe00c 0x000fe400
0xff077816 0x00000005 0x00000005 0x000fe400
0x2b067810 0x00000001 0x07ffe0ff 0x002fd000
0x2e007388 0x00000006 0x00000400 0x0001e800
0x312c7984 0x00000000 0x00001400 0x000e6200
0xff067816 0x00000004 0x00000005 0x001fc800
0xff067219 0x00000006 0x00011626 0x000fc800
0x0606721a 0x00000007 0x00000000 0x000fca00
0x06077824 0x00000400 0x078e00ff 0x000fe200
0xff067819 0x00000004 0x00011606 0x000fc800
0x07077812 0x00007c00 0x078ec0ff 0x000fe400
0x06347812 0x0ffffffe 0x078ec0ff 0x000fc800
0x34347210 0x00000007 0x07ffe00c 0x000fe400
0xff077816 0x00000005 0x00000005 0x000fe400
0x2c067810 0x00000001 0x07ffe0ff 0x002fd000
0x31007388 0x00000006 0x00000400 0x0001e800
0x342f7984 0x00000000 0x00001400 0x000e6200
0xff067816 0x00000004 0x00000005 0x001fc800
0xff067219 0x00000006 0x00011629 0x000fc800
0x0606721a 0x00000007 0x00000000 0x000fca00
0x06077824 0x00000400 0x078e00ff 0x000fe200
0xff067819 0x00000004 0x00011606 0x000fc800
0x07077812 0x00007c00 0x078ec0ff 0x000fe400
0x06377812 0x0ffffffe 0x078ec0ff 0x000fc800
0x37377210 0x00000007 0x07ffe00c 0x000fe400
0xff077816 0x00000005 0x00000005 0x000fe400
0x2f067810 0x00000001 0x07ffe0ff 0x002fd000
0x34007388 0x00000006 0x00000400 0x0001e800
0x37327984 0x00000000 0x00001400 0x000e6200
0xff067816 0x00000004 0x00000005 0x001fc800
0xff067219 0x00000006 0x0001162d 0x000fc800
0x0606721a 0x00000007 0x00000000 0x000fca00
0x06077824 0x00000400 0x078e00ff 0x000fe200
0xff067819 0x00000004 0x00011606 0x000fc800
0x07077812 0x00007c00 0x078ec0ff 0x000fe400
0x063b7812 0x0ffffffe 0x078ec0ff 0x000fc800
0x3b3b7210 0x00000007 0x07ffe00c 0x000fe400
0xff077816 0x00000005 0x00000005 0x000fe400
0x32067810 0x00000001 0x07ffe0ff 0x002fd000
0x37007388 0x00000006 0x00000400 0x0001e800
0x3b357984 0x00000000 0x00001400 0x000e6200
0xff067816 0x00000004 0x00000005 0x001fc800
0xff067219 0x00000006 0x00011630 0x000fc800
0x0606721a 0x00000007 0x00000000 0x000fca00
0x06077824 0x00000400 0x078e00ff 0x000fe200
0xff067819 0x00000004 0x00011606 0x000fc800
0x07077812 0x00007c00 0x078ec0ff 0x000fe400
0x063f7812 0x0ffffffe 0x078ec0ff 0x000fc800
0x3f3f7210 0x00000007 0x07ffe00c 0x000fe400
0xff077816 0x00000005 0x00000005 0x000fe400
0x35067810 0x00000001 0x07ffe0ff 0x002fd000
0x3b007388 0x00000006 0x00000400 0x0001e800
0x3f387984 0x00000000 0x00001400 0x000e6200
0xff067816 0x00000004 0x00000005 0x001fc800
0xff067219 0x00000006 0x00011633 0x000fc800
0x0606721a 0x00000007 0x00000000 0x000fca00
0x06077824 0x00000400 0x078e00ff 0x000fe200
0xff067819 0x00000004 0x00011606 0x000fc800
0x07077812 0x00007c00 0x078ec0ff 0x000fe400
0x06437812 0x0ffffffe 0x078ec0ff 0x000fc800
0x43437210 0x00000007 0x07ffe00c 0x000fe400
0xff077816 0x00000005 0x00000005 0x000fe400
0x38067810 0x00000001 0x07ffe0ff 0x002fd000
0x3f007388 0x00000006 0x00000400 0x0001e800
0x433d7984 0x00000000 0x00001400 0x000e6200
0xff067816 0x00000004 0x00000005 0x001fc800
0xff067219 0x00000006 0x00011636 0x000fc800
0x0606721a 0x00000007 0x00000000 0x000fca00
0x06077824 0x00000400 0x078e00ff 0x000fe200
0xff067819 0x00000004 0x00011606 0x000fc800
0x07077812 0x00007c00 0x078ec0ff 0x000fe400
0x06467812 0x0ffffffe 0x078ec0ff 0x000fc800
0x46467210 0x00000007 0x07ffe00c 0x000fe400
0xff077816 0x00000005 0x00000005 0x000fe400
0x3d067810 0x00000001 0x07ffe0ff 0x002fd000
0x43007388 0x00000006 0x00000400 0x0001e800
0x46407984 0x00000000 0x00001400 0x000e6200
0xff067816 0x00000004 0x00000005 0x001fc800
0xff067219 0x00000006 0x00011639 0x000fc800
0x0606721a 0x00000007 0x00000000 0x000fca00
0x06077824 0x00000400 0x078e00ff 0x000fe200
0xff067819 0x00000004 0x00011606 0x000fc800
0x07077812 0x00007c00 0x078ec0ff 0x000fe400
0x06497812 0x0ffffffe 0x078ec0ff 0x000fc800
0x49497210 0x00000007 0x07ffe00c 0x000fe400
0xff077816 0x00000005 0x00000005 0x000fe400
0x40067810 0x00000001 0x07ffe0ff 0x002fd000
0x46007388 0x00000006 0x00000400 0x0001e800
0x49427984 0x00000000 0x00001400 0x000e6200
0xff067816 0x00000004 0x00000005 0x001fc800
0xff067219 0x00000006 0x0001163e 0x000fc800
0x0606721a 0x00000007 0x00000000 0x000fca00
0x06077824 0x00000400 0x078e00ff 0x000fe200
0xff067819 0x00000004 0x00011606 0x000fc800
0x07077812 0x00007c00 0x078ec0ff 0x000fe400
0x064c7812 0x0ffffffe 0x078ec0ff 0x000fc800
0x4c4c7210 0x00000007 0x07ffe00c 0x000fe400
0xff077816 0x00000005 0x00000005 0x000fe400
0x42067810 0x00000001 0x07ffe0ff 0x002fd000
0x49007388 0x00000006 0x00000400 0x0001e800
0x4c447984 0x00000000 0x00001400 0x000e6200
0xff067816 0x00000004 0x00000005 0x001fc800
0xff067219 0x00000006 0x00011641 0x000fc800
0x0606721a 0x00000007 0x00000000 0x000fca00
0x06077824 0x00000400 0x078e00ff 0x000fe200
0xff067819 0x00000004 0x00011606 0x000fc800
0x07077812 0x00007c00 0x078ec0ff 0x000fe400
0x064f7812 0x0ffffffe 0x078ec0ff 0x000fc800
0x4f4f7210 0x00000007 0x07ffe00c 0x000fe400
0xff077816 0x00000005 0x00000005 0x000fe400
0x44067810 0x00000001 0x07ffe0ff 0x002fd000
0x4c007388 0x00000006 0x00000400 0x0001e800
0x4f477984 0x00000000 0x00001400 0x000e6200
0xff067816 0x00000004 0x00000005 0x001fc800
0xff067219 0x00000006 0x00011645 0x000fc800
0x0606721a 0x00000007 0x00000000 0x000fca00
0x06077824 0x00000400 0x078e00ff 0x000fe200
0xff067819 0x00000004 0x00011606 0x000fc800
0x07077812 0x00007c00 0x078ec0ff 0x000fe400
0x06527812 0x0ffffffe 0x078ec0ff 0x000fc800
0x52527210 0x00000007 0x07ffe00c 0x000fe400
0xff077816 0x00000005 0x00000005 0x000fe400
0x47067810 0x00000001 0x07ffe0ff 0x002fd000
0x4f007388 0x00000006 0x00000400 0x0001e800
0x524a7984 0x00000000 0x00001400 0x000e6200
0xff067816 0x00000004 0x00000005 0x001fc800
0xff067219 0x00000006 0x00011648 0x000fc800
0x0606721a 0x00000007 0x00000000 0x000fca00
0x06077824 0x00000400 0x078e00ff 0x000fe200
0xff067819 0x00000004 0x00011606 0x000fc800
0x07077812 0x00007c00 0x078ec0ff 0x000fe400
0x06537812 0x0ffffffe 0x078ec0ff 0x000fc800
0x53537210 0x00000007 0x07ffe00c 0x000fe400
0xff077816 0x00000005 0x00000005 0x000fe400
0x4a067810 0x00000001 0x07ffe0ff 0x002fd000
0x52007388 0x00000006 0x00000400 0x0001e800
0x534d7984 0x00000000 0x00001400 0x000e6200
0xff067816 0x00000004 0x00000005 0x001fc800
0xff067219 0x00000006 0x0001164b 0x000fc800
0x0606721a 0x00000007 0x00000000 0x000fca00
0x06077824 0x00000400 0x078e00ff 0x000fe200
0xff067819 0x00000004 0x00011606 0x000fc800
0x07077812 0x00007c00 0x078ec0ff 0x000fe400
0x06547812 0x0ffffffe 0x078ec0ff 0x000fc800
0x54547210 0x00000007 0x07ffe00c 0x000fe400
0x4d067810 0x00000001 0x07ffe0ff 0x002fd000
0x53007388 0x00000006 0x00000400 0x0001e800
0x54507984 0x00000000 0x00001400 0x000e6200
0xff067816 0x00000004 0x00000005 0x101fe400
0xff057816 0x00000005 0x00000005 0x000fe400
0xff067219 0x00000006 0x0001164e 0x000fc800
0x0605721a 0x00000005 0x00000000 0x000fca00
0x05067824 0x00000400 0x078e00ff 0x000fe200
0xff057819 0x00000004 0x00011605 0x000fc800
0x06067812 0x00007c00 0x078ec0ff 0x000fe400
0x05077812 0x0ffffffe 0x078ec0ff 0x000fc800
0x07557210 0x00000006 0x07ffe00c 0x000fe400
0x50057810 0x00000001 0x07ffe0ff 0x002fd000
0x54007388 0x00000005 0x00000400 0x000fe800
0x55517984 0x00000000 0x00001400 0x000e2400
0x51057810 0x00000001 0x07ffe0ff 0x001fd000
0x55007388 0x00000005 0x00000400 0x000fe800
0x00007b1d 0x00000000 0x00000000 0x000fea00
0x56577984 0x00000400 0x00001800 0x000fe800
0x56587984 0x00000000 0x00001800 0x000fe800
0x56597984 0x00000800 0x00001800 0x000e2800
0x565a7984 0x00000c00 0x00001800 0x000fe800
0x565b7984 0x00001000 0x00001800 0x000e6800
0x565c7984 0x00001400 0x00001800 0x000fe800
0x565d7984 0x00001800 0x00001800 0x000ea800
0x565e7984 0x00001c00 0x00001800 0x000fe800
0x565f7984 0x00002000 0x00001800 0x000ee800
0x56607984 0x00002400 0x00001800 0x000fe800
0x56627984 0x00002800 0x00001800 0x000f2800
0x56637984 0x00002c00 0x00001800 0x000fe800
0x56647984 0x00003000 0x00001800 0x000f2200
0x59057210 0x00000057 0x07ffe058 0x001fc600
0x56657984 0x00003400 0x00001800 0x000fe800
0x56667984 0x00003800 0x00001800 0x000e2200
0x5b057210 0x0000005a 0x07ffe005 0x002fc600
0x56677984 0x00003c00 0x00001800 0x000fe800
0x56687984 0x00004000 0x00001800 0x000e6200
0x5d057210 0x0000005c 0x07ffe005 0x004fc600
0x56697984 0x00004400 0x00001800 0x000fe800
0x566a7984 0x00004800 0x00001800 0x000ea200
0x5f057210 0x0000005e 0x07ffe005 0x008fc600
0x566b7984 0x00004c00 0x00001800 0x000fe800
0x566c7984 0x00005000 0x00001800 0x000ee200
0x62057210 0x00000060 0x07ffe005 0x010fc600
0x566d7984 0x00005400 0x00001800 0x000fe800
0x566e7984 0x00005800 0x00001800 0x000f2200
0x64057210 0x00000063 0x07ffe005 0x000fc600
0x566f7984 0x00005c00 0x00001800 0x000fe800
0x56707984 0x00006000 0x00001800 0x000f2200
0x66057210 0x00000065 0x07ffe005 0x001fc600
0x56717984 0x00006400 0x00001800 0x000fe800
0x56727984 0x00006800 0x00001800 0x000e2200
0x68057210 0x00000067 0x07ffe005 0x002fc600
0x56737984 0x00006c00 0x00001800 0x000fe800
0x56747984 0x00007000 0x00001800 0x000e6200
0x6a057210 0x00000069 0x07ffe005 0x004fc600
0x56757984 0x00007400 0x00001800 0x000fe800
0x56767984 0x00007800 0x00001800 0x000ea200
0x6c057210 0x0000006b 0x07ffe005 0x008fc600
0x56777984 0x00007c00 0x00001800 0x000fe800
0x56067984 0x00008000 0x00001800 0x000ee200
0x6e057210 0x0000006d 0x07ffe005 0x010fc800
0x70057210 0x0000006f 0x07ffe005 0x000fc800
0x72057210 0x00000071 0x07ffe005 0x001fc800
0x74057210 0x00000073 0x07ffe005 0x002fc800
0x76057210 0x00000075 0x07ffe005 0x004fc800
0x06787210 0x00000077 0x07ffe005 0x008fe200
0x00007947 0x000079d2 0x03800000 0x000fee00
0x78047989 0x04200000 0x000000ff 0x000e2400
0x78040824 0x00000001 0x078e0204 0x001fd000
0x04057989 0x04400000 0x000000ff 0x000e2400
0x04050824 0x00000001 0x078e0205 0x001fd000
0x05047989 0x04800000 0x000000ff 0x000e2400
0x05040824 0x00000001 0x078e0204 0x001fd000
0x04057989 0x05000000 0x000000ff 0x000e2400
0x04050824 0x00000001 0x078e0205 0x001fc800
0xff087224 0x000000ff 0x078e0005 0x000fc800
0x05067989 0x06000000 0x000000ff 0x00006800
0x6100780c 0x0000001f 0x03f45270 0x000fe200
0xff7b7224 0x000000ff 0x078e0006 0x002fe200
0xff797819 0x00000005 0x00011600 0x000fe200
0x00ff7355 0x00000000 0x00100000 0x000fe200
0x00007945 0x00000260 0x03800000 0x000fe200
0x7b7b0824 0x00000001 0x078e0208 0x000fe200
0x7900780c 0x00000002 0x03f05270 0x040fe400
0x7900720c 0x000000ff 0x03f65270 0x000fe200
0x7b787824 0x00000001 0x078e0a78 0x000fc600
0xff04a819 0x00000003 0x00011600 0x000fc800
0x0404a812 0x1ffffffc 0x078ec0ff 0x000fd000
0x0400a388 0x0084007b 0x00000800 0x000fe800
0x00007b1d 0x00000000 0x00000000 0x000fea00
0xff047984 0x00840000 0x00001c00 0x001e2200
0x7900780c 0x00000005 0x03f45270 0x000fce00
0xff087984 0x00841000 0x00001c00 0x000e6200
0x04057824 0x00000001 0x078e0205 0x001fc800
0x05067824 0x00000001 0x078e0206 0x040fe200
0x05047207 0x00000004 0x04000000 0x000fe400
0x7900780c 0x00000003 0x03f05270 0x000fe200
0x07077824 0x00000001 0x078e0206 0x000fc600
0x06047207 0x00000004 0x04000000 0x000fe200
0x07087824 0x00000001 0x078e0208 0x002fe200
0x7900780c 0x00000004 0x03f05270 0x000fc600
0x08097824 0x00000001 0x078e0209 0x040fe200
0x07047207 0x00000004 0x04000000 0x000fe400
0x7900780c 0x00000006 0x03f05270 0x000fe200
0x090a7824 0x00000001 0x078e020a 0x000fe200
0x08047207 0x00000004 0x05000000 0x000fe400
0x6100720c 0x000000ff 0x03f45270 0x000fe200
0x0a0b7824 0x00000001 0x078e020b 0x000fe200
0x09047207 0x00000004 0x04000000 0x000fe400
0x7900780c 0x00000007 0x03f05270 0x000fc400
0x78057207 0x000000ff 0x01000000 0x000fe400
0x0a047207 0x00000004 0x04000000 0x000fca00
0x04047824 0x00000001 0x078e0205 0x000fe200
0x00003947 0x00000050 0x03800000 0x000fea00
0x6100720c 0x000000ff 0x03f05270 0x000fe200
0x0b0b7824 0x00010000 0x078e00ff 0x000fe400
0xff047224 0x000000ff 0x078e0078 0x000fd200
0xff008388 0x0084280b 0x00000800 0x0001e200
0xff048224 0x000000ff 0x078e000b 0x000fc600
0x00007941 0x00000000 0x03800000 0x000fea00
0x00007b1d 0x00000000 0x00000000 0x000fea00
0x0000720c 0x000000ff 0x03f05270 0x040fe200
0x00069824 0x00000400 0x078e00ff 0x000fca00
0x06069812 0x00007c00 0x078ec0ff 0x000fcc00
0xff050984 0x00842800 0x00001800 0x000e6400
0x04040824 0x00000001 0x078e0205 0x002fe200
0xff059819 0x00000005 0x00011400 0x000fe400
0x0000780c 0x0000003e 0x03f04270 0x000fe200
0x58587824 0x00000001 0x078e0204 0x000fe400
0x05789824 0x00000002 0x078e0206 0x000fe400
0x57577824 0x00000001 0x078e0258 0x000fe200
0x56007388 0x00000004 0x00000800 0x000fe600
0x59597824 0x00000001 0x078e0257 0x000fe200
0x56007388 0x00000458 0x00000800 0x000fe600
0x5a5a7824 0x00000001 0x078e0259 0x000fe200
0x56007388 0x00000857 0x00000800 0x000fe600
0x5b5b7824 0x00000001 0x078e025a 0x000fe200
0x56007388 0x00000c59 0x00000800 0x000fe600
0x5c5c7824 0x00000001 0x078e025b 0x000fe200
0x56007388 0x0000105a 0x00000800 0x000fe600
0x5d5d7824 0x00000001 0x078e025c 0x000fe200
0x56007388 0x0000145b 0x00000800 0x000fe600
0x5e5e7824 0x00000001 0x078e025d 0x000fe200
0x56007388 0x0000185c 0x00000800 0x000fe600
0x5f5f7824 0x00000001 0x078e025e 0x000fe200
0x56007388 0x00001c5d 0x00000800 0x000fe600
